ARM GAS  C:\Users\ASUS\AppData\Local\Temp\cc3kWfch.s 			page 1


   1              		.syntax unified
   2              		.cpu cortex-m0plus
   3              		.fpu softvfp
   4              		.eabi_attribute 20, 1
   5              		.eabi_attribute 21, 1
   6              		.eabi_attribute 23, 3
   7              		.eabi_attribute 24, 1
   8              		.eabi_attribute 25, 1
   9              		.eabi_attribute 26, 1
  10              		.eabi_attribute 30, 1
  11              		.eabi_attribute 34, 0
  12              		.eabi_attribute 18, 4
  13              		.thumb
  14              		.syntax unified
  15              		.file	"capsense_ADC_Structure.c"
  16              		.text
  17              	.Ltext0:
  18              		.cfi_sections	.debug_frame
  19              		.section	.text.DsParseParamId,"ax",%progbits
  20              		.align	2
  21              		.code	16
  22              		.thumb_func
  23              		.type	DsParseParamId, %function
  24              	DsParseParamId:
  25              	.LFB3:
  26              		.file 1 "Generated_Source\\PSoC4\\capsense_ADC_Structure.c"
   1:Generated_Source\PSoC4/capsense_ADC_Structure.c **** /***************************************************************************//**
   2:Generated_Source\PSoC4/capsense_ADC_Structure.c **** * \file capsense_ADC_Structure.c
   3:Generated_Source\PSoC4/capsense_ADC_Structure.c **** * \version 7.10
   4:Generated_Source\PSoC4/capsense_ADC_Structure.c **** *
   5:Generated_Source\PSoC4/capsense_ADC_Structure.c **** * \brief
   6:Generated_Source\PSoC4/capsense_ADC_Structure.c **** *   This file defines the data structure global variables and provides implementation
   7:Generated_Source\PSoC4/capsense_ADC_Structure.c **** *   for the high-level and low-level APIs of the Data Structure module.
   8:Generated_Source\PSoC4/capsense_ADC_Structure.c **** *
   9:Generated_Source\PSoC4/capsense_ADC_Structure.c **** * \see capsense_ADC v7.10 Datasheet
  10:Generated_Source\PSoC4/capsense_ADC_Structure.c **** *
  11:Generated_Source\PSoC4/capsense_ADC_Structure.c **** *//*****************************************************************************
  12:Generated_Source\PSoC4/capsense_ADC_Structure.c **** * Copyright (2016-2019), Cypress Semiconductor Corporation.
  13:Generated_Source\PSoC4/capsense_ADC_Structure.c **** ********************************************************************************
  14:Generated_Source\PSoC4/capsense_ADC_Structure.c **** * This software is owned by Cypress Semiconductor Corporation (Cypress) and is
  15:Generated_Source\PSoC4/capsense_ADC_Structure.c **** * protected by and subject to worldwide patent protection (United States and
  16:Generated_Source\PSoC4/capsense_ADC_Structure.c **** * foreign), United States copyright laws and international treaty provisions.
  17:Generated_Source\PSoC4/capsense_ADC_Structure.c **** * Cypress hereby grants to licensee a personal, non-exclusive, non-transferable
  18:Generated_Source\PSoC4/capsense_ADC_Structure.c **** * license to copy, use, modify, create derivative works of, and compile the
  19:Generated_Source\PSoC4/capsense_ADC_Structure.c **** * Cypress Source Code and derivative works for the sole purpose of creating
  20:Generated_Source\PSoC4/capsense_ADC_Structure.c **** * custom software in support of licensee product to be used only in conjunction
  21:Generated_Source\PSoC4/capsense_ADC_Structure.c **** * with a Cypress integrated circuit as specified in the applicable agreement.
  22:Generated_Source\PSoC4/capsense_ADC_Structure.c **** * Any reproduction, modification, translation, compilation, or representation of
  23:Generated_Source\PSoC4/capsense_ADC_Structure.c **** * this software except as specified above is prohibited without the express
  24:Generated_Source\PSoC4/capsense_ADC_Structure.c **** * written permission of Cypress.
  25:Generated_Source\PSoC4/capsense_ADC_Structure.c **** *
  26:Generated_Source\PSoC4/capsense_ADC_Structure.c **** * Disclaimer: CYPRESS MAKES NO WARRANTY OF ANY KIND, EXPRESS OR IMPLIED, WITH
  27:Generated_Source\PSoC4/capsense_ADC_Structure.c **** * REGARD TO THIS MATERIAL, INCLUDING, BUT NOT LIMITED TO, THE IMPLIED
  28:Generated_Source\PSoC4/capsense_ADC_Structure.c **** * WARRANTIES OF MERCHANTABILITY AND FITNESS FOR A PARTICULAR PURPOSE.
  29:Generated_Source\PSoC4/capsense_ADC_Structure.c **** * Cypress reserves the right to make changes without further notice to the
  30:Generated_Source\PSoC4/capsense_ADC_Structure.c **** * materials described herein. Cypress does not assume any liability arising out
  31:Generated_Source\PSoC4/capsense_ADC_Structure.c **** * of the application or use of any product or circuit described herein. Cypress
ARM GAS  C:\Users\ASUS\AppData\Local\Temp\cc3kWfch.s 			page 2


  32:Generated_Source\PSoC4/capsense_ADC_Structure.c **** * does not authorize its products for use as critical components in life-support
  33:Generated_Source\PSoC4/capsense_ADC_Structure.c **** * systems where a malfunction or failure may reasonably be expected to result in
  34:Generated_Source\PSoC4/capsense_ADC_Structure.c **** * significant injury to the user. The inclusion of Cypress' product in a life-
  35:Generated_Source\PSoC4/capsense_ADC_Structure.c **** * support systems application implies that the manufacturer assumes all risk of
  36:Generated_Source\PSoC4/capsense_ADC_Structure.c **** * such use and in doing so indemnifies Cypress against all charges. Use may be
  37:Generated_Source\PSoC4/capsense_ADC_Structure.c **** * limited by and subject to the applicable Cypress software license agreement.
  38:Generated_Source\PSoC4/capsense_ADC_Structure.c **** *******************************************************************************/
  39:Generated_Source\PSoC4/capsense_ADC_Structure.c **** 
  40:Generated_Source\PSoC4/capsense_ADC_Structure.c **** #include <cytypes.h>
  41:Generated_Source\PSoC4/capsense_ADC_Structure.c **** #include "CyLib.h"
  42:Generated_Source\PSoC4/capsense_ADC_Structure.c **** #include "capsense_ADC_Structure.h"
  43:Generated_Source\PSoC4/capsense_ADC_Structure.c **** #include "capsense_ADC_Configuration.h"
  44:Generated_Source\PSoC4/capsense_ADC_Structure.c **** 
  45:Generated_Source\PSoC4/capsense_ADC_Structure.c **** #if (0u != capsense_ADC_ADC_EN)
  46:Generated_Source\PSoC4/capsense_ADC_Structure.c ****     #include "capsense_ADC_Adc.h"
  47:Generated_Source\PSoC4/capsense_ADC_Structure.c **** #endif /* (0u != capsense_ADC_ADC_EN) */
  48:Generated_Source\PSoC4/capsense_ADC_Structure.c **** 
  49:Generated_Source\PSoC4/capsense_ADC_Structure.c **** #if (capsense_ADC_ENABLE == capsense_ADC_SELF_TEST_EN)
  50:Generated_Source\PSoC4/capsense_ADC_Structure.c ****     #include "capsense_ADC_SelfTest.h"
  51:Generated_Source\PSoC4/capsense_ADC_Structure.c **** #endif
  52:Generated_Source\PSoC4/capsense_ADC_Structure.c **** 
  53:Generated_Source\PSoC4/capsense_ADC_Structure.c **** #if (capsense_ADC_ENABLE == capsense_ADC_CENTROID_5X5_CSD_EN)
  54:Generated_Source\PSoC4/capsense_ADC_Structure.c ****     #include "capsense_ADC_AdvancedCentroid_LL.h"
  55:Generated_Source\PSoC4/capsense_ADC_Structure.c **** #endif
  56:Generated_Source\PSoC4/capsense_ADC_Structure.c **** 
  57:Generated_Source\PSoC4/capsense_ADC_Structure.c **** #if (capsense_ADC_ENABLE == capsense_ADC_GES_GLOBAL_EN)
  58:Generated_Source\PSoC4/capsense_ADC_Structure.c ****     #include "capsense_ADC_Gesture.h"
  59:Generated_Source\PSoC4/capsense_ADC_Structure.c **** #endif /* (capsense_ADC_ENABLE == capsense_ADC_GES_GLOBAL_EN) */
  60:Generated_Source\PSoC4/capsense_ADC_Structure.c **** 
  61:Generated_Source\PSoC4/capsense_ADC_Structure.c **** /*******************************************************************************
  62:Generated_Source\PSoC4/capsense_ADC_Structure.c **** * Defines the RAM Data Structure variables and their init data in flash
  63:Generated_Source\PSoC4/capsense_ADC_Structure.c **** *******************************************************************************/
  64:Generated_Source\PSoC4/capsense_ADC_Structure.c **** /**
  65:Generated_Source\PSoC4/capsense_ADC_Structure.c **** * \cond SECTION_GLOBAL_VARIABLES
  66:Generated_Source\PSoC4/capsense_ADC_Structure.c **** * \addtogroup group_global_variables
  67:Generated_Source\PSoC4/capsense_ADC_Structure.c **** * \{
  68:Generated_Source\PSoC4/capsense_ADC_Structure.c **** */
  69:Generated_Source\PSoC4/capsense_ADC_Structure.c **** 
  70:Generated_Source\PSoC4/capsense_ADC_Structure.c **** /**
  71:Generated_Source\PSoC4/capsense_ADC_Structure.c **** * The variable that contains the capsense_ADC configuration, settings and
  72:Generated_Source\PSoC4/capsense_ADC_Structure.c **** * scanning results. capsense_ADC_dsRam represents RAM Data Structure.
  73:Generated_Source\PSoC4/capsense_ADC_Structure.c **** */
  74:Generated_Source\PSoC4/capsense_ADC_Structure.c **** capsense_ADC_RAM_STRUCT capsense_ADC_dsRam;
  75:Generated_Source\PSoC4/capsense_ADC_Structure.c **** /** \}
  76:Generated_Source\PSoC4/capsense_ADC_Structure.c **** * \endcond */
  77:Generated_Source\PSoC4/capsense_ADC_Structure.c **** 
  78:Generated_Source\PSoC4/capsense_ADC_Structure.c **** /*******************************************************************************
  79:Generated_Source\PSoC4/capsense_ADC_Structure.c **** * Declares Widget's De-bounce Counters
  80:Generated_Source\PSoC4/capsense_ADC_Structure.c **** *******************************************************************************/
  81:Generated_Source\PSoC4/capsense_ADC_Structure.c **** static uint8 capsense_ADC_debounceBTN2[capsense_ADC_BTN2_NUM_SENSORS];
  82:Generated_Source\PSoC4/capsense_ADC_Structure.c **** static uint8 capsense_ADC_debounceBTN1[capsense_ADC_BTN1_NUM_SENSORS];
  83:Generated_Source\PSoC4/capsense_ADC_Structure.c **** static uint8 capsense_ADC_debounceBTN0[capsense_ADC_BTN0_NUM_SENSORS];
  84:Generated_Source\PSoC4/capsense_ADC_Structure.c **** static uint8 capsense_ADC_debounceLinearSlider0[1u];
  85:Generated_Source\PSoC4/capsense_ADC_Structure.c **** 
  86:Generated_Source\PSoC4/capsense_ADC_Structure.c **** 
  87:Generated_Source\PSoC4/capsense_ADC_Structure.c **** /***************************************************************************//**
  88:Generated_Source\PSoC4/capsense_ADC_Structure.c **** * Declares Noise Envelope data structures
ARM GAS  C:\Users\ASUS\AppData\Local\Temp\cc3kWfch.s 			page 3


  89:Generated_Source\PSoC4/capsense_ADC_Structure.c **** *******************************************************************************/
  90:Generated_Source\PSoC4/capsense_ADC_Structure.c **** static SMARTSENSE_CSD_NOISE_ENVELOPE_STRUCT capsense_ADC_noiseEnvlpBTN2[capsense_ADC_BTN2_NUM_SENSO
  91:Generated_Source\PSoC4/capsense_ADC_Structure.c **** static SMARTSENSE_CSD_NOISE_ENVELOPE_STRUCT capsense_ADC_noiseEnvlpBTN1[capsense_ADC_BTN1_NUM_SENSO
  92:Generated_Source\PSoC4/capsense_ADC_Structure.c **** static SMARTSENSE_CSD_NOISE_ENVELOPE_STRUCT capsense_ADC_noiseEnvlpBTN0[capsense_ADC_BTN0_NUM_SENSO
  93:Generated_Source\PSoC4/capsense_ADC_Structure.c **** static SMARTSENSE_CSD_NOISE_ENVELOPE_STRUCT capsense_ADC_noiseEnvlpLinearSlider0[capsense_ADC_LINEA
  94:Generated_Source\PSoC4/capsense_ADC_Structure.c **** 
  95:Generated_Source\PSoC4/capsense_ADC_Structure.c **** /*******************************************************************************
  96:Generated_Source\PSoC4/capsense_ADC_Structure.c **** * Defines and initializes the Flash Data Structure
  97:Generated_Source\PSoC4/capsense_ADC_Structure.c **** *******************************************************************************/
  98:Generated_Source\PSoC4/capsense_ADC_Structure.c **** 
  99:Generated_Source\PSoC4/capsense_ADC_Structure.c **** 
 100:Generated_Source\PSoC4/capsense_ADC_Structure.c **** 
 101:Generated_Source\PSoC4/capsense_ADC_Structure.c **** /**
 102:Generated_Source\PSoC4/capsense_ADC_Structure.c **** * \cond SECTION_API_CONSTANTS
 103:Generated_Source\PSoC4/capsense_ADC_Structure.c **** * \addtogroup group_api_constants
 104:Generated_Source\PSoC4/capsense_ADC_Structure.c **** * \{
 105:Generated_Source\PSoC4/capsense_ADC_Structure.c **** */
 106:Generated_Source\PSoC4/capsense_ADC_Structure.c **** /**
 107:Generated_Source\PSoC4/capsense_ADC_Structure.c **** * Constant for the FLASH Data Structure
 108:Generated_Source\PSoC4/capsense_ADC_Structure.c **** */
 109:Generated_Source\PSoC4/capsense_ADC_Structure.c **** const capsense_ADC_FLASH_STRUCT capsense_ADC_dsFlash =
 110:Generated_Source\PSoC4/capsense_ADC_Structure.c **** {
 111:Generated_Source\PSoC4/capsense_ADC_Structure.c ****     /* Flash Widget Initialization Data */
 112:Generated_Source\PSoC4/capsense_ADC_Structure.c ****     {
 113:Generated_Source\PSoC4/capsense_ADC_Structure.c ****         { /* BTN2 */
 114:Generated_Source\PSoC4/capsense_ADC_Structure.c ****             &capsense_ADC_ioList[0u],
 115:Generated_Source\PSoC4/capsense_ADC_Structure.c ****             (void *)&capsense_ADC_dsRam.wdgtList.btn2,
 116:Generated_Source\PSoC4/capsense_ADC_Structure.c ****             capsense_ADC_dsRam.snsList.btn2,
 117:Generated_Source\PSoC4/capsense_ADC_Structure.c ****             (void *)0u,
 118:Generated_Source\PSoC4/capsense_ADC_Structure.c ****             capsense_ADC_debounceBTN2,
 119:Generated_Source\PSoC4/capsense_ADC_Structure.c ****             capsense_ADC_BTN2_STATIC_CONFIG,
 120:Generated_Source\PSoC4/capsense_ADC_Structure.c ****             capsense_ADC_BTN2_NUM_SENSORS,
 121:Generated_Source\PSoC4/capsense_ADC_Structure.c ****             (uint8)capsense_ADC_WD_BUTTON_E,
 122:Generated_Source\PSoC4/capsense_ADC_Structure.c ****             capsense_ADC_BTN2_NUM_SENSORS,
 123:Generated_Source\PSoC4/capsense_ADC_Structure.c ****             0u,
 124:Generated_Source\PSoC4/capsense_ADC_Structure.c ****             0u,
 125:Generated_Source\PSoC4/capsense_ADC_Structure.c ****             capsense_ADC_noiseEnvlpBTN2,
 126:Generated_Source\PSoC4/capsense_ADC_Structure.c ****             0u,
 127:Generated_Source\PSoC4/capsense_ADC_Structure.c ****         },
 128:Generated_Source\PSoC4/capsense_ADC_Structure.c ****         { /* BTN1 */
 129:Generated_Source\PSoC4/capsense_ADC_Structure.c ****             &capsense_ADC_ioList[1u],
 130:Generated_Source\PSoC4/capsense_ADC_Structure.c ****             (void *)&capsense_ADC_dsRam.wdgtList.btn1,
 131:Generated_Source\PSoC4/capsense_ADC_Structure.c ****             capsense_ADC_dsRam.snsList.btn1,
 132:Generated_Source\PSoC4/capsense_ADC_Structure.c ****             (void *)0u,
 133:Generated_Source\PSoC4/capsense_ADC_Structure.c ****             capsense_ADC_debounceBTN1,
 134:Generated_Source\PSoC4/capsense_ADC_Structure.c ****             capsense_ADC_BTN1_STATIC_CONFIG,
 135:Generated_Source\PSoC4/capsense_ADC_Structure.c ****             capsense_ADC_BTN1_NUM_SENSORS,
 136:Generated_Source\PSoC4/capsense_ADC_Structure.c ****             (uint8)capsense_ADC_WD_BUTTON_E,
 137:Generated_Source\PSoC4/capsense_ADC_Structure.c ****             capsense_ADC_BTN1_NUM_SENSORS,
 138:Generated_Source\PSoC4/capsense_ADC_Structure.c ****             0u,
 139:Generated_Source\PSoC4/capsense_ADC_Structure.c ****             0u,
 140:Generated_Source\PSoC4/capsense_ADC_Structure.c ****             capsense_ADC_noiseEnvlpBTN1,
 141:Generated_Source\PSoC4/capsense_ADC_Structure.c ****             0u,
 142:Generated_Source\PSoC4/capsense_ADC_Structure.c ****         },
 143:Generated_Source\PSoC4/capsense_ADC_Structure.c ****         { /* BTN0 */
 144:Generated_Source\PSoC4/capsense_ADC_Structure.c ****             &capsense_ADC_ioList[2u],
 145:Generated_Source\PSoC4/capsense_ADC_Structure.c ****             (void *)&capsense_ADC_dsRam.wdgtList.btn0,
ARM GAS  C:\Users\ASUS\AppData\Local\Temp\cc3kWfch.s 			page 4


 146:Generated_Source\PSoC4/capsense_ADC_Structure.c ****             capsense_ADC_dsRam.snsList.btn0,
 147:Generated_Source\PSoC4/capsense_ADC_Structure.c ****             (void *)0u,
 148:Generated_Source\PSoC4/capsense_ADC_Structure.c ****             capsense_ADC_debounceBTN0,
 149:Generated_Source\PSoC4/capsense_ADC_Structure.c ****             capsense_ADC_BTN0_STATIC_CONFIG,
 150:Generated_Source\PSoC4/capsense_ADC_Structure.c ****             capsense_ADC_BTN0_NUM_SENSORS,
 151:Generated_Source\PSoC4/capsense_ADC_Structure.c ****             (uint8)capsense_ADC_WD_BUTTON_E,
 152:Generated_Source\PSoC4/capsense_ADC_Structure.c ****             capsense_ADC_BTN0_NUM_SENSORS,
 153:Generated_Source\PSoC4/capsense_ADC_Structure.c ****             0u,
 154:Generated_Source\PSoC4/capsense_ADC_Structure.c ****             0u,
 155:Generated_Source\PSoC4/capsense_ADC_Structure.c ****             capsense_ADC_noiseEnvlpBTN0,
 156:Generated_Source\PSoC4/capsense_ADC_Structure.c ****             0u,
 157:Generated_Source\PSoC4/capsense_ADC_Structure.c ****         },
 158:Generated_Source\PSoC4/capsense_ADC_Structure.c ****         { /* LinearSlider0 */
 159:Generated_Source\PSoC4/capsense_ADC_Structure.c ****             &capsense_ADC_ioList[3u],
 160:Generated_Source\PSoC4/capsense_ADC_Structure.c ****             (void *)&capsense_ADC_dsRam.wdgtList.linearslider0,
 161:Generated_Source\PSoC4/capsense_ADC_Structure.c ****             capsense_ADC_dsRam.snsList.linearslider0,
 162:Generated_Source\PSoC4/capsense_ADC_Structure.c ****             (void *)0u,
 163:Generated_Source\PSoC4/capsense_ADC_Structure.c ****             capsense_ADC_debounceLinearSlider0,
 164:Generated_Source\PSoC4/capsense_ADC_Structure.c ****             capsense_ADC_LINEARSLIDER0_STATIC_CONFIG,
 165:Generated_Source\PSoC4/capsense_ADC_Structure.c ****             capsense_ADC_LINEARSLIDER0_NUM_SENSORS,
 166:Generated_Source\PSoC4/capsense_ADC_Structure.c ****             (uint8)capsense_ADC_WD_LINEAR_SLIDER_E,
 167:Generated_Source\PSoC4/capsense_ADC_Structure.c ****             capsense_ADC_LINEARSLIDER0_NUM_SENSORS,
 168:Generated_Source\PSoC4/capsense_ADC_Structure.c ****             capsense_ADC_LINEARSLIDER0_X_RESOLUTION,
 169:Generated_Source\PSoC4/capsense_ADC_Structure.c ****             capsense_ADC_LINEARSLIDER0_X_CENT_MULT,
 170:Generated_Source\PSoC4/capsense_ADC_Structure.c ****             capsense_ADC_noiseEnvlpLinearSlider0,
 171:Generated_Source\PSoC4/capsense_ADC_Structure.c ****             capsense_ADC_LINEARSLIDER0_IIR_FILTER_COEFF,
 172:Generated_Source\PSoC4/capsense_ADC_Structure.c ****         },
 173:Generated_Source\PSoC4/capsense_ADC_Structure.c ****     },
 174:Generated_Source\PSoC4/capsense_ADC_Structure.c **** };
 175:Generated_Source\PSoC4/capsense_ADC_Structure.c **** 
 176:Generated_Source\PSoC4/capsense_ADC_Structure.c **** /**
 177:Generated_Source\PSoC4/capsense_ADC_Structure.c **** * The array of the pointers to the electrode specific register.
 178:Generated_Source\PSoC4/capsense_ADC_Structure.c **** */
 179:Generated_Source\PSoC4/capsense_ADC_Structure.c **** const capsense_ADC_FLASH_IO_STRUCT capsense_ADC_ioList[capsense_ADC_TOTAL_ELECTRODES] =
 180:Generated_Source\PSoC4/capsense_ADC_Structure.c **** {
 181:Generated_Source\PSoC4/capsense_ADC_Structure.c ****     { /* 0: BTN2_Sns0 */
 182:Generated_Source\PSoC4/capsense_ADC_Structure.c ****         (reg32 *)capsense_ADC_Sns__0__HSIOM,
 183:Generated_Source\PSoC4/capsense_ADC_Structure.c ****         (reg32 *)capsense_ADC_Sns__0__PC,
 184:Generated_Source\PSoC4/capsense_ADC_Structure.c ****         (reg32 *)capsense_ADC_Sns__0__DR,
 185:Generated_Source\PSoC4/capsense_ADC_Structure.c ****         (reg32 *)capsense_ADC_Sns__0__PS,
 186:Generated_Source\PSoC4/capsense_ADC_Structure.c ****         capsense_ADC_Sns__0__HSIOM_MASK,
 187:Generated_Source\PSoC4/capsense_ADC_Structure.c ****         capsense_ADC_Sns__0__MASK,
 188:Generated_Source\PSoC4/capsense_ADC_Structure.c ****         capsense_ADC_Sns__0__HSIOM_SHIFT,
 189:Generated_Source\PSoC4/capsense_ADC_Structure.c ****         (uint8)capsense_ADC_Sns__0__SHIFT,
 190:Generated_Source\PSoC4/capsense_ADC_Structure.c ****         (uint8)capsense_ADC_Sns__0__SHIFT * 3u,
 191:Generated_Source\PSoC4/capsense_ADC_Structure.c ****     },
 192:Generated_Source\PSoC4/capsense_ADC_Structure.c ****     { /* 1: BTN1_Sns0 */
 193:Generated_Source\PSoC4/capsense_ADC_Structure.c ****         (reg32 *)capsense_ADC_Sns__1__HSIOM,
 194:Generated_Source\PSoC4/capsense_ADC_Structure.c ****         (reg32 *)capsense_ADC_Sns__1__PC,
 195:Generated_Source\PSoC4/capsense_ADC_Structure.c ****         (reg32 *)capsense_ADC_Sns__1__DR,
 196:Generated_Source\PSoC4/capsense_ADC_Structure.c ****         (reg32 *)capsense_ADC_Sns__1__PS,
 197:Generated_Source\PSoC4/capsense_ADC_Structure.c ****         capsense_ADC_Sns__1__HSIOM_MASK,
 198:Generated_Source\PSoC4/capsense_ADC_Structure.c ****         capsense_ADC_Sns__1__MASK,
 199:Generated_Source\PSoC4/capsense_ADC_Structure.c ****         capsense_ADC_Sns__1__HSIOM_SHIFT,
 200:Generated_Source\PSoC4/capsense_ADC_Structure.c ****         (uint8)capsense_ADC_Sns__1__SHIFT,
 201:Generated_Source\PSoC4/capsense_ADC_Structure.c ****         (uint8)capsense_ADC_Sns__1__SHIFT * 3u,
 202:Generated_Source\PSoC4/capsense_ADC_Structure.c ****     },
ARM GAS  C:\Users\ASUS\AppData\Local\Temp\cc3kWfch.s 			page 5


 203:Generated_Source\PSoC4/capsense_ADC_Structure.c ****     { /* 2: BTN0_Sns0 */
 204:Generated_Source\PSoC4/capsense_ADC_Structure.c ****         (reg32 *)capsense_ADC_Sns__2__HSIOM,
 205:Generated_Source\PSoC4/capsense_ADC_Structure.c ****         (reg32 *)capsense_ADC_Sns__2__PC,
 206:Generated_Source\PSoC4/capsense_ADC_Structure.c ****         (reg32 *)capsense_ADC_Sns__2__DR,
 207:Generated_Source\PSoC4/capsense_ADC_Structure.c ****         (reg32 *)capsense_ADC_Sns__2__PS,
 208:Generated_Source\PSoC4/capsense_ADC_Structure.c ****         capsense_ADC_Sns__2__HSIOM_MASK,
 209:Generated_Source\PSoC4/capsense_ADC_Structure.c ****         capsense_ADC_Sns__2__MASK,
 210:Generated_Source\PSoC4/capsense_ADC_Structure.c ****         capsense_ADC_Sns__2__HSIOM_SHIFT,
 211:Generated_Source\PSoC4/capsense_ADC_Structure.c ****         (uint8)capsense_ADC_Sns__2__SHIFT,
 212:Generated_Source\PSoC4/capsense_ADC_Structure.c ****         (uint8)capsense_ADC_Sns__2__SHIFT * 3u,
 213:Generated_Source\PSoC4/capsense_ADC_Structure.c ****     },
 214:Generated_Source\PSoC4/capsense_ADC_Structure.c ****     { /* 3: LinearSlider0_Sns0 */
 215:Generated_Source\PSoC4/capsense_ADC_Structure.c ****         (reg32 *)capsense_ADC_Sns__3__HSIOM,
 216:Generated_Source\PSoC4/capsense_ADC_Structure.c ****         (reg32 *)capsense_ADC_Sns__3__PC,
 217:Generated_Source\PSoC4/capsense_ADC_Structure.c ****         (reg32 *)capsense_ADC_Sns__3__DR,
 218:Generated_Source\PSoC4/capsense_ADC_Structure.c ****         (reg32 *)capsense_ADC_Sns__3__PS,
 219:Generated_Source\PSoC4/capsense_ADC_Structure.c ****         capsense_ADC_Sns__3__HSIOM_MASK,
 220:Generated_Source\PSoC4/capsense_ADC_Structure.c ****         capsense_ADC_Sns__3__MASK,
 221:Generated_Source\PSoC4/capsense_ADC_Structure.c ****         capsense_ADC_Sns__3__HSIOM_SHIFT,
 222:Generated_Source\PSoC4/capsense_ADC_Structure.c ****         (uint8)capsense_ADC_Sns__3__SHIFT,
 223:Generated_Source\PSoC4/capsense_ADC_Structure.c ****         (uint8)capsense_ADC_Sns__3__SHIFT * 3u,
 224:Generated_Source\PSoC4/capsense_ADC_Structure.c ****     },
 225:Generated_Source\PSoC4/capsense_ADC_Structure.c ****     { /* 4: LinearSlider0_Sns1 */
 226:Generated_Source\PSoC4/capsense_ADC_Structure.c ****         (reg32 *)capsense_ADC_Sns__4__HSIOM,
 227:Generated_Source\PSoC4/capsense_ADC_Structure.c ****         (reg32 *)capsense_ADC_Sns__4__PC,
 228:Generated_Source\PSoC4/capsense_ADC_Structure.c ****         (reg32 *)capsense_ADC_Sns__4__DR,
 229:Generated_Source\PSoC4/capsense_ADC_Structure.c ****         (reg32 *)capsense_ADC_Sns__4__PS,
 230:Generated_Source\PSoC4/capsense_ADC_Structure.c ****         capsense_ADC_Sns__4__HSIOM_MASK,
 231:Generated_Source\PSoC4/capsense_ADC_Structure.c ****         capsense_ADC_Sns__4__MASK,
 232:Generated_Source\PSoC4/capsense_ADC_Structure.c ****         capsense_ADC_Sns__4__HSIOM_SHIFT,
 233:Generated_Source\PSoC4/capsense_ADC_Structure.c ****         (uint8)capsense_ADC_Sns__4__SHIFT,
 234:Generated_Source\PSoC4/capsense_ADC_Structure.c ****         (uint8)capsense_ADC_Sns__4__SHIFT * 3u,
 235:Generated_Source\PSoC4/capsense_ADC_Structure.c ****     },
 236:Generated_Source\PSoC4/capsense_ADC_Structure.c ****     { /* 5: LinearSlider0_Sns2 */
 237:Generated_Source\PSoC4/capsense_ADC_Structure.c ****         (reg32 *)capsense_ADC_Sns__5__HSIOM,
 238:Generated_Source\PSoC4/capsense_ADC_Structure.c ****         (reg32 *)capsense_ADC_Sns__5__PC,
 239:Generated_Source\PSoC4/capsense_ADC_Structure.c ****         (reg32 *)capsense_ADC_Sns__5__DR,
 240:Generated_Source\PSoC4/capsense_ADC_Structure.c ****         (reg32 *)capsense_ADC_Sns__5__PS,
 241:Generated_Source\PSoC4/capsense_ADC_Structure.c ****         capsense_ADC_Sns__5__HSIOM_MASK,
 242:Generated_Source\PSoC4/capsense_ADC_Structure.c ****         capsense_ADC_Sns__5__MASK,
 243:Generated_Source\PSoC4/capsense_ADC_Structure.c ****         capsense_ADC_Sns__5__HSIOM_SHIFT,
 244:Generated_Source\PSoC4/capsense_ADC_Structure.c ****         (uint8)capsense_ADC_Sns__5__SHIFT,
 245:Generated_Source\PSoC4/capsense_ADC_Structure.c ****         (uint8)capsense_ADC_Sns__5__SHIFT * 3u,
 246:Generated_Source\PSoC4/capsense_ADC_Structure.c ****     },
 247:Generated_Source\PSoC4/capsense_ADC_Structure.c ****     { /* 6: LinearSlider0_Sns3 */
 248:Generated_Source\PSoC4/capsense_ADC_Structure.c ****         (reg32 *)capsense_ADC_Sns__6__HSIOM,
 249:Generated_Source\PSoC4/capsense_ADC_Structure.c ****         (reg32 *)capsense_ADC_Sns__6__PC,
 250:Generated_Source\PSoC4/capsense_ADC_Structure.c ****         (reg32 *)capsense_ADC_Sns__6__DR,
 251:Generated_Source\PSoC4/capsense_ADC_Structure.c ****         (reg32 *)capsense_ADC_Sns__6__PS,
 252:Generated_Source\PSoC4/capsense_ADC_Structure.c ****         capsense_ADC_Sns__6__HSIOM_MASK,
 253:Generated_Source\PSoC4/capsense_ADC_Structure.c ****         capsense_ADC_Sns__6__MASK,
 254:Generated_Source\PSoC4/capsense_ADC_Structure.c ****         capsense_ADC_Sns__6__HSIOM_SHIFT,
 255:Generated_Source\PSoC4/capsense_ADC_Structure.c ****         (uint8)capsense_ADC_Sns__6__SHIFT,
 256:Generated_Source\PSoC4/capsense_ADC_Structure.c ****         (uint8)capsense_ADC_Sns__6__SHIFT * 3u,
 257:Generated_Source\PSoC4/capsense_ADC_Structure.c ****     },
 258:Generated_Source\PSoC4/capsense_ADC_Structure.c ****     { /* 7: LinearSlider0_Sns4 */
 259:Generated_Source\PSoC4/capsense_ADC_Structure.c ****         (reg32 *)capsense_ADC_Sns__7__HSIOM,
ARM GAS  C:\Users\ASUS\AppData\Local\Temp\cc3kWfch.s 			page 6


 260:Generated_Source\PSoC4/capsense_ADC_Structure.c ****         (reg32 *)capsense_ADC_Sns__7__PC,
 261:Generated_Source\PSoC4/capsense_ADC_Structure.c ****         (reg32 *)capsense_ADC_Sns__7__DR,
 262:Generated_Source\PSoC4/capsense_ADC_Structure.c ****         (reg32 *)capsense_ADC_Sns__7__PS,
 263:Generated_Source\PSoC4/capsense_ADC_Structure.c ****         capsense_ADC_Sns__7__HSIOM_MASK,
 264:Generated_Source\PSoC4/capsense_ADC_Structure.c ****         capsense_ADC_Sns__7__MASK,
 265:Generated_Source\PSoC4/capsense_ADC_Structure.c ****         capsense_ADC_Sns__7__HSIOM_SHIFT,
 266:Generated_Source\PSoC4/capsense_ADC_Structure.c ****         (uint8)capsense_ADC_Sns__7__SHIFT,
 267:Generated_Source\PSoC4/capsense_ADC_Structure.c ****         (uint8)capsense_ADC_Sns__7__SHIFT * 3u,
 268:Generated_Source\PSoC4/capsense_ADC_Structure.c ****     },
 269:Generated_Source\PSoC4/capsense_ADC_Structure.c **** };
 270:Generated_Source\PSoC4/capsense_ADC_Structure.c **** 
 271:Generated_Source\PSoC4/capsense_ADC_Structure.c **** 
 272:Generated_Source\PSoC4/capsense_ADC_Structure.c **** /**
 273:Generated_Source\PSoC4/capsense_ADC_Structure.c ****  *  The array of the pointers to the ADC input channels specific register.
 274:Generated_Source\PSoC4/capsense_ADC_Structure.c ****  */
 275:Generated_Source\PSoC4/capsense_ADC_Structure.c **** const capsense_ADC_FLASH_IO_STRUCT capsense_ADC_adcIoList[capsense_ADC_ADC_TOTAL_CHANNELS] =
 276:Generated_Source\PSoC4/capsense_ADC_Structure.c **** {
 277:Generated_Source\PSoC4/capsense_ADC_Structure.c ****     {
 278:Generated_Source\PSoC4/capsense_ADC_Structure.c ****         (reg32 *)capsense_ADC_AdcInput__0__HSIOM,
 279:Generated_Source\PSoC4/capsense_ADC_Structure.c ****         (reg32 *)capsense_ADC_AdcInput__0__PC,
 280:Generated_Source\PSoC4/capsense_ADC_Structure.c ****         (reg32 *)capsense_ADC_AdcInput__0__DR,
 281:Generated_Source\PSoC4/capsense_ADC_Structure.c ****         (reg32 *)capsense_ADC_AdcInput__0__PS,
 282:Generated_Source\PSoC4/capsense_ADC_Structure.c ****         capsense_ADC_AdcInput__0__HSIOM_MASK,
 283:Generated_Source\PSoC4/capsense_ADC_Structure.c ****         capsense_ADC_AdcInput__0__MASK,
 284:Generated_Source\PSoC4/capsense_ADC_Structure.c ****         capsense_ADC_AdcInput__0__HSIOM_SHIFT,
 285:Generated_Source\PSoC4/capsense_ADC_Structure.c ****         (uint8)capsense_ADC_AdcInput__0__SHIFT,
 286:Generated_Source\PSoC4/capsense_ADC_Structure.c ****         (uint8)capsense_ADC_AdcInput__0__SHIFT * 3u,
 287:Generated_Source\PSoC4/capsense_ADC_Structure.c ****     },
 288:Generated_Source\PSoC4/capsense_ADC_Structure.c **** };
 289:Generated_Source\PSoC4/capsense_ADC_Structure.c **** 
 290:Generated_Source\PSoC4/capsense_ADC_Structure.c **** 
 291:Generated_Source\PSoC4/capsense_ADC_Structure.c **** 
 292:Generated_Source\PSoC4/capsense_ADC_Structure.c **** /** \}
 293:Generated_Source\PSoC4/capsense_ADC_Structure.c **** * \endcond */
 294:Generated_Source\PSoC4/capsense_ADC_Structure.c **** 
 295:Generated_Source\PSoC4/capsense_ADC_Structure.c **** /* Initialization data for RAM widget list */
 296:Generated_Source\PSoC4/capsense_ADC_Structure.c **** const capsense_ADC_RAM_WD_LIST_STRUCT capsense_ADC_ramWidgetInit =
 297:Generated_Source\PSoC4/capsense_ADC_Structure.c **** {
 298:Generated_Source\PSoC4/capsense_ADC_Structure.c ****     { /* BTN2 */
 299:Generated_Source\PSoC4/capsense_ADC_Structure.c ****         capsense_ADC_BTN2_RESOLUTION,
 300:Generated_Source\PSoC4/capsense_ADC_Structure.c ****         capsense_ADC_BTN2_FINGER_TH,
 301:Generated_Source\PSoC4/capsense_ADC_Structure.c ****         capsense_ADC_BTN2_NOISE_TH,
 302:Generated_Source\PSoC4/capsense_ADC_Structure.c ****         capsense_ADC_BTN2_NNOISE_TH,
 303:Generated_Source\PSoC4/capsense_ADC_Structure.c ****         capsense_ADC_BTN2_HYSTERESIS,
 304:Generated_Source\PSoC4/capsense_ADC_Structure.c ****         capsense_ADC_BTN2_ON_DEBOUNCE,
 305:Generated_Source\PSoC4/capsense_ADC_Structure.c ****         capsense_ADC_BTN2_LOW_BSLN_RST,
 306:Generated_Source\PSoC4/capsense_ADC_Structure.c ****         {
 307:Generated_Source\PSoC4/capsense_ADC_Structure.c ****             capsense_ADC_BTN2_IDAC_MOD0,
 308:Generated_Source\PSoC4/capsense_ADC_Structure.c ****         },
 309:Generated_Source\PSoC4/capsense_ADC_Structure.c ****         capsense_ADC_BTN2_IDAC_GAIN_INDEX,
 310:Generated_Source\PSoC4/capsense_ADC_Structure.c ****         capsense_ADC_BTN2_SNS_CLK,
 311:Generated_Source\PSoC4/capsense_ADC_Structure.c ****         capsense_ADC_BTN2_SNS_CLK_SOURCE,
 312:Generated_Source\PSoC4/capsense_ADC_Structure.c ****         capsense_ADC_BTN2_FINGER_CAP,
 313:Generated_Source\PSoC4/capsense_ADC_Structure.c ****         capsense_ADC_BTN2_SIGPFC,
 314:Generated_Source\PSoC4/capsense_ADC_Structure.c ****     },
 315:Generated_Source\PSoC4/capsense_ADC_Structure.c ****     { /* BTN1 */
 316:Generated_Source\PSoC4/capsense_ADC_Structure.c ****         capsense_ADC_BTN1_RESOLUTION,
ARM GAS  C:\Users\ASUS\AppData\Local\Temp\cc3kWfch.s 			page 7


 317:Generated_Source\PSoC4/capsense_ADC_Structure.c ****         capsense_ADC_BTN1_FINGER_TH,
 318:Generated_Source\PSoC4/capsense_ADC_Structure.c ****         capsense_ADC_BTN1_NOISE_TH,
 319:Generated_Source\PSoC4/capsense_ADC_Structure.c ****         capsense_ADC_BTN1_NNOISE_TH,
 320:Generated_Source\PSoC4/capsense_ADC_Structure.c ****         capsense_ADC_BTN1_HYSTERESIS,
 321:Generated_Source\PSoC4/capsense_ADC_Structure.c ****         capsense_ADC_BTN1_ON_DEBOUNCE,
 322:Generated_Source\PSoC4/capsense_ADC_Structure.c ****         capsense_ADC_BTN1_LOW_BSLN_RST,
 323:Generated_Source\PSoC4/capsense_ADC_Structure.c ****         {
 324:Generated_Source\PSoC4/capsense_ADC_Structure.c ****             capsense_ADC_BTN1_IDAC_MOD0,
 325:Generated_Source\PSoC4/capsense_ADC_Structure.c ****         },
 326:Generated_Source\PSoC4/capsense_ADC_Structure.c ****         capsense_ADC_BTN1_IDAC_GAIN_INDEX,
 327:Generated_Source\PSoC4/capsense_ADC_Structure.c ****         capsense_ADC_BTN1_SNS_CLK,
 328:Generated_Source\PSoC4/capsense_ADC_Structure.c ****         capsense_ADC_BTN1_SNS_CLK_SOURCE,
 329:Generated_Source\PSoC4/capsense_ADC_Structure.c ****         capsense_ADC_BTN1_FINGER_CAP,
 330:Generated_Source\PSoC4/capsense_ADC_Structure.c ****         capsense_ADC_BTN1_SIGPFC,
 331:Generated_Source\PSoC4/capsense_ADC_Structure.c ****     },
 332:Generated_Source\PSoC4/capsense_ADC_Structure.c ****     { /* BTN0 */
 333:Generated_Source\PSoC4/capsense_ADC_Structure.c ****         capsense_ADC_BTN0_RESOLUTION,
 334:Generated_Source\PSoC4/capsense_ADC_Structure.c ****         capsense_ADC_BTN0_FINGER_TH,
 335:Generated_Source\PSoC4/capsense_ADC_Structure.c ****         capsense_ADC_BTN0_NOISE_TH,
 336:Generated_Source\PSoC4/capsense_ADC_Structure.c ****         capsense_ADC_BTN0_NNOISE_TH,
 337:Generated_Source\PSoC4/capsense_ADC_Structure.c ****         capsense_ADC_BTN0_HYSTERESIS,
 338:Generated_Source\PSoC4/capsense_ADC_Structure.c ****         capsense_ADC_BTN0_ON_DEBOUNCE,
 339:Generated_Source\PSoC4/capsense_ADC_Structure.c ****         capsense_ADC_BTN0_LOW_BSLN_RST,
 340:Generated_Source\PSoC4/capsense_ADC_Structure.c ****         {
 341:Generated_Source\PSoC4/capsense_ADC_Structure.c ****             capsense_ADC_BTN0_IDAC_MOD0,
 342:Generated_Source\PSoC4/capsense_ADC_Structure.c ****         },
 343:Generated_Source\PSoC4/capsense_ADC_Structure.c ****         capsense_ADC_BTN0_IDAC_GAIN_INDEX,
 344:Generated_Source\PSoC4/capsense_ADC_Structure.c ****         capsense_ADC_BTN0_SNS_CLK,
 345:Generated_Source\PSoC4/capsense_ADC_Structure.c ****         capsense_ADC_BTN0_SNS_CLK_SOURCE,
 346:Generated_Source\PSoC4/capsense_ADC_Structure.c ****         capsense_ADC_BTN0_FINGER_CAP,
 347:Generated_Source\PSoC4/capsense_ADC_Structure.c ****         capsense_ADC_BTN0_SIGPFC,
 348:Generated_Source\PSoC4/capsense_ADC_Structure.c ****     },
 349:Generated_Source\PSoC4/capsense_ADC_Structure.c ****     { /* LinearSlider0 */
 350:Generated_Source\PSoC4/capsense_ADC_Structure.c ****         capsense_ADC_LINEARSLIDER0_RESOLUTION,
 351:Generated_Source\PSoC4/capsense_ADC_Structure.c ****         capsense_ADC_LINEARSLIDER0_FINGER_TH,
 352:Generated_Source\PSoC4/capsense_ADC_Structure.c ****         capsense_ADC_LINEARSLIDER0_NOISE_TH,
 353:Generated_Source\PSoC4/capsense_ADC_Structure.c ****         capsense_ADC_LINEARSLIDER0_NNOISE_TH,
 354:Generated_Source\PSoC4/capsense_ADC_Structure.c ****         capsense_ADC_LINEARSLIDER0_HYSTERESIS,
 355:Generated_Source\PSoC4/capsense_ADC_Structure.c ****         capsense_ADC_LINEARSLIDER0_ON_DEBOUNCE,
 356:Generated_Source\PSoC4/capsense_ADC_Structure.c ****         capsense_ADC_LINEARSLIDER0_LOW_BSLN_RST,
 357:Generated_Source\PSoC4/capsense_ADC_Structure.c ****         {
 358:Generated_Source\PSoC4/capsense_ADC_Structure.c ****             capsense_ADC_LINEARSLIDER0_IDAC_MOD0,
 359:Generated_Source\PSoC4/capsense_ADC_Structure.c ****         },
 360:Generated_Source\PSoC4/capsense_ADC_Structure.c ****         capsense_ADC_LINEARSLIDER0_IDAC_GAIN_INDEX,
 361:Generated_Source\PSoC4/capsense_ADC_Structure.c ****         capsense_ADC_LINEARSLIDER0_SNS_CLK,
 362:Generated_Source\PSoC4/capsense_ADC_Structure.c ****         capsense_ADC_LINEARSLIDER0_SNS_CLK_SOURCE,
 363:Generated_Source\PSoC4/capsense_ADC_Structure.c ****         capsense_ADC_LINEARSLIDER0_FINGER_CAP,
 364:Generated_Source\PSoC4/capsense_ADC_Structure.c ****         capsense_ADC_LINEARSLIDER0_SIGPFC,
 365:Generated_Source\PSoC4/capsense_ADC_Structure.c ****         {
 366:Generated_Source\PSoC4/capsense_ADC_Structure.c ****             capsense_ADC_LINEARSLIDER0_POSITION,
 367:Generated_Source\PSoC4/capsense_ADC_Structure.c ****         },
 368:Generated_Source\PSoC4/capsense_ADC_Structure.c ****     },
 369:Generated_Source\PSoC4/capsense_ADC_Structure.c **** };
 370:Generated_Source\PSoC4/capsense_ADC_Structure.c **** 
 371:Generated_Source\PSoC4/capsense_ADC_Structure.c **** 
 372:Generated_Source\PSoC4/capsense_ADC_Structure.c **** /* IDAC Initialization Data */
 373:Generated_Source\PSoC4/capsense_ADC_Structure.c **** const uint8 capsense_ADC_ramIdacInit[capsense_ADC_TOTAL_SENSORS] =
ARM GAS  C:\Users\ASUS\AppData\Local\Temp\cc3kWfch.s 			page 8


 374:Generated_Source\PSoC4/capsense_ADC_Structure.c **** {
 375:Generated_Source\PSoC4/capsense_ADC_Structure.c ****     /* BTN2 */
 376:Generated_Source\PSoC4/capsense_ADC_Structure.c ****     capsense_ADC_BTN2_SNS0_IDAC_COMP0,
 377:Generated_Source\PSoC4/capsense_ADC_Structure.c **** 
 378:Generated_Source\PSoC4/capsense_ADC_Structure.c ****     /* BTN1 */
 379:Generated_Source\PSoC4/capsense_ADC_Structure.c ****     capsense_ADC_BTN1_SNS0_IDAC_COMP0,
 380:Generated_Source\PSoC4/capsense_ADC_Structure.c **** 
 381:Generated_Source\PSoC4/capsense_ADC_Structure.c ****     /* BTN0 */
 382:Generated_Source\PSoC4/capsense_ADC_Structure.c ****     capsense_ADC_BTN0_SNS0_IDAC_COMP0,
 383:Generated_Source\PSoC4/capsense_ADC_Structure.c **** 
 384:Generated_Source\PSoC4/capsense_ADC_Structure.c ****     /* LinearSlider0 */
 385:Generated_Source\PSoC4/capsense_ADC_Structure.c ****     capsense_ADC_LINEARSLIDER0_SNS0_IDAC_COMP0,
 386:Generated_Source\PSoC4/capsense_ADC_Structure.c ****     capsense_ADC_LINEARSLIDER0_SNS1_IDAC_COMP0,
 387:Generated_Source\PSoC4/capsense_ADC_Structure.c ****     capsense_ADC_LINEARSLIDER0_SNS2_IDAC_COMP0,
 388:Generated_Source\PSoC4/capsense_ADC_Structure.c ****     capsense_ADC_LINEARSLIDER0_SNS3_IDAC_COMP0,
 389:Generated_Source\PSoC4/capsense_ADC_Structure.c ****     capsense_ADC_LINEARSLIDER0_SNS4_IDAC_COMP0,
 390:Generated_Source\PSoC4/capsense_ADC_Structure.c **** };
 391:Generated_Source\PSoC4/capsense_ADC_Structure.c **** 
 392:Generated_Source\PSoC4/capsense_ADC_Structure.c **** 
 393:Generated_Source\PSoC4/capsense_ADC_Structure.c **** 
 394:Generated_Source\PSoC4/capsense_ADC_Structure.c **** 
 395:Generated_Source\PSoC4/capsense_ADC_Structure.c **** 
 396:Generated_Source\PSoC4/capsense_ADC_Structure.c **** /*******************************************************************************
 397:Generated_Source\PSoC4/capsense_ADC_Structure.c **** * Defines internal data types and statements
 398:Generated_Source\PSoC4/capsense_ADC_Structure.c **** *******************************************************************************/
 399:Generated_Source\PSoC4/capsense_ADC_Structure.c **** #define PARAM_TYPE_OFFSET       (30u)
 400:Generated_Source\PSoC4/capsense_ADC_Structure.c **** #define PARAM_TYPE_MASK         (3Lu << PARAM_TYPE_OFFSET)
 401:Generated_Source\PSoC4/capsense_ADC_Structure.c **** #define PARAM_RWBIT_OFFSET      (29u)
 402:Generated_Source\PSoC4/capsense_ADC_Structure.c **** #define PARAM_RWBIT_MASK        (1Lu << PARAM_RWBIT_OFFSET)
 403:Generated_Source\PSoC4/capsense_ADC_Structure.c **** #define PARAM_FBIT_OFFSET       (28u)
 404:Generated_Source\PSoC4/capsense_ADC_Structure.c **** #define PARAM_FBIT_MASK         (1Lu << PARAM_FBIT_OFFSET)
 405:Generated_Source\PSoC4/capsense_ADC_Structure.c **** #define PARAM_UBIT_OFFSET       (23u)
 406:Generated_Source\PSoC4/capsense_ADC_Structure.c **** #define PARAM_UBIT_MASK         (1Lu << PARAM_UBIT_OFFSET)
 407:Generated_Source\PSoC4/capsense_ADC_Structure.c **** #define PARAM_WDID_OFFSET       (16u)
 408:Generated_Source\PSoC4/capsense_ADC_Structure.c **** #define PARAM_WDID_MASK         (0x7FLu << PARAM_WDID_OFFSET)
 409:Generated_Source\PSoC4/capsense_ADC_Structure.c **** #define PARAM_CRC_OFFSET        (24u)
 410:Generated_Source\PSoC4/capsense_ADC_Structure.c **** #define PARAM_CRC_MASK          (0x0FLu << PARAM_CRC_OFFSET)
 411:Generated_Source\PSoC4/capsense_ADC_Structure.c **** 
 412:Generated_Source\PSoC4/capsense_ADC_Structure.c **** /* Defines align masks for uint16 and uint32 */
 413:Generated_Source\PSoC4/capsense_ADC_Structure.c **** #define UINT16_ALIGN_MASK       (1Lu)
 414:Generated_Source\PSoC4/capsense_ADC_Structure.c **** #define UINT32_ALIGN_MASK       (3Lu)
 415:Generated_Source\PSoC4/capsense_ADC_Structure.c **** 
 416:Generated_Source\PSoC4/capsense_ADC_Structure.c **** /* Defines supported parameter types */
 417:Generated_Source\PSoC4/capsense_ADC_Structure.c **** #define DS_PARAM_TYPE_UINT8     (0x01u)
 418:Generated_Source\PSoC4/capsense_ADC_Structure.c **** #define DS_PARAM_TYPE_UINT16    (0x02u)
 419:Generated_Source\PSoC4/capsense_ADC_Structure.c **** #define DS_PARAM_TYPE_UINT32    (0x03u)
 420:Generated_Source\PSoC4/capsense_ADC_Structure.c **** 
 421:Generated_Source\PSoC4/capsense_ADC_Structure.c **** 
 422:Generated_Source\PSoC4/capsense_ADC_Structure.c **** /* Defines PARAM_ID structure */
 423:Generated_Source\PSoC4/capsense_ADC_Structure.c **** typedef struct
 424:Generated_Source\PSoC4/capsense_ADC_Structure.c **** {
 425:Generated_Source\PSoC4/capsense_ADC_Structure.c ****     uint16 offset;      /* parameter offset */
 426:Generated_Source\PSoC4/capsense_ADC_Structure.c ****     uint8  widgetId;    /* widget Id parameter belongs to */
 427:Generated_Source\PSoC4/capsense_ADC_Structure.c ****     uint8  affectsCrc;  /* parameter affects widget CRC */
 428:Generated_Source\PSoC4/capsense_ADC_Structure.c ****     uint8  crc;         /* parameter CRC */
 429:Generated_Source\PSoC4/capsense_ADC_Structure.c ****     uint8  flash;       /* parameter located in FLASH flag */
 430:Generated_Source\PSoC4/capsense_ADC_Structure.c ****     uint8  rw;          /* parameter is read/write flag */
ARM GAS  C:\Users\ASUS\AppData\Local\Temp\cc3kWfch.s 			page 9


 431:Generated_Source\PSoC4/capsense_ADC_Structure.c ****     uint8  type;        /* parameter type: uint8/uint16/uint32 */
 432:Generated_Source\PSoC4/capsense_ADC_Structure.c **** } PARAM_ID_STRUCT;
 433:Generated_Source\PSoC4/capsense_ADC_Structure.c **** 
 434:Generated_Source\PSoC4/capsense_ADC_Structure.c **** 
 435:Generated_Source\PSoC4/capsense_ADC_Structure.c **** /*******************************************************************************
 436:Generated_Source\PSoC4/capsense_ADC_Structure.c **** * Static Function Prototypes
 437:Generated_Source\PSoC4/capsense_ADC_Structure.c **** *******************************************************************************/
 438:Generated_Source\PSoC4/capsense_ADC_Structure.c **** /**
 439:Generated_Source\PSoC4/capsense_ADC_Structure.c **** * \cond SECTION_C_INTERNAL
 440:Generated_Source\PSoC4/capsense_ADC_Structure.c **** * \addtogroup group_c_internal
 441:Generated_Source\PSoC4/capsense_ADC_Structure.c **** * \{
 442:Generated_Source\PSoC4/capsense_ADC_Structure.c **** */
 443:Generated_Source\PSoC4/capsense_ADC_Structure.c **** 
 444:Generated_Source\PSoC4/capsense_ADC_Structure.c **** 
 445:Generated_Source\PSoC4/capsense_ADC_Structure.c **** 
 446:Generated_Source\PSoC4/capsense_ADC_Structure.c **** static cystatus DsParseParamId(uint32 paramId, PARAM_ID_STRUCT *pData);
 447:Generated_Source\PSoC4/capsense_ADC_Structure.c **** 
 448:Generated_Source\PSoC4/capsense_ADC_Structure.c **** /** \}
 449:Generated_Source\PSoC4/capsense_ADC_Structure.c **** * \endcond */
 450:Generated_Source\PSoC4/capsense_ADC_Structure.c **** 
 451:Generated_Source\PSoC4/capsense_ADC_Structure.c **** 
 452:Generated_Source\PSoC4/capsense_ADC_Structure.c **** /*******************************************************************************
 453:Generated_Source\PSoC4/capsense_ADC_Structure.c **** * Function Name: capsense_ADC_DsInitialize
 454:Generated_Source\PSoC4/capsense_ADC_Structure.c **** ****************************************************************************//**
 455:Generated_Source\PSoC4/capsense_ADC_Structure.c **** *
 456:Generated_Source\PSoC4/capsense_ADC_Structure.c **** * \brief
 457:Generated_Source\PSoC4/capsense_ADC_Structure.c **** *   This function initializes the Data Structure storage.
 458:Generated_Source\PSoC4/capsense_ADC_Structure.c **** *
 459:Generated_Source\PSoC4/capsense_ADC_Structure.c **** * \details
 460:Generated_Source\PSoC4/capsense_ADC_Structure.c **** *   This function copies the default widget configuration parameters
 461:Generated_Source\PSoC4/capsense_ADC_Structure.c **** *   from the Flash storage into the RAM Data Structure.
 462:Generated_Source\PSoC4/capsense_ADC_Structure.c **** *
 463:Generated_Source\PSoC4/capsense_ADC_Structure.c **** *******************************************************************************/
 464:Generated_Source\PSoC4/capsense_ADC_Structure.c **** void capsense_ADC_DsInitialize(void)
 465:Generated_Source\PSoC4/capsense_ADC_Structure.c **** {
 466:Generated_Source\PSoC4/capsense_ADC_Structure.c ****     #if ((capsense_ADC_ENABLE == capsense_ADC_CSX_EN) || \
 467:Generated_Source\PSoC4/capsense_ADC_Structure.c ****          (capsense_ADC_ENABLE == capsense_ADC_CSD_IDAC_COMP_EN) || \
 468:Generated_Source\PSoC4/capsense_ADC_Structure.c ****         ((capsense_ADC_ENABLE == capsense_ADC_CSX_EN) && \
 469:Generated_Source\PSoC4/capsense_ADC_Structure.c ****          (capsense_ADC_ENABLE == capsense_ADC_CSX_SKIP_OVSMPL_SPECIFIC_NODES)))
 470:Generated_Source\PSoC4/capsense_ADC_Structure.c ****         uint32 snsId;
 471:Generated_Source\PSoC4/capsense_ADC_Structure.c ****         uint32 wdgtId;
 472:Generated_Source\PSoC4/capsense_ADC_Structure.c ****         capsense_ADC_RAM_SNS_STRUCT * ptrSnsTmp;
 473:Generated_Source\PSoC4/capsense_ADC_Structure.c ****         capsense_ADC_FLASH_WD_STRUCT const * ptrFlashWdgt;
 474:Generated_Source\PSoC4/capsense_ADC_Structure.c ****     #endif
 475:Generated_Source\PSoC4/capsense_ADC_Structure.c **** 
 476:Generated_Source\PSoC4/capsense_ADC_Structure.c ****     #if ((capsense_ADC_ENABLE == capsense_ADC_CSX_EN) && \
 477:Generated_Source\PSoC4/capsense_ADC_Structure.c ****          (capsense_ADC_ENABLE == capsense_ADC_CSX_SKIP_OVSMPL_SPECIFIC_NODES))
 478:Generated_Source\PSoC4/capsense_ADC_Structure.c ****         uint16 subConvNumber;
 479:Generated_Source\PSoC4/capsense_ADC_Structure.c ****     #endif
 480:Generated_Source\PSoC4/capsense_ADC_Structure.c **** 
 481:Generated_Source\PSoC4/capsense_ADC_Structure.c ****     #if ((0u != capsense_ADC_CSX_EN) || (0 != capsense_ADC_CSD_IDAC_COMP_EN))
 482:Generated_Source\PSoC4/capsense_ADC_Structure.c ****         uint8 const * ptrIdacInit = capsense_ADC_ramIdacInit;
 483:Generated_Source\PSoC4/capsense_ADC_Structure.c ****     #endif
 484:Generated_Source\PSoC4/capsense_ADC_Structure.c **** 
 485:Generated_Source\PSoC4/capsense_ADC_Structure.c ****     /* Reset RAM data structure content */
 486:Generated_Source\PSoC4/capsense_ADC_Structure.c ****     (void)memset(&capsense_ADC_dsRam, 0, sizeof(capsense_ADC_dsRam));
 487:Generated_Source\PSoC4/capsense_ADC_Structure.c **** 
ARM GAS  C:\Users\ASUS\AppData\Local\Temp\cc3kWfch.s 			page 10


 488:Generated_Source\PSoC4/capsense_ADC_Structure.c ****     /* Initialize configId, deviceId and hwClock registers */
 489:Generated_Source\PSoC4/capsense_ADC_Structure.c ****     capsense_ADC_dsRam.configId = capsense_ADC_CONFIG_ID;
 490:Generated_Source\PSoC4/capsense_ADC_Structure.c ****     capsense_ADC_dsRam.deviceId = capsense_ADC_DEVICE_ID;
 491:Generated_Source\PSoC4/capsense_ADC_Structure.c ****     capsense_ADC_dsRam.hwClock = capsense_ADC_HW_CLOCK;
 492:Generated_Source\PSoC4/capsense_ADC_Structure.c **** 
 493:Generated_Source\PSoC4/capsense_ADC_Structure.c ****     /* Initialize global RAM data */
 494:Generated_Source\PSoC4/capsense_ADC_Structure.c ****     capsense_ADC_dsRam.csd0Config = capsense_ADC_CSD0_CONFIG;
 495:Generated_Source\PSoC4/capsense_ADC_Structure.c **** 
 496:Generated_Source\PSoC4/capsense_ADC_Structure.c ****     capsense_ADC_dsRam.scanCurrentISC = capsense_ADC_SNS_CONNECTION_UNDEFINED;
 497:Generated_Source\PSoC4/capsense_ADC_Structure.c ****     #if (0u != capsense_ADC_TOTAL_CSD_WIDGETS)
 498:Generated_Source\PSoC4/capsense_ADC_Structure.c ****         capsense_ADC_dsRam.modCsdClk = capsense_ADC_CSD_SCANSPEED_DIVIDER;
 499:Generated_Source\PSoC4/capsense_ADC_Structure.c ****         capsense_ADC_dsRam.scanCsdISC = capsense_ADC_CSD_INACTIVE_SNS_CONNECTION;
 500:Generated_Source\PSoC4/capsense_ADC_Structure.c **** 
 501:Generated_Source\PSoC4/capsense_ADC_Structure.c ****         #if (0u != capsense_ADC_CSD_COMMON_SNS_CLK_EN)
 502:Generated_Source\PSoC4/capsense_ADC_Structure.c ****             capsense_ADC_dsRam.snsCsdClk = capsense_ADC_CSD_SNS_CLK_DIVIDER;
 503:Generated_Source\PSoC4/capsense_ADC_Structure.c ****         #endif /* #if (0u != capsense_ADC_CSD_COMMON_SNS_CLK_EN) */
 504:Generated_Source\PSoC4/capsense_ADC_Structure.c ****     #endif /* #if (0u != capsense_ADC_TOTAL_CSD_WIDGETS) */
 505:Generated_Source\PSoC4/capsense_ADC_Structure.c **** 
 506:Generated_Source\PSoC4/capsense_ADC_Structure.c ****     #if (capsense_ADC_ENABLE == capsense_ADC_CSX_EN)
 507:Generated_Source\PSoC4/capsense_ADC_Structure.c ****         capsense_ADC_dsRam.modCsxClk = capsense_ADC_CSX_SCANSPEED_DIVIDER;
 508:Generated_Source\PSoC4/capsense_ADC_Structure.c ****         capsense_ADC_dsRam.scanCsxISC = capsense_ADC_CSX_INACTIVE_SNS_CONNECTION;
 509:Generated_Source\PSoC4/capsense_ADC_Structure.c **** 
 510:Generated_Source\PSoC4/capsense_ADC_Structure.c ****         #if (0u != capsense_ADC_CSX_COMMON_TX_CLK_EN)
 511:Generated_Source\PSoC4/capsense_ADC_Structure.c ****             capsense_ADC_dsRam.snsCsxClk = capsense_ADC_CSX_TX_CLK_DIVIDER;
 512:Generated_Source\PSoC4/capsense_ADC_Structure.c ****         #endif /* #if (0u != capsense_ADC_CSX_COMMON_TX_CLK_EN) */
 513:Generated_Source\PSoC4/capsense_ADC_Structure.c ****     #endif /* #if (capsense_ADC_ENABLE == capsense_ADC_CSX_EN) */
 514:Generated_Source\PSoC4/capsense_ADC_Structure.c **** 
 515:Generated_Source\PSoC4/capsense_ADC_Structure.c ****     #if (capsense_ADC_ENABLE == capsense_ADC_ISX_EN)
 516:Generated_Source\PSoC4/capsense_ADC_Structure.c ****         capsense_ADC_dsRam.modIsxClk = capsense_ADC_ISX_SCANSPEED_DIVIDER;
 517:Generated_Source\PSoC4/capsense_ADC_Structure.c ****     #endif /* #if (0u != capsense_ADC_ISX_EN) */
 518:Generated_Source\PSoC4/capsense_ADC_Structure.c **** 
 519:Generated_Source\PSoC4/capsense_ADC_Structure.c ****     #if (0u != capsense_ADC_SELF_TEST_EN)
 520:Generated_Source\PSoC4/capsense_ADC_Structure.c **** 
 521:Generated_Source\PSoC4/capsense_ADC_Structure.c ****         capsense_ADC_dsRam.glbCrc = capsense_ADC_GLB_CRC;
 522:Generated_Source\PSoC4/capsense_ADC_Structure.c ****         capsense_ADC_dsRam.selfTestConfig.fineInitTime = (uint8)capsense_ADC_TST_FINE_INIT_TIME;
 523:Generated_Source\PSoC4/capsense_ADC_Structure.c ****         capsense_ADC_dsRam.selfTestConfig.startupDelay = capsense_ADC_TST_ANALOG_STARTUP_DELAY_US;
 524:Generated_Source\PSoC4/capsense_ADC_Structure.c **** 
 525:Generated_Source\PSoC4/capsense_ADC_Structure.c ****         #if (0u != capsense_ADC_TST_SNS_SHORT_EN)
 526:Generated_Source\PSoC4/capsense_ADC_Structure.c ****             capsense_ADC_dsRam.selfTestConfig.snsShortTimeUs = capsense_ADC_TST_SNS_SHORT_TIME;
 527:Generated_Source\PSoC4/capsense_ADC_Structure.c ****         #endif
 528:Generated_Source\PSoC4/capsense_ADC_Structure.c **** 
 529:Generated_Source\PSoC4/capsense_ADC_Structure.c ****         #if ((0u != capsense_ADC_TST_SNS_CAP_EN) ||\
 530:Generated_Source\PSoC4/capsense_ADC_Structure.c ****              (0u != capsense_ADC_TST_SH_CAP_EN))
 531:Generated_Source\PSoC4/capsense_ADC_Structure.c ****             capsense_ADC_dsRam.selfTestConfig.snsCapSnsClkDivider = capsense_ADC_TST_SNS_CAP_SNS_CL
 532:Generated_Source\PSoC4/capsense_ADC_Structure.c ****             capsense_ADC_dsRam.selfTestConfig.snsCapSnsClkHz = capsense_ADC_TST_SNS_CAP_SNS_CLK_HZ;
 533:Generated_Source\PSoC4/capsense_ADC_Structure.c ****             capsense_ADC_dsRam.selfTestConfig.snsCapResolution = capsense_ADC_TST_SNS_CAP_RESOLUTIO
 534:Generated_Source\PSoC4/capsense_ADC_Structure.c ****             capsense_ADC_dsRam.selfTestConfig.snsCapVrefGain = capsense_ADC_TST_SNS_CAP_VREF_GAIN ;
 535:Generated_Source\PSoC4/capsense_ADC_Structure.c ****             capsense_ADC_dsRam.selfTestConfig.snsCapVrefVoltage = capsense_ADC_TST_SNS_CAP_VREF_MV;
 536:Generated_Source\PSoC4/capsense_ADC_Structure.c ****             capsense_ADC_dsRam.selfTestConfig.snsCapModClkDivider = capsense_ADC_TST_MOD_CLK_DIVIDE
 537:Generated_Source\PSoC4/capsense_ADC_Structure.c ****             capsense_ADC_dsRam.selfTestConfig.snsCapModClkKHz = capsense_ADC_TST_MOD_CLK_KHZ ;
 538:Generated_Source\PSoC4/capsense_ADC_Structure.c ****         #endif /* ((0u != capsense_ADC_TST_SNS_CAP_EN) ||
 539:Generated_Source\PSoC4/capsense_ADC_Structure.c ****                    (0u != capsense_ADC_TST_SH_CAP_EN)) */
 540:Generated_Source\PSoC4/capsense_ADC_Structure.c **** 
 541:Generated_Source\PSoC4/capsense_ADC_Structure.c ****         #if (0u != capsense_ADC_TST_SNS_CAP_EN)
 542:Generated_Source\PSoC4/capsense_ADC_Structure.c ****             #if (0u != capsense_ADC_CSD_EN)
 543:Generated_Source\PSoC4/capsense_ADC_Structure.c ****                 capsense_ADC_dsRam.selfTestConfig.bistCsdSnsCapISC = capsense_ADC_SNS_CAP_CSD_INACT
 544:Generated_Source\PSoC4/capsense_ADC_Structure.c ****             #endif /* (0u != capsense_ADC_CSD_EN) */
ARM GAS  C:\Users\ASUS\AppData\Local\Temp\cc3kWfch.s 			page 11


 545:Generated_Source\PSoC4/capsense_ADC_Structure.c ****             #if (0u != capsense_ADC_CSX_EN)
 546:Generated_Source\PSoC4/capsense_ADC_Structure.c ****                 capsense_ADC_dsRam.selfTestConfig.bistCsxSnsCapISC = capsense_ADC_SNS_CAP_CSX_INACT
 547:Generated_Source\PSoC4/capsense_ADC_Structure.c ****             #endif /* (0u != capsense_ADC_CSX_EN) */
 548:Generated_Source\PSoC4/capsense_ADC_Structure.c ****         #endif /* (0u != capsense_ADC_TST_SNS_CAP_EN) */
 549:Generated_Source\PSoC4/capsense_ADC_Structure.c **** 
 550:Generated_Source\PSoC4/capsense_ADC_Structure.c ****         #if (0u != capsense_ADC_TST_SH_CAP_EN)
 551:Generated_Source\PSoC4/capsense_ADC_Structure.c ****             #if ((0u != capsense_ADC_CSD_EN) && (0u != capsense_ADC_CSD_SHIELD_EN))
 552:Generated_Source\PSoC4/capsense_ADC_Structure.c ****                 capsense_ADC_dsRam.selfTestConfig.bistCsdShCapISC = capsense_ADC_SHIELD_CAP_INACTIV
 553:Generated_Source\PSoC4/capsense_ADC_Structure.c ****             #endif /* ((0u != capsense_ADC_CSD_EN) && (0u != capsense_ADC_CSD_SHIELD_EN)) */
 554:Generated_Source\PSoC4/capsense_ADC_Structure.c ****         #endif /* (0u != capsense_ADC_TST_SH_CAP_EN) */
 555:Generated_Source\PSoC4/capsense_ADC_Structure.c **** 
 556:Generated_Source\PSoC4/capsense_ADC_Structure.c ****         #if (0u != capsense_ADC_TST_EXTERNAL_CAP_EN)
 557:Generated_Source\PSoC4/capsense_ADC_Structure.c ****             capsense_ADC_dsRam.selfTestConfig.extCapVrefGain = capsense_ADC_TST_EXT_CAP_VREF_GAIN;
 558:Generated_Source\PSoC4/capsense_ADC_Structure.c ****             capsense_ADC_dsRam.selfTestConfig.extCapVrefVoltage = capsense_ADC_TST_EXT_CAP_VREF_MV;
 559:Generated_Source\PSoC4/capsense_ADC_Structure.c ****         #endif /* #if (0u != capsense_ADC_TST_EXTERNAL_CAP_EN) */
 560:Generated_Source\PSoC4/capsense_ADC_Structure.c **** 
 561:Generated_Source\PSoC4/capsense_ADC_Structure.c ****         #if (0u != capsense_ADC_TST_VDDA_EN)
 562:Generated_Source\PSoC4/capsense_ADC_Structure.c ****             capsense_ADC_dsRam.selfTestConfig.vddaResolution = capsense_ADC_TST_VDDA_RESOLUTION;
 563:Generated_Source\PSoC4/capsense_ADC_Structure.c ****             capsense_ADC_dsRam.selfTestConfig.vddaModClkDivider = capsense_ADC_TST_VDDA_MOD_CLK_DIV
 564:Generated_Source\PSoC4/capsense_ADC_Structure.c **** 
 565:Generated_Source\PSoC4/capsense_ADC_Structure.c ****             capsense_ADC_dsRam.selfTestConfig.vddaVrefGain = capsense_ADC_TST_VDDA_VREF_GAIN;
 566:Generated_Source\PSoC4/capsense_ADC_Structure.c ****             capsense_ADC_dsRam.selfTestConfig.vddaVrefVoltage = capsense_ADC_TST_VDDA_VREF_MV;
 567:Generated_Source\PSoC4/capsense_ADC_Structure.c ****         #endif /* #if (0u != capsense_ADC_TST_VDDA_EN) */
 568:Generated_Source\PSoC4/capsense_ADC_Structure.c **** 
 569:Generated_Source\PSoC4/capsense_ADC_Structure.c ****     #endif /* #if (0u != capsense_ADC_SELF_TEST_EN) */
 570:Generated_Source\PSoC4/capsense_ADC_Structure.c **** 
 571:Generated_Source\PSoC4/capsense_ADC_Structure.c ****     /* Initialize RAM widget data */
 572:Generated_Source\PSoC4/capsense_ADC_Structure.c ****     capsense_ADC_dsRam.wdgtList = capsense_ADC_ramWidgetInit;
 573:Generated_Source\PSoC4/capsense_ADC_Structure.c **** 
 574:Generated_Source\PSoC4/capsense_ADC_Structure.c ****     /* Initialize Gesture configuration structure */
 575:Generated_Source\PSoC4/capsense_ADC_Structure.c ****     #if ((0u != capsense_ADC_GES_GLOBAL_EN) || (0u != capsense_ADC_BALLISTIC_MULTIPLIER_EN))
 576:Generated_Source\PSoC4/capsense_ADC_Structure.c ****         capsense_ADC_dsRam.timestampInterval = capsense_ADC_TIMESTAMP_INTERVAL;
 577:Generated_Source\PSoC4/capsense_ADC_Structure.c ****     #endif /* ((0u != capsense_ADC_GES_GLOBAL_EN) || (0u != capsense_ADC_BALLISTIC_MULTIPLIER_EN)) 
 578:Generated_Source\PSoC4/capsense_ADC_Structure.c **** 
 579:Generated_Source\PSoC4/capsense_ADC_Structure.c ****     #if (0u != capsense_ADC_GES_GLOBAL_EN)
 580:Generated_Source\PSoC4/capsense_ADC_Structure.c ****         capsense_ADC_dsRam.gestures = capsense_ADC_ramGesturesInit;
 581:Generated_Source\PSoC4/capsense_ADC_Structure.c ****     #endif /* (0u != capsense_ADC_GES_GLOBAL_EN) */
 582:Generated_Source\PSoC4/capsense_ADC_Structure.c **** 
 583:Generated_Source\PSoC4/capsense_ADC_Structure.c ****     #if (0u != capsense_ADC_BALLISTIC_MULTIPLIER_EN)
 584:Generated_Source\PSoC4/capsense_ADC_Structure.c ****         capsense_ADC_dsRam.ballisticConfig = capsense_ADC_ramBallisticInit;
 585:Generated_Source\PSoC4/capsense_ADC_Structure.c ****     #endif /* (0u != capsense_ADC_BALLISTIC_MULTIPLIER_EN) */
 586:Generated_Source\PSoC4/capsense_ADC_Structure.c **** 
 587:Generated_Source\PSoC4/capsense_ADC_Structure.c ****     #if (0u != capsense_ADC_CSX_EN) || (0 != capsense_ADC_CSD_IDAC_COMP_EN)
 588:Generated_Source\PSoC4/capsense_ADC_Structure.c ****         /* Initialize IDAC data */
 589:Generated_Source\PSoC4/capsense_ADC_Structure.c ****         ptrFlashWdgt = capsense_ADC_dsFlash.wdgtArray;
 590:Generated_Source\PSoC4/capsense_ADC_Structure.c **** 
 591:Generated_Source\PSoC4/capsense_ADC_Structure.c ****         for (wdgtId = capsense_ADC_TOTAL_WIDGETS; wdgtId-- > 0u; )
 592:Generated_Source\PSoC4/capsense_ADC_Structure.c ****         {
 593:Generated_Source\PSoC4/capsense_ADC_Structure.c ****             ptrSnsTmp = ptrFlashWdgt->ptr2SnsRam;
 594:Generated_Source\PSoC4/capsense_ADC_Structure.c **** 
 595:Generated_Source\PSoC4/capsense_ADC_Structure.c ****             for (snsId = capsense_ADC_GET_SNS_CNT_BY_PTR(ptrFlashWdgt); snsId-- > 0u;)
 596:Generated_Source\PSoC4/capsense_ADC_Structure.c ****             {
 597:Generated_Source\PSoC4/capsense_ADC_Structure.c ****                 ptrSnsTmp->idacComp[0u] = *ptrIdacInit;
 598:Generated_Source\PSoC4/capsense_ADC_Structure.c ****                 ptrIdacInit++;
 599:Generated_Source\PSoC4/capsense_ADC_Structure.c **** 
 600:Generated_Source\PSoC4/capsense_ADC_Structure.c ****                 #if (0u != capsense_ADC_MULTI_FREQ_SCAN_EN)
 601:Generated_Source\PSoC4/capsense_ADC_Structure.c ****                     ptrSnsTmp->idacComp[1u] = *ptrIdacInit;
ARM GAS  C:\Users\ASUS\AppData\Local\Temp\cc3kWfch.s 			page 12


 602:Generated_Source\PSoC4/capsense_ADC_Structure.c ****                     ptrIdacInit++;
 603:Generated_Source\PSoC4/capsense_ADC_Structure.c **** 
 604:Generated_Source\PSoC4/capsense_ADC_Structure.c ****                     ptrSnsTmp->idacComp[2u] = *ptrIdacInit;
 605:Generated_Source\PSoC4/capsense_ADC_Structure.c ****                     ptrIdacInit++;
 606:Generated_Source\PSoC4/capsense_ADC_Structure.c ****                 #endif /* #if (0u != capsense_ADC_MULTI_FREQ_SCAN_EN) */
 607:Generated_Source\PSoC4/capsense_ADC_Structure.c **** 
 608:Generated_Source\PSoC4/capsense_ADC_Structure.c ****                 ptrSnsTmp++;
 609:Generated_Source\PSoC4/capsense_ADC_Structure.c ****             }
 610:Generated_Source\PSoC4/capsense_ADC_Structure.c **** 
 611:Generated_Source\PSoC4/capsense_ADC_Structure.c ****             ptrFlashWdgt++; /* Move to next widget */
 612:Generated_Source\PSoC4/capsense_ADC_Structure.c ****         }
 613:Generated_Source\PSoC4/capsense_ADC_Structure.c ****     #endif /*(0u != capsense_ADC_CSX_EN) || (0 != capsense_ADC_CSD_IDAC_COMP_EN)*/
 614:Generated_Source\PSoC4/capsense_ADC_Structure.c **** 
 615:Generated_Source\PSoC4/capsense_ADC_Structure.c ****     #if ((capsense_ADC_ENABLE == capsense_ADC_CSX_EN) && \
 616:Generated_Source\PSoC4/capsense_ADC_Structure.c ****          (capsense_ADC_ENABLE == capsense_ADC_CSX_SKIP_OVSMPL_SPECIFIC_NODES))
 617:Generated_Source\PSoC4/capsense_ADC_Structure.c ****         /* Initialize Sub-Conversion Number for each node of each CSX widget */
 618:Generated_Source\PSoC4/capsense_ADC_Structure.c ****         ptrFlashWdgt = capsense_ADC_dsFlash.wdgtArray;
 619:Generated_Source\PSoC4/capsense_ADC_Structure.c ****         for (wdgtId = capsense_ADC_TOTAL_WIDGETS; wdgtId-- > 0u;)
 620:Generated_Source\PSoC4/capsense_ADC_Structure.c ****         {
 621:Generated_Source\PSoC4/capsense_ADC_Structure.c ****             /* Check for widget sense method */
 622:Generated_Source\PSoC4/capsense_ADC_Structure.c ****             if (capsense_ADC_SENSE_METHOD_CSX_E == capsense_ADC_GET_SENSE_METHOD(ptrFlashWdgt))
 623:Generated_Source\PSoC4/capsense_ADC_Structure.c ****             {
 624:Generated_Source\PSoC4/capsense_ADC_Structure.c ****                 /* Take the sub-convesion number of a CSX widget and initialize each node of this w
 625:Generated_Source\PSoC4/capsense_ADC_Structure.c ****                 subConvNumber = ((capsense_ADC_RAM_WD_BASE_STRUCT *)(ptrFlashWdgt->ptr2WdgtRam))->r
 626:Generated_Source\PSoC4/capsense_ADC_Structure.c ****                 ptrSnsTmp = ptrFlashWdgt->ptr2SnsRam;
 627:Generated_Source\PSoC4/capsense_ADC_Structure.c ****                 for (snsId = capsense_ADC_GET_SNS_CNT_BY_PTR(ptrFlashWdgt); snsId-- > 0u;)
 628:Generated_Source\PSoC4/capsense_ADC_Structure.c ****                 {
 629:Generated_Source\PSoC4/capsense_ADC_Structure.c ****                     ptrSnsTmp->subConvNum = subConvNumber;
 630:Generated_Source\PSoC4/capsense_ADC_Structure.c ****                     ptrSnsTmp++;
 631:Generated_Source\PSoC4/capsense_ADC_Structure.c ****                 }
 632:Generated_Source\PSoC4/capsense_ADC_Structure.c ****             }
 633:Generated_Source\PSoC4/capsense_ADC_Structure.c ****             /* Move to the next widget */
 634:Generated_Source\PSoC4/capsense_ADC_Structure.c ****             ptrFlashWdgt++;
 635:Generated_Source\PSoC4/capsense_ADC_Structure.c ****         }
 636:Generated_Source\PSoC4/capsense_ADC_Structure.c ****     #endif /* ((capsense_ADC_ENABLE == capsense_ADC_CSX_EN) && \
 637:Generated_Source\PSoC4/capsense_ADC_Structure.c ****                (capsense_ADC_ENABLE == capsense_ADC_CSX_SKIP_OVSMPL_SPECIFIC_NODES)) */
 638:Generated_Source\PSoC4/capsense_ADC_Structure.c **** 
 639:Generated_Source\PSoC4/capsense_ADC_Structure.c ****     #if (0u != capsense_ADC_ADC_EN)
 640:Generated_Source\PSoC4/capsense_ADC_Structure.c ****         capsense_ADC_AdcDsInitialize();
 641:Generated_Source\PSoC4/capsense_ADC_Structure.c ****     #endif /* (0u != capsense_ADC_ADC_EN) */
 642:Generated_Source\PSoC4/capsense_ADC_Structure.c **** }
 643:Generated_Source\PSoC4/capsense_ADC_Structure.c **** 
 644:Generated_Source\PSoC4/capsense_ADC_Structure.c **** 
 645:Generated_Source\PSoC4/capsense_ADC_Structure.c **** #if (0u != capsense_ADC_ADC_EN)
 646:Generated_Source\PSoC4/capsense_ADC_Structure.c ****     /*******************************************************************************
 647:Generated_Source\PSoC4/capsense_ADC_Structure.c ****     * Function Name: capsense_ADC_AdcDsInitialize
 648:Generated_Source\PSoC4/capsense_ADC_Structure.c ****     ****************************************************************************//**
 649:Generated_Source\PSoC4/capsense_ADC_Structure.c ****     *
 650:Generated_Source\PSoC4/capsense_ADC_Structure.c ****     * \brief
 651:Generated_Source\PSoC4/capsense_ADC_Structure.c ****     *   Configures the initial Adc datastructure members.
 652:Generated_Source\PSoC4/capsense_ADC_Structure.c ****     *
 653:Generated_Source\PSoC4/capsense_ADC_Structure.c ****     *******************************************************************************/
 654:Generated_Source\PSoC4/capsense_ADC_Structure.c ****     void capsense_ADC_AdcDsInitialize(void)
 655:Generated_Source\PSoC4/capsense_ADC_Structure.c ****     {
 656:Generated_Source\PSoC4/capsense_ADC_Structure.c ****         capsense_ADC_dsRam.adcResolution = capsense_ADC_ADC_RESOLUTION;
 657:Generated_Source\PSoC4/capsense_ADC_Structure.c ****         capsense_ADC_dsRam.adcIdac = (uint8)(capsense_ADC_ADC_IDAC_DEFAULT);
 658:Generated_Source\PSoC4/capsense_ADC_Structure.c ****         capsense_ADC_dsRam.adcActiveCh = capsense_ADC_AdcNO_CHANNEL;
ARM GAS  C:\Users\ASUS\AppData\Local\Temp\cc3kWfch.s 			page 13


 659:Generated_Source\PSoC4/capsense_ADC_Structure.c ****     }
 660:Generated_Source\PSoC4/capsense_ADC_Structure.c **** #endif /* (0u != capsense_ADC_ADC_EN) */
 661:Generated_Source\PSoC4/capsense_ADC_Structure.c **** 
 662:Generated_Source\PSoC4/capsense_ADC_Structure.c **** 
 663:Generated_Source\PSoC4/capsense_ADC_Structure.c **** /*******************************************************************************
 664:Generated_Source\PSoC4/capsense_ADC_Structure.c **** * Function Name: DsParseParamId
 665:Generated_Source\PSoC4/capsense_ADC_Structure.c **** ****************************************************************************//**
 666:Generated_Source\PSoC4/capsense_ADC_Structure.c **** *
 667:Generated_Source\PSoC4/capsense_ADC_Structure.c **** * \brief
 668:Generated_Source\PSoC4/capsense_ADC_Structure.c **** *   This function parses the parameter ID and checks its correctness.
 669:Generated_Source\PSoC4/capsense_ADC_Structure.c **** *
 670:Generated_Source\PSoC4/capsense_ADC_Structure.c **** * \details
 671:Generated_Source\PSoC4/capsense_ADC_Structure.c **** *   This function checks the parameter CRC if the self-test is enabled,
 672:Generated_Source\PSoC4/capsense_ADC_Structure.c **** *   validates the offset value and parameter type.
 673:Generated_Source\PSoC4/capsense_ADC_Structure.c **** *
 674:Generated_Source\PSoC4/capsense_ADC_Structure.c **** * \param paramId The parameter to parse.
 675:Generated_Source\PSoC4/capsense_ADC_Structure.c **** * \param pData   The pointer to the structure that will hold parsed data.
 676:Generated_Source\PSoC4/capsense_ADC_Structure.c **** *
 677:Generated_Source\PSoC4/capsense_ADC_Structure.c **** * \return CYRET_SUCCESS     If the parameter is valid
 678:Generated_Source\PSoC4/capsense_ADC_Structure.c **** *         CYRET_BAD_PARAM   If the parameter is invalid
 679:Generated_Source\PSoC4/capsense_ADC_Structure.c **** *
 680:Generated_Source\PSoC4/capsense_ADC_Structure.c **** *******************************************************************************/
 681:Generated_Source\PSoC4/capsense_ADC_Structure.c **** static cystatus DsParseParamId(uint32 paramId, PARAM_ID_STRUCT *pData)
 682:Generated_Source\PSoC4/capsense_ADC_Structure.c **** {
  27              		.loc 1 682 0
  28              		.cfi_startproc
  29              		@ args = 0, pretend = 0, frame = 0
  30              		@ frame_needed = 0, uses_anonymous_args = 0
  31              	.LVL0:
  32 0000 70B5     		push	{r4, r5, r6, lr}
  33              		.cfi_def_cfa_offset 16
  34              		.cfi_offset 4, -16
  35              		.cfi_offset 5, -12
  36              		.cfi_offset 6, -8
  37              		.cfi_offset 14, -4
  38              	.LVL1:
 683:Generated_Source\PSoC4/capsense_ADC_Structure.c ****     cystatus result = CYRET_SUCCESS;
 684:Generated_Source\PSoC4/capsense_ADC_Structure.c **** 
 685:Generated_Source\PSoC4/capsense_ADC_Structure.c ****     #if (0u != capsense_ADC_SELF_TEST_EN)
 686:Generated_Source\PSoC4/capsense_ADC_Structure.c ****         const uint8 crcTable[] =
 687:Generated_Source\PSoC4/capsense_ADC_Structure.c ****         {
 688:Generated_Source\PSoC4/capsense_ADC_Structure.c ****             0x00u, 0x09u, 0x0Bu, 0x02u, 0x0Fu, 0x06u, 0x04u, 0x0Du,
 689:Generated_Source\PSoC4/capsense_ADC_Structure.c ****             0x07u, 0x0Eu, 0x0Cu, 0x05u, 0x08u, 0x01u, 0x03u, 0x0Au
 690:Generated_Source\PSoC4/capsense_ADC_Structure.c ****         };
 691:Generated_Source\PSoC4/capsense_ADC_Structure.c **** 
 692:Generated_Source\PSoC4/capsense_ADC_Structure.c ****         uint32 i;
 693:Generated_Source\PSoC4/capsense_ADC_Structure.c ****         uint32 actualCrc = 0u;
 694:Generated_Source\PSoC4/capsense_ADC_Structure.c ****         uint32 crcIndex;
 695:Generated_Source\PSoC4/capsense_ADC_Structure.c ****     #endif /* #if (0u != capsense_ADC_SELF_TEST_EN) */
 696:Generated_Source\PSoC4/capsense_ADC_Structure.c **** 
 697:Generated_Source\PSoC4/capsense_ADC_Structure.c ****     /* Extract parameter data */
 698:Generated_Source\PSoC4/capsense_ADC_Structure.c ****     pData->offset     = LO16(paramId);
  39              		.loc 1 698 0
  40 0002 85B2     		uxth	r5, r0
  41 0004 0D80     		strh	r5, [r1]
 699:Generated_Source\PSoC4/capsense_ADC_Structure.c ****     pData->affectsCrc = LO8((paramId & PARAM_UBIT_MASK)  >> PARAM_UBIT_OFFSET);
  42              		.loc 1 699 0
ARM GAS  C:\Users\ASUS\AppData\Local\Temp\cc3kWfch.s 			page 14


  43 0006 C30D     		lsrs	r3, r0, #23
  44 0008 0124     		movs	r4, #1
  45 000a 2340     		ands	r3, r4
  46 000c CB70     		strb	r3, [r1, #3]
 700:Generated_Source\PSoC4/capsense_ADC_Structure.c ****     pData->widgetId   = LO8((paramId & PARAM_WDID_MASK)  >> PARAM_WDID_OFFSET);
  47              		.loc 1 700 0
  48 000e 030C     		lsrs	r3, r0, #16
  49 0010 7F22     		movs	r2, #127
  50 0012 1340     		ands	r3, r2
  51 0014 8B70     		strb	r3, [r1, #2]
 701:Generated_Source\PSoC4/capsense_ADC_Structure.c ****     pData->type       = LO8((paramId & PARAM_TYPE_MASK)  >> PARAM_TYPE_OFFSET);
  52              		.loc 1 701 0
  53 0016 860F     		lsrs	r6, r0, #30
  54 0018 CE71     		strb	r6, [r1, #7]
 702:Generated_Source\PSoC4/capsense_ADC_Structure.c ****     pData->flash      = LO8((paramId & PARAM_FBIT_MASK)  >> PARAM_FBIT_OFFSET);
  55              		.loc 1 702 0
  56 001a 030F     		lsrs	r3, r0, #28
  57 001c 2340     		ands	r3, r4
  58 001e 4B71     		strb	r3, [r1, #5]
 703:Generated_Source\PSoC4/capsense_ADC_Structure.c ****     pData->rw         = LO8((paramId & PARAM_RWBIT_MASK) >> PARAM_RWBIT_OFFSET);
  59              		.loc 1 703 0
  60 0020 420F     		lsrs	r2, r0, #29
  61 0022 2240     		ands	r2, r4
  62 0024 8A71     		strb	r2, [r1, #6]
 704:Generated_Source\PSoC4/capsense_ADC_Structure.c ****     pData->crc        = LO8((paramId & PARAM_CRC_MASK)   >> PARAM_CRC_OFFSET);
  63              		.loc 1 704 0
  64 0026 000E     		lsrs	r0, r0, #24
  65              	.LVL2:
  66 0028 0E34     		adds	r4, r4, #14
  67 002a 2040     		ands	r0, r4
  68 002c 0871     		strb	r0, [r1, #4]
 705:Generated_Source\PSoC4/capsense_ADC_Structure.c **** 
 706:Generated_Source\PSoC4/capsense_ADC_Structure.c ****     /* Check parameter CRC if self-test is enabled */
 707:Generated_Source\PSoC4/capsense_ADC_Structure.c ****     #if (0u != capsense_ADC_SELF_TEST_EN)
 708:Generated_Source\PSoC4/capsense_ADC_Structure.c **** 
 709:Generated_Source\PSoC4/capsense_ADC_Structure.c ****         /* Calculate CRC for bits 0..24.
 710:Generated_Source\PSoC4/capsense_ADC_Structure.c ****          * The CRC is calculated using nibbles (4-bits).
 711:Generated_Source\PSoC4/capsense_ADC_Structure.c ****          * So for 0..24 bits there are in total 6 nibbles. */
 712:Generated_Source\PSoC4/capsense_ADC_Structure.c ****         for (i = 6u; i > 0u; i--)
 713:Generated_Source\PSoC4/capsense_ADC_Structure.c ****         {
 714:Generated_Source\PSoC4/capsense_ADC_Structure.c ****             crcIndex = actualCrc ^ (paramId & 0x0Fu);
 715:Generated_Source\PSoC4/capsense_ADC_Structure.c ****             actualCrc = crcTable[crcIndex];
 716:Generated_Source\PSoC4/capsense_ADC_Structure.c ****             paramId >>= 4u;
 717:Generated_Source\PSoC4/capsense_ADC_Structure.c ****         }
 718:Generated_Source\PSoC4/capsense_ADC_Structure.c **** 
 719:Generated_Source\PSoC4/capsense_ADC_Structure.c ****         /* Add bits 28..32 */
 720:Generated_Source\PSoC4/capsense_ADC_Structure.c ****         crcIndex = actualCrc ^ ((paramId >> 4u) & 0x0Fu);
 721:Generated_Source\PSoC4/capsense_ADC_Structure.c ****         actualCrc = crcTable[crcIndex];
 722:Generated_Source\PSoC4/capsense_ADC_Structure.c **** 
 723:Generated_Source\PSoC4/capsense_ADC_Structure.c ****         /* Add bits 24..28 (CRC) */
 724:Generated_Source\PSoC4/capsense_ADC_Structure.c ****         crcIndex = actualCrc ^ (paramId & 0x0Fu);
 725:Generated_Source\PSoC4/capsense_ADC_Structure.c ****         actualCrc = crcTable[crcIndex];
 726:Generated_Source\PSoC4/capsense_ADC_Structure.c **** 
 727:Generated_Source\PSoC4/capsense_ADC_Structure.c ****         if (0u != actualCrc)
 728:Generated_Source\PSoC4/capsense_ADC_Structure.c ****         {
 729:Generated_Source\PSoC4/capsense_ADC_Structure.c ****             /* CRC mismatch */
 730:Generated_Source\PSoC4/capsense_ADC_Structure.c ****             result = CYRET_BAD_PARAM;
ARM GAS  C:\Users\ASUS\AppData\Local\Temp\cc3kWfch.s 			page 15


 731:Generated_Source\PSoC4/capsense_ADC_Structure.c ****         }
 732:Generated_Source\PSoC4/capsense_ADC_Structure.c **** 
 733:Generated_Source\PSoC4/capsense_ADC_Structure.c ****         if ((CYRET_SUCCESS == result) &&
 734:Generated_Source\PSoC4/capsense_ADC_Structure.c ****             (0u != pData->affectsCrc) && (pData->widgetId >= capsense_ADC_TOTAL_WIDGETS ))
 735:Generated_Source\PSoC4/capsense_ADC_Structure.c ****         {
 736:Generated_Source\PSoC4/capsense_ADC_Structure.c ****             /* Wrong widgetId for protected parameter */
 737:Generated_Source\PSoC4/capsense_ADC_Structure.c ****             result = CYRET_BAD_PARAM;
 738:Generated_Source\PSoC4/capsense_ADC_Structure.c ****         }
 739:Generated_Source\PSoC4/capsense_ADC_Structure.c **** 
 740:Generated_Source\PSoC4/capsense_ADC_Structure.c ****         /* Check offset value range */
 741:Generated_Source\PSoC4/capsense_ADC_Structure.c ****         if (CYRET_SUCCESS == result)
 742:Generated_Source\PSoC4/capsense_ADC_Structure.c ****         {
 743:Generated_Source\PSoC4/capsense_ADC_Structure.c ****             if (0u == pData->flash)
 744:Generated_Source\PSoC4/capsense_ADC_Structure.c ****             {
 745:Generated_Source\PSoC4/capsense_ADC_Structure.c ****                 /* Check offset for RAM Data Structure range */
 746:Generated_Source\PSoC4/capsense_ADC_Structure.c ****                 if (pData->offset >= sizeof(capsense_ADC_dsRam))
 747:Generated_Source\PSoC4/capsense_ADC_Structure.c ****                 {
 748:Generated_Source\PSoC4/capsense_ADC_Structure.c ****                     result = CYRET_BAD_PARAM;
 749:Generated_Source\PSoC4/capsense_ADC_Structure.c ****                 }
 750:Generated_Source\PSoC4/capsense_ADC_Structure.c ****             }
 751:Generated_Source\PSoC4/capsense_ADC_Structure.c ****             else
 752:Generated_Source\PSoC4/capsense_ADC_Structure.c ****             {
 753:Generated_Source\PSoC4/capsense_ADC_Structure.c ****                 /* Check offset for Flash Data Structure range */
 754:Generated_Source\PSoC4/capsense_ADC_Structure.c ****                 if (pData->offset >= sizeof(capsense_ADC_dsFlash))
 755:Generated_Source\PSoC4/capsense_ADC_Structure.c ****                 {
 756:Generated_Source\PSoC4/capsense_ADC_Structure.c ****                     result = CYRET_BAD_PARAM;
 757:Generated_Source\PSoC4/capsense_ADC_Structure.c ****                 }
 758:Generated_Source\PSoC4/capsense_ADC_Structure.c **** 
 759:Generated_Source\PSoC4/capsense_ADC_Structure.c ****                 /* Check if it is marked as Read Only */
 760:Generated_Source\PSoC4/capsense_ADC_Structure.c ****                 if (0u != pData->rw)
 761:Generated_Source\PSoC4/capsense_ADC_Structure.c ****                 {
 762:Generated_Source\PSoC4/capsense_ADC_Structure.c ****                     result = CYRET_BAD_PARAM;
 763:Generated_Source\PSoC4/capsense_ADC_Structure.c ****                 }
 764:Generated_Source\PSoC4/capsense_ADC_Structure.c ****             }
 765:Generated_Source\PSoC4/capsense_ADC_Structure.c ****         }
 766:Generated_Source\PSoC4/capsense_ADC_Structure.c ****     #else /* #if (0u != capsense_ADC_SELF_TEST_EN) */
 767:Generated_Source\PSoC4/capsense_ADC_Structure.c ****         /* Check offset value range */
 768:Generated_Source\PSoC4/capsense_ADC_Structure.c ****         if (0u == pData->flash)
  69              		.loc 1 768 0
  70 002e 002B     		cmp	r3, #0
  71 0030 03D1     		bne	.L2
 769:Generated_Source\PSoC4/capsense_ADC_Structure.c ****         {
 770:Generated_Source\PSoC4/capsense_ADC_Structure.c ****             /* Check offset for RAM Data Structure range */
 771:Generated_Source\PSoC4/capsense_ADC_Structure.c ****             if (pData->offset >= sizeof(capsense_ADC_dsRam))
  72              		.loc 1 771 0
  73 0032 D32D     		cmp	r5, #211
  74 0034 09D8     		bhi	.L9
 683:Generated_Source\PSoC4/capsense_ADC_Structure.c **** 
  75              		.loc 1 683 0
  76 0036 0020     		movs	r0, #0
  77 0038 0AE0     		b	.L3
  78              	.L2:
 772:Generated_Source\PSoC4/capsense_ADC_Structure.c ****             {
 773:Generated_Source\PSoC4/capsense_ADC_Structure.c ****                 result = CYRET_BAD_PARAM;
 774:Generated_Source\PSoC4/capsense_ADC_Structure.c ****             }
 775:Generated_Source\PSoC4/capsense_ADC_Structure.c ****         }
 776:Generated_Source\PSoC4/capsense_ADC_Structure.c ****         else
ARM GAS  C:\Users\ASUS\AppData\Local\Temp\cc3kWfch.s 			page 16


 777:Generated_Source\PSoC4/capsense_ADC_Structure.c ****         {
 778:Generated_Source\PSoC4/capsense_ADC_Structure.c ****             /* Check offset for Flash Data Structure range */
 779:Generated_Source\PSoC4/capsense_ADC_Structure.c ****             if (pData->offset >= sizeof(capsense_ADC_dsFlash))
  79              		.loc 1 779 0
  80 003a AF2D     		cmp	r5, #175
  81 003c 01D8     		bhi	.L10
 683:Generated_Source\PSoC4/capsense_ADC_Structure.c **** 
  82              		.loc 1 683 0
  83 003e 0020     		movs	r0, #0
  84 0040 00E0     		b	.L4
  85              	.L10:
 780:Generated_Source\PSoC4/capsense_ADC_Structure.c ****             {
 781:Generated_Source\PSoC4/capsense_ADC_Structure.c ****                 result = CYRET_BAD_PARAM;
  86              		.loc 1 781 0
  87 0042 0120     		movs	r0, #1
  88              	.L4:
  89              	.LVL3:
 782:Generated_Source\PSoC4/capsense_ADC_Structure.c ****             }
 783:Generated_Source\PSoC4/capsense_ADC_Structure.c **** 
 784:Generated_Source\PSoC4/capsense_ADC_Structure.c ****             /* Check if it is marked as Read Only */
 785:Generated_Source\PSoC4/capsense_ADC_Structure.c ****             if (0u != pData->rw)
  90              		.loc 1 785 0
  91 0044 002A     		cmp	r2, #0
  92 0046 02D1     		bne	.L11
  93 0048 02E0     		b	.L3
  94              	.LVL4:
  95              	.L9:
 773:Generated_Source\PSoC4/capsense_ADC_Structure.c ****             }
  96              		.loc 1 773 0
  97 004a 0120     		movs	r0, #1
  98 004c 00E0     		b	.L3
  99              	.LVL5:
 100              	.L11:
 786:Generated_Source\PSoC4/capsense_ADC_Structure.c ****             {
 787:Generated_Source\PSoC4/capsense_ADC_Structure.c ****                 result = CYRET_BAD_PARAM;
 101              		.loc 1 787 0
 102 004e 0120     		movs	r0, #1
 103              	.LVL6:
 104              	.L3:
 788:Generated_Source\PSoC4/capsense_ADC_Structure.c ****             }
 789:Generated_Source\PSoC4/capsense_ADC_Structure.c ****         }
 790:Generated_Source\PSoC4/capsense_ADC_Structure.c ****     #endif /* #if (0u != capsense_ADC_SELF_TEST_EN) */
 791:Generated_Source\PSoC4/capsense_ADC_Structure.c **** 
 792:Generated_Source\PSoC4/capsense_ADC_Structure.c ****     if (CYRET_SUCCESS == result)
 105              		.loc 1 792 0
 106 0050 0028     		cmp	r0, #0
 107 0052 11D1     		bne	.L5
 793:Generated_Source\PSoC4/capsense_ADC_Structure.c ****     {
 794:Generated_Source\PSoC4/capsense_ADC_Structure.c ****         /* Check parameter type, offset alignment */
 795:Generated_Source\PSoC4/capsense_ADC_Structure.c ****         switch (pData->type)
 108              		.loc 1 795 0
 109 0054 022E     		cmp	r6, #2
 110 0056 04D0     		beq	.L6
 111 0058 032E     		cmp	r6, #3
 112 005a 05D0     		beq	.L7
 113 005c 012E     		cmp	r6, #1
 114 005e 06D1     		bne	.L15
ARM GAS  C:\Users\ASUS\AppData\Local\Temp\cc3kWfch.s 			page 17


 115 0060 0AE0     		b	.L5
 116              	.L6:
 796:Generated_Source\PSoC4/capsense_ADC_Structure.c ****         {
 797:Generated_Source\PSoC4/capsense_ADC_Structure.c ****         case DS_PARAM_TYPE_UINT16:
 798:Generated_Source\PSoC4/capsense_ADC_Structure.c ****             if (0u != (pData->offset & UINT16_ALIGN_MASK))
 117              		.loc 1 798 0
 118 0062 EB07     		lsls	r3, r5, #31
 119 0064 05D4     		bmi	.L13
 120 0066 07E0     		b	.L5
 121              	.L7:
 799:Generated_Source\PSoC4/capsense_ADC_Structure.c ****             {
 800:Generated_Source\PSoC4/capsense_ADC_Structure.c ****                 result = CYRET_BAD_PARAM;
 801:Generated_Source\PSoC4/capsense_ADC_Structure.c ****             }
 802:Generated_Source\PSoC4/capsense_ADC_Structure.c ****             break;
 803:Generated_Source\PSoC4/capsense_ADC_Structure.c **** 
 804:Generated_Source\PSoC4/capsense_ADC_Structure.c ****         case DS_PARAM_TYPE_UINT32:
 805:Generated_Source\PSoC4/capsense_ADC_Structure.c ****             if (0u != (pData->offset & UINT32_ALIGN_MASK))
 122              		.loc 1 805 0
 123 0068 AB07     		lsls	r3, r5, #30
 124 006a 04D1     		bne	.L14
 125 006c 04E0     		b	.L5
 126              	.L15:
 806:Generated_Source\PSoC4/capsense_ADC_Structure.c ****             {
 807:Generated_Source\PSoC4/capsense_ADC_Structure.c ****                 result = CYRET_BAD_PARAM;
 808:Generated_Source\PSoC4/capsense_ADC_Structure.c ****             }
 809:Generated_Source\PSoC4/capsense_ADC_Structure.c ****             break;
 810:Generated_Source\PSoC4/capsense_ADC_Structure.c **** 
 811:Generated_Source\PSoC4/capsense_ADC_Structure.c ****         case DS_PARAM_TYPE_UINT8:
 812:Generated_Source\PSoC4/capsense_ADC_Structure.c ****             break;
 813:Generated_Source\PSoC4/capsense_ADC_Structure.c **** 
 814:Generated_Source\PSoC4/capsense_ADC_Structure.c ****         default:
 815:Generated_Source\PSoC4/capsense_ADC_Structure.c ****             result = CYRET_BAD_PARAM;
 127              		.loc 1 815 0
 128 006e 0120     		movs	r0, #1
 129              	.LVL7:
 130 0070 02E0     		b	.L5
 131              	.LVL8:
 132              	.L13:
 800:Generated_Source\PSoC4/capsense_ADC_Structure.c ****             }
 133              		.loc 1 800 0
 134 0072 0120     		movs	r0, #1
 135              	.LVL9:
 136 0074 00E0     		b	.L5
 137              	.LVL10:
 138              	.L14:
 807:Generated_Source\PSoC4/capsense_ADC_Structure.c ****             }
 139              		.loc 1 807 0
 140 0076 0120     		movs	r0, #1
 141              	.LVL11:
 142              	.L5:
 816:Generated_Source\PSoC4/capsense_ADC_Structure.c ****             break;
 817:Generated_Source\PSoC4/capsense_ADC_Structure.c ****         }
 818:Generated_Source\PSoC4/capsense_ADC_Structure.c ****     }
 819:Generated_Source\PSoC4/capsense_ADC_Structure.c **** 
 820:Generated_Source\PSoC4/capsense_ADC_Structure.c ****     return result;
 821:Generated_Source\PSoC4/capsense_ADC_Structure.c **** }
 143              		.loc 1 821 0
ARM GAS  C:\Users\ASUS\AppData\Local\Temp\cc3kWfch.s 			page 18


 144              		@ sp needed
 145 0078 70BD     		pop	{r4, r5, r6, pc}
 146              		.cfi_endproc
 147              	.LFE3:
 148              		.size	DsParseParamId, .-DsParseParamId
 149 007a C046     		.section	.text.capsense_ADC_AdcDsInitialize,"ax",%progbits
 150              		.align	2
 151              		.global	capsense_ADC_AdcDsInitialize
 152              		.code	16
 153              		.thumb_func
 154              		.type	capsense_ADC_AdcDsInitialize, %function
 155              	capsense_ADC_AdcDsInitialize:
 156              	.LFB2:
 655:Generated_Source\PSoC4/capsense_ADC_Structure.c ****         capsense_ADC_dsRam.adcResolution = capsense_ADC_ADC_RESOLUTION;
 157              		.loc 1 655 0
 158              		.cfi_startproc
 159              		@ args = 0, pretend = 0, frame = 0
 160              		@ frame_needed = 0, uses_anonymous_args = 0
 161              		@ link register save eliminated.
 656:Generated_Source\PSoC4/capsense_ADC_Structure.c ****         capsense_ADC_dsRam.adcIdac = (uint8)(capsense_ADC_ADC_IDAC_DEFAULT);
 162              		.loc 1 656 0
 163 0000 054B     		ldr	r3, .L17
 164 0002 0A21     		movs	r1, #10
 165 0004 2722     		movs	r2, #39
 166 0006 9954     		strb	r1, [r3, r2]
 657:Generated_Source\PSoC4/capsense_ADC_Structure.c ****         capsense_ADC_dsRam.adcActiveCh = capsense_ADC_AdcNO_CHANNEL;
 167              		.loc 1 657 0
 168 0008 1131     		adds	r1, r1, #17
 169 000a 063A     		subs	r2, r2, #6
 170 000c 9954     		strb	r1, [r3, r2]
 658:Generated_Source\PSoC4/capsense_ADC_Structure.c ****     }
 171              		.loc 1 658 0
 172 000e E431     		adds	r1, r1, #228
 173 0010 0132     		adds	r2, r2, #1
 174 0012 9954     		strb	r1, [r3, r2]
 659:Generated_Source\PSoC4/capsense_ADC_Structure.c **** #endif /* (0u != capsense_ADC_ADC_EN) */
 175              		.loc 1 659 0
 176              		@ sp needed
 177 0014 7047     		bx	lr
 178              	.L18:
 179 0016 C046     		.align	2
 180              	.L17:
 181 0018 00000000 		.word	capsense_ADC_dsRam
 182              		.cfi_endproc
 183              	.LFE2:
 184              		.size	capsense_ADC_AdcDsInitialize, .-capsense_ADC_AdcDsInitialize
 185              		.section	.text.capsense_ADC_DsInitialize,"ax",%progbits
 186              		.align	2
 187              		.global	capsense_ADC_DsInitialize
 188              		.code	16
 189              		.thumb_func
 190              		.type	capsense_ADC_DsInitialize, %function
 191              	capsense_ADC_DsInitialize:
 192              	.LFB1:
 465:Generated_Source\PSoC4/capsense_ADC_Structure.c ****     #if ((capsense_ADC_ENABLE == capsense_ADC_CSX_EN) || \
 193              		.loc 1 465 0
 194              		.cfi_startproc
ARM GAS  C:\Users\ASUS\AppData\Local\Temp\cc3kWfch.s 			page 19


 195              		@ args = 0, pretend = 0, frame = 0
 196              		@ frame_needed = 0, uses_anonymous_args = 0
 197 0000 70B5     		push	{r4, r5, r6, lr}
 198              		.cfi_def_cfa_offset 16
 199              		.cfi_offset 4, -16
 200              		.cfi_offset 5, -12
 201              		.cfi_offset 6, -8
 202              		.cfi_offset 14, -4
 203              	.LVL12:
 486:Generated_Source\PSoC4/capsense_ADC_Structure.c **** 
 204              		.loc 1 486 0
 205 0002 1A4C     		ldr	r4, .L24
 206 0004 D422     		movs	r2, #212
 207 0006 0021     		movs	r1, #0
 208 0008 2000     		movs	r0, r4
 209 000a FFF7FEFF 		bl	memset
 210              	.LVL13:
 489:Generated_Source\PSoC4/capsense_ADC_Structure.c ****     capsense_ADC_dsRam.deviceId = capsense_ADC_DEVICE_ID;
 211              		.loc 1 489 0
 212 000e 184B     		ldr	r3, .L24+4
 213 0010 2380     		strh	r3, [r4]
 490:Generated_Source\PSoC4/capsense_ADC_Structure.c ****     capsense_ADC_dsRam.hwClock = capsense_ADC_HW_CLOCK;
 214              		.loc 1 490 0
 215 0012 9023     		movs	r3, #144
 216 0014 1B01     		lsls	r3, r3, #4
 217 0016 6380     		strh	r3, [r4, #2]
 491:Generated_Source\PSoC4/capsense_ADC_Structure.c **** 
 218              		.loc 1 491 0
 219 0018 164B     		ldr	r3, .L24+8
 220 001a A380     		strh	r3, [r4, #4]
 494:Generated_Source\PSoC4/capsense_ADC_Structure.c **** 
 221              		.loc 1 494 0
 222 001c 0823     		movs	r3, #8
 223 001e A384     		strh	r3, [r4, #36]
 496:Generated_Source\PSoC4/capsense_ADC_Structure.c ****     #if (0u != capsense_ADC_TOTAL_CSD_WIDGETS)
 224              		.loc 1 496 0
 225 0020 0322     		movs	r2, #3
 226 0022 CB33     		adds	r3, r3, #203
 227 0024 E254     		strb	r2, [r4, r3]
 498:Generated_Source\PSoC4/capsense_ADC_Structure.c ****         capsense_ADC_dsRam.scanCsdISC = capsense_ADC_CSD_INACTIVE_SNS_CONNECTION;
 228              		.loc 1 498 0
 229 0026 023A     		subs	r2, r2, #2
 230 0028 AD3B     		subs	r3, r3, #173
 231 002a E254     		strb	r2, [r4, r3]
 572:Generated_Source\PSoC4/capsense_ADC_Structure.c **** 
 232              		.loc 1 572 0
 233 002c 2000     		movs	r0, r4
 234 002e 2A30     		adds	r0, r0, #42
 235 0030 5132     		adds	r2, r2, #81
 236 0032 1149     		ldr	r1, .L24+12
 237 0034 3831     		adds	r1, r1, #56
 238 0036 FFF7FEFF 		bl	memcpy
 239              	.LVL14:
 482:Generated_Source\PSoC4/capsense_ADC_Structure.c ****     #endif
 240              		.loc 1 482 0
 241 003a 1049     		ldr	r1, .L24+16
 589:Generated_Source\PSoC4/capsense_ADC_Structure.c **** 
ARM GAS  C:\Users\ASUS\AppData\Local\Temp\cc3kWfch.s 			page 20


 242              		.loc 1 589 0
 243 003c 0C00     		movs	r4, r1
 244 003e 0834     		adds	r4, r4, #8
 591:Generated_Source\PSoC4/capsense_ADC_Structure.c ****         {
 245              		.loc 1 591 0
 246 0040 0423     		movs	r3, #4
 247 0042 0CE0     		b	.L20
 248              	.LVL15:
 249              	.L23:
 593:Generated_Source\PSoC4/capsense_ADC_Structure.c **** 
 250              		.loc 1 593 0
 251 0044 A268     		ldr	r2, [r4, #8]
 252              	.LVL16:
 595:Generated_Source\PSoC4/capsense_ADC_Structure.c ****             {
 253              		.loc 1 595 0
 254 0046 238B     		ldrh	r3, [r4, #24]
 255              	.LVL17:
 256 0048 04E0     		b	.L21
 257              	.LVL18:
 258              	.L22:
 597:Generated_Source\PSoC4/capsense_ADC_Structure.c ****                 ptrIdacInit++;
 259              		.loc 1 597 0
 260 004a 0B78     		ldrb	r3, [r1]
 261 004c 5372     		strb	r3, [r2, #9]
 598:Generated_Source\PSoC4/capsense_ADC_Structure.c **** 
 262              		.loc 1 598 0
 263 004e 0131     		adds	r1, r1, #1
 264              	.LVL19:
 608:Generated_Source\PSoC4/capsense_ADC_Structure.c ****             }
 265              		.loc 1 608 0
 266 0050 0A32     		adds	r2, r2, #10
 267              	.LVL20:
 595:Generated_Source\PSoC4/capsense_ADC_Structure.c ****             {
 268              		.loc 1 595 0
 269 0052 0300     		movs	r3, r0
 270              	.LVL21:
 271              	.L21:
 595:Generated_Source\PSoC4/capsense_ADC_Structure.c ****             {
 272              		.loc 1 595 0 is_stmt 0 discriminator 1
 273 0054 581E     		subs	r0, r3, #1
 274              	.LVL22:
 275 0056 002B     		cmp	r3, #0
 276 0058 F7D1     		bne	.L22
 611:Generated_Source\PSoC4/capsense_ADC_Structure.c ****         }
 277              		.loc 1 611 0 is_stmt 1
 278 005a 2C34     		adds	r4, r4, #44
 279              	.LVL23:
 591:Generated_Source\PSoC4/capsense_ADC_Structure.c ****         {
 280              		.loc 1 591 0
 281 005c 2B00     		movs	r3, r5
 282              	.LVL24:
 283              	.L20:
 591:Generated_Source\PSoC4/capsense_ADC_Structure.c ****         {
 284              		.loc 1 591 0 is_stmt 0 discriminator 1
 285 005e 5D1E     		subs	r5, r3, #1
 286              	.LVL25:
 287 0060 002B     		cmp	r3, #0
ARM GAS  C:\Users\ASUS\AppData\Local\Temp\cc3kWfch.s 			page 21


 288 0062 EFD1     		bne	.L23
 640:Generated_Source\PSoC4/capsense_ADC_Structure.c ****     #endif /* (0u != capsense_ADC_ADC_EN) */
 289              		.loc 1 640 0 is_stmt 1
 290 0064 FFF7FEFF 		bl	capsense_ADC_AdcDsInitialize
 291              	.LVL26:
 642:Generated_Source\PSoC4/capsense_ADC_Structure.c **** 
 292              		.loc 1 642 0
 293              		@ sp needed
 294              	.LVL27:
 295              	.LVL28:
 296 0068 70BD     		pop	{r4, r5, r6, pc}
 297              	.L25:
 298 006a C046     		.align	2
 299              	.L24:
 300 006c 00000000 		.word	capsense_ADC_dsRam
 301 0070 CAACFFFF 		.word	-21302
 302 0074 B80B0000 		.word	3000
 303 0078 80000000 		.word	.LANCHOR1
 304 007c 00000000 		.word	.LANCHOR0
 305              		.cfi_endproc
 306              	.LFE1:
 307              		.size	capsense_ADC_DsInitialize, .-capsense_ADC_DsInitialize
 308              		.section	.text.capsense_ADC_GetParam,"ax",%progbits
 309              		.align	2
 310              		.global	capsense_ADC_GetParam
 311              		.code	16
 312              		.thumb_func
 313              		.type	capsense_ADC_GetParam, %function
 314              	capsense_ADC_GetParam:
 315              	.LFB4:
 822:Generated_Source\PSoC4/capsense_ADC_Structure.c **** 
 823:Generated_Source\PSoC4/capsense_ADC_Structure.c **** /*******************************************************************************
 824:Generated_Source\PSoC4/capsense_ADC_Structure.c **** * Function Name: capsense_ADC_GetParam
 825:Generated_Source\PSoC4/capsense_ADC_Structure.c **** ****************************************************************************//**
 826:Generated_Source\PSoC4/capsense_ADC_Structure.c **** *
 827:Generated_Source\PSoC4/capsense_ADC_Structure.c **** * \brief
 828:Generated_Source\PSoC4/capsense_ADC_Structure.c **** *  Gets the specified parameter value from the \ref group_structures.
 829:Generated_Source\PSoC4/capsense_ADC_Structure.c **** *
 830:Generated_Source\PSoC4/capsense_ADC_Structure.c **** * \details
 831:Generated_Source\PSoC4/capsense_ADC_Structure.c **** *  This function gets the value of the specified parameter by the paramId
 832:Generated_Source\PSoC4/capsense_ADC_Structure.c **** *  argument. The paramId for each register is available in the
 833:Generated_Source\PSoC4/capsense_ADC_Structure.c **** *  capsense_ADC RegisterMap header file as
 834:Generated_Source\PSoC4/capsense_ADC_Structure.c **** *  capsense_ADC_<ParameterName>_PARAM_ID. The paramId is a special
 835:Generated_Source\PSoC4/capsense_ADC_Structure.c **** *  enumerated value generated by the customizer. The format of paramId is as
 836:Generated_Source\PSoC4/capsense_ADC_Structure.c **** *  follows:
 837:Generated_Source\PSoC4/capsense_ADC_Structure.c **** *    1. [ byte 3 byte 2 byte 1 byte 0 ]
 838:Generated_Source\PSoC4/capsense_ADC_Structure.c **** *    2. [ TTWFCCCC UIIIIIII MMMMMMMM LLLLLLLL ]
 839:Generated_Source\PSoC4/capsense_ADC_Structure.c **** *    3. T - encodes the parameter type:
 840:Generated_Source\PSoC4/capsense_ADC_Structure.c **** *      - 01b: uint8
 841:Generated_Source\PSoC4/capsense_ADC_Structure.c **** *      - 10b: uint16
 842:Generated_Source\PSoC4/capsense_ADC_Structure.c **** *      - 11b: uint32
 843:Generated_Source\PSoC4/capsense_ADC_Structure.c **** *    4. W - indicates whether the parameter is writable:
 844:Generated_Source\PSoC4/capsense_ADC_Structure.c **** *      - 0: ReadOnly
 845:Generated_Source\PSoC4/capsense_ADC_Structure.c **** *      - 1: Read/Write
 846:Generated_Source\PSoC4/capsense_ADC_Structure.c **** *    5. C - 4 bit CRC (X^3 + 1) of the whole paramId word, the C bits are
 847:Generated_Source\PSoC4/capsense_ADC_Structure.c **** *       filled with 0s when the CRC is calculated.
 848:Generated_Source\PSoC4/capsense_ADC_Structure.c **** *    6. U - indicates if the parameter affects the RAM Widget Object CRC.
ARM GAS  C:\Users\ASUS\AppData\Local\Temp\cc3kWfch.s 			page 22


 849:Generated_Source\PSoC4/capsense_ADC_Structure.c **** *    7. I - specifies that the widgetId parameter belongs to
 850:Generated_Source\PSoC4/capsense_ADC_Structure.c **** *    8. M,L - the parameter offset MSB and LSB accordingly in:
 851:Generated_Source\PSoC4/capsense_ADC_Structure.c **** *      - Flash Data Structure if W bit is 0.
 852:Generated_Source\PSoC4/capsense_ADC_Structure.c **** *      - RAM Data Structure if W bit is 1.
 853:Generated_Source\PSoC4/capsense_ADC_Structure.c **** *
 854:Generated_Source\PSoC4/capsense_ADC_Structure.c **** *  Refer to the \ref group_structures section for details of the data structure
 855:Generated_Source\PSoC4/capsense_ADC_Structure.c **** *  organization and examples of its register access.
 856:Generated_Source\PSoC4/capsense_ADC_Structure.c **** *
 857:Generated_Source\PSoC4/capsense_ADC_Structure.c **** * \param paramId
 858:Generated_Source\PSoC4/capsense_ADC_Structure.c **** *  Specifies the ID of parameter to get its value.
 859:Generated_Source\PSoC4/capsense_ADC_Structure.c **** *  A macro for the parameter ID can be found in the capsense_ADC RegisterMap header
 860:Generated_Source\PSoC4/capsense_ADC_Structure.c **** *  file defined as capsense_ADC_<ParameterName>_PARAM_ID.
 861:Generated_Source\PSoC4/capsense_ADC_Structure.c **** *
 862:Generated_Source\PSoC4/capsense_ADC_Structure.c **** * \param value
 863:Generated_Source\PSoC4/capsense_ADC_Structure.c **** *  The pointer to a variable to be updated with the obtained value.
 864:Generated_Source\PSoC4/capsense_ADC_Structure.c **** *
 865:Generated_Source\PSoC4/capsense_ADC_Structure.c **** * \return
 866:Generated_Source\PSoC4/capsense_ADC_Structure.c **** *  Returns the status of the operation:
 867:Generated_Source\PSoC4/capsense_ADC_Structure.c **** *    - CYRET_SUCCESS - The operation is successfully completed.
 868:Generated_Source\PSoC4/capsense_ADC_Structure.c **** *    - CYRET_BAD_PARAM - The input parameter is invalid.
 869:Generated_Source\PSoC4/capsense_ADC_Structure.c **** *
 870:Generated_Source\PSoC4/capsense_ADC_Structure.c **** *******************************************************************************/
 871:Generated_Source\PSoC4/capsense_ADC_Structure.c **** cystatus capsense_ADC_GetParam(uint32 paramId, uint32 *value)
 872:Generated_Source\PSoC4/capsense_ADC_Structure.c **** {
 316              		.loc 1 872 0
 317              		.cfi_startproc
 318              		@ args = 0, pretend = 0, frame = 8
 319              		@ frame_needed = 0, uses_anonymous_args = 0
 320              	.LVL29:
 321 0000 30B5     		push	{r4, r5, lr}
 322              		.cfi_def_cfa_offset 12
 323              		.cfi_offset 4, -12
 324              		.cfi_offset 5, -8
 325              		.cfi_offset 14, -4
 326 0002 83B0     		sub	sp, sp, #12
 327              		.cfi_def_cfa_offset 24
 328 0004 0D00     		movs	r5, r1
 873:Generated_Source\PSoC4/capsense_ADC_Structure.c ****     PARAM_ID_STRUCT pData;
 874:Generated_Source\PSoC4/capsense_ADC_Structure.c ****     cystatus result;
 875:Generated_Source\PSoC4/capsense_ADC_Structure.c **** 
 876:Generated_Source\PSoC4/capsense_ADC_Structure.c ****     union
 877:Generated_Source\PSoC4/capsense_ADC_Structure.c ****     {
 878:Generated_Source\PSoC4/capsense_ADC_Structure.c ****         volatile void   const * ptr;
 879:Generated_Source\PSoC4/capsense_ADC_Structure.c ****         volatile uint8  const * ptrUint8;
 880:Generated_Source\PSoC4/capsense_ADC_Structure.c ****         volatile uint16 const * ptrUint16;
 881:Generated_Source\PSoC4/capsense_ADC_Structure.c ****         volatile uint32 const * ptrUint32;
 882:Generated_Source\PSoC4/capsense_ADC_Structure.c ****     } ptrData;
 883:Generated_Source\PSoC4/capsense_ADC_Structure.c **** 
 884:Generated_Source\PSoC4/capsense_ADC_Structure.c ****     result = DsParseParamId(paramId, &pData);
 329              		.loc 1 884 0
 330 0006 6946     		mov	r1, sp
 331              	.LVL30:
 332 0008 FFF7FEFF 		bl	DsParseParamId
 333              	.LVL31:
 334 000c 041E     		subs	r4, r0, #0
 335              	.LVL32:
 885:Generated_Source\PSoC4/capsense_ADC_Structure.c **** 
ARM GAS  C:\Users\ASUS\AppData\Local\Temp\cc3kWfch.s 			page 23


 886:Generated_Source\PSoC4/capsense_ADC_Structure.c ****     /* Parse and validate paramId */
 887:Generated_Source\PSoC4/capsense_ADC_Structure.c ****     if (CYRET_SUCCESS == result)
 336              		.loc 1 887 0
 337 000e 1FD1     		bne	.L27
 888:Generated_Source\PSoC4/capsense_ADC_Structure.c ****     {
 889:Generated_Source\PSoC4/capsense_ADC_Structure.c ****         /* Get base address of parameter */
 890:Generated_Source\PSoC4/capsense_ADC_Structure.c ****         if (0u == pData.flash)
 338              		.loc 1 890 0
 339 0010 6B46     		mov	r3, sp
 340 0012 5B79     		ldrb	r3, [r3, #5]
 341 0014 002B     		cmp	r3, #0
 342 0016 01D1     		bne	.L28
 891:Generated_Source\PSoC4/capsense_ADC_Structure.c ****         {
 892:Generated_Source\PSoC4/capsense_ADC_Structure.c ****             ptrData.ptr = &capsense_ADC_dsRam;
 343              		.loc 1 892 0
 344 0018 0F4A     		ldr	r2, .L33
 345              	.LVL33:
 346 001a 02E0     		b	.L29
 347              	.L28:
 893:Generated_Source\PSoC4/capsense_ADC_Structure.c ****         }
 894:Generated_Source\PSoC4/capsense_ADC_Structure.c ****         else
 895:Generated_Source\PSoC4/capsense_ADC_Structure.c ****         {
 896:Generated_Source\PSoC4/capsense_ADC_Structure.c ****             ptrData.ptr = &capsense_ADC_dsFlash;
 348              		.loc 1 896 0
 349 001c 0F4B     		ldr	r3, .L33+4
 350 001e 0833     		adds	r3, r3, #8
 351 0020 1A00     		movs	r2, r3
 352              	.L29:
 897:Generated_Source\PSoC4/capsense_ADC_Structure.c ****         }
 898:Generated_Source\PSoC4/capsense_ADC_Structure.c **** 
 899:Generated_Source\PSoC4/capsense_ADC_Structure.c ****         /* Add offset to base address */
 900:Generated_Source\PSoC4/capsense_ADC_Structure.c ****         ptrData.ptrUint8 += pData.offset;
 353              		.loc 1 900 0
 354 0022 6B46     		mov	r3, sp
 355 0024 1B88     		ldrh	r3, [r3]
 356              	.LVL34:
 357 0026 D318     		adds	r3, r2, r3
 901:Generated_Source\PSoC4/capsense_ADC_Structure.c **** 
 902:Generated_Source\PSoC4/capsense_ADC_Structure.c ****         /* Read data */
 903:Generated_Source\PSoC4/capsense_ADC_Structure.c ****         if (DS_PARAM_TYPE_UINT8 == pData.type)
 358              		.loc 1 903 0
 359 0028 6A46     		mov	r2, sp
 360              	.LVL35:
 361 002a D279     		ldrb	r2, [r2, #7]
 362 002c 012A     		cmp	r2, #1
 363 002e 02D1     		bne	.L30
 904:Generated_Source\PSoC4/capsense_ADC_Structure.c ****         {
 905:Generated_Source\PSoC4/capsense_ADC_Structure.c ****             *value = (uint32) (*ptrData.ptrUint8);
 364              		.loc 1 905 0
 365 0030 1B78     		ldrb	r3, [r3]
 366 0032 2B60     		str	r3, [r5]
 367 0034 0CE0     		b	.L27
 368              	.L30:
 906:Generated_Source\PSoC4/capsense_ADC_Structure.c ****         }
 907:Generated_Source\PSoC4/capsense_ADC_Structure.c ****         else if (DS_PARAM_TYPE_UINT16 == pData.type)
 369              		.loc 1 907 0
 370 0036 022A     		cmp	r2, #2
ARM GAS  C:\Users\ASUS\AppData\Local\Temp\cc3kWfch.s 			page 24


 371 0038 02D1     		bne	.L31
 908:Generated_Source\PSoC4/capsense_ADC_Structure.c ****         {
 909:Generated_Source\PSoC4/capsense_ADC_Structure.c ****             *value = (uint32) (*ptrData.ptrUint16);
 372              		.loc 1 909 0
 373 003a 1B88     		ldrh	r3, [r3]
 374 003c 2B60     		str	r3, [r5]
 375 003e 07E0     		b	.L27
 376              	.L31:
 910:Generated_Source\PSoC4/capsense_ADC_Structure.c ****         }
 911:Generated_Source\PSoC4/capsense_ADC_Structure.c ****         else if (DS_PARAM_TYPE_UINT32 == pData.type)
 377              		.loc 1 911 0
 378 0040 032A     		cmp	r2, #3
 379 0042 02D1     		bne	.L32
 912:Generated_Source\PSoC4/capsense_ADC_Structure.c ****         {
 913:Generated_Source\PSoC4/capsense_ADC_Structure.c ****             *value = *ptrData.ptrUint32;
 380              		.loc 1 913 0
 381 0044 1B68     		ldr	r3, [r3]
 382 0046 2B60     		str	r3, [r5]
 383 0048 02E0     		b	.L27
 384              	.L32:
 914:Generated_Source\PSoC4/capsense_ADC_Structure.c ****         }
 915:Generated_Source\PSoC4/capsense_ADC_Structure.c ****         else
 916:Generated_Source\PSoC4/capsense_ADC_Structure.c ****         {
 917:Generated_Source\PSoC4/capsense_ADC_Structure.c ****             /* Parameter comes here already validated. */
 918:Generated_Source\PSoC4/capsense_ADC_Structure.c ****             CYASSERT(0u);
 385              		.loc 1 918 0 discriminator 1
 386 004a 0020     		movs	r0, #0
 387              	.LVL36:
 388 004c FFF7FEFF 		bl	CyHalt
 389              	.LVL37:
 390              	.L27:
 919:Generated_Source\PSoC4/capsense_ADC_Structure.c ****         }
 920:Generated_Source\PSoC4/capsense_ADC_Structure.c ****     }
 921:Generated_Source\PSoC4/capsense_ADC_Structure.c **** 
 922:Generated_Source\PSoC4/capsense_ADC_Structure.c ****     return result;
 923:Generated_Source\PSoC4/capsense_ADC_Structure.c **** }
 391              		.loc 1 923 0
 392 0050 2000     		movs	r0, r4
 393 0052 03B0     		add	sp, sp, #12
 394              		@ sp needed
 395              	.LVL38:
 396              	.LVL39:
 397 0054 30BD     		pop	{r4, r5, pc}
 398              	.L34:
 399 0056 C046     		.align	2
 400              	.L33:
 401 0058 00000000 		.word	capsense_ADC_dsRam
 402 005c 00000000 		.word	.LANCHOR0
 403              		.cfi_endproc
 404              	.LFE4:
 405              		.size	capsense_ADC_GetParam, .-capsense_ADC_GetParam
 406              		.section	.text.capsense_ADC_SetParam,"ax",%progbits
 407              		.align	2
 408              		.global	capsense_ADC_SetParam
 409              		.code	16
 410              		.thumb_func
 411              		.type	capsense_ADC_SetParam, %function
ARM GAS  C:\Users\ASUS\AppData\Local\Temp\cc3kWfch.s 			page 25


 412              	capsense_ADC_SetParam:
 413              	.LFB5:
 924:Generated_Source\PSoC4/capsense_ADC_Structure.c **** 
 925:Generated_Source\PSoC4/capsense_ADC_Structure.c **** 
 926:Generated_Source\PSoC4/capsense_ADC_Structure.c **** /*******************************************************************************
 927:Generated_Source\PSoC4/capsense_ADC_Structure.c **** * Function Name: capsense_ADC_SetParam
 928:Generated_Source\PSoC4/capsense_ADC_Structure.c **** ****************************************************************************//**
 929:Generated_Source\PSoC4/capsense_ADC_Structure.c **** *
 930:Generated_Source\PSoC4/capsense_ADC_Structure.c **** * \brief
 931:Generated_Source\PSoC4/capsense_ADC_Structure.c **** *  Sets a new value for the specified parameter in the \ref group_structures.
 932:Generated_Source\PSoC4/capsense_ADC_Structure.c **** *
 933:Generated_Source\PSoC4/capsense_ADC_Structure.c **** * \details
 934:Generated_Source\PSoC4/capsense_ADC_Structure.c **** *  This function sets the value of the specified parameter by the paramId
 935:Generated_Source\PSoC4/capsense_ADC_Structure.c **** *  argument. The paramId for each register is available in the
 936:Generated_Source\PSoC4/capsense_ADC_Structure.c **** *  capsense_ADC RegisterMap header file as
 937:Generated_Source\PSoC4/capsense_ADC_Structure.c **** *  capsense_ADC_<ParameterName>_PARAM_ID. The paramId is a special
 938:Generated_Source\PSoC4/capsense_ADC_Structure.c **** *  enumerated value generated by the customizer. The format of paramId is as
 939:Generated_Source\PSoC4/capsense_ADC_Structure.c **** *  follows:
 940:Generated_Source\PSoC4/capsense_ADC_Structure.c **** *    1. [ byte 3 byte 2 byte 1 byte 0 ]
 941:Generated_Source\PSoC4/capsense_ADC_Structure.c **** *    2. [ TTWFCCCC UIIIIIII MMMMMMMM LLLLLLLL ]
 942:Generated_Source\PSoC4/capsense_ADC_Structure.c **** *    3. T - encodes the parameter type:
 943:Generated_Source\PSoC4/capsense_ADC_Structure.c **** *      - 01b: uint8
 944:Generated_Source\PSoC4/capsense_ADC_Structure.c **** *      - 10b: uint16
 945:Generated_Source\PSoC4/capsense_ADC_Structure.c **** *      - 11b: uint32
 946:Generated_Source\PSoC4/capsense_ADC_Structure.c **** *    4. W - indicates whether the parameter is writable:
 947:Generated_Source\PSoC4/capsense_ADC_Structure.c **** *      - 0: ReadOnly
 948:Generated_Source\PSoC4/capsense_ADC_Structure.c **** *      - 1: Read/Write
 949:Generated_Source\PSoC4/capsense_ADC_Structure.c **** *    5. C - 4 bit CRC (X^3 + 1) of the whole paramId word, the C bits are
 950:Generated_Source\PSoC4/capsense_ADC_Structure.c **** *       filled with 0s when the CRC is calculated.
 951:Generated_Source\PSoC4/capsense_ADC_Structure.c **** *    6. U - indicates if the parameter affects the RAM Widget Object CRC.
 952:Generated_Source\PSoC4/capsense_ADC_Structure.c **** *    7. I - specifies that the widgetId parameter belongs to
 953:Generated_Source\PSoC4/capsense_ADC_Structure.c **** *    8. M,L - the parameter offset MSB and LSB accordingly in:
 954:Generated_Source\PSoC4/capsense_ADC_Structure.c **** *      - Flash Data Structure if W bit is 0.
 955:Generated_Source\PSoC4/capsense_ADC_Structure.c **** *      - RAM Data Structure if W bit is 1.
 956:Generated_Source\PSoC4/capsense_ADC_Structure.c **** *
 957:Generated_Source\PSoC4/capsense_ADC_Structure.c **** *  Refer to the \ref group_structures section for details of the data structure
 958:Generated_Source\PSoC4/capsense_ADC_Structure.c **** *  organization and examples of its register access.
 959:Generated_Source\PSoC4/capsense_ADC_Structure.c **** *
 960:Generated_Source\PSoC4/capsense_ADC_Structure.c **** *  This function writes specified value into the desired register without
 961:Generated_Source\PSoC4/capsense_ADC_Structure.c **** *  other registers update. It is application layer responsibility to keep all
 962:Generated_Source\PSoC4/capsense_ADC_Structure.c **** *  the data structure registers aligned. Repeated call of
 963:Generated_Source\PSoC4/capsense_ADC_Structure.c **** *  capsense_ADC_Start() function helps aligning dependent register values.
 964:Generated_Source\PSoC4/capsense_ADC_Structure.c **** *
 965:Generated_Source\PSoC4/capsense_ADC_Structure.c **** * \param paramId
 966:Generated_Source\PSoC4/capsense_ADC_Structure.c **** *  Specifies the ID of parameter to set its value.
 967:Generated_Source\PSoC4/capsense_ADC_Structure.c **** *  A macro for the parameter ID can be found in the capsense_ADC RegisterMap header
 968:Generated_Source\PSoC4/capsense_ADC_Structure.c **** *  file defined as capsense_ADC_<ParameterName>_PARAM_ID.
 969:Generated_Source\PSoC4/capsense_ADC_Structure.c **** 
 970:Generated_Source\PSoC4/capsense_ADC_Structure.c **** * \param value
 971:Generated_Source\PSoC4/capsense_ADC_Structure.c **** *  Specifies the new parameter's value.
 972:Generated_Source\PSoC4/capsense_ADC_Structure.c **** *
 973:Generated_Source\PSoC4/capsense_ADC_Structure.c **** * \return
 974:Generated_Source\PSoC4/capsense_ADC_Structure.c **** *  Returns the status of the operation:
 975:Generated_Source\PSoC4/capsense_ADC_Structure.c **** *    - CYRET_SUCCESS - The operation is successfully completed.
 976:Generated_Source\PSoC4/capsense_ADC_Structure.c **** *    - CYRET_BAD_PARAM - The input parameter is invalid.
 977:Generated_Source\PSoC4/capsense_ADC_Structure.c **** *
 978:Generated_Source\PSoC4/capsense_ADC_Structure.c **** *******************************************************************************/
ARM GAS  C:\Users\ASUS\AppData\Local\Temp\cc3kWfch.s 			page 26


 979:Generated_Source\PSoC4/capsense_ADC_Structure.c **** cystatus capsense_ADC_SetParam(uint32 paramId, uint32 value)
 980:Generated_Source\PSoC4/capsense_ADC_Structure.c **** {
 414              		.loc 1 980 0
 415              		.cfi_startproc
 416              		@ args = 0, pretend = 0, frame = 8
 417              		@ frame_needed = 0, uses_anonymous_args = 0
 418              	.LVL40:
 419 0000 30B5     		push	{r4, r5, lr}
 420              		.cfi_def_cfa_offset 12
 421              		.cfi_offset 4, -12
 422              		.cfi_offset 5, -8
 423              		.cfi_offset 14, -4
 424 0002 83B0     		sub	sp, sp, #12
 425              		.cfi_def_cfa_offset 24
 426 0004 0D00     		movs	r5, r1
 981:Generated_Source\PSoC4/capsense_ADC_Structure.c ****     cystatus result;
 982:Generated_Source\PSoC4/capsense_ADC_Structure.c ****     PARAM_ID_STRUCT pData;
 983:Generated_Source\PSoC4/capsense_ADC_Structure.c **** 
 984:Generated_Source\PSoC4/capsense_ADC_Structure.c ****     union
 985:Generated_Source\PSoC4/capsense_ADC_Structure.c ****     {
 986:Generated_Source\PSoC4/capsense_ADC_Structure.c ****         volatile void   * ptr;
 987:Generated_Source\PSoC4/capsense_ADC_Structure.c ****         volatile uint8  * ptrUint8;
 988:Generated_Source\PSoC4/capsense_ADC_Structure.c ****         volatile uint16 * ptrUint16;
 989:Generated_Source\PSoC4/capsense_ADC_Structure.c ****         volatile uint32 * ptrUint32;
 990:Generated_Source\PSoC4/capsense_ADC_Structure.c ****     } ptrData;
 991:Generated_Source\PSoC4/capsense_ADC_Structure.c **** 
 992:Generated_Source\PSoC4/capsense_ADC_Structure.c ****     result = DsParseParamId(paramId, &pData);
 427              		.loc 1 992 0
 428 0006 6946     		mov	r1, sp
 429              	.LVL41:
 430 0008 FFF7FEFF 		bl	DsParseParamId
 431              	.LVL42:
 432 000c 041E     		subs	r4, r0, #0
 433              	.LVL43:
 993:Generated_Source\PSoC4/capsense_ADC_Structure.c **** 
 994:Generated_Source\PSoC4/capsense_ADC_Structure.c ****     /* verify if parameter is writable */
 995:Generated_Source\PSoC4/capsense_ADC_Structure.c ****     if (CYRET_SUCCESS == result)
 434              		.loc 1 995 0
 435 000e 04D1     		bne	.L36
 996:Generated_Source\PSoC4/capsense_ADC_Structure.c ****     {
 997:Generated_Source\PSoC4/capsense_ADC_Structure.c ****         if (0u == pData.rw)
 436              		.loc 1 997 0
 437 0010 6B46     		mov	r3, sp
 438 0012 9B79     		ldrb	r3, [r3, #6]
 439 0014 002B     		cmp	r3, #0
 440 0016 00D1     		bne	.L36
 998:Generated_Source\PSoC4/capsense_ADC_Structure.c ****         {
 999:Generated_Source\PSoC4/capsense_ADC_Structure.c ****             result = CYRET_BAD_PARAM;
 441              		.loc 1 999 0
 442 0018 0134     		adds	r4, r4, #1
 443              	.L36:
 444              	.LVL44:
1000:Generated_Source\PSoC4/capsense_ADC_Structure.c ****         }
1001:Generated_Source\PSoC4/capsense_ADC_Structure.c ****     }
1002:Generated_Source\PSoC4/capsense_ADC_Structure.c **** 
1003:Generated_Source\PSoC4/capsense_ADC_Structure.c ****     /* Parse and validate paramId */
1004:Generated_Source\PSoC4/capsense_ADC_Structure.c ****     if (CYRET_SUCCESS == result)
ARM GAS  C:\Users\ASUS\AppData\Local\Temp\cc3kWfch.s 			page 27


 445              		.loc 1 1004 0
 446 001a 002C     		cmp	r4, #0
 447 001c 16D1     		bne	.L37
1005:Generated_Source\PSoC4/capsense_ADC_Structure.c ****     {
1006:Generated_Source\PSoC4/capsense_ADC_Structure.c ****         /* Get base address of parameter */
1007:Generated_Source\PSoC4/capsense_ADC_Structure.c ****         ptrData.ptr = &capsense_ADC_dsRam;
1008:Generated_Source\PSoC4/capsense_ADC_Structure.c **** 
1009:Generated_Source\PSoC4/capsense_ADC_Structure.c ****         /* Add offset to base address */
1010:Generated_Source\PSoC4/capsense_ADC_Structure.c ****         ptrData.ptrUint8 += pData.offset;
 448              		.loc 1 1010 0
 449 001e 6B46     		mov	r3, sp
 450 0020 1A88     		ldrh	r2, [r3]
 451 0022 0C4B     		ldr	r3, .L42
 452 0024 D318     		adds	r3, r2, r3
1011:Generated_Source\PSoC4/capsense_ADC_Structure.c **** 
1012:Generated_Source\PSoC4/capsense_ADC_Structure.c ****         /* Write data */
1013:Generated_Source\PSoC4/capsense_ADC_Structure.c ****         if (DS_PARAM_TYPE_UINT8 == pData.type)
 453              		.loc 1 1013 0
 454 0026 6A46     		mov	r2, sp
 455 0028 D279     		ldrb	r2, [r2, #7]
 456 002a 012A     		cmp	r2, #1
 457 002c 02D1     		bne	.L38
1014:Generated_Source\PSoC4/capsense_ADC_Structure.c ****         {
1015:Generated_Source\PSoC4/capsense_ADC_Structure.c ****             *ptrData.ptrUint8 = LO8(value);
 458              		.loc 1 1015 0
 459 002e EDB2     		uxtb	r5, r5
 460              	.LVL45:
 461 0030 1D70     		strb	r5, [r3]
 462 0032 0BE0     		b	.L37
 463              	.LVL46:
 464              	.L38:
1016:Generated_Source\PSoC4/capsense_ADC_Structure.c ****         }
1017:Generated_Source\PSoC4/capsense_ADC_Structure.c ****         else if (DS_PARAM_TYPE_UINT16 == pData.type)
 465              		.loc 1 1017 0
 466 0034 022A     		cmp	r2, #2
 467 0036 02D1     		bne	.L39
1018:Generated_Source\PSoC4/capsense_ADC_Structure.c ****         {
1019:Generated_Source\PSoC4/capsense_ADC_Structure.c ****             *ptrData.ptrUint16 = LO16(value);
 468              		.loc 1 1019 0
 469 0038 ADB2     		uxth	r5, r5
 470              	.LVL47:
 471 003a 1D80     		strh	r5, [r3]
 472 003c 06E0     		b	.L37
 473              	.LVL48:
 474              	.L39:
1020:Generated_Source\PSoC4/capsense_ADC_Structure.c ****         }
1021:Generated_Source\PSoC4/capsense_ADC_Structure.c ****         else if (DS_PARAM_TYPE_UINT32 == pData.type)
 475              		.loc 1 1021 0
 476 003e 032A     		cmp	r2, #3
 477 0040 01D1     		bne	.L40
1022:Generated_Source\PSoC4/capsense_ADC_Structure.c ****         {
1023:Generated_Source\PSoC4/capsense_ADC_Structure.c ****             *ptrData.ptrUint32 = value;
 478              		.loc 1 1023 0
 479 0042 1D60     		str	r5, [r3]
 480 0044 02E0     		b	.L37
 481              	.L40:
1024:Generated_Source\PSoC4/capsense_ADC_Structure.c ****         }
ARM GAS  C:\Users\ASUS\AppData\Local\Temp\cc3kWfch.s 			page 28


1025:Generated_Source\PSoC4/capsense_ADC_Structure.c ****         else
1026:Generated_Source\PSoC4/capsense_ADC_Structure.c ****         {
1027:Generated_Source\PSoC4/capsense_ADC_Structure.c ****             /* Parameter comes here already validated. */
1028:Generated_Source\PSoC4/capsense_ADC_Structure.c ****             CYASSERT(0u);
 482              		.loc 1 1028 0 discriminator 1
 483 0046 0020     		movs	r0, #0
 484 0048 FFF7FEFF 		bl	CyHalt
 485              	.LVL49:
 486              	.L37:
1029:Generated_Source\PSoC4/capsense_ADC_Structure.c ****         }
1030:Generated_Source\PSoC4/capsense_ADC_Structure.c **** 
1031:Generated_Source\PSoC4/capsense_ADC_Structure.c ****         #if (capsense_ADC_ENABLE == (capsense_ADC_TST_WDGT_CRC_EN || capsense_ADC_TST_GLOBAL_CRC_EN
1032:Generated_Source\PSoC4/capsense_ADC_Structure.c ****             /* Update widget or global CRC if self-test is enabled and parameter affects it */
1033:Generated_Source\PSoC4/capsense_ADC_Structure.c ****             if (0u != pData.affectsCrc)
1034:Generated_Source\PSoC4/capsense_ADC_Structure.c ****             {
1035:Generated_Source\PSoC4/capsense_ADC_Structure.c ****                 if ((ptrData.ptrUint16 >= &capsense_ADC_dsRam.csd0Config) &&
1036:Generated_Source\PSoC4/capsense_ADC_Structure.c ****                     (ptrData.ptrUint16 <  &capsense_ADC_dsRam.glbCrc))
1037:Generated_Source\PSoC4/capsense_ADC_Structure.c ****                 {
1038:Generated_Source\PSoC4/capsense_ADC_Structure.c **** 
1039:Generated_Source\PSoC4/capsense_ADC_Structure.c ****                     #if (capsense_ADC_ENABLE == capsense_ADC_TST_GLOBAL_CRC_EN)
1040:Generated_Source\PSoC4/capsense_ADC_Structure.c ****                         capsense_ADC_DsUpdateGlobalCrc();
1041:Generated_Source\PSoC4/capsense_ADC_Structure.c ****                     #endif /* (capsense_ADC_ENABLE == capsense_ADC_TST_GLOBAL_CRC_EN) */
1042:Generated_Source\PSoC4/capsense_ADC_Structure.c **** 
1043:Generated_Source\PSoC4/capsense_ADC_Structure.c ****                 }
1044:Generated_Source\PSoC4/capsense_ADC_Structure.c ****                 else
1045:Generated_Source\PSoC4/capsense_ADC_Structure.c ****                 {
1046:Generated_Source\PSoC4/capsense_ADC_Structure.c ****                     #if (capsense_ADC_ENABLE == capsense_ADC_TST_WDGT_CRC_EN)
1047:Generated_Source\PSoC4/capsense_ADC_Structure.c ****                         capsense_ADC_DsUpdateWidgetCrc((uint32)pData.widgetId);
1048:Generated_Source\PSoC4/capsense_ADC_Structure.c ****                     #endif /* (capsense_ADC_ENABLE == capsense_ADC_TST_WDGT_CRC_EN) */
1049:Generated_Source\PSoC4/capsense_ADC_Structure.c ****                 }
1050:Generated_Source\PSoC4/capsense_ADC_Structure.c ****             }
1051:Generated_Source\PSoC4/capsense_ADC_Structure.c ****         #endif /* (capsense_ADC_ENABLE == (capsense_ADC_TST_WDGT_CRC_EN || capsense_ADC_TST_GLOBAL_
1052:Generated_Source\PSoC4/capsense_ADC_Structure.c ****     }
1053:Generated_Source\PSoC4/capsense_ADC_Structure.c **** 
1054:Generated_Source\PSoC4/capsense_ADC_Structure.c ****     return result;
1055:Generated_Source\PSoC4/capsense_ADC_Structure.c **** }
 487              		.loc 1 1055 0
 488 004c 2000     		movs	r0, r4
 489 004e 03B0     		add	sp, sp, #12
 490              		@ sp needed
 491              	.LVL50:
 492 0050 30BD     		pop	{r4, r5, pc}
 493              	.L43:
 494 0052 C046     		.align	2
 495              	.L42:
 496 0054 00000000 		.word	capsense_ADC_dsRam
 497              		.cfi_endproc
 498              	.LFE5:
 499              		.size	capsense_ADC_SetParam, .-capsense_ADC_SetParam
 500              		.section	.text.capsense_ADC_IsAnyWidgetActive,"ax",%progbits
 501              		.align	2
 502              		.global	capsense_ADC_IsAnyWidgetActive
 503              		.code	16
 504              		.thumb_func
 505              		.type	capsense_ADC_IsAnyWidgetActive, %function
 506              	capsense_ADC_IsAnyWidgetActive:
 507              	.LFB6:
ARM GAS  C:\Users\ASUS\AppData\Local\Temp\cc3kWfch.s 			page 29


1056:Generated_Source\PSoC4/capsense_ADC_Structure.c **** 
1057:Generated_Source\PSoC4/capsense_ADC_Structure.c **** /*******************************************************************************
1058:Generated_Source\PSoC4/capsense_ADC_Structure.c **** * Function Name: capsense_ADC_IsAnyWidgetActive
1059:Generated_Source\PSoC4/capsense_ADC_Structure.c **** ****************************************************************************//**
1060:Generated_Source\PSoC4/capsense_ADC_Structure.c **** *
1061:Generated_Source\PSoC4/capsense_ADC_Structure.c **** * \brief
1062:Generated_Source\PSoC4/capsense_ADC_Structure.c **** *  Reports if any widget has detected a touch.
1063:Generated_Source\PSoC4/capsense_ADC_Structure.c **** *
1064:Generated_Source\PSoC4/capsense_ADC_Structure.c **** * \details
1065:Generated_Source\PSoC4/capsense_ADC_Structure.c **** *  This function reports if any widget has detected a touch or not by extracting
1066:Generated_Source\PSoC4/capsense_ADC_Structure.c **** *  information from the wdgtStatus registers
1067:Generated_Source\PSoC4/capsense_ADC_Structure.c **** *  (capsense_ADC_WDGT_STATUS<X>_VALUE). This function does not process a
1068:Generated_Source\PSoC4/capsense_ADC_Structure.c **** *  widget but extracts processed results from the \ref group_structures.
1069:Generated_Source\PSoC4/capsense_ADC_Structure.c **** *
1070:Generated_Source\PSoC4/capsense_ADC_Structure.c **** * \return
1071:Generated_Source\PSoC4/capsense_ADC_Structure.c **** *   Returns the touch detection status of all the widgets:
1072:Generated_Source\PSoC4/capsense_ADC_Structure.c **** *     - Zero - No touch is detected in all the widgets or sensors.
1073:Generated_Source\PSoC4/capsense_ADC_Structure.c **** *     - Non-zero - At least one widget or sensor detected a touch.
1074:Generated_Source\PSoC4/capsense_ADC_Structure.c **** *
1075:Generated_Source\PSoC4/capsense_ADC_Structure.c **** *******************************************************************************/
1076:Generated_Source\PSoC4/capsense_ADC_Structure.c **** uint32 capsense_ADC_IsAnyWidgetActive(void)
1077:Generated_Source\PSoC4/capsense_ADC_Structure.c **** {
 508              		.loc 1 1077 0
 509              		.cfi_startproc
 510              		@ args = 0, pretend = 0, frame = 0
 511              		@ frame_needed = 0, uses_anonymous_args = 0
 512              		@ link register save eliminated.
 513              	.LVL51:
1078:Generated_Source\PSoC4/capsense_ADC_Structure.c ****     uint32 result = 0Lu;
1079:Generated_Source\PSoC4/capsense_ADC_Structure.c ****     uint32 wdWord;
1080:Generated_Source\PSoC4/capsense_ADC_Structure.c **** 
1081:Generated_Source\PSoC4/capsense_ADC_Structure.c ****     for (wdWord = capsense_ADC_WDGT_STATUS_WORDS; wdWord-- > 0u;)
 514              		.loc 1 1081 0
 515 0000 0123     		movs	r3, #1
1078:Generated_Source\PSoC4/capsense_ADC_Structure.c ****     uint32 result = 0Lu;
 516              		.loc 1 1078 0
 517 0002 0020     		movs	r0, #0
 518              		.loc 1 1081 0
 519 0004 06E0     		b	.L45
 520              	.LVL52:
 521              	.L46:
1082:Generated_Source\PSoC4/capsense_ADC_Structure.c ****     {
1083:Generated_Source\PSoC4/capsense_ADC_Structure.c ****         result |= capsense_ADC_dsRam.wdgtStatus[wdWord];
 522              		.loc 1 1083 0
 523 0006 131D     		adds	r3, r2, #4
 524 0008 9B00     		lsls	r3, r3, #2
 525 000a 0449     		ldr	r1, .L47
 526 000c CB18     		adds	r3, r1, r3
 527 000e 5B68     		ldr	r3, [r3, #4]
 528 0010 1843     		orrs	r0, r3
 529              	.LVL53:
1081:Generated_Source\PSoC4/capsense_ADC_Structure.c ****     {
 530              		.loc 1 1081 0
 531 0012 1300     		movs	r3, r2
 532              	.LVL54:
 533              	.L45:
1081:Generated_Source\PSoC4/capsense_ADC_Structure.c ****     {
ARM GAS  C:\Users\ASUS\AppData\Local\Temp\cc3kWfch.s 			page 30


 534              		.loc 1 1081 0 is_stmt 0 discriminator 1
 535 0014 5A1E     		subs	r2, r3, #1
 536              	.LVL55:
 537 0016 002B     		cmp	r3, #0
 538 0018 F5D1     		bne	.L46
1084:Generated_Source\PSoC4/capsense_ADC_Structure.c ****     }
1085:Generated_Source\PSoC4/capsense_ADC_Structure.c **** 
1086:Generated_Source\PSoC4/capsense_ADC_Structure.c ****     return result;
1087:Generated_Source\PSoC4/capsense_ADC_Structure.c **** }
 539              		.loc 1 1087 0 is_stmt 1
 540              		@ sp needed
 541 001a 7047     		bx	lr
 542              	.L48:
 543              		.align	2
 544              	.L47:
 545 001c 00000000 		.word	capsense_ADC_dsRam
 546              		.cfi_endproc
 547              	.LFE6:
 548              		.size	capsense_ADC_IsAnyWidgetActive, .-capsense_ADC_IsAnyWidgetActive
 549              		.section	.text.capsense_ADC_IsWidgetActive,"ax",%progbits
 550              		.align	2
 551              		.global	capsense_ADC_IsWidgetActive
 552              		.code	16
 553              		.thumb_func
 554              		.type	capsense_ADC_IsWidgetActive, %function
 555              	capsense_ADC_IsWidgetActive:
 556              	.LFB7:
1088:Generated_Source\PSoC4/capsense_ADC_Structure.c **** 
1089:Generated_Source\PSoC4/capsense_ADC_Structure.c **** 
1090:Generated_Source\PSoC4/capsense_ADC_Structure.c **** /*******************************************************************************
1091:Generated_Source\PSoC4/capsense_ADC_Structure.c **** * Function Name: capsense_ADC_IsWidgetActive
1092:Generated_Source\PSoC4/capsense_ADC_Structure.c **** ****************************************************************************//**
1093:Generated_Source\PSoC4/capsense_ADC_Structure.c **** *
1094:Generated_Source\PSoC4/capsense_ADC_Structure.c **** * \brief
1095:Generated_Source\PSoC4/capsense_ADC_Structure.c **** *  Reports if the specified widget detects a touch on any of its sensors.
1096:Generated_Source\PSoC4/capsense_ADC_Structure.c **** *
1097:Generated_Source\PSoC4/capsense_ADC_Structure.c **** * \details
1098:Generated_Source\PSoC4/capsense_ADC_Structure.c **** *  This function reports if the specified widget has detected a touch or not by
1099:Generated_Source\PSoC4/capsense_ADC_Structure.c **** *  extracting information from the wdgtStatus registers
1100:Generated_Source\PSoC4/capsense_ADC_Structure.c **** *  (capsense_ADC_WDGT_STATUS<X>_VALUE). This function does not process the
1101:Generated_Source\PSoC4/capsense_ADC_Structure.c **** *  widget but extracts processed results from the \ref group_structures.
1102:Generated_Source\PSoC4/capsense_ADC_Structure.c **** *
1103:Generated_Source\PSoC4/capsense_ADC_Structure.c **** * \param widgetId
1104:Generated_Source\PSoC4/capsense_ADC_Structure.c **** *  Specifies the ID number of the widget to get its status.
1105:Generated_Source\PSoC4/capsense_ADC_Structure.c **** *  A macro for the widget ID can be found in the capsense_ADC Configuration header
1106:Generated_Source\PSoC4/capsense_ADC_Structure.c **** *  file defined as capsense_ADC_<WidgetName>_WDGT_ID.
1107:Generated_Source\PSoC4/capsense_ADC_Structure.c **** *
1108:Generated_Source\PSoC4/capsense_ADC_Structure.c **** * \return
1109:Generated_Source\PSoC4/capsense_ADC_Structure.c **** *  Returns the touch detection status of the specified widgets:
1110:Generated_Source\PSoC4/capsense_ADC_Structure.c **** *    - Zero - No touch is detected in the specified widget or a wrong widgetId
1111:Generated_Source\PSoC4/capsense_ADC_Structure.c **** *      is specified.
1112:Generated_Source\PSoC4/capsense_ADC_Structure.c **** *    - Non-zero if at least one sensor of the specified widget is active, i.e.
1113:Generated_Source\PSoC4/capsense_ADC_Structure.c **** *      a touch is detected.
1114:Generated_Source\PSoC4/capsense_ADC_Structure.c **** *
1115:Generated_Source\PSoC4/capsense_ADC_Structure.c **** *******************************************************************************/
1116:Generated_Source\PSoC4/capsense_ADC_Structure.c **** uint32 capsense_ADC_IsWidgetActive(uint32 widgetId)
1117:Generated_Source\PSoC4/capsense_ADC_Structure.c **** {
ARM GAS  C:\Users\ASUS\AppData\Local\Temp\cc3kWfch.s 			page 31


 557              		.loc 1 1117 0
 558              		.cfi_startproc
 559              		@ args = 0, pretend = 0, frame = 0
 560              		@ frame_needed = 0, uses_anonymous_args = 0
 561              		@ link register save eliminated.
 562              	.LVL56:
1118:Generated_Source\PSoC4/capsense_ADC_Structure.c ****     uint32 result = 0Lu;
1119:Generated_Source\PSoC4/capsense_ADC_Structure.c **** 
1120:Generated_Source\PSoC4/capsense_ADC_Structure.c ****     if (widgetId < capsense_ADC_TOTAL_WIDGETS)
 563              		.loc 1 1120 0
 564 0000 0328     		cmp	r0, #3
 565 0002 0BD8     		bhi	.L51
1121:Generated_Source\PSoC4/capsense_ADC_Structure.c ****     {
1122:Generated_Source\PSoC4/capsense_ADC_Structure.c ****         result = capsense_ADC_GET_WIDGET_ACTIVE_STATUS(widgetId);
 566              		.loc 1 1122 0
 567 0004 1F23     		movs	r3, #31
 568 0006 0340     		ands	r3, r0
 569 0008 0122     		movs	r2, #1
 570 000a 9A40     		lsls	r2, r2, r3
 571 000c 4009     		lsrs	r0, r0, #5
 572              	.LVL57:
 573 000e 031D     		adds	r3, r0, #4
 574 0010 9B00     		lsls	r3, r3, #2
 575 0012 0348     		ldr	r0, .L52
 576 0014 C318     		adds	r3, r0, r3
 577 0016 5868     		ldr	r0, [r3, #4]
 578 0018 1040     		ands	r0, r2
 579              	.LVL58:
 580 001a 00E0     		b	.L50
 581              	.LVL59:
 582              	.L51:
1118:Generated_Source\PSoC4/capsense_ADC_Structure.c ****     uint32 result = 0Lu;
 583              		.loc 1 1118 0
 584 001c 0020     		movs	r0, #0
 585              	.LVL60:
 586              	.L50:
1123:Generated_Source\PSoC4/capsense_ADC_Structure.c ****     }
1124:Generated_Source\PSoC4/capsense_ADC_Structure.c ****     return result;
1125:Generated_Source\PSoC4/capsense_ADC_Structure.c **** }
 587              		.loc 1 1125 0
 588              		@ sp needed
 589 001e 7047     		bx	lr
 590              	.L53:
 591              		.align	2
 592              	.L52:
 593 0020 00000000 		.word	capsense_ADC_dsRam
 594              		.cfi_endproc
 595              	.LFE7:
 596              		.size	capsense_ADC_IsWidgetActive, .-capsense_ADC_IsWidgetActive
 597              		.section	.text.capsense_ADC_IsSensorActive,"ax",%progbits
 598              		.align	2
 599              		.global	capsense_ADC_IsSensorActive
 600              		.code	16
 601              		.thumb_func
 602              		.type	capsense_ADC_IsSensorActive, %function
 603              	capsense_ADC_IsSensorActive:
 604              	.LFB8:
ARM GAS  C:\Users\ASUS\AppData\Local\Temp\cc3kWfch.s 			page 32


1126:Generated_Source\PSoC4/capsense_ADC_Structure.c **** 
1127:Generated_Source\PSoC4/capsense_ADC_Structure.c **** 
1128:Generated_Source\PSoC4/capsense_ADC_Structure.c **** /*******************************************************************************
1129:Generated_Source\PSoC4/capsense_ADC_Structure.c **** * Function Name: capsense_ADC_IsSensorActive
1130:Generated_Source\PSoC4/capsense_ADC_Structure.c **** ****************************************************************************//**
1131:Generated_Source\PSoC4/capsense_ADC_Structure.c **** *
1132:Generated_Source\PSoC4/capsense_ADC_Structure.c **** * \brief
1133:Generated_Source\PSoC4/capsense_ADC_Structure.c **** *  Reports if the specified sensor in the widget detects a touch.
1134:Generated_Source\PSoC4/capsense_ADC_Structure.c **** *
1135:Generated_Source\PSoC4/capsense_ADC_Structure.c **** * \details
1136:Generated_Source\PSoC4/capsense_ADC_Structure.c **** *  This function reports if the specified sensor in the widget has detected a
1137:Generated_Source\PSoC4/capsense_ADC_Structure.c **** *  touch or not by extracting information from the wdgtStatus registers
1138:Generated_Source\PSoC4/capsense_ADC_Structure.c **** *  (capsense_ADC_WDGT_STATUS<X>_VALUE). This function does not process the
1139:Generated_Source\PSoC4/capsense_ADC_Structure.c **** *  widget or sensor but extracts processed results from the \ref group_structures.
1140:Generated_Source\PSoC4/capsense_ADC_Structure.c **** *
1141:Generated_Source\PSoC4/capsense_ADC_Structure.c **** *  For proximity sensors, this function returns the proximity detection status. To
1142:Generated_Source\PSoC4/capsense_ADC_Structure.c **** *  get the finger touch status of proximity sensors, use the
1143:Generated_Source\PSoC4/capsense_ADC_Structure.c **** *  capsense_ADC_IsProximitySensorActive() function.
1144:Generated_Source\PSoC4/capsense_ADC_Structure.c **** *
1145:Generated_Source\PSoC4/capsense_ADC_Structure.c **** * \param widgetId
1146:Generated_Source\PSoC4/capsense_ADC_Structure.c **** *  Specifies the ID number of the widget.
1147:Generated_Source\PSoC4/capsense_ADC_Structure.c **** *  A macro for the widget ID can be found in the capsense_ADC Configuration header
1148:Generated_Source\PSoC4/capsense_ADC_Structure.c **** *  file defined as capsense_ADC_<WidgetName>_WDGT_ID.
1149:Generated_Source\PSoC4/capsense_ADC_Structure.c **** 
1150:Generated_Source\PSoC4/capsense_ADC_Structure.c **** * \param sensorId
1151:Generated_Source\PSoC4/capsense_ADC_Structure.c **** *  Specifies the ID number of the sensor within the widget to get its touch
1152:Generated_Source\PSoC4/capsense_ADC_Structure.c **** *  detection status.
1153:Generated_Source\PSoC4/capsense_ADC_Structure.c **** *  A macro for the sensor ID within the specified widget can be found in the
1154:Generated_Source\PSoC4/capsense_ADC_Structure.c **** *  capsense_ADC Configuration header file defined as
1155:Generated_Source\PSoC4/capsense_ADC_Structure.c **** *  capsense_ADC_<WidgetName>_SNS<SensorNumber>_ID.
1156:Generated_Source\PSoC4/capsense_ADC_Structure.c **** *
1157:Generated_Source\PSoC4/capsense_ADC_Structure.c **** * \return
1158:Generated_Source\PSoC4/capsense_ADC_Structure.c **** *  Returns the touch detection status of the specified sensor / widget:
1159:Generated_Source\PSoC4/capsense_ADC_Structure.c **** *    - Zero if no touch is detected in the specified sensor / widget or a wrong
1160:Generated_Source\PSoC4/capsense_ADC_Structure.c **** *      widget ID / sensor ID is specified.
1161:Generated_Source\PSoC4/capsense_ADC_Structure.c **** *    - Non-zero if the specified sensor is active i.e. touch is detected. If the
1162:Generated_Source\PSoC4/capsense_ADC_Structure.c **** *      specific sensor belongs to a proximity widget, the proximity detection
1163:Generated_Source\PSoC4/capsense_ADC_Structure.c **** *      status is returned.
1164:Generated_Source\PSoC4/capsense_ADC_Structure.c **** *
1165:Generated_Source\PSoC4/capsense_ADC_Structure.c **** *******************************************************************************/
1166:Generated_Source\PSoC4/capsense_ADC_Structure.c **** uint32 capsense_ADC_IsSensorActive(uint32 widgetId, uint32 sensorId)
1167:Generated_Source\PSoC4/capsense_ADC_Structure.c **** {
 605              		.loc 1 1167 0
 606              		.cfi_startproc
 607              		@ args = 0, pretend = 0, frame = 0
 608              		@ frame_needed = 0, uses_anonymous_args = 0
 609              		@ link register save eliminated.
 610              	.LVL61:
1168:Generated_Source\PSoC4/capsense_ADC_Structure.c ****     uint32 result = 0Lu;
1169:Generated_Source\PSoC4/capsense_ADC_Structure.c **** 
1170:Generated_Source\PSoC4/capsense_ADC_Structure.c ****     if ((widgetId < capsense_ADC_TOTAL_WIDGETS) &&
 611              		.loc 1 1170 0
 612 0000 0328     		cmp	r0, #3
 613 0002 0DD8     		bhi	.L56
1171:Generated_Source\PSoC4/capsense_ADC_Structure.c ****         (sensorId < capsense_ADC_GET_SENSOR_COUNT(widgetId)))
 614              		.loc 1 1171 0 discriminator 1
 615 0004 2C23     		movs	r3, #44
ARM GAS  C:\Users\ASUS\AppData\Local\Temp\cc3kWfch.s 			page 33


 616 0006 4343     		muls	r3, r0
 617 0008 074A     		ldr	r2, .L58
 618 000a D318     		adds	r3, r2, r3
 619 000c 1B8C     		ldrh	r3, [r3, #32]
1170:Generated_Source\PSoC4/capsense_ADC_Structure.c ****         (sensorId < capsense_ADC_GET_SENSOR_COUNT(widgetId)))
 620              		.loc 1 1170 0 discriminator 1
 621 000e 8B42     		cmp	r3, r1
 622 0010 08D9     		bls	.L57
1172:Generated_Source\PSoC4/capsense_ADC_Structure.c ****     {
1173:Generated_Source\PSoC4/capsense_ADC_Structure.c ****         #if (capsense_ADC_ENABLE == capsense_ADC_PROXIMITY_WIDGET_EN)
1174:Generated_Source\PSoC4/capsense_ADC_Structure.c ****             if (capsense_ADC_WD_PROXIMITY_E ==
1175:Generated_Source\PSoC4/capsense_ADC_Structure.c ****                 (capsense_ADC_WD_TYPE_ENUM)capsense_ADC_dsFlash.wdgtArray[widgetId].wdgtType)
1176:Generated_Source\PSoC4/capsense_ADC_Structure.c ****             {
1177:Generated_Source\PSoC4/capsense_ADC_Structure.c ****                 sensorId = capsense_ADC_PROX_STS_OFFSET(sensorId);
1178:Generated_Source\PSoC4/capsense_ADC_Structure.c ****             }
1179:Generated_Source\PSoC4/capsense_ADC_Structure.c ****         #endif /* (capsense_ADC_ENABLE != capsense_ADC_PROXIMITY_WIDGET_EN) */
1180:Generated_Source\PSoC4/capsense_ADC_Structure.c ****         result = capsense_ADC_dsRam.snsStatus[widgetId] & (1Lu << sensorId);
 623              		.loc 1 1180 0
 624 0012 064B     		ldr	r3, .L58+4
 625 0014 1818     		adds	r0, r3, r0
 626              	.LVL62:
 627 0016 037E     		ldrb	r3, [r0, #24]
 628 0018 0120     		movs	r0, #1
 629 001a 8840     		lsls	r0, r0, r1
 630 001c 1840     		ands	r0, r3
 631              	.LVL63:
 632 001e 02E0     		b	.L55
 633              	.LVL64:
 634              	.L56:
1168:Generated_Source\PSoC4/capsense_ADC_Structure.c **** 
 635              		.loc 1 1168 0
 636 0020 0020     		movs	r0, #0
 637              	.LVL65:
 638 0022 00E0     		b	.L55
 639              	.LVL66:
 640              	.L57:
 641 0024 0020     		movs	r0, #0
 642              	.LVL67:
 643              	.L55:
1181:Generated_Source\PSoC4/capsense_ADC_Structure.c ****     }
1182:Generated_Source\PSoC4/capsense_ADC_Structure.c **** 
1183:Generated_Source\PSoC4/capsense_ADC_Structure.c ****     return result;
1184:Generated_Source\PSoC4/capsense_ADC_Structure.c **** }
 644              		.loc 1 1184 0
 645              		@ sp needed
 646 0026 7047     		bx	lr
 647              	.L59:
 648              		.align	2
 649              	.L58:
 650 0028 00000000 		.word	.LANCHOR0
 651 002c 00000000 		.word	capsense_ADC_dsRam
 652              		.cfi_endproc
 653              	.LFE8:
 654              		.size	capsense_ADC_IsSensorActive, .-capsense_ADC_IsSensorActive
 655              		.section	.text.capsense_ADC_GetCentroidPos,"ax",%progbits
 656              		.align	2
 657              		.global	capsense_ADC_GetCentroidPos
ARM GAS  C:\Users\ASUS\AppData\Local\Temp\cc3kWfch.s 			page 34


 658              		.code	16
 659              		.thumb_func
 660              		.type	capsense_ADC_GetCentroidPos, %function
 661              	capsense_ADC_GetCentroidPos:
 662              	.LFB9:
1185:Generated_Source\PSoC4/capsense_ADC_Structure.c **** 
1186:Generated_Source\PSoC4/capsense_ADC_Structure.c **** #if (0u != capsense_ADC_MATRIX_WIDGET_EN)
1187:Generated_Source\PSoC4/capsense_ADC_Structure.c **** /*******************************************************************************
1188:Generated_Source\PSoC4/capsense_ADC_Structure.c **** * Function Name: capsense_ADC_IsMatrixButtonsActive
1189:Generated_Source\PSoC4/capsense_ADC_Structure.c **** ****************************************************************************//**
1190:Generated_Source\PSoC4/capsense_ADC_Structure.c **** *
1191:Generated_Source\PSoC4/capsense_ADC_Structure.c **** * \brief
1192:Generated_Source\PSoC4/capsense_ADC_Structure.c **** *  Reports the status of the specified matrix button widget.
1193:Generated_Source\PSoC4/capsense_ADC_Structure.c **** *
1194:Generated_Source\PSoC4/capsense_ADC_Structure.c **** * \details
1195:Generated_Source\PSoC4/capsense_ADC_Structure.c **** *  This function reports if the specified matrix widget has detected a touch or
1196:Generated_Source\PSoC4/capsense_ADC_Structure.c **** *  not by extracting information from the wdgtStatus registers
1197:Generated_Source\PSoC4/capsense_ADC_Structure.c **** *  (capsense_ADC_WDGT_STATUS<X>_VALUE for the CSD widgets and
1198:Generated_Source\PSoC4/capsense_ADC_Structure.c **** *  capsense_ADC_SNS_STATUS<WidgetId>_VALUE for CSX widget). In addition, the
1199:Generated_Source\PSoC4/capsense_ADC_Structure.c **** *  function provides details of the active sensor including active rows/columns
1200:Generated_Source\PSoC4/capsense_ADC_Structure.c **** *  for the CSD widgets. This function is used only with the matrix button
1201:Generated_Source\PSoC4/capsense_ADC_Structure.c **** *  widgets. This function does not process the widget but extracts
1202:Generated_Source\PSoC4/capsense_ADC_Structure.c **** *  processed results from the \ref group_structures.
1203:Generated_Source\PSoC4/capsense_ADC_Structure.c **** *
1204:Generated_Source\PSoC4/capsense_ADC_Structure.c **** * \param widgetId
1205:Generated_Source\PSoC4/capsense_ADC_Structure.c **** *  Specifies the ID number of the matrix button widget to check the status of its
1206:Generated_Source\PSoC4/capsense_ADC_Structure.c **** *  sensors.
1207:Generated_Source\PSoC4/capsense_ADC_Structure.c **** *  A macro for the widget ID can be found in the capsense_ADC Configuration header file
1208:Generated_Source\PSoC4/capsense_ADC_Structure.c **** *  defined as capsense_ADC_<WidgetName>_WDGT_ID
1209:Generated_Source\PSoC4/capsense_ADC_Structure.c **** *
1210:Generated_Source\PSoC4/capsense_ADC_Structure.c **** * \return
1211:Generated_Source\PSoC4/capsense_ADC_Structure.c **** *  Returns the touch detection status of the sensors in the specified matrix
1212:Generated_Source\PSoC4/capsense_ADC_Structure.c **** *  buttons widget. Zero indicates that no touch is detected in the specified
1213:Generated_Source\PSoC4/capsense_ADC_Structure.c **** *  widget or a wrong widgetId is specified.
1214:Generated_Source\PSoC4/capsense_ADC_Structure.c **** *    1. For the matrix buttons widgets with the CSD sensing mode:
1215:Generated_Source\PSoC4/capsense_ADC_Structure.c **** *      - Bit [31] if set, indicates that one or more sensors in the widget
1216:Generated_Source\PSoC4/capsense_ADC_Structure.c **** *        detected a touch.
1217:Generated_Source\PSoC4/capsense_ADC_Structure.c **** *      - Bits [30..24] are reserved
1218:Generated_Source\PSoC4/capsense_ADC_Structure.c **** *      - Bits [23..16] indicate the logical sensor number of the sensor that
1219:Generated_Source\PSoC4/capsense_ADC_Structure.c **** *        detected a touch. If more than one sensor detected a touch for the CSD
1220:Generated_Source\PSoC4/capsense_ADC_Structure.c **** *        widget, no status is reported because more than one touch is invalid for the
1221:Generated_Source\PSoC4/capsense_ADC_Structure.c **** *        CSD matrix buttons widgets.
1222:Generated_Source\PSoC4/capsense_ADC_Structure.c **** *      - Bits [15..8] indicate the active row number.
1223:Generated_Source\PSoC4/capsense_ADC_Structure.c **** *      - Bits [7..0] indicate the active column number.
1224:Generated_Source\PSoC4/capsense_ADC_Structure.c **** *    2. For the matrix buttons widgets with the CSX widgets, each bit (31..0)
1225:Generated_Source\PSoC4/capsense_ADC_Structure.c **** *      corresponds to the TX/RX intersection.
1226:Generated_Source\PSoC4/capsense_ADC_Structure.c **** *
1227:Generated_Source\PSoC4/capsense_ADC_Structure.c **** *******************************************************************************/
1228:Generated_Source\PSoC4/capsense_ADC_Structure.c **** uint32 capsense_ADC_IsMatrixButtonsActive(uint32 widgetId)
1229:Generated_Source\PSoC4/capsense_ADC_Structure.c **** {
1230:Generated_Source\PSoC4/capsense_ADC_Structure.c ****     uint32 result = 0Lu;
1231:Generated_Source\PSoC4/capsense_ADC_Structure.c ****     cystatus state = CYRET_SUCCESS;
1232:Generated_Source\PSoC4/capsense_ADC_Structure.c ****     capsense_ADC_FLASH_WD_STRUCT const *ptrFlashWdgt = 0u;
1233:Generated_Source\PSoC4/capsense_ADC_Structure.c **** 
1234:Generated_Source\PSoC4/capsense_ADC_Structure.c ****     #if (0u != capsense_ADC_CSD_MATRIX_WIDGET_EN)
1235:Generated_Source\PSoC4/capsense_ADC_Structure.c ****         capsense_ADC_RAM_WD_CSD_MATRIX_STRUCT *wdCsdMatrix;
1236:Generated_Source\PSoC4/capsense_ADC_Structure.c ****     #endif
ARM GAS  C:\Users\ASUS\AppData\Local\Temp\cc3kWfch.s 			page 35


1237:Generated_Source\PSoC4/capsense_ADC_Structure.c **** 
1238:Generated_Source\PSoC4/capsense_ADC_Structure.c ****     if (widgetId >= capsense_ADC_TOTAL_WIDGETS)
1239:Generated_Source\PSoC4/capsense_ADC_Structure.c ****     {
1240:Generated_Source\PSoC4/capsense_ADC_Structure.c ****         state = CYRET_BAD_PARAM;
1241:Generated_Source\PSoC4/capsense_ADC_Structure.c ****     }
1242:Generated_Source\PSoC4/capsense_ADC_Structure.c ****     else
1243:Generated_Source\PSoC4/capsense_ADC_Structure.c ****     {
1244:Generated_Source\PSoC4/capsense_ADC_Structure.c ****         ptrFlashWdgt = &capsense_ADC_dsFlash.wdgtArray[widgetId];
1245:Generated_Source\PSoC4/capsense_ADC_Structure.c **** 
1246:Generated_Source\PSoC4/capsense_ADC_Structure.c ****         if ((capsense_ADC_WD_TYPE_ENUM)ptrFlashWdgt->wdgtType != capsense_ADC_WD_MATRIX_BUTTON_E)
1247:Generated_Source\PSoC4/capsense_ADC_Structure.c ****         {
1248:Generated_Source\PSoC4/capsense_ADC_Structure.c ****             state = CYRET_BAD_PARAM;
1249:Generated_Source\PSoC4/capsense_ADC_Structure.c ****         }
1250:Generated_Source\PSoC4/capsense_ADC_Structure.c ****         else if (0u == capsense_ADC_GET_WIDGET_ACTIVE_STATUS(widgetId))
1251:Generated_Source\PSoC4/capsense_ADC_Structure.c ****         {
1252:Generated_Source\PSoC4/capsense_ADC_Structure.c ****             state = CYRET_BAD_PARAM;
1253:Generated_Source\PSoC4/capsense_ADC_Structure.c ****         }
1254:Generated_Source\PSoC4/capsense_ADC_Structure.c ****         else
1255:Generated_Source\PSoC4/capsense_ADC_Structure.c ****         {
1256:Generated_Source\PSoC4/capsense_ADC_Structure.c ****             /* input parameters are OK */
1257:Generated_Source\PSoC4/capsense_ADC_Structure.c ****         }
1258:Generated_Source\PSoC4/capsense_ADC_Structure.c ****     }
1259:Generated_Source\PSoC4/capsense_ADC_Structure.c **** 
1260:Generated_Source\PSoC4/capsense_ADC_Structure.c ****     if (CYRET_SUCCESS == state)
1261:Generated_Source\PSoC4/capsense_ADC_Structure.c ****     {
1262:Generated_Source\PSoC4/capsense_ADC_Structure.c ****         switch(capsense_ADC_GET_SENSE_METHOD(ptrFlashWdgt))
1263:Generated_Source\PSoC4/capsense_ADC_Structure.c ****         {
1264:Generated_Source\PSoC4/capsense_ADC_Structure.c ****         #if (0u != capsense_ADC_CSD_MATRIX_WIDGET_EN)
1265:Generated_Source\PSoC4/capsense_ADC_Structure.c ****             case capsense_ADC_SENSE_METHOD_CSD_E:
1266:Generated_Source\PSoC4/capsense_ADC_Structure.c ****                 wdCsdMatrix = ptrFlashWdgt->ptr2WdgtRam;
1267:Generated_Source\PSoC4/capsense_ADC_Structure.c **** 
1268:Generated_Source\PSoC4/capsense_ADC_Structure.c ****                 result = capsense_ADC_MATRIX_BUTTONS_TOUCHED |
1269:Generated_Source\PSoC4/capsense_ADC_Structure.c ****                          ((uint32)wdCsdMatrix->posSnsId << 16u)  |
1270:Generated_Source\PSoC4/capsense_ADC_Structure.c ****                          ((uint32)wdCsdMatrix->posRow   << 8u)   |
1271:Generated_Source\PSoC4/capsense_ADC_Structure.c ****                          (uint32)wdCsdMatrix->posCol;
1272:Generated_Source\PSoC4/capsense_ADC_Structure.c ****                 break;
1273:Generated_Source\PSoC4/capsense_ADC_Structure.c ****         #endif /* #if (0u != capsense_ADC_CSD_MATRIX_WIDGET_EN) */
1274:Generated_Source\PSoC4/capsense_ADC_Structure.c **** 
1275:Generated_Source\PSoC4/capsense_ADC_Structure.c ****         #if (0u != capsense_ADC_CSX_MATRIX_WIDGET_EN)
1276:Generated_Source\PSoC4/capsense_ADC_Structure.c ****             case capsense_ADC_SENSE_METHOD_CSX_E:
1277:Generated_Source\PSoC4/capsense_ADC_Structure.c ****                 result = capsense_ADC_dsRam.snsStatus[widgetId];
1278:Generated_Source\PSoC4/capsense_ADC_Structure.c ****                 break;
1279:Generated_Source\PSoC4/capsense_ADC_Structure.c ****         #endif /* #if (0u != capsense_ADC_CSX_MATRIX_WIDGET_EN) */
1280:Generated_Source\PSoC4/capsense_ADC_Structure.c **** 
1281:Generated_Source\PSoC4/capsense_ADC_Structure.c ****         default:
1282:Generated_Source\PSoC4/capsense_ADC_Structure.c ****             CYASSERT(0u);
1283:Generated_Source\PSoC4/capsense_ADC_Structure.c ****             break;
1284:Generated_Source\PSoC4/capsense_ADC_Structure.c ****         }
1285:Generated_Source\PSoC4/capsense_ADC_Structure.c ****     }
1286:Generated_Source\PSoC4/capsense_ADC_Structure.c **** 
1287:Generated_Source\PSoC4/capsense_ADC_Structure.c ****     return result;
1288:Generated_Source\PSoC4/capsense_ADC_Structure.c **** }
1289:Generated_Source\PSoC4/capsense_ADC_Structure.c **** #endif /* #if (0u != capsense_ADC_MATRIX_WIDGET_EN) */
1290:Generated_Source\PSoC4/capsense_ADC_Structure.c **** 
1291:Generated_Source\PSoC4/capsense_ADC_Structure.c **** #if (0u != capsense_ADC_PROXIMITY_WIDGET_EN)
1292:Generated_Source\PSoC4/capsense_ADC_Structure.c **** /*******************************************************************************
1293:Generated_Source\PSoC4/capsense_ADC_Structure.c **** * Function Name: capsense_ADC_IsProximitySensorActive
ARM GAS  C:\Users\ASUS\AppData\Local\Temp\cc3kWfch.s 			page 36


1294:Generated_Source\PSoC4/capsense_ADC_Structure.c **** ****************************************************************************//**
1295:Generated_Source\PSoC4/capsense_ADC_Structure.c **** *
1296:Generated_Source\PSoC4/capsense_ADC_Structure.c **** * \brief
1297:Generated_Source\PSoC4/capsense_ADC_Structure.c **** *  Reports the finger detection status of the specified proximity widget/sensor.
1298:Generated_Source\PSoC4/capsense_ADC_Structure.c **** *
1299:Generated_Source\PSoC4/capsense_ADC_Structure.c **** * \details
1300:Generated_Source\PSoC4/capsense_ADC_Structure.c **** *  This function reports if the specified proximity sensor has detected a touch
1301:Generated_Source\PSoC4/capsense_ADC_Structure.c **** *  or not by extracting information from the wdgtStatus registers
1302:Generated_Source\PSoC4/capsense_ADC_Structure.c **** *  (capsense_ADC_SNS_STATUS<WidgetId>_VALUE). This function is used
1303:Generated_Source\PSoC4/capsense_ADC_Structure.c **** *  only with proximity sensor widgets. This function does not process the
1304:Generated_Source\PSoC4/capsense_ADC_Structure.c **** *  widget but extracts processed results from the \ref group_structures.
1305:Generated_Source\PSoC4/capsense_ADC_Structure.c **** *
1306:Generated_Source\PSoC4/capsense_ADC_Structure.c **** * \param widgetId
1307:Generated_Source\PSoC4/capsense_ADC_Structure.c **** *  Specifies the ID number of the proximity widget.
1308:Generated_Source\PSoC4/capsense_ADC_Structure.c **** *  A macro for the widget ID can be found in the capsense_ADC Configuration header
1309:Generated_Source\PSoC4/capsense_ADC_Structure.c **** *  file defined as capsense_ADC_<WidgetName>_WDGT_ID
1310:Generated_Source\PSoC4/capsense_ADC_Structure.c **** *
1311:Generated_Source\PSoC4/capsense_ADC_Structure.c **** * \param proxId
1312:Generated_Source\PSoC4/capsense_ADC_Structure.c **** *  Specifies the ID number of the proximity sensor within the proximity widget to
1313:Generated_Source\PSoC4/capsense_ADC_Structure.c **** *  get its touch detection status.
1314:Generated_Source\PSoC4/capsense_ADC_Structure.c **** *  A macro for the proximity ID within a specified widget can be found in the
1315:Generated_Source\PSoC4/capsense_ADC_Structure.c **** *  capsense_ADC Configuration header file defined as
1316:Generated_Source\PSoC4/capsense_ADC_Structure.c **** *  capsense_ADC_<WidgetName>_SNS<SensorNumber>_ID
1317:Generated_Source\PSoC4/capsense_ADC_Structure.c **** *
1318:Generated_Source\PSoC4/capsense_ADC_Structure.c **** * \return
1319:Generated_Source\PSoC4/capsense_ADC_Structure.c **** *  Returns the status of the specified sensor of the proximity widget. Zero
1320:Generated_Source\PSoC4/capsense_ADC_Structure.c **** *  indicates that no touch is detected in the specified sensor / widget or a
1321:Generated_Source\PSoC4/capsense_ADC_Structure.c **** *  wrong widgetId / proxId is specified.
1322:Generated_Source\PSoC4/capsense_ADC_Structure.c **** *    - Bits [31..2] are reserved.
1323:Generated_Source\PSoC4/capsense_ADC_Structure.c **** *    - Bit [1] indicates that a touch is detected.
1324:Generated_Source\PSoC4/capsense_ADC_Structure.c **** *    - Bit [0] indicates that a proximity is detected.
1325:Generated_Source\PSoC4/capsense_ADC_Structure.c **** *
1326:Generated_Source\PSoC4/capsense_ADC_Structure.c **** *******************************************************************************/
1327:Generated_Source\PSoC4/capsense_ADC_Structure.c **** uint32 capsense_ADC_IsProximitySensorActive(uint32 widgetId, uint32 proxId)
1328:Generated_Source\PSoC4/capsense_ADC_Structure.c **** {
1329:Generated_Source\PSoC4/capsense_ADC_Structure.c ****     uint32 result = 0Lu;
1330:Generated_Source\PSoC4/capsense_ADC_Structure.c **** 
1331:Generated_Source\PSoC4/capsense_ADC_Structure.c ****     if ((widgetId < capsense_ADC_TOTAL_WIDGETS) && (proxId < capsense_ADC_GET_SENSOR_COUNT(widgetId
1332:Generated_Source\PSoC4/capsense_ADC_Structure.c ****         (capsense_ADC_WD_PROXIMITY_E ==
1333:Generated_Source\PSoC4/capsense_ADC_Structure.c ****             (capsense_ADC_WD_TYPE_ENUM)capsense_ADC_dsFlash.wdgtArray[widgetId].wdgtType))
1334:Generated_Source\PSoC4/capsense_ADC_Structure.c ****     {
1335:Generated_Source\PSoC4/capsense_ADC_Structure.c ****         result = capsense_ADC_dsRam.snsStatus[widgetId];
1336:Generated_Source\PSoC4/capsense_ADC_Structure.c ****         result >>= capsense_ADC_PROX_STS_OFFSET(proxId);
1337:Generated_Source\PSoC4/capsense_ADC_Structure.c ****         result &=  capsense_ADC_PROX_STS_MASK;
1338:Generated_Source\PSoC4/capsense_ADC_Structure.c ****     }
1339:Generated_Source\PSoC4/capsense_ADC_Structure.c **** 
1340:Generated_Source\PSoC4/capsense_ADC_Structure.c ****     return result;
1341:Generated_Source\PSoC4/capsense_ADC_Structure.c **** }
1342:Generated_Source\PSoC4/capsense_ADC_Structure.c **** #endif /* #if (0u != capsense_ADC_PROXIMITY_WIDGET_EN) */
1343:Generated_Source\PSoC4/capsense_ADC_Structure.c **** 
1344:Generated_Source\PSoC4/capsense_ADC_Structure.c **** 
1345:Generated_Source\PSoC4/capsense_ADC_Structure.c **** #if (0u != capsense_ADC_SLIDER_WIDGET_EN)
1346:Generated_Source\PSoC4/capsense_ADC_Structure.c **** /*******************************************************************************
1347:Generated_Source\PSoC4/capsense_ADC_Structure.c **** * Function Name: capsense_ADC_GetCentroidPos
1348:Generated_Source\PSoC4/capsense_ADC_Structure.c **** ****************************************************************************//**
1349:Generated_Source\PSoC4/capsense_ADC_Structure.c **** *
1350:Generated_Source\PSoC4/capsense_ADC_Structure.c **** * \brief
ARM GAS  C:\Users\ASUS\AppData\Local\Temp\cc3kWfch.s 			page 37


1351:Generated_Source\PSoC4/capsense_ADC_Structure.c **** *  Reports the centroid position for the specified slider widget.
1352:Generated_Source\PSoC4/capsense_ADC_Structure.c **** *
1353:Generated_Source\PSoC4/capsense_ADC_Structure.c **** * \details
1354:Generated_Source\PSoC4/capsense_ADC_Structure.c **** *  This function reports the centroid value of a specified radial or linear
1355:Generated_Source\PSoC4/capsense_ADC_Structure.c **** *  slider widget by extracting information from the wdgtStatus registers
1356:Generated_Source\PSoC4/capsense_ADC_Structure.c **** *  (capsense_ADC_<WidgetName>_POSITION<X>_VALUE). This function is
1357:Generated_Source\PSoC4/capsense_ADC_Structure.c **** *  used only with radial or linear slider widgets. This function does not
1358:Generated_Source\PSoC4/capsense_ADC_Structure.c **** *  process the widget but extracts processed results from the \ref group_structures.
1359:Generated_Source\PSoC4/capsense_ADC_Structure.c **** *
1360:Generated_Source\PSoC4/capsense_ADC_Structure.c **** * \param widgetId
1361:Generated_Source\PSoC4/capsense_ADC_Structure.c **** *  Specifies the ID number of a slider widget to get the centroid of the
1362:Generated_Source\PSoC4/capsense_ADC_Structure.c **** *  detected touch.
1363:Generated_Source\PSoC4/capsense_ADC_Structure.c **** *  A macro for the widget ID can be found in the
1364:Generated_Source\PSoC4/capsense_ADC_Structure.c **** *  capsense_ADC Configuration header file defined as
1365:Generated_Source\PSoC4/capsense_ADC_Structure.c **** *  capsense_ADC_<WidgetName>_WDGT_ID
1366:Generated_Source\PSoC4/capsense_ADC_Structure.c **** *
1367:Generated_Source\PSoC4/capsense_ADC_Structure.c **** * \return
1368:Generated_Source\PSoC4/capsense_ADC_Structure.c **** *  Returns the centroid position of a specified slider widget:
1369:Generated_Source\PSoC4/capsense_ADC_Structure.c **** *    - The centroid position if a touch is detected.
1370:Generated_Source\PSoC4/capsense_ADC_Structure.c **** *    - capsense_ADC_SLIDER_NO_TOUCH - No touch is detected or a wrong
1371:Generated_Source\PSoC4/capsense_ADC_Structure.c **** *      widgetId is specified.
1372:Generated_Source\PSoC4/capsense_ADC_Structure.c **** *
1373:Generated_Source\PSoC4/capsense_ADC_Structure.c **** *******************************************************************************/
1374:Generated_Source\PSoC4/capsense_ADC_Structure.c **** uint32 capsense_ADC_GetCentroidPos(uint32 widgetId)
1375:Generated_Source\PSoC4/capsense_ADC_Structure.c **** {
 663              		.loc 1 1375 0
 664              		.cfi_startproc
 665              		@ args = 0, pretend = 0, frame = 0
 666              		@ frame_needed = 0, uses_anonymous_args = 0
 667              		@ link register save eliminated.
 668              	.LVL68:
1376:Generated_Source\PSoC4/capsense_ADC_Structure.c ****     uint32 result = capsense_ADC_SLIDER_NO_TOUCH;
1377:Generated_Source\PSoC4/capsense_ADC_Structure.c ****     capsense_ADC_RAM_WD_SLIDER_STRUCT *wdSlider;
1378:Generated_Source\PSoC4/capsense_ADC_Structure.c **** 
1379:Generated_Source\PSoC4/capsense_ADC_Structure.c ****     if ((widgetId < capsense_ADC_TOTAL_WIDGETS) &&
 669              		.loc 1 1379 0
 670 0000 0328     		cmp	r0, #3
 671 0002 0FD8     		bhi	.L62
1380:Generated_Source\PSoC4/capsense_ADC_Structure.c ****         ((capsense_ADC_WD_LINEAR_SLIDER_E ==
1381:Generated_Source\PSoC4/capsense_ADC_Structure.c ****             (capsense_ADC_WD_TYPE_ENUM)capsense_ADC_dsFlash.wdgtArray[widgetId].wdgtType) ||
 672              		.loc 1 1381 0 discriminator 1
 673 0004 2C23     		movs	r3, #44
 674 0006 4343     		muls	r3, r0
 675 0008 084A     		ldr	r2, .L64
 676 000a D318     		adds	r3, r2, r3
 677 000c 2233     		adds	r3, r3, #34
 678 000e 1B78     		ldrb	r3, [r3]
 679 0010 023B     		subs	r3, r3, #2
 680 0012 DBB2     		uxtb	r3, r3
1379:Generated_Source\PSoC4/capsense_ADC_Structure.c ****         ((capsense_ADC_WD_LINEAR_SLIDER_E ==
 681              		.loc 1 1379 0 discriminator 1
 682 0014 012B     		cmp	r3, #1
 683 0016 07D8     		bhi	.L63
1382:Generated_Source\PSoC4/capsense_ADC_Structure.c ****          (capsense_ADC_WD_RADIAL_SLIDER_E ==
1383:Generated_Source\PSoC4/capsense_ADC_Structure.c ****             (capsense_ADC_WD_TYPE_ENUM)capsense_ADC_dsFlash.wdgtArray[widgetId].wdgtType)))
1384:Generated_Source\PSoC4/capsense_ADC_Structure.c ****     {
1385:Generated_Source\PSoC4/capsense_ADC_Structure.c ****         wdSlider = capsense_ADC_dsFlash.wdgtArray[widgetId].ptr2WdgtRam;
ARM GAS  C:\Users\ASUS\AppData\Local\Temp\cc3kWfch.s 			page 38


 684              		.loc 1 1385 0
 685 0018 2C23     		movs	r3, #44
 686 001a 5843     		muls	r0, r3
 687              	.LVL69:
 688 001c 1018     		adds	r0, r2, r0
 689 001e C368     		ldr	r3, [r0, #12]
 690              	.LVL70:
1386:Generated_Source\PSoC4/capsense_ADC_Structure.c ****         result = (uint32)wdSlider->position[0u];
 691              		.loc 1 1386 0
 692 0020 988A     		ldrh	r0, [r3, #20]
 693              	.LVL71:
 694 0022 02E0     		b	.L61
 695              	.LVL72:
 696              	.L62:
1376:Generated_Source\PSoC4/capsense_ADC_Structure.c ****     capsense_ADC_RAM_WD_SLIDER_STRUCT *wdSlider;
 697              		.loc 1 1376 0
 698 0024 0248     		ldr	r0, .L64+4
 699              	.LVL73:
 700 0026 00E0     		b	.L61
 701              	.LVL74:
 702              	.L63:
 703 0028 0148     		ldr	r0, .L64+4
 704              	.LVL75:
 705              	.L61:
1387:Generated_Source\PSoC4/capsense_ADC_Structure.c ****     }
1388:Generated_Source\PSoC4/capsense_ADC_Structure.c **** 
1389:Generated_Source\PSoC4/capsense_ADC_Structure.c ****     return result;
1390:Generated_Source\PSoC4/capsense_ADC_Structure.c **** }
 706              		.loc 1 1390 0
 707              		@ sp needed
 708 002a 7047     		bx	lr
 709              	.L65:
 710              		.align	2
 711              	.L64:
 712 002c 00000000 		.word	.LANCHOR0
 713 0030 FFFF0000 		.word	65535
 714              		.cfi_endproc
 715              	.LFE9:
 716              		.size	capsense_ADC_GetCentroidPos, .-capsense_ADC_GetCentroidPos
 717              		.global	capsense_ADC_ramIdacInit
 718              		.global	capsense_ADC_ramWidgetInit
 719              		.global	capsense_ADC_adcIoList
 720              		.global	capsense_ADC_ioList
 721              		.global	capsense_ADC_dsFlash
 722              		.comm	capsense_ADC_dsRam,212,4
 723              		.section	.rodata
 724              		.align	2
 725              		.set	.LANCHOR0,. + 0
 726              		.set	.LANCHOR1,. + 128
 727              		.type	capsense_ADC_ramIdacInit, %object
 728              		.size	capsense_ADC_ramIdacInit, 8
 729              	capsense_ADC_ramIdacInit:
 730 0000 20       		.byte	32
 731 0001 20       		.byte	32
 732 0002 20       		.byte	32
 733 0003 20       		.byte	32
 734 0004 20       		.byte	32
ARM GAS  C:\Users\ASUS\AppData\Local\Temp\cc3kWfch.s 			page 39


 735 0005 20       		.byte	32
 736 0006 20       		.byte	32
 737 0007 20       		.byte	32
 738              		.type	capsense_ADC_dsFlash, %object
 739              		.size	capsense_ADC_dsFlash, 176
 740              	capsense_ADC_dsFlash:
 741 0008 00000000 		.word	capsense_ADC_ioList
 742 000c 2A000000 		.word	capsense_ADC_dsRam+42
 743 0010 7C000000 		.word	capsense_ADC_dsRam+124
 744 0014 00000000 		.word	0
 745 0018 6C000000 		.word	capsense_ADC_debounceBTN2
 746 001c 01280000 		.word	10241
 747 0020 0100     		.short	1
 748 0022 01       		.byte	1
 749 0023 01       		.byte	1
 750 0024 0000     		.short	0
 751 0026 0000     		.space	2
 752 0028 00000000 		.word	0
 753 002c 54000000 		.word	capsense_ADC_noiseEnvlpBTN2
 754 0030 00       		.byte	0
 755 0031 000000   		.space	3
 756 0034 1C000000 		.word	capsense_ADC_ioList+28
 757 0038 3E000000 		.word	capsense_ADC_dsRam+62
 758 003c 86000000 		.word	capsense_ADC_dsRam+134
 759 0040 00000000 		.word	0
 760 0044 68000000 		.word	capsense_ADC_debounceBTN1
 761 0048 01280000 		.word	10241
 762 004c 0100     		.short	1
 763 004e 01       		.byte	1
 764 004f 01       		.byte	1
 765 0050 0000     		.short	0
 766 0052 0000     		.space	2
 767 0054 00000000 		.word	0
 768 0058 48000000 		.word	capsense_ADC_noiseEnvlpBTN1
 769 005c 00       		.byte	0
 770 005d 000000   		.space	3
 771 0060 38000000 		.word	capsense_ADC_ioList+56
 772 0064 52000000 		.word	capsense_ADC_dsRam+82
 773 0068 90000000 		.word	capsense_ADC_dsRam+144
 774 006c 00000000 		.word	0
 775 0070 64000000 		.word	capsense_ADC_debounceBTN0
 776 0074 01280000 		.word	10241
 777 0078 0100     		.short	1
 778 007a 01       		.byte	1
 779 007b 01       		.byte	1
 780 007c 0000     		.short	0
 781 007e 0000     		.space	2
 782 0080 00000000 		.word	0
 783 0084 3C000000 		.word	capsense_ADC_noiseEnvlpBTN0
 784 0088 00       		.byte	0
 785 0089 000000   		.space	3
 786 008c 54000000 		.word	capsense_ADC_ioList+84
 787 0090 66000000 		.word	capsense_ADC_dsRam+102
 788 0094 9A000000 		.word	capsense_ADC_dsRam+154
 789 0098 00000000 		.word	0
 790 009c 60000000 		.word	capsense_ADC_debounceLinearSlider0
 791 00a0 01280000 		.word	10241
ARM GAS  C:\Users\ASUS\AppData\Local\Temp\cc3kWfch.s 			page 40


 792 00a4 0500     		.short	5
 793 00a6 02       		.byte	2
 794 00a7 05       		.byte	5
 795 00a8 6400     		.short	100
 796 00aa 0000     		.space	2
 797 00ac 00190000 		.word	6400
 798 00b0 00000000 		.word	capsense_ADC_noiseEnvlpLinearSlider0
 799 00b4 80       		.byte	-128
 800 00b5 000000   		.space	3
 801              		.type	capsense_ADC_ramWidgetInit, %object
 802              		.size	capsense_ADC_ramWidgetInit, 82
 803              	capsense_ADC_ramWidgetInit:
 804 00b8 0C00     		.short	12
 805 00ba 6400     		.short	100
 806 00bc 28       		.byte	40
 807 00bd 28       		.byte	40
 808 00be 0A       		.byte	10
 809 00bf 03       		.byte	3
 810 00c0 1E       		.byte	30
 811 00c1 20       		.byte	32
 812 00c2 04       		.byte	4
 813 00c3 00       		.space	1
 814 00c4 0400     		.short	4
 815 00c6 00       		.byte	0
 816 00c7 00       		.space	1
 817 00c8 A000     		.short	160
 818 00ca 0000     		.short	0
 819 00cc 0C00     		.short	12
 820 00ce 6400     		.short	100
 821 00d0 28       		.byte	40
 822 00d1 28       		.byte	40
 823 00d2 0A       		.byte	10
 824 00d3 03       		.byte	3
 825 00d4 1E       		.byte	30
 826 00d5 20       		.byte	32
 827 00d6 04       		.byte	4
 828 00d7 00       		.space	1
 829 00d8 0400     		.short	4
 830 00da 00       		.byte	0
 831 00db 00       		.space	1
 832 00dc A000     		.short	160
 833 00de 0000     		.short	0
 834 00e0 0C00     		.short	12
 835 00e2 6400     		.short	100
 836 00e4 28       		.byte	40
 837 00e5 28       		.byte	40
 838 00e6 0A       		.byte	10
 839 00e7 03       		.byte	3
 840 00e8 1E       		.byte	30
 841 00e9 20       		.byte	32
 842 00ea 04       		.byte	4
 843 00eb 00       		.space	1
 844 00ec 0400     		.short	4
 845 00ee 00       		.byte	0
 846 00ef 00       		.space	1
 847 00f0 A000     		.short	160
 848 00f2 0000     		.short	0
ARM GAS  C:\Users\ASUS\AppData\Local\Temp\cc3kWfch.s 			page 41


 849 00f4 0C00     		.short	12
 850 00f6 6400     		.short	100
 851 00f8 28       		.byte	40
 852 00f9 28       		.byte	40
 853 00fa 0A       		.byte	10
 854 00fb 03       		.byte	3
 855 00fc 1E       		.byte	30
 856 00fd 20       		.byte	32
 857 00fe 04       		.byte	4
 858 00ff 00       		.space	1
 859 0100 0400     		.short	4
 860 0102 00       		.byte	0
 861 0103 00       		.space	1
 862 0104 A000     		.short	160
 863 0106 0000     		.short	0
 864 0108 FFFF     		.short	-1
 865 010a 0000     		.space	2
 866              		.type	capsense_ADC_adcIoList, %object
 867              		.size	capsense_ADC_adcIoList, 28
 868              	capsense_ADC_adcIoList:
 869 010c 00010240 		.word	1073873152
 870 0110 08010440 		.word	1074004232
 871 0114 00010440 		.word	1074004224
 872 0118 04010440 		.word	1074004228
 873 011c 00F00000 		.word	61440
 874 0120 08000000 		.word	8
 875 0124 0C       		.byte	12
 876 0125 03       		.byte	3
 877 0126 09       		.byte	9
 878 0127 00       		.space	1
 879              		.type	capsense_ADC_ioList, %object
 880              		.size	capsense_ADC_ioList, 224
 881              	capsense_ADC_ioList:
 882 0128 00010240 		.word	1073873152
 883 012c 08010440 		.word	1074004232
 884 0130 00010440 		.word	1074004224
 885 0134 04010440 		.word	1074004228
 886 0138 0000000F 		.word	251658240
 887 013c 40000000 		.word	64
 888 0140 18       		.byte	24
 889 0141 06       		.byte	6
 890 0142 12       		.byte	18
 891 0143 00       		.space	1
 892 0144 00010240 		.word	1073873152
 893 0148 08010440 		.word	1074004232
 894 014c 00010440 		.word	1074004224
 895 0150 04010440 		.word	1074004228
 896 0154 0000F000 		.word	15728640
 897 0158 20000000 		.word	32
 898 015c 14       		.byte	20
 899 015d 05       		.byte	5
 900 015e 0F       		.byte	15
 901 015f 00       		.space	1
 902 0160 00010240 		.word	1073873152
 903 0164 08010440 		.word	1074004232
 904 0168 00010440 		.word	1074004224
 905 016c 04010440 		.word	1074004228
ARM GAS  C:\Users\ASUS\AppData\Local\Temp\cc3kWfch.s 			page 42


 906 0170 00000F00 		.word	983040
 907 0174 10000000 		.word	16
 908 0178 10       		.byte	16
 909 0179 04       		.byte	4
 910 017a 0C       		.byte	12
 911 017b 00       		.space	1
 912 017c 00000240 		.word	1073872896
 913 0180 08000440 		.word	1074003976
 914 0184 00000440 		.word	1074003968
 915 0188 04000440 		.word	1074003972
 916 018c 0F000000 		.word	15
 917 0190 01000000 		.word	1
 918 0194 00       		.byte	0
 919 0195 00       		.byte	0
 920 0196 00       		.byte	0
 921 0197 00       		.space	1
 922 0198 00000240 		.word	1073872896
 923 019c 08000440 		.word	1074003976
 924 01a0 00000440 		.word	1074003968
 925 01a4 04000440 		.word	1074003972
 926 01a8 F0000000 		.word	240
 927 01ac 02000000 		.word	2
 928 01b0 04       		.byte	4
 929 01b1 01       		.byte	1
 930 01b2 03       		.byte	3
 931 01b3 00       		.space	1
 932 01b4 00000240 		.word	1073872896
 933 01b8 08000440 		.word	1074003976
 934 01bc 00000440 		.word	1074003968
 935 01c0 04000440 		.word	1074003972
 936 01c4 000F0000 		.word	3840
 937 01c8 04000000 		.word	4
 938 01cc 08       		.byte	8
 939 01cd 02       		.byte	2
 940 01ce 06       		.byte	6
 941 01cf 00       		.space	1
 942 01d0 00000240 		.word	1073872896
 943 01d4 08000440 		.word	1074003976
 944 01d8 00000440 		.word	1074003968
 945 01dc 04000440 		.word	1074003972
 946 01e0 00F00000 		.word	61440
 947 01e4 08000000 		.word	8
 948 01e8 0C       		.byte	12
 949 01e9 03       		.byte	3
 950 01ea 09       		.byte	9
 951 01eb 00       		.space	1
 952 01ec 00000240 		.word	1073872896
 953 01f0 08000440 		.word	1074003976
 954 01f4 00000440 		.word	1074003968
 955 01f8 04000440 		.word	1074003972
 956 01fc 0000000F 		.word	251658240
 957 0200 40000000 		.word	64
 958 0204 18       		.byte	24
 959 0205 06       		.byte	6
 960 0206 12       		.byte	18
 961 0207 00       		.space	1
 962              		.bss
ARM GAS  C:\Users\ASUS\AppData\Local\Temp\cc3kWfch.s 			page 43


 963              		.align	2
 964              		.type	capsense_ADC_noiseEnvlpLinearSlider0, %object
 965              		.size	capsense_ADC_noiseEnvlpLinearSlider0, 60
 966              	capsense_ADC_noiseEnvlpLinearSlider0:
 967 0000 00000000 		.space	60
 967      00000000 
 967      00000000 
 967      00000000 
 967      00000000 
 968              		.type	capsense_ADC_noiseEnvlpBTN0, %object
 969              		.size	capsense_ADC_noiseEnvlpBTN0, 12
 970              	capsense_ADC_noiseEnvlpBTN0:
 971 003c 00000000 		.space	12
 971      00000000 
 971      00000000 
 972              		.type	capsense_ADC_noiseEnvlpBTN1, %object
 973              		.size	capsense_ADC_noiseEnvlpBTN1, 12
 974              	capsense_ADC_noiseEnvlpBTN1:
 975 0048 00000000 		.space	12
 975      00000000 
 975      00000000 
 976              		.type	capsense_ADC_noiseEnvlpBTN2, %object
 977              		.size	capsense_ADC_noiseEnvlpBTN2, 12
 978              	capsense_ADC_noiseEnvlpBTN2:
 979 0054 00000000 		.space	12
 979      00000000 
 979      00000000 
 980              		.type	capsense_ADC_debounceLinearSlider0, %object
 981              		.size	capsense_ADC_debounceLinearSlider0, 1
 982              	capsense_ADC_debounceLinearSlider0:
 983 0060 00       		.space	1
 984 0061 000000   		.space	3
 985              		.type	capsense_ADC_debounceBTN0, %object
 986              		.size	capsense_ADC_debounceBTN0, 1
 987              	capsense_ADC_debounceBTN0:
 988 0064 00       		.space	1
 989 0065 000000   		.space	3
 990              		.type	capsense_ADC_debounceBTN1, %object
 991              		.size	capsense_ADC_debounceBTN1, 1
 992              	capsense_ADC_debounceBTN1:
 993 0068 00       		.space	1
 994 0069 000000   		.space	3
 995              		.type	capsense_ADC_debounceBTN2, %object
 996              		.size	capsense_ADC_debounceBTN2, 1
 997              	capsense_ADC_debounceBTN2:
 998 006c 00       		.space	1
 999              		.text
 1000              	.Letext0:
 1001              		.file 2 "Generated_Source\\PSoC4/cytypes.h"
 1002              		.file 3 "Generated_Source\\PSoC4\\capsense_ADC_Configuration.h"
 1003              		.file 4 "Generated_Source\\PSoC4\\capsense_ADC_SmartSense_LL.h"
 1004              		.file 5 "Generated_Source\\PSoC4\\capsense_ADC_Structure.h"
 1005              		.file 6 "Generated_Source\\PSoC4\\CyLib.h"