ARM GAS  C:\Users\ASUS\AppData\Local\Temp\ccoddz3I.s 			page 1


   1              		.syntax unified
   2              		.cpu cortex-m0plus
   3              		.fpu softvfp
   4              		.eabi_attribute 20, 1
   5              		.eabi_attribute 21, 1
   6              		.eabi_attribute 23, 3
   7              		.eabi_attribute 24, 1
   8              		.eabi_attribute 25, 1
   9              		.eabi_attribute 26, 1
  10              		.eabi_attribute 30, 1
  11              		.eabi_attribute 34, 0
  12              		.eabi_attribute 18, 4
  13              		.thumb
  14              		.syntax unified
  15              		.file	"uart_UART.c"
  16              		.text
  17              	.Ltext0:
  18              		.cfi_sections	.debug_frame
  19              		.section	.text.uart_UartInit,"ax",%progbits
  20              		.align	2
  21              		.global	uart_UartInit
  22              		.code	16
  23              		.thumb_func
  24              		.type	uart_UartInit, %function
  25              	uart_UartInit:
  26              	.LFB1:
  27              		.file 1 "Generated_Source\\PSoC4\\uart_UART.c"
   1:Generated_Source\PSoC4/uart_UART.c **** /***************************************************************************//**
   2:Generated_Source\PSoC4/uart_UART.c **** * \file uart_UART.c
   3:Generated_Source\PSoC4/uart_UART.c **** * \version 4.0
   4:Generated_Source\PSoC4/uart_UART.c **** *
   5:Generated_Source\PSoC4/uart_UART.c **** * \brief
   6:Generated_Source\PSoC4/uart_UART.c **** *  This file provides the source code to the API for the SCB Component in
   7:Generated_Source\PSoC4/uart_UART.c **** *  UART mode.
   8:Generated_Source\PSoC4/uart_UART.c **** *
   9:Generated_Source\PSoC4/uart_UART.c **** * Note:
  10:Generated_Source\PSoC4/uart_UART.c **** *
  11:Generated_Source\PSoC4/uart_UART.c **** *******************************************************************************
  12:Generated_Source\PSoC4/uart_UART.c **** * \copyright
  13:Generated_Source\PSoC4/uart_UART.c **** * Copyright 2013-2017, Cypress Semiconductor Corporation.  All rights reserved.
  14:Generated_Source\PSoC4/uart_UART.c **** * You may use this file only in accordance with the license, terms, conditions,
  15:Generated_Source\PSoC4/uart_UART.c **** * disclaimers, and limitations in the end user license agreement accompanying
  16:Generated_Source\PSoC4/uart_UART.c **** * the software package with which this file was provided.
  17:Generated_Source\PSoC4/uart_UART.c **** *******************************************************************************/
  18:Generated_Source\PSoC4/uart_UART.c **** 
  19:Generated_Source\PSoC4/uart_UART.c **** #include "uart_PVT.h"
  20:Generated_Source\PSoC4/uart_UART.c **** #include "uart_SPI_UART_PVT.h"
  21:Generated_Source\PSoC4/uart_UART.c **** #include "cyapicallbacks.h"
  22:Generated_Source\PSoC4/uart_UART.c **** 
  23:Generated_Source\PSoC4/uart_UART.c **** #if (uart_UART_WAKE_ENABLE_CONST && uart_UART_RX_WAKEUP_IRQ)
  24:Generated_Source\PSoC4/uart_UART.c ****     /**
  25:Generated_Source\PSoC4/uart_UART.c ****     * \addtogroup group_globals
  26:Generated_Source\PSoC4/uart_UART.c ****     * \{
  27:Generated_Source\PSoC4/uart_UART.c ****     */
  28:Generated_Source\PSoC4/uart_UART.c ****     /** This global variable determines whether to enable Skip Start
  29:Generated_Source\PSoC4/uart_UART.c ****     * functionality when uart_Sleep() function is called:
  30:Generated_Source\PSoC4/uart_UART.c ****     * 0 – disable, other values – enable. Default value is 1.
ARM GAS  C:\Users\ASUS\AppData\Local\Temp\ccoddz3I.s 			page 2


  31:Generated_Source\PSoC4/uart_UART.c ****     * It is only available when Enable wakeup from Deep Sleep Mode is enabled.
  32:Generated_Source\PSoC4/uart_UART.c ****     */
  33:Generated_Source\PSoC4/uart_UART.c ****     uint8 uart_skipStart = 1u;
  34:Generated_Source\PSoC4/uart_UART.c ****     /** \} globals */
  35:Generated_Source\PSoC4/uart_UART.c **** #endif /* (uart_UART_WAKE_ENABLE_CONST && uart_UART_RX_WAKEUP_IRQ) */
  36:Generated_Source\PSoC4/uart_UART.c **** 
  37:Generated_Source\PSoC4/uart_UART.c **** #if(uart_SCB_MODE_UNCONFIG_CONST_CFG)
  38:Generated_Source\PSoC4/uart_UART.c **** 
  39:Generated_Source\PSoC4/uart_UART.c ****     /***************************************
  40:Generated_Source\PSoC4/uart_UART.c ****     *  Configuration Structure Initialization
  41:Generated_Source\PSoC4/uart_UART.c ****     ***************************************/
  42:Generated_Source\PSoC4/uart_UART.c **** 
  43:Generated_Source\PSoC4/uart_UART.c ****     const uart_UART_INIT_STRUCT uart_configUart =
  44:Generated_Source\PSoC4/uart_UART.c ****     {
  45:Generated_Source\PSoC4/uart_UART.c ****         uart_UART_SUB_MODE,
  46:Generated_Source\PSoC4/uart_UART.c ****         uart_UART_DIRECTION,
  47:Generated_Source\PSoC4/uart_UART.c ****         uart_UART_DATA_BITS_NUM,
  48:Generated_Source\PSoC4/uart_UART.c ****         uart_UART_PARITY_TYPE,
  49:Generated_Source\PSoC4/uart_UART.c ****         uart_UART_STOP_BITS_NUM,
  50:Generated_Source\PSoC4/uart_UART.c ****         uart_UART_OVS_FACTOR,
  51:Generated_Source\PSoC4/uart_UART.c ****         uart_UART_IRDA_LOW_POWER,
  52:Generated_Source\PSoC4/uart_UART.c ****         uart_UART_MEDIAN_FILTER_ENABLE,
  53:Generated_Source\PSoC4/uart_UART.c ****         uart_UART_RETRY_ON_NACK,
  54:Generated_Source\PSoC4/uart_UART.c ****         uart_UART_IRDA_POLARITY,
  55:Generated_Source\PSoC4/uart_UART.c ****         uart_UART_DROP_ON_PARITY_ERR,
  56:Generated_Source\PSoC4/uart_UART.c ****         uart_UART_DROP_ON_FRAME_ERR,
  57:Generated_Source\PSoC4/uart_UART.c ****         uart_UART_WAKE_ENABLE,
  58:Generated_Source\PSoC4/uart_UART.c ****         0u,
  59:Generated_Source\PSoC4/uart_UART.c ****         NULL,
  60:Generated_Source\PSoC4/uart_UART.c ****         0u,
  61:Generated_Source\PSoC4/uart_UART.c ****         NULL,
  62:Generated_Source\PSoC4/uart_UART.c ****         uart_UART_MP_MODE_ENABLE,
  63:Generated_Source\PSoC4/uart_UART.c ****         uart_UART_MP_ACCEPT_ADDRESS,
  64:Generated_Source\PSoC4/uart_UART.c ****         uart_UART_MP_RX_ADDRESS,
  65:Generated_Source\PSoC4/uart_UART.c ****         uart_UART_MP_RX_ADDRESS_MASK,
  66:Generated_Source\PSoC4/uart_UART.c ****         (uint32) uart_SCB_IRQ_INTERNAL,
  67:Generated_Source\PSoC4/uart_UART.c ****         uart_UART_INTR_RX_MASK,
  68:Generated_Source\PSoC4/uart_UART.c ****         uart_UART_RX_TRIGGER_LEVEL,
  69:Generated_Source\PSoC4/uart_UART.c ****         uart_UART_INTR_TX_MASK,
  70:Generated_Source\PSoC4/uart_UART.c ****         uart_UART_TX_TRIGGER_LEVEL,
  71:Generated_Source\PSoC4/uart_UART.c ****         (uint8) uart_UART_BYTE_MODE_ENABLE,
  72:Generated_Source\PSoC4/uart_UART.c ****         (uint8) uart_UART_CTS_ENABLE,
  73:Generated_Source\PSoC4/uart_UART.c ****         (uint8) uart_UART_CTS_POLARITY,
  74:Generated_Source\PSoC4/uart_UART.c ****         (uint8) uart_UART_RTS_POLARITY,
  75:Generated_Source\PSoC4/uart_UART.c ****         (uint8) uart_UART_RTS_FIFO_LEVEL,
  76:Generated_Source\PSoC4/uart_UART.c ****         (uint8) uart_UART_RX_BREAK_WIDTH
  77:Generated_Source\PSoC4/uart_UART.c ****     };
  78:Generated_Source\PSoC4/uart_UART.c **** 
  79:Generated_Source\PSoC4/uart_UART.c **** 
  80:Generated_Source\PSoC4/uart_UART.c ****     /*******************************************************************************
  81:Generated_Source\PSoC4/uart_UART.c ****     * Function Name: uart_UartInit
  82:Generated_Source\PSoC4/uart_UART.c ****     ****************************************************************************//**
  83:Generated_Source\PSoC4/uart_UART.c ****     *
  84:Generated_Source\PSoC4/uart_UART.c ****     *  Configures the uart for UART operation.
  85:Generated_Source\PSoC4/uart_UART.c ****     *
  86:Generated_Source\PSoC4/uart_UART.c ****     *  This function is intended specifically to be used when the uart
  87:Generated_Source\PSoC4/uart_UART.c ****     *  configuration is set to “Unconfigured uart” in the customizer.
ARM GAS  C:\Users\ASUS\AppData\Local\Temp\ccoddz3I.s 			page 3


  88:Generated_Source\PSoC4/uart_UART.c ****     *  After initializing the uart in UART mode using this function,
  89:Generated_Source\PSoC4/uart_UART.c ****     *  the component can be enabled using the uart_Start() or
  90:Generated_Source\PSoC4/uart_UART.c ****     * uart_Enable() function.
  91:Generated_Source\PSoC4/uart_UART.c ****     *  This function uses a pointer to a structure that provides the configuration
  92:Generated_Source\PSoC4/uart_UART.c ****     *  settings. This structure contains the same information that would otherwise
  93:Generated_Source\PSoC4/uart_UART.c ****     *  be provided by the customizer settings.
  94:Generated_Source\PSoC4/uart_UART.c ****     *
  95:Generated_Source\PSoC4/uart_UART.c ****     *  \param config: pointer to a structure that contains the following list of
  96:Generated_Source\PSoC4/uart_UART.c ****     *   fields. These fields match the selections available in the customizer.
  97:Generated_Source\PSoC4/uart_UART.c ****     *   Refer to the customizer for further description of the settings.
  98:Generated_Source\PSoC4/uart_UART.c ****     *
  99:Generated_Source\PSoC4/uart_UART.c ****     *******************************************************************************/
 100:Generated_Source\PSoC4/uart_UART.c ****     void uart_UartInit(const uart_UART_INIT_STRUCT *config)
 101:Generated_Source\PSoC4/uart_UART.c ****     {
 102:Generated_Source\PSoC4/uart_UART.c ****         uint32 pinsConfig;
 103:Generated_Source\PSoC4/uart_UART.c **** 
 104:Generated_Source\PSoC4/uart_UART.c ****         if (NULL == config)
 105:Generated_Source\PSoC4/uart_UART.c ****         {
 106:Generated_Source\PSoC4/uart_UART.c ****             CYASSERT(0u != 0u); /* Halt execution due to bad function parameter */
 107:Generated_Source\PSoC4/uart_UART.c ****         }
 108:Generated_Source\PSoC4/uart_UART.c ****         else
 109:Generated_Source\PSoC4/uart_UART.c ****         {
 110:Generated_Source\PSoC4/uart_UART.c ****             /* Get direction to configure UART pins: TX, RX or TX+RX */
 111:Generated_Source\PSoC4/uart_UART.c ****             pinsConfig  = config->direction;
 112:Generated_Source\PSoC4/uart_UART.c **** 
 113:Generated_Source\PSoC4/uart_UART.c ****         #if !(uart_CY_SCBIP_V0 || uart_CY_SCBIP_V1)
 114:Generated_Source\PSoC4/uart_UART.c ****             /* Add RTS and CTS pins to configure */
 115:Generated_Source\PSoC4/uart_UART.c ****             pinsConfig |= (0u != config->rtsRxFifoLevel) ? (uart_UART_RTS_PIN_ENABLE) : (0u);
 116:Generated_Source\PSoC4/uart_UART.c ****             pinsConfig |= (0u != config->enableCts)      ? (uart_UART_CTS_PIN_ENABLE) : (0u);
 117:Generated_Source\PSoC4/uart_UART.c ****         #endif /* !(uart_CY_SCBIP_V0 || uart_CY_SCBIP_V1) */
 118:Generated_Source\PSoC4/uart_UART.c **** 
 119:Generated_Source\PSoC4/uart_UART.c ****             /* Configure pins */
 120:Generated_Source\PSoC4/uart_UART.c ****             uart_SetPins(uart_SCB_MODE_UART, config->mode, pinsConfig);
 121:Generated_Source\PSoC4/uart_UART.c **** 
 122:Generated_Source\PSoC4/uart_UART.c ****             /* Store internal configuration */
 123:Generated_Source\PSoC4/uart_UART.c ****             uart_scbMode       = (uint8) uart_SCB_MODE_UART;
 124:Generated_Source\PSoC4/uart_UART.c ****             uart_scbEnableWake = (uint8) config->enableWake;
 125:Generated_Source\PSoC4/uart_UART.c ****             uart_scbEnableIntr = (uint8) config->enableInterrupt;
 126:Generated_Source\PSoC4/uart_UART.c **** 
 127:Generated_Source\PSoC4/uart_UART.c ****             /* Set RX direction internal variables */
 128:Generated_Source\PSoC4/uart_UART.c ****             uart_rxBuffer      =         config->rxBuffer;
 129:Generated_Source\PSoC4/uart_UART.c ****             uart_rxDataBits    = (uint8) config->dataBits;
 130:Generated_Source\PSoC4/uart_UART.c ****             uart_rxBufferSize  =         config->rxBufferSize;
 131:Generated_Source\PSoC4/uart_UART.c **** 
 132:Generated_Source\PSoC4/uart_UART.c ****             /* Set TX direction internal variables */
 133:Generated_Source\PSoC4/uart_UART.c ****             uart_txBuffer      =         config->txBuffer;
 134:Generated_Source\PSoC4/uart_UART.c ****             uart_txDataBits    = (uint8) config->dataBits;
 135:Generated_Source\PSoC4/uart_UART.c ****             uart_txBufferSize  =         config->txBufferSize;
 136:Generated_Source\PSoC4/uart_UART.c **** 
 137:Generated_Source\PSoC4/uart_UART.c ****             /* Configure UART interface */
 138:Generated_Source\PSoC4/uart_UART.c ****             if(uart_UART_MODE_IRDA == config->mode)
 139:Generated_Source\PSoC4/uart_UART.c ****             {
 140:Generated_Source\PSoC4/uart_UART.c ****                 /* OVS settings: IrDA */
 141:Generated_Source\PSoC4/uart_UART.c ****                 uart_CTRL_REG  = ((0u != config->enableIrdaLowPower) ?
 142:Generated_Source\PSoC4/uart_UART.c ****                                                 (uart_UART_GET_CTRL_OVS_IRDA_LP(config->oversample)
 143:Generated_Source\PSoC4/uart_UART.c ****                                                 (uart_CTRL_OVS_IRDA_OVS16));
 144:Generated_Source\PSoC4/uart_UART.c ****             }
ARM GAS  C:\Users\ASUS\AppData\Local\Temp\ccoddz3I.s 			page 4


 145:Generated_Source\PSoC4/uart_UART.c ****             else
 146:Generated_Source\PSoC4/uart_UART.c ****             {
 147:Generated_Source\PSoC4/uart_UART.c ****                 /* OVS settings: UART and SmartCard */
 148:Generated_Source\PSoC4/uart_UART.c ****                 uart_CTRL_REG  = uart_GET_CTRL_OVS(config->oversample);
 149:Generated_Source\PSoC4/uart_UART.c ****             }
 150:Generated_Source\PSoC4/uart_UART.c **** 
 151:Generated_Source\PSoC4/uart_UART.c ****             uart_CTRL_REG     |= uart_GET_CTRL_BYTE_MODE  (config->enableByteMode)      |
 152:Generated_Source\PSoC4/uart_UART.c ****                                              uart_GET_CTRL_ADDR_ACCEPT(config->multiprocAcceptAddr)
 153:Generated_Source\PSoC4/uart_UART.c ****                                              uart_CTRL_UART;
 154:Generated_Source\PSoC4/uart_UART.c **** 
 155:Generated_Source\PSoC4/uart_UART.c ****             /* Configure sub-mode: UART, SmartCard or IrDA */
 156:Generated_Source\PSoC4/uart_UART.c ****             uart_UART_CTRL_REG = uart_GET_UART_CTRL_MODE(config->mode);
 157:Generated_Source\PSoC4/uart_UART.c **** 
 158:Generated_Source\PSoC4/uart_UART.c ****             /* Configure RX direction */
 159:Generated_Source\PSoC4/uart_UART.c ****             uart_UART_RX_CTRL_REG = uart_GET_UART_RX_CTRL_MODE(config->stopBits)              |
 160:Generated_Source\PSoC4/uart_UART.c ****                                         uart_GET_UART_RX_CTRL_POLARITY(config->enableInvertedRx)   
 161:Generated_Source\PSoC4/uart_UART.c ****                                         uart_GET_UART_RX_CTRL_MP_MODE(config->enableMultiproc)     
 162:Generated_Source\PSoC4/uart_UART.c ****                                         uart_GET_UART_RX_CTRL_DROP_ON_PARITY_ERR(config->dropOnPari
 163:Generated_Source\PSoC4/uart_UART.c ****                                         uart_GET_UART_RX_CTRL_DROP_ON_FRAME_ERR(config->dropOnFrame
 164:Generated_Source\PSoC4/uart_UART.c ****                                         uart_GET_UART_RX_CTRL_BREAK_WIDTH(config->breakWidth);
 165:Generated_Source\PSoC4/uart_UART.c **** 
 166:Generated_Source\PSoC4/uart_UART.c ****             if(uart_UART_PARITY_NONE != config->parity)
 167:Generated_Source\PSoC4/uart_UART.c ****             {
 168:Generated_Source\PSoC4/uart_UART.c ****                uart_UART_RX_CTRL_REG |= uart_GET_UART_RX_CTRL_PARITY(config->parity) |
 169:Generated_Source\PSoC4/uart_UART.c ****                                                     uart_UART_RX_CTRL_PARITY_ENABLED;
 170:Generated_Source\PSoC4/uart_UART.c ****             }
 171:Generated_Source\PSoC4/uart_UART.c **** 
 172:Generated_Source\PSoC4/uart_UART.c ****             uart_RX_CTRL_REG      = uart_GET_RX_CTRL_DATA_WIDTH(config->dataBits)       |
 173:Generated_Source\PSoC4/uart_UART.c ****                                                 uart_GET_RX_CTRL_MEDIAN(config->enableMedianFilter)
 174:Generated_Source\PSoC4/uart_UART.c ****                                                 uart_GET_UART_RX_CTRL_ENABLED(config->direction);
 175:Generated_Source\PSoC4/uart_UART.c **** 
 176:Generated_Source\PSoC4/uart_UART.c ****             uart_RX_FIFO_CTRL_REG = uart_GET_RX_FIFO_CTRL_TRIGGER_LEVEL(config->rxTriggerLevel);
 177:Generated_Source\PSoC4/uart_UART.c **** 
 178:Generated_Source\PSoC4/uart_UART.c ****             /* Configure MP address */
 179:Generated_Source\PSoC4/uart_UART.c ****             uart_RX_MATCH_REG     = uart_GET_RX_MATCH_ADDR(config->multiprocAddr) |
 180:Generated_Source\PSoC4/uart_UART.c ****                                                 uart_GET_RX_MATCH_MASK(config->multiprocAddrMask);
 181:Generated_Source\PSoC4/uart_UART.c **** 
 182:Generated_Source\PSoC4/uart_UART.c ****             /* Configure RX direction */
 183:Generated_Source\PSoC4/uart_UART.c ****             uart_UART_TX_CTRL_REG = uart_GET_UART_TX_CTRL_MODE(config->stopBits) |
 184:Generated_Source\PSoC4/uart_UART.c ****                                                 uart_GET_UART_TX_CTRL_RETRY_NACK(config->enableRetr
 185:Generated_Source\PSoC4/uart_UART.c **** 
 186:Generated_Source\PSoC4/uart_UART.c ****             if(uart_UART_PARITY_NONE != config->parity)
 187:Generated_Source\PSoC4/uart_UART.c ****             {
 188:Generated_Source\PSoC4/uart_UART.c ****                uart_UART_TX_CTRL_REG |= uart_GET_UART_TX_CTRL_PARITY(config->parity) |
 189:Generated_Source\PSoC4/uart_UART.c ****                                                     uart_UART_TX_CTRL_PARITY_ENABLED;
 190:Generated_Source\PSoC4/uart_UART.c ****             }
 191:Generated_Source\PSoC4/uart_UART.c **** 
 192:Generated_Source\PSoC4/uart_UART.c ****             uart_TX_CTRL_REG      = uart_GET_TX_CTRL_DATA_WIDTH(config->dataBits)    |
 193:Generated_Source\PSoC4/uart_UART.c ****                                                 uart_GET_UART_TX_CTRL_ENABLED(config->direction);
 194:Generated_Source\PSoC4/uart_UART.c **** 
 195:Generated_Source\PSoC4/uart_UART.c ****             uart_TX_FIFO_CTRL_REG = uart_GET_TX_FIFO_CTRL_TRIGGER_LEVEL(config->txTriggerLevel);
 196:Generated_Source\PSoC4/uart_UART.c **** 
 197:Generated_Source\PSoC4/uart_UART.c ****         #if !(uart_CY_SCBIP_V0 || uart_CY_SCBIP_V1)
 198:Generated_Source\PSoC4/uart_UART.c ****             uart_UART_FLOW_CTRL_REG = uart_GET_UART_FLOW_CTRL_CTS_ENABLE(config->enableCts) | \
 199:Generated_Source\PSoC4/uart_UART.c ****                                             uart_GET_UART_FLOW_CTRL_CTS_POLARITY (config->ctsPolari
 200:Generated_Source\PSoC4/uart_UART.c ****                                             uart_GET_UART_FLOW_CTRL_RTS_POLARITY (config->rtsPolari
 201:Generated_Source\PSoC4/uart_UART.c ****                                             uart_GET_UART_FLOW_CTRL_TRIGGER_LEVEL(config->rtsRxFifo
ARM GAS  C:\Users\ASUS\AppData\Local\Temp\ccoddz3I.s 			page 5


 202:Generated_Source\PSoC4/uart_UART.c ****         #endif /* !(uart_CY_SCBIP_V0 || uart_CY_SCBIP_V1) */
 203:Generated_Source\PSoC4/uart_UART.c **** 
 204:Generated_Source\PSoC4/uart_UART.c ****             /* Configure interrupt with UART handler but do not enable it */
 205:Generated_Source\PSoC4/uart_UART.c ****             CyIntDisable    (uart_ISR_NUMBER);
 206:Generated_Source\PSoC4/uart_UART.c ****             CyIntSetPriority(uart_ISR_NUMBER, uart_ISR_PRIORITY);
 207:Generated_Source\PSoC4/uart_UART.c ****             (void) CyIntSetVector(uart_ISR_NUMBER, &uart_SPI_UART_ISR);
 208:Generated_Source\PSoC4/uart_UART.c **** 
 209:Generated_Source\PSoC4/uart_UART.c ****             /* Configure WAKE interrupt */
 210:Generated_Source\PSoC4/uart_UART.c ****         #if(uart_UART_RX_WAKEUP_IRQ)
 211:Generated_Source\PSoC4/uart_UART.c ****             CyIntDisable    (uart_RX_WAKE_ISR_NUMBER);
 212:Generated_Source\PSoC4/uart_UART.c ****             CyIntSetPriority(uart_RX_WAKE_ISR_NUMBER, uart_RX_WAKE_ISR_PRIORITY);
 213:Generated_Source\PSoC4/uart_UART.c ****             (void) CyIntSetVector(uart_RX_WAKE_ISR_NUMBER, &uart_UART_WAKEUP_ISR);
 214:Generated_Source\PSoC4/uart_UART.c ****         #endif /* (uart_UART_RX_WAKEUP_IRQ) */
 215:Generated_Source\PSoC4/uart_UART.c **** 
 216:Generated_Source\PSoC4/uart_UART.c ****             /* Configure interrupt sources */
 217:Generated_Source\PSoC4/uart_UART.c ****             uart_INTR_I2C_EC_MASK_REG = uart_NO_INTR_SOURCES;
 218:Generated_Source\PSoC4/uart_UART.c ****             uart_INTR_SPI_EC_MASK_REG = uart_NO_INTR_SOURCES;
 219:Generated_Source\PSoC4/uart_UART.c ****             uart_INTR_SLAVE_MASK_REG  = uart_NO_INTR_SOURCES;
 220:Generated_Source\PSoC4/uart_UART.c ****             uart_INTR_MASTER_MASK_REG = uart_NO_INTR_SOURCES;
 221:Generated_Source\PSoC4/uart_UART.c ****             uart_INTR_RX_MASK_REG     = config->rxInterruptMask;
 222:Generated_Source\PSoC4/uart_UART.c ****             uart_INTR_TX_MASK_REG     = config->txInterruptMask;
 223:Generated_Source\PSoC4/uart_UART.c **** 
 224:Generated_Source\PSoC4/uart_UART.c ****             /* Configure TX interrupt sources to restore. */
 225:Generated_Source\PSoC4/uart_UART.c ****             uart_IntrTxMask = LO16(uart_INTR_TX_MASK_REG);
 226:Generated_Source\PSoC4/uart_UART.c **** 
 227:Generated_Source\PSoC4/uart_UART.c ****             /* Clear RX buffer indexes */
 228:Generated_Source\PSoC4/uart_UART.c ****             uart_rxBufferHead     = 0u;
 229:Generated_Source\PSoC4/uart_UART.c ****             uart_rxBufferTail     = 0u;
 230:Generated_Source\PSoC4/uart_UART.c ****             uart_rxBufferOverflow = 0u;
 231:Generated_Source\PSoC4/uart_UART.c **** 
 232:Generated_Source\PSoC4/uart_UART.c ****             /* Clear TX buffer indexes */
 233:Generated_Source\PSoC4/uart_UART.c ****             uart_txBufferHead = 0u;
 234:Generated_Source\PSoC4/uart_UART.c ****             uart_txBufferTail = 0u;
 235:Generated_Source\PSoC4/uart_UART.c ****         }
 236:Generated_Source\PSoC4/uart_UART.c ****     }
 237:Generated_Source\PSoC4/uart_UART.c **** 
 238:Generated_Source\PSoC4/uart_UART.c **** #else
 239:Generated_Source\PSoC4/uart_UART.c **** 
 240:Generated_Source\PSoC4/uart_UART.c ****     /*******************************************************************************
 241:Generated_Source\PSoC4/uart_UART.c ****     * Function Name: uart_UartInit
 242:Generated_Source\PSoC4/uart_UART.c ****     ****************************************************************************//**
 243:Generated_Source\PSoC4/uart_UART.c ****     *
 244:Generated_Source\PSoC4/uart_UART.c ****     *  Configures the SCB for the UART operation.
 245:Generated_Source\PSoC4/uart_UART.c ****     *
 246:Generated_Source\PSoC4/uart_UART.c ****     *******************************************************************************/
 247:Generated_Source\PSoC4/uart_UART.c ****     void uart_UartInit(void)
 248:Generated_Source\PSoC4/uart_UART.c ****     {
  28              		.loc 1 248 0
  29              		.cfi_startproc
  30              		@ args = 0, pretend = 0, frame = 0
  31              		@ frame_needed = 0, uses_anonymous_args = 0
  32              		@ link register save eliminated.
 249:Generated_Source\PSoC4/uart_UART.c ****         /* Configure UART interface */
 250:Generated_Source\PSoC4/uart_UART.c ****         uart_CTRL_REG = uart_UART_DEFAULT_CTRL;
  33              		.loc 1 250 0
  34 0000 154A     		ldr	r2, .L2
  35 0002 164B     		ldr	r3, .L2+4
ARM GAS  C:\Users\ASUS\AppData\Local\Temp\ccoddz3I.s 			page 6


  36 0004 1A60     		str	r2, [r3]
 251:Generated_Source\PSoC4/uart_UART.c **** 
 252:Generated_Source\PSoC4/uart_UART.c ****         /* Configure sub-mode: UART, SmartCard or IrDA */
 253:Generated_Source\PSoC4/uart_UART.c ****         uart_UART_CTRL_REG = uart_UART_DEFAULT_UART_CTRL;
  37              		.loc 1 253 0
  38 0006 0023     		movs	r3, #0
  39 0008 154A     		ldr	r2, .L2+8
  40 000a 1360     		str	r3, [r2]
 254:Generated_Source\PSoC4/uart_UART.c **** 
 255:Generated_Source\PSoC4/uart_UART.c ****         /* Configure RX direction */
 256:Generated_Source\PSoC4/uart_UART.c ****         uart_UART_RX_CTRL_REG = uart_UART_DEFAULT_UART_RX_CTRL;
  41              		.loc 1 256 0
  42 000c 1549     		ldr	r1, .L2+12
  43 000e 164A     		ldr	r2, .L2+16
  44 0010 1160     		str	r1, [r2]
 257:Generated_Source\PSoC4/uart_UART.c ****         uart_RX_CTRL_REG      = uart_UART_DEFAULT_RX_CTRL;
  45              		.loc 1 257 0
  46 0012 164A     		ldr	r2, .L2+20
  47 0014 1649     		ldr	r1, .L2+24
  48 0016 0A60     		str	r2, [r1]
 258:Generated_Source\PSoC4/uart_UART.c ****         uart_RX_FIFO_CTRL_REG = uart_UART_DEFAULT_RX_FIFO_CTRL;
  49              		.loc 1 258 0
  50 0018 0720     		movs	r0, #7
  51 001a 1649     		ldr	r1, .L2+28
  52 001c 0860     		str	r0, [r1]
 259:Generated_Source\PSoC4/uart_UART.c ****         uart_RX_MATCH_REG     = uart_UART_DEFAULT_RX_MATCH_REG;
  53              		.loc 1 259 0
  54 001e 1649     		ldr	r1, .L2+32
  55 0020 0B60     		str	r3, [r1]
 260:Generated_Source\PSoC4/uart_UART.c **** 
 261:Generated_Source\PSoC4/uart_UART.c ****         /* Configure TX direction */
 262:Generated_Source\PSoC4/uart_UART.c ****         uart_UART_TX_CTRL_REG = uart_UART_DEFAULT_UART_TX_CTRL;
  56              		.loc 1 262 0
  57 0022 0638     		subs	r0, r0, #6
  58 0024 1549     		ldr	r1, .L2+36
  59 0026 0860     		str	r0, [r1]
 263:Generated_Source\PSoC4/uart_UART.c ****         uart_TX_CTRL_REG      = uart_UART_DEFAULT_TX_CTRL;
  60              		.loc 1 263 0
  61 0028 1549     		ldr	r1, .L2+40
  62 002a 0A60     		str	r2, [r1]
 264:Generated_Source\PSoC4/uart_UART.c ****         uart_TX_FIFO_CTRL_REG = uart_UART_DEFAULT_TX_FIFO_CTRL;
  63              		.loc 1 264 0
  64 002c 154A     		ldr	r2, .L2+44
  65 002e 1360     		str	r3, [r2]
 265:Generated_Source\PSoC4/uart_UART.c **** 
 266:Generated_Source\PSoC4/uart_UART.c ****     #if !(uart_CY_SCBIP_V0 || uart_CY_SCBIP_V1)
 267:Generated_Source\PSoC4/uart_UART.c ****         uart_UART_FLOW_CTRL_REG = uart_UART_DEFAULT_FLOW_CTRL;
  66              		.loc 1 267 0
  67 0030 0421     		movs	r1, #4
  68 0032 154A     		ldr	r2, .L2+48
  69 0034 1160     		str	r1, [r2]
 268:Generated_Source\PSoC4/uart_UART.c ****     #endif /* !(uart_CY_SCBIP_V0 || uart_CY_SCBIP_V1) */
 269:Generated_Source\PSoC4/uart_UART.c **** 
 270:Generated_Source\PSoC4/uart_UART.c ****         /* Configure interrupt with UART handler but do not enable it */
 271:Generated_Source\PSoC4/uart_UART.c ****     #if(uart_SCB_IRQ_INTERNAL)
 272:Generated_Source\PSoC4/uart_UART.c ****         CyIntDisable    (uart_ISR_NUMBER);
 273:Generated_Source\PSoC4/uart_UART.c ****         CyIntSetPriority(uart_ISR_NUMBER, uart_ISR_PRIORITY);
ARM GAS  C:\Users\ASUS\AppData\Local\Temp\ccoddz3I.s 			page 7


 274:Generated_Source\PSoC4/uart_UART.c ****         (void) CyIntSetVector(uart_ISR_NUMBER, &uart_SPI_UART_ISR);
 275:Generated_Source\PSoC4/uart_UART.c ****     #endif /* (uart_SCB_IRQ_INTERNAL) */
 276:Generated_Source\PSoC4/uart_UART.c **** 
 277:Generated_Source\PSoC4/uart_UART.c ****         /* Configure WAKE interrupt */
 278:Generated_Source\PSoC4/uart_UART.c ****     #if(uart_UART_RX_WAKEUP_IRQ)
 279:Generated_Source\PSoC4/uart_UART.c ****         CyIntDisable    (uart_RX_WAKE_ISR_NUMBER);
 280:Generated_Source\PSoC4/uart_UART.c ****         CyIntSetPriority(uart_RX_WAKE_ISR_NUMBER, uart_RX_WAKE_ISR_PRIORITY);
 281:Generated_Source\PSoC4/uart_UART.c ****         (void) CyIntSetVector(uart_RX_WAKE_ISR_NUMBER, &uart_UART_WAKEUP_ISR);
 282:Generated_Source\PSoC4/uart_UART.c ****     #endif /* (uart_UART_RX_WAKEUP_IRQ) */
 283:Generated_Source\PSoC4/uart_UART.c **** 
 284:Generated_Source\PSoC4/uart_UART.c ****         /* Configure interrupt sources */
 285:Generated_Source\PSoC4/uart_UART.c ****         uart_INTR_I2C_EC_MASK_REG = uart_UART_DEFAULT_INTR_I2C_EC_MASK;
  70              		.loc 1 285 0
  71 0036 154A     		ldr	r2, .L2+52
  72 0038 1360     		str	r3, [r2]
 286:Generated_Source\PSoC4/uart_UART.c ****         uart_INTR_SPI_EC_MASK_REG = uart_UART_DEFAULT_INTR_SPI_EC_MASK;
  73              		.loc 1 286 0
  74 003a 154A     		ldr	r2, .L2+56
  75 003c 1360     		str	r3, [r2]
 287:Generated_Source\PSoC4/uart_UART.c ****         uart_INTR_SLAVE_MASK_REG  = uart_UART_DEFAULT_INTR_SLAVE_MASK;
  76              		.loc 1 287 0
  77 003e 154A     		ldr	r2, .L2+60
  78 0040 1360     		str	r3, [r2]
 288:Generated_Source\PSoC4/uart_UART.c ****         uart_INTR_MASTER_MASK_REG = uart_UART_DEFAULT_INTR_MASTER_MASK;
  79              		.loc 1 288 0
  80 0042 154A     		ldr	r2, .L2+64
  81 0044 1360     		str	r3, [r2]
 289:Generated_Source\PSoC4/uart_UART.c ****         uart_INTR_RX_MASK_REG     = uart_UART_DEFAULT_INTR_RX_MASK;
  82              		.loc 1 289 0
  83 0046 154A     		ldr	r2, .L2+68
  84 0048 1360     		str	r3, [r2]
 290:Generated_Source\PSoC4/uart_UART.c ****         uart_INTR_TX_MASK_REG     = uart_UART_DEFAULT_INTR_TX_MASK;
  85              		.loc 1 290 0
  86 004a 154A     		ldr	r2, .L2+72
  87 004c 1360     		str	r3, [r2]
 291:Generated_Source\PSoC4/uart_UART.c **** 
 292:Generated_Source\PSoC4/uart_UART.c ****         /* Configure TX interrupt sources to restore. */
 293:Generated_Source\PSoC4/uart_UART.c ****         uart_IntrTxMask = LO16(uart_INTR_TX_MASK_REG);
  88              		.loc 1 293 0
  89 004e 1268     		ldr	r2, [r2]
  90 0050 144B     		ldr	r3, .L2+76
  91 0052 1A80     		strh	r2, [r3]
 294:Generated_Source\PSoC4/uart_UART.c **** 
 295:Generated_Source\PSoC4/uart_UART.c ****     #if(uart_INTERNAL_RX_SW_BUFFER_CONST)
 296:Generated_Source\PSoC4/uart_UART.c ****         uart_rxBufferHead     = 0u;
 297:Generated_Source\PSoC4/uart_UART.c ****         uart_rxBufferTail     = 0u;
 298:Generated_Source\PSoC4/uart_UART.c ****         uart_rxBufferOverflow = 0u;
 299:Generated_Source\PSoC4/uart_UART.c ****     #endif /* (uart_INTERNAL_RX_SW_BUFFER_CONST) */
 300:Generated_Source\PSoC4/uart_UART.c **** 
 301:Generated_Source\PSoC4/uart_UART.c ****     #if(uart_INTERNAL_TX_SW_BUFFER_CONST)
 302:Generated_Source\PSoC4/uart_UART.c ****         uart_txBufferHead = 0u;
 303:Generated_Source\PSoC4/uart_UART.c ****         uart_txBufferTail = 0u;
 304:Generated_Source\PSoC4/uart_UART.c ****     #endif /* (uart_INTERNAL_TX_SW_BUFFER_CONST) */
 305:Generated_Source\PSoC4/uart_UART.c ****     }
  92              		.loc 1 305 0
  93              		@ sp needed
  94 0054 7047     		bx	lr
ARM GAS  C:\Users\ASUS\AppData\Local\Temp\ccoddz3I.s 			page 8


  95              	.L3:
  96 0056 C046     		.align	2
  97              	.L2:
  98 0058 0B000002 		.word	33554443
  99 005c 00000940 		.word	1074331648
 100 0060 40000940 		.word	1074331712
 101 0064 01000A00 		.word	655361
 102 0068 48000940 		.word	1074331720
 103 006c 07000080 		.word	-2147483641
 104 0070 00030940 		.word	1074332416
 105 0074 04030940 		.word	1074332420
 106 0078 10030940 		.word	1074332432
 107 007c 44000940 		.word	1074331716
 108 0080 00020940 		.word	1074332160
 109 0084 04020940 		.word	1074332164
 110 0088 50000940 		.word	1074331728
 111 008c 880E0940 		.word	1074335368
 112 0090 C80E0940 		.word	1074335432
 113 0094 480F0940 		.word	1074335560
 114 0098 080F0940 		.word	1074335496
 115 009c C80F0940 		.word	1074335688
 116 00a0 880F0940 		.word	1074335624
 117 00a4 00000000 		.word	uart_IntrTxMask
 118              		.cfi_endproc
 119              	.LFE1:
 120              		.size	uart_UartInit, .-uart_UartInit
 121              		.section	.text.uart_UartPostEnable,"ax",%progbits
 122              		.align	2
 123              		.global	uart_UartPostEnable
 124              		.code	16
 125              		.thumb_func
 126              		.type	uart_UartPostEnable, %function
 127              	uart_UartPostEnable:
 128              	.LFB2:
 306:Generated_Source\PSoC4/uart_UART.c **** #endif /* (uart_SCB_MODE_UNCONFIG_CONST_CFG) */
 307:Generated_Source\PSoC4/uart_UART.c **** 
 308:Generated_Source\PSoC4/uart_UART.c **** 
 309:Generated_Source\PSoC4/uart_UART.c **** /*******************************************************************************
 310:Generated_Source\PSoC4/uart_UART.c **** * Function Name: uart_UartPostEnable
 311:Generated_Source\PSoC4/uart_UART.c **** ****************************************************************************//**
 312:Generated_Source\PSoC4/uart_UART.c **** *
 313:Generated_Source\PSoC4/uart_UART.c **** *  Restores HSIOM settings for the UART output pins (TX and/or RTS) to be
 314:Generated_Source\PSoC4/uart_UART.c **** *  controlled by the SCB UART.
 315:Generated_Source\PSoC4/uart_UART.c **** *
 316:Generated_Source\PSoC4/uart_UART.c **** *******************************************************************************/
 317:Generated_Source\PSoC4/uart_UART.c **** void uart_UartPostEnable(void)
 318:Generated_Source\PSoC4/uart_UART.c **** {
 129              		.loc 1 318 0
 130              		.cfi_startproc
 131              		@ args = 0, pretend = 0, frame = 0
 132              		@ frame_needed = 0, uses_anonymous_args = 0
 133              		@ link register save eliminated.
 319:Generated_Source\PSoC4/uart_UART.c **** #if (uart_SCB_MODE_UNCONFIG_CONST_CFG)
 320:Generated_Source\PSoC4/uart_UART.c ****     #if (uart_TX_SDA_MISO_PIN)
 321:Generated_Source\PSoC4/uart_UART.c ****         if (uart_CHECK_TX_SDA_MISO_PIN_USED)
 322:Generated_Source\PSoC4/uart_UART.c ****         {
 323:Generated_Source\PSoC4/uart_UART.c ****             /* Set SCB UART to drive the output pin */
ARM GAS  C:\Users\ASUS\AppData\Local\Temp\ccoddz3I.s 			page 9


 324:Generated_Source\PSoC4/uart_UART.c ****             uart_SET_HSIOM_SEL(uart_TX_SDA_MISO_HSIOM_REG, uart_TX_SDA_MISO_HSIOM_MASK,
 325:Generated_Source\PSoC4/uart_UART.c ****                                            uart_TX_SDA_MISO_HSIOM_POS, uart_TX_SDA_MISO_HSIOM_SEL_U
 326:Generated_Source\PSoC4/uart_UART.c ****         }
 327:Generated_Source\PSoC4/uart_UART.c ****     #endif /* (uart_TX_SDA_MISO_PIN_PIN) */
 328:Generated_Source\PSoC4/uart_UART.c **** 
 329:Generated_Source\PSoC4/uart_UART.c ****     #if !(uart_CY_SCBIP_V0 || uart_CY_SCBIP_V1)
 330:Generated_Source\PSoC4/uart_UART.c ****         #if (uart_RTS_SS0_PIN)
 331:Generated_Source\PSoC4/uart_UART.c ****             if (uart_CHECK_RTS_SS0_PIN_USED)
 332:Generated_Source\PSoC4/uart_UART.c ****             {
 333:Generated_Source\PSoC4/uart_UART.c ****                 /* Set SCB UART to drive the output pin */
 334:Generated_Source\PSoC4/uart_UART.c ****                 uart_SET_HSIOM_SEL(uart_RTS_SS0_HSIOM_REG, uart_RTS_SS0_HSIOM_MASK,
 335:Generated_Source\PSoC4/uart_UART.c ****                                                uart_RTS_SS0_HSIOM_POS, uart_RTS_SS0_HSIOM_SEL_UART)
 336:Generated_Source\PSoC4/uart_UART.c ****             }
 337:Generated_Source\PSoC4/uart_UART.c ****         #endif /* (uart_RTS_SS0_PIN) */
 338:Generated_Source\PSoC4/uart_UART.c ****     #endif /* !(uart_CY_SCBIP_V0 || uart_CY_SCBIP_V1) */
 339:Generated_Source\PSoC4/uart_UART.c **** 
 340:Generated_Source\PSoC4/uart_UART.c **** #else
 341:Generated_Source\PSoC4/uart_UART.c ****     #if (uart_UART_TX_PIN)
 342:Generated_Source\PSoC4/uart_UART.c ****          /* Set SCB UART to drive the output pin */
 343:Generated_Source\PSoC4/uart_UART.c ****         uart_SET_HSIOM_SEL(uart_TX_HSIOM_REG, uart_TX_HSIOM_MASK,
 134              		.loc 1 343 0
 135 0000 0549     		ldr	r1, .L5
 136 0002 0B68     		ldr	r3, [r1]
 137 0004 F022     		movs	r2, #240
 138 0006 9343     		bics	r3, r2
 139 0008 603A     		subs	r2, r2, #96
 140 000a 1343     		orrs	r3, r2
 141 000c 0B60     		str	r3, [r1]
 344:Generated_Source\PSoC4/uart_UART.c ****                                        uart_TX_HSIOM_POS, uart_TX_HSIOM_SEL_UART);
 345:Generated_Source\PSoC4/uart_UART.c ****     #endif /* (uart_UART_TX_PIN) */
 346:Generated_Source\PSoC4/uart_UART.c **** 
 347:Generated_Source\PSoC4/uart_UART.c ****     #if (uart_UART_RTS_PIN)
 348:Generated_Source\PSoC4/uart_UART.c ****         /* Set SCB UART to drive the output pin */
 349:Generated_Source\PSoC4/uart_UART.c ****         uart_SET_HSIOM_SEL(uart_RTS_HSIOM_REG, uart_RTS_HSIOM_MASK,
 350:Generated_Source\PSoC4/uart_UART.c ****                                        uart_RTS_HSIOM_POS, uart_RTS_HSIOM_SEL_UART);
 351:Generated_Source\PSoC4/uart_UART.c ****     #endif /* (uart_UART_RTS_PIN) */
 352:Generated_Source\PSoC4/uart_UART.c **** #endif /* (uart_SCB_MODE_UNCONFIG_CONST_CFG) */
 353:Generated_Source\PSoC4/uart_UART.c **** 
 354:Generated_Source\PSoC4/uart_UART.c ****     /* Restore TX interrupt sources. */
 355:Generated_Source\PSoC4/uart_UART.c ****     uart_SetTxInterruptMode(uart_IntrTxMask);
 142              		.loc 1 355 0
 143 000e 034B     		ldr	r3, .L5+4
 144 0010 1A88     		ldrh	r2, [r3]
 145 0012 034B     		ldr	r3, .L5+8
 146 0014 1A60     		str	r2, [r3]
 356:Generated_Source\PSoC4/uart_UART.c **** }
 147              		.loc 1 356 0
 148              		@ sp needed
 149 0016 7047     		bx	lr
 150              	.L6:
 151              		.align	2
 152              	.L5:
 153 0018 00030240 		.word	1073873664
 154 001c 00000000 		.word	uart_IntrTxMask
 155 0020 880F0940 		.word	1074335624
 156              		.cfi_endproc
 157              	.LFE2:
ARM GAS  C:\Users\ASUS\AppData\Local\Temp\ccoddz3I.s 			page 10


 158              		.size	uart_UartPostEnable, .-uart_UartPostEnable
 159              		.section	.text.uart_UartStop,"ax",%progbits
 160              		.align	2
 161              		.global	uart_UartStop
 162              		.code	16
 163              		.thumb_func
 164              		.type	uart_UartStop, %function
 165              	uart_UartStop:
 166              	.LFB3:
 357:Generated_Source\PSoC4/uart_UART.c **** 
 358:Generated_Source\PSoC4/uart_UART.c **** 
 359:Generated_Source\PSoC4/uart_UART.c **** /*******************************************************************************
 360:Generated_Source\PSoC4/uart_UART.c **** * Function Name: uart_UartStop
 361:Generated_Source\PSoC4/uart_UART.c **** ****************************************************************************//**
 362:Generated_Source\PSoC4/uart_UART.c **** *
 363:Generated_Source\PSoC4/uart_UART.c **** *  Changes the HSIOM settings for the UART output pins (TX and/or RTS) to keep
 364:Generated_Source\PSoC4/uart_UART.c **** *  them inactive after the block is disabled. The output pins are controlled by
 365:Generated_Source\PSoC4/uart_UART.c **** *  the GPIO data register. Also, the function disables the skip start feature
 366:Generated_Source\PSoC4/uart_UART.c **** *  to not cause it to trigger after the component is enabled.
 367:Generated_Source\PSoC4/uart_UART.c **** *
 368:Generated_Source\PSoC4/uart_UART.c **** *******************************************************************************/
 369:Generated_Source\PSoC4/uart_UART.c **** void uart_UartStop(void)
 370:Generated_Source\PSoC4/uart_UART.c **** {
 167              		.loc 1 370 0
 168              		.cfi_startproc
 169              		@ args = 0, pretend = 0, frame = 0
 170              		@ frame_needed = 0, uses_anonymous_args = 0
 171              		@ link register save eliminated.
 371:Generated_Source\PSoC4/uart_UART.c **** #if(uart_SCB_MODE_UNCONFIG_CONST_CFG)
 372:Generated_Source\PSoC4/uart_UART.c ****     #if (uart_TX_SDA_MISO_PIN)
 373:Generated_Source\PSoC4/uart_UART.c ****         if (uart_CHECK_TX_SDA_MISO_PIN_USED)
 374:Generated_Source\PSoC4/uart_UART.c ****         {
 375:Generated_Source\PSoC4/uart_UART.c ****             /* Set GPIO to drive output pin */
 376:Generated_Source\PSoC4/uart_UART.c ****             uart_SET_HSIOM_SEL(uart_TX_SDA_MISO_HSIOM_REG, uart_TX_SDA_MISO_HSIOM_MASK,
 377:Generated_Source\PSoC4/uart_UART.c ****                                            uart_TX_SDA_MISO_HSIOM_POS, uart_TX_SDA_MISO_HSIOM_SEL_G
 378:Generated_Source\PSoC4/uart_UART.c ****         }
 379:Generated_Source\PSoC4/uart_UART.c ****     #endif /* (uart_TX_SDA_MISO_PIN_PIN) */
 380:Generated_Source\PSoC4/uart_UART.c **** 
 381:Generated_Source\PSoC4/uart_UART.c ****     #if !(uart_CY_SCBIP_V0 || uart_CY_SCBIP_V1)
 382:Generated_Source\PSoC4/uart_UART.c ****         #if (uart_RTS_SS0_PIN)
 383:Generated_Source\PSoC4/uart_UART.c ****             if (uart_CHECK_RTS_SS0_PIN_USED)
 384:Generated_Source\PSoC4/uart_UART.c ****             {
 385:Generated_Source\PSoC4/uart_UART.c ****                 /* Set output pin state after block is disabled */
 386:Generated_Source\PSoC4/uart_UART.c ****                 uart_uart_rts_spi_ss0_Write(uart_GET_UART_RTS_INACTIVE);
 387:Generated_Source\PSoC4/uart_UART.c **** 
 388:Generated_Source\PSoC4/uart_UART.c ****                 /* Set GPIO to drive output pin */
 389:Generated_Source\PSoC4/uart_UART.c ****                 uart_SET_HSIOM_SEL(uart_RTS_SS0_HSIOM_REG, uart_RTS_SS0_HSIOM_MASK,
 390:Generated_Source\PSoC4/uart_UART.c ****                                                uart_RTS_SS0_HSIOM_POS, uart_RTS_SS0_HSIOM_SEL_GPIO)
 391:Generated_Source\PSoC4/uart_UART.c ****             }
 392:Generated_Source\PSoC4/uart_UART.c ****         #endif /* (uart_RTS_SS0_PIN) */
 393:Generated_Source\PSoC4/uart_UART.c ****     #endif /* !(uart_CY_SCBIP_V0 || uart_CY_SCBIP_V1) */
 394:Generated_Source\PSoC4/uart_UART.c **** 
 395:Generated_Source\PSoC4/uart_UART.c **** #else
 396:Generated_Source\PSoC4/uart_UART.c ****     #if (uart_UART_TX_PIN)
 397:Generated_Source\PSoC4/uart_UART.c ****         /* Set GPIO to drive output pin */
 398:Generated_Source\PSoC4/uart_UART.c ****         uart_SET_HSIOM_SEL(uart_TX_HSIOM_REG, uart_TX_HSIOM_MASK,
 172              		.loc 1 398 0
ARM GAS  C:\Users\ASUS\AppData\Local\Temp\ccoddz3I.s 			page 11


 173 0000 064A     		ldr	r2, .L8
 174 0002 1368     		ldr	r3, [r2]
 175 0004 F021     		movs	r1, #240
 176 0006 8B43     		bics	r3, r1
 177 0008 1360     		str	r3, [r2]
 399:Generated_Source\PSoC4/uart_UART.c ****                                        uart_TX_HSIOM_POS, uart_TX_HSIOM_SEL_GPIO);
 400:Generated_Source\PSoC4/uart_UART.c ****     #endif /* (uart_UART_TX_PIN) */
 401:Generated_Source\PSoC4/uart_UART.c **** 
 402:Generated_Source\PSoC4/uart_UART.c ****     #if (uart_UART_RTS_PIN)
 403:Generated_Source\PSoC4/uart_UART.c ****         /* Set output pin state after block is disabled */
 404:Generated_Source\PSoC4/uart_UART.c ****         uart_rts_Write(uart_GET_UART_RTS_INACTIVE);
 405:Generated_Source\PSoC4/uart_UART.c **** 
 406:Generated_Source\PSoC4/uart_UART.c ****         /* Set GPIO to drive output pin */
 407:Generated_Source\PSoC4/uart_UART.c ****         uart_SET_HSIOM_SEL(uart_RTS_HSIOM_REG, uart_RTS_HSIOM_MASK,
 408:Generated_Source\PSoC4/uart_UART.c ****                                        uart_RTS_HSIOM_POS, uart_RTS_HSIOM_SEL_GPIO);
 409:Generated_Source\PSoC4/uart_UART.c ****     #endif /* (uart_UART_RTS_PIN) */
 410:Generated_Source\PSoC4/uart_UART.c **** 
 411:Generated_Source\PSoC4/uart_UART.c **** #endif /* (uart_SCB_MODE_UNCONFIG_CONST_CFG) */
 412:Generated_Source\PSoC4/uart_UART.c **** 
 413:Generated_Source\PSoC4/uart_UART.c **** #if (uart_UART_WAKE_ENABLE_CONST)
 414:Generated_Source\PSoC4/uart_UART.c ****     /* Disable skip start feature used for wakeup */
 415:Generated_Source\PSoC4/uart_UART.c ****     uart_UART_RX_CTRL_REG &= (uint32) ~uart_UART_RX_CTRL_SKIP_START;
 416:Generated_Source\PSoC4/uart_UART.c **** #endif /* (uart_UART_WAKE_ENABLE_CONST) */
 417:Generated_Source\PSoC4/uart_UART.c **** 
 418:Generated_Source\PSoC4/uart_UART.c ****     /* Store TX interrupt sources (exclude level triggered). */
 419:Generated_Source\PSoC4/uart_UART.c ****     uart_IntrTxMask = LO16(uart_GetTxInterruptMode() & uart_INTR_UART_TX_RESTORE);
 178              		.loc 1 419 0
 179 000a 054B     		ldr	r3, .L8+4
 180 000c 1A68     		ldr	r2, [r3]
 181 000e E423     		movs	r3, #228
 182 0010 DB00     		lsls	r3, r3, #3
 183 0012 1340     		ands	r3, r2
 184 0014 034A     		ldr	r2, .L8+8
 185 0016 1380     		strh	r3, [r2]
 420:Generated_Source\PSoC4/uart_UART.c **** }
 186              		.loc 1 420 0
 187              		@ sp needed
 188 0018 7047     		bx	lr
 189              	.L9:
 190 001a C046     		.align	2
 191              	.L8:
 192 001c 00030240 		.word	1073873664
 193 0020 880F0940 		.word	1074335624
 194 0024 00000000 		.word	uart_IntrTxMask
 195              		.cfi_endproc
 196              	.LFE3:
 197              		.size	uart_UartStop, .-uart_UartStop
 198              		.section	.text.uart_UartSetRxAddress,"ax",%progbits
 199              		.align	2
 200              		.global	uart_UartSetRxAddress
 201              		.code	16
 202              		.thumb_func
 203              		.type	uart_UartSetRxAddress, %function
 204              	uart_UartSetRxAddress:
 205              	.LFB4:
 421:Generated_Source\PSoC4/uart_UART.c **** 
 422:Generated_Source\PSoC4/uart_UART.c **** 
ARM GAS  C:\Users\ASUS\AppData\Local\Temp\ccoddz3I.s 			page 12


 423:Generated_Source\PSoC4/uart_UART.c **** /*******************************************************************************
 424:Generated_Source\PSoC4/uart_UART.c **** * Function Name: uart_UartSetRxAddress
 425:Generated_Source\PSoC4/uart_UART.c **** ****************************************************************************//**
 426:Generated_Source\PSoC4/uart_UART.c **** *
 427:Generated_Source\PSoC4/uart_UART.c **** *  Sets the hardware detectable receiver address for the UART in the
 428:Generated_Source\PSoC4/uart_UART.c **** *  Multiprocessor mode.
 429:Generated_Source\PSoC4/uart_UART.c **** *
 430:Generated_Source\PSoC4/uart_UART.c **** *  \param address: Address for hardware address detection.
 431:Generated_Source\PSoC4/uart_UART.c **** *
 432:Generated_Source\PSoC4/uart_UART.c **** *******************************************************************************/
 433:Generated_Source\PSoC4/uart_UART.c **** void uart_UartSetRxAddress(uint32 address)
 434:Generated_Source\PSoC4/uart_UART.c **** {
 206              		.loc 1 434 0
 207              		.cfi_startproc
 208              		@ args = 0, pretend = 0, frame = 0
 209              		@ frame_needed = 0, uses_anonymous_args = 0
 210              		@ link register save eliminated.
 211              	.LVL0:
 435:Generated_Source\PSoC4/uart_UART.c ****      uint32 matchReg;
 436:Generated_Source\PSoC4/uart_UART.c **** 
 437:Generated_Source\PSoC4/uart_UART.c ****     matchReg = uart_RX_MATCH_REG;
 212              		.loc 1 437 0
 213 0000 034A     		ldr	r2, .L11
 214 0002 1368     		ldr	r3, [r2]
 215              	.LVL1:
 438:Generated_Source\PSoC4/uart_UART.c **** 
 439:Generated_Source\PSoC4/uart_UART.c ****     matchReg &= ((uint32) ~uart_RX_MATCH_ADDR_MASK); /* Clear address bits */
 216              		.loc 1 439 0
 217 0004 FF21     		movs	r1, #255
 218 0006 8B43     		bics	r3, r1
 219              	.LVL2:
 440:Generated_Source\PSoC4/uart_UART.c ****     matchReg |= ((uint32)  (address & uart_RX_MATCH_ADDR_MASK)); /* Set address  */
 220              		.loc 1 440 0
 221 0008 0840     		ands	r0, r1
 222              	.LVL3:
 223 000a 1843     		orrs	r0, r3
 224              	.LVL4:
 441:Generated_Source\PSoC4/uart_UART.c **** 
 442:Generated_Source\PSoC4/uart_UART.c ****     uart_RX_MATCH_REG = matchReg;
 225              		.loc 1 442 0
 226 000c 1060     		str	r0, [r2]
 443:Generated_Source\PSoC4/uart_UART.c **** }
 227              		.loc 1 443 0
 228              		@ sp needed
 229 000e 7047     		bx	lr
 230              	.L12:
 231              		.align	2
 232              	.L11:
 233 0010 10030940 		.word	1074332432
 234              		.cfi_endproc
 235              	.LFE4:
 236              		.size	uart_UartSetRxAddress, .-uart_UartSetRxAddress
 237              		.section	.text.uart_UartSetRxAddressMask,"ax",%progbits
 238              		.align	2
 239              		.global	uart_UartSetRxAddressMask
 240              		.code	16
 241              		.thumb_func
ARM GAS  C:\Users\ASUS\AppData\Local\Temp\ccoddz3I.s 			page 13


 242              		.type	uart_UartSetRxAddressMask, %function
 243              	uart_UartSetRxAddressMask:
 244              	.LFB5:
 444:Generated_Source\PSoC4/uart_UART.c **** 
 445:Generated_Source\PSoC4/uart_UART.c **** 
 446:Generated_Source\PSoC4/uart_UART.c **** /*******************************************************************************
 447:Generated_Source\PSoC4/uart_UART.c **** * Function Name: uart_UartSetRxAddressMask
 448:Generated_Source\PSoC4/uart_UART.c **** ****************************************************************************//**
 449:Generated_Source\PSoC4/uart_UART.c **** *
 450:Generated_Source\PSoC4/uart_UART.c **** *  Sets the hardware address mask for the UART in the Multiprocessor mode.
 451:Generated_Source\PSoC4/uart_UART.c **** *
 452:Generated_Source\PSoC4/uart_UART.c **** *  \param addressMask: Address mask.
 453:Generated_Source\PSoC4/uart_UART.c **** *   - Bit value 0 – excludes bit from address comparison.
 454:Generated_Source\PSoC4/uart_UART.c **** *   - Bit value 1 – the bit needs to match with the corresponding bit
 455:Generated_Source\PSoC4/uart_UART.c **** *     of the address.
 456:Generated_Source\PSoC4/uart_UART.c **** *
 457:Generated_Source\PSoC4/uart_UART.c **** *******************************************************************************/
 458:Generated_Source\PSoC4/uart_UART.c **** void uart_UartSetRxAddressMask(uint32 addressMask)
 459:Generated_Source\PSoC4/uart_UART.c **** {
 245              		.loc 1 459 0
 246              		.cfi_startproc
 247              		@ args = 0, pretend = 0, frame = 0
 248              		@ frame_needed = 0, uses_anonymous_args = 0
 249              		@ link register save eliminated.
 250              	.LVL5:
 460:Generated_Source\PSoC4/uart_UART.c ****     uint32 matchReg;
 461:Generated_Source\PSoC4/uart_UART.c **** 
 462:Generated_Source\PSoC4/uart_UART.c ****     matchReg = uart_RX_MATCH_REG;
 251              		.loc 1 462 0
 252 0000 034A     		ldr	r2, .L14
 253 0002 1168     		ldr	r1, [r2]
 254              	.LVL6:
 463:Generated_Source\PSoC4/uart_UART.c **** 
 464:Generated_Source\PSoC4/uart_UART.c ****     matchReg &= ((uint32) ~uart_RX_MATCH_MASK_MASK); /* Clear address mask bits */
 255              		.loc 1 464 0
 256 0004 034B     		ldr	r3, .L14+4
 257 0006 0B40     		ands	r3, r1
 258              	.LVL7:
 465:Generated_Source\PSoC4/uart_UART.c ****     matchReg |= ((uint32) (addressMask << uart_RX_MATCH_MASK_POS));
 259              		.loc 1 465 0
 260 0008 0004     		lsls	r0, r0, #16
 261              	.LVL8:
 262 000a 1843     		orrs	r0, r3
 263              	.LVL9:
 466:Generated_Source\PSoC4/uart_UART.c **** 
 467:Generated_Source\PSoC4/uart_UART.c ****     uart_RX_MATCH_REG = matchReg;
 264              		.loc 1 467 0
 265 000c 1060     		str	r0, [r2]
 468:Generated_Source\PSoC4/uart_UART.c **** }
 266              		.loc 1 468 0
 267              		@ sp needed
 268 000e 7047     		bx	lr
 269              	.L15:
 270              		.align	2
 271              	.L14:
 272 0010 10030940 		.word	1074332432
 273 0014 FFFF00FF 		.word	-16711681
ARM GAS  C:\Users\ASUS\AppData\Local\Temp\ccoddz3I.s 			page 14


 274              		.cfi_endproc
 275              	.LFE5:
 276              		.size	uart_UartSetRxAddressMask, .-uart_UartSetRxAddressMask
 277              		.section	.text.uart_UartGetChar,"ax",%progbits
 278              		.align	2
 279              		.global	uart_UartGetChar
 280              		.code	16
 281              		.thumb_func
 282              		.type	uart_UartGetChar, %function
 283              	uart_UartGetChar:
 284              	.LFB6:
 469:Generated_Source\PSoC4/uart_UART.c **** 
 470:Generated_Source\PSoC4/uart_UART.c **** 
 471:Generated_Source\PSoC4/uart_UART.c **** #if(uart_UART_RX_DIRECTION)
 472:Generated_Source\PSoC4/uart_UART.c ****     /*******************************************************************************
 473:Generated_Source\PSoC4/uart_UART.c ****     * Function Name: uart_UartGetChar
 474:Generated_Source\PSoC4/uart_UART.c ****     ****************************************************************************//**
 475:Generated_Source\PSoC4/uart_UART.c ****     *
 476:Generated_Source\PSoC4/uart_UART.c ****     *  Retrieves next data element from receive buffer.
 477:Generated_Source\PSoC4/uart_UART.c ****     *  This function is designed for ASCII characters and returns a char where
 478:Generated_Source\PSoC4/uart_UART.c ****     *  1 to 255 are valid characters and 0 indicates an error occurred or no data
 479:Generated_Source\PSoC4/uart_UART.c ****     *  is present.
 480:Generated_Source\PSoC4/uart_UART.c ****     *  - RX software buffer is disabled: Returns data element retrieved from RX
 481:Generated_Source\PSoC4/uart_UART.c ****     *    FIFO.
 482:Generated_Source\PSoC4/uart_UART.c ****     *  - RX software buffer is enabled: Returns data element from the software
 483:Generated_Source\PSoC4/uart_UART.c ****     *    receive buffer.
 484:Generated_Source\PSoC4/uart_UART.c ****     *
 485:Generated_Source\PSoC4/uart_UART.c ****     *  \return
 486:Generated_Source\PSoC4/uart_UART.c ****     *   Next data element from the receive buffer. ASCII character values from
 487:Generated_Source\PSoC4/uart_UART.c ****     *   1 to 255 are valid. A returned zero signifies an error condition or no
 488:Generated_Source\PSoC4/uart_UART.c ****     *   data available.
 489:Generated_Source\PSoC4/uart_UART.c ****     *
 490:Generated_Source\PSoC4/uart_UART.c ****     *  \sideeffect
 491:Generated_Source\PSoC4/uart_UART.c ****     *   The errors bits may not correspond with reading characters due to
 492:Generated_Source\PSoC4/uart_UART.c ****     *   RX FIFO and software buffer usage.
 493:Generated_Source\PSoC4/uart_UART.c ****     *   RX software buffer is enabled: The internal software buffer overflow
 494:Generated_Source\PSoC4/uart_UART.c ****     *   is not treated as an error condition.
 495:Generated_Source\PSoC4/uart_UART.c ****     *   Check uart_rxBufferOverflow to capture that error condition.
 496:Generated_Source\PSoC4/uart_UART.c ****     *
 497:Generated_Source\PSoC4/uart_UART.c ****     *******************************************************************************/
 498:Generated_Source\PSoC4/uart_UART.c ****     uint32 uart_UartGetChar(void)
 499:Generated_Source\PSoC4/uart_UART.c ****     {
 285              		.loc 1 499 0
 286              		.cfi_startproc
 287              		@ args = 0, pretend = 0, frame = 0
 288              		@ frame_needed = 0, uses_anonymous_args = 0
 289 0000 10B5     		push	{r4, lr}
 290              		.cfi_def_cfa_offset 8
 291              		.cfi_offset 4, -8
 292              		.cfi_offset 14, -4
 293              	.LVL10:
 500:Generated_Source\PSoC4/uart_UART.c ****         uint32 rxData = 0u;
 501:Generated_Source\PSoC4/uart_UART.c **** 
 502:Generated_Source\PSoC4/uart_UART.c ****         /* Reads data only if there is data to read */
 503:Generated_Source\PSoC4/uart_UART.c ****         if (0u != uart_SpiUartGetRxBufferSize())
 294              		.loc 1 503 0
 295 0002 FFF7FEFF 		bl	uart_SpiUartGetRxBufferSize
ARM GAS  C:\Users\ASUS\AppData\Local\Temp\ccoddz3I.s 			page 15


 296              	.LVL11:
 297 0006 0028     		cmp	r0, #0
 298 0008 02D0     		beq	.L19
 504:Generated_Source\PSoC4/uart_UART.c ****         {
 505:Generated_Source\PSoC4/uart_UART.c ****             rxData = uart_SpiUartReadRxData();
 299              		.loc 1 505 0
 300 000a FFF7FEFF 		bl	uart_SpiUartReadRxData
 301              	.LVL12:
 302 000e 00E0     		b	.L17
 303              	.LVL13:
 304              	.L19:
 500:Generated_Source\PSoC4/uart_UART.c ****         uint32 rxData = 0u;
 305              		.loc 1 500 0
 306 0010 0020     		movs	r0, #0
 307              	.LVL14:
 308              	.L17:
 506:Generated_Source\PSoC4/uart_UART.c ****         }
 507:Generated_Source\PSoC4/uart_UART.c **** 
 508:Generated_Source\PSoC4/uart_UART.c ****         if (uart_CHECK_INTR_RX(uart_INTR_RX_ERR))
 309              		.loc 1 508 0
 310 0012 054B     		ldr	r3, .L20
 311 0014 1A68     		ldr	r2, [r3]
 312 0016 D823     		movs	r3, #216
 313 0018 9B00     		lsls	r3, r3, #2
 314 001a 1A42     		tst	r2, r3
 315 001c 03D0     		beq	.L18
 316              	.LVL15:
 509:Generated_Source\PSoC4/uart_UART.c ****         {
 510:Generated_Source\PSoC4/uart_UART.c ****             rxData = 0u; /* Error occurred: returns zero */
 511:Generated_Source\PSoC4/uart_UART.c ****             uart_ClearRxInterruptSource(uart_INTR_RX_ERR);
 317              		.loc 1 511 0
 318 001e 1A00     		movs	r2, r3
 319 0020 014B     		ldr	r3, .L20
 320 0022 1A60     		str	r2, [r3]
 510:Generated_Source\PSoC4/uart_UART.c ****             uart_ClearRxInterruptSource(uart_INTR_RX_ERR);
 321              		.loc 1 510 0
 322 0024 0020     		movs	r0, #0
 323              	.LVL16:
 324              	.L18:
 512:Generated_Source\PSoC4/uart_UART.c ****         }
 513:Generated_Source\PSoC4/uart_UART.c **** 
 514:Generated_Source\PSoC4/uart_UART.c ****         return (rxData);
 515:Generated_Source\PSoC4/uart_UART.c ****     }
 325              		.loc 1 515 0
 326              		@ sp needed
 327 0026 10BD     		pop	{r4, pc}
 328              	.L21:
 329              		.align	2
 330              	.L20:
 331 0028 C00F0940 		.word	1074335680
 332              		.cfi_endproc
 333              	.LFE6:
 334              		.size	uart_UartGetChar, .-uart_UartGetChar
 335              		.section	.text.uart_UartGetByte,"ax",%progbits
 336              		.align	2
 337              		.global	uart_UartGetByte
 338              		.code	16
ARM GAS  C:\Users\ASUS\AppData\Local\Temp\ccoddz3I.s 			page 16


 339              		.thumb_func
 340              		.type	uart_UartGetByte, %function
 341              	uart_UartGetByte:
 342              	.LFB7:
 516:Generated_Source\PSoC4/uart_UART.c **** 
 517:Generated_Source\PSoC4/uart_UART.c **** 
 518:Generated_Source\PSoC4/uart_UART.c ****     /*******************************************************************************
 519:Generated_Source\PSoC4/uart_UART.c ****     * Function Name: uart_UartGetByte
 520:Generated_Source\PSoC4/uart_UART.c ****     ****************************************************************************//**
 521:Generated_Source\PSoC4/uart_UART.c ****     *
 522:Generated_Source\PSoC4/uart_UART.c ****     *  Retrieves the next data element from the receive buffer, returns the
 523:Generated_Source\PSoC4/uart_UART.c ****     *  received byte and error condition.
 524:Generated_Source\PSoC4/uart_UART.c ****     *   - The RX software buffer is disabled: returns the data element retrieved
 525:Generated_Source\PSoC4/uart_UART.c ****     *     from the RX FIFO. Undefined data will be returned if the RX FIFO is
 526:Generated_Source\PSoC4/uart_UART.c ****     *     empty.
 527:Generated_Source\PSoC4/uart_UART.c ****     *   - The RX software buffer is enabled: returns data element from the
 528:Generated_Source\PSoC4/uart_UART.c ****     *     software receive buffer.
 529:Generated_Source\PSoC4/uart_UART.c ****     *
 530:Generated_Source\PSoC4/uart_UART.c ****     *  \return
 531:Generated_Source\PSoC4/uart_UART.c ****     *   Bits 7-0 contain the next data element from the receive buffer and
 532:Generated_Source\PSoC4/uart_UART.c ****     *   other bits contain the error condition.
 533:Generated_Source\PSoC4/uart_UART.c ****     *   - uart_UART_RX_OVERFLOW - Attempt to write to a full
 534:Generated_Source\PSoC4/uart_UART.c ****     *     receiver FIFO.
 535:Generated_Source\PSoC4/uart_UART.c ****     *   - uart_UART_RX_UNDERFLOW    Attempt to read from an empty
 536:Generated_Source\PSoC4/uart_UART.c ****     *     receiver FIFO.
 537:Generated_Source\PSoC4/uart_UART.c ****     *   - uart_UART_RX_FRAME_ERROR - UART framing error detected.
 538:Generated_Source\PSoC4/uart_UART.c ****     *   - uart_UART_RX_PARITY_ERROR - UART parity error detected.
 539:Generated_Source\PSoC4/uart_UART.c ****     *
 540:Generated_Source\PSoC4/uart_UART.c ****     *  \sideeffect
 541:Generated_Source\PSoC4/uart_UART.c ****     *   The errors bits may not correspond with reading characters due to
 542:Generated_Source\PSoC4/uart_UART.c ****     *   RX FIFO and software buffer usage.
 543:Generated_Source\PSoC4/uart_UART.c ****     *   RX software buffer is enabled: The internal software buffer overflow
 544:Generated_Source\PSoC4/uart_UART.c ****     *   is not treated as an error condition.
 545:Generated_Source\PSoC4/uart_UART.c ****     *   Check uart_rxBufferOverflow to capture that error condition.
 546:Generated_Source\PSoC4/uart_UART.c ****     *
 547:Generated_Source\PSoC4/uart_UART.c ****     *******************************************************************************/
 548:Generated_Source\PSoC4/uart_UART.c ****     uint32 uart_UartGetByte(void)
 549:Generated_Source\PSoC4/uart_UART.c ****     {
 343              		.loc 1 549 0
 344              		.cfi_startproc
 345              		@ args = 0, pretend = 0, frame = 0
 346              		@ frame_needed = 0, uses_anonymous_args = 0
 347 0000 10B5     		push	{r4, lr}
 348              		.cfi_def_cfa_offset 8
 349              		.cfi_offset 4, -8
 350              		.cfi_offset 14, -4
 550:Generated_Source\PSoC4/uart_UART.c ****         uint32 rxData;
 551:Generated_Source\PSoC4/uart_UART.c ****         uint32 tmpStatus;
 552:Generated_Source\PSoC4/uart_UART.c **** 
 553:Generated_Source\PSoC4/uart_UART.c ****         #if (uart_CHECK_RX_SW_BUFFER)
 554:Generated_Source\PSoC4/uart_UART.c ****         {
 555:Generated_Source\PSoC4/uart_UART.c ****             uart_DisableInt();
 556:Generated_Source\PSoC4/uart_UART.c ****         }
 557:Generated_Source\PSoC4/uart_UART.c ****         #endif
 558:Generated_Source\PSoC4/uart_UART.c **** 
 559:Generated_Source\PSoC4/uart_UART.c ****         if (0u != uart_SpiUartGetRxBufferSize())
 351              		.loc 1 559 0
ARM GAS  C:\Users\ASUS\AppData\Local\Temp\ccoddz3I.s 			page 17


 352 0002 FFF7FEFF 		bl	uart_SpiUartGetRxBufferSize
 353              	.LVL17:
 354 0006 0028     		cmp	r0, #0
 355 0008 02D0     		beq	.L23
 560:Generated_Source\PSoC4/uart_UART.c ****         {
 561:Generated_Source\PSoC4/uart_UART.c ****             /* Enables interrupt to receive more bytes: at least one byte is in
 562:Generated_Source\PSoC4/uart_UART.c ****             * buffer.
 563:Generated_Source\PSoC4/uart_UART.c ****             */
 564:Generated_Source\PSoC4/uart_UART.c ****             #if (uart_CHECK_RX_SW_BUFFER)
 565:Generated_Source\PSoC4/uart_UART.c ****             {
 566:Generated_Source\PSoC4/uart_UART.c ****                 uart_EnableInt();
 567:Generated_Source\PSoC4/uart_UART.c ****             }
 568:Generated_Source\PSoC4/uart_UART.c ****             #endif
 569:Generated_Source\PSoC4/uart_UART.c **** 
 570:Generated_Source\PSoC4/uart_UART.c ****             /* Get received byte */
 571:Generated_Source\PSoC4/uart_UART.c ****             rxData = uart_SpiUartReadRxData();
 356              		.loc 1 571 0
 357 000a FFF7FEFF 		bl	uart_SpiUartReadRxData
 358              	.LVL18:
 359 000e 01E0     		b	.L24
 360              	.LVL19:
 361              	.L23:
 572:Generated_Source\PSoC4/uart_UART.c ****         }
 573:Generated_Source\PSoC4/uart_UART.c ****         else
 574:Generated_Source\PSoC4/uart_UART.c ****         {
 575:Generated_Source\PSoC4/uart_UART.c ****             /* Reads a byte directly from RX FIFO: underflow is raised in the
 576:Generated_Source\PSoC4/uart_UART.c ****             * case of empty. Otherwise the first received byte will be read.
 577:Generated_Source\PSoC4/uart_UART.c ****             */
 578:Generated_Source\PSoC4/uart_UART.c ****             rxData = uart_RX_FIFO_RD_REG;
 362              		.loc 1 578 0
 363 0010 064B     		ldr	r3, .L25
 364 0012 1868     		ldr	r0, [r3]
 365              	.LVL20:
 366              	.L24:
 579:Generated_Source\PSoC4/uart_UART.c **** 
 580:Generated_Source\PSoC4/uart_UART.c **** 
 581:Generated_Source\PSoC4/uart_UART.c ****             /* Enables interrupt to receive more bytes. */
 582:Generated_Source\PSoC4/uart_UART.c ****             #if (uart_CHECK_RX_SW_BUFFER)
 583:Generated_Source\PSoC4/uart_UART.c ****             {
 584:Generated_Source\PSoC4/uart_UART.c **** 
 585:Generated_Source\PSoC4/uart_UART.c ****                 /* The byte has been read from RX FIFO. Clear RX interrupt to
 586:Generated_Source\PSoC4/uart_UART.c ****                 * not involve interrupt handler when RX FIFO is empty.
 587:Generated_Source\PSoC4/uart_UART.c ****                 */
 588:Generated_Source\PSoC4/uart_UART.c ****                 uart_ClearRxInterruptSource(uart_INTR_RX_NOT_EMPTY);
 589:Generated_Source\PSoC4/uart_UART.c **** 
 590:Generated_Source\PSoC4/uart_UART.c ****                 uart_EnableInt();
 591:Generated_Source\PSoC4/uart_UART.c ****             }
 592:Generated_Source\PSoC4/uart_UART.c ****             #endif
 593:Generated_Source\PSoC4/uart_UART.c ****         }
 594:Generated_Source\PSoC4/uart_UART.c **** 
 595:Generated_Source\PSoC4/uart_UART.c ****         /* Get and clear RX error mask */
 596:Generated_Source\PSoC4/uart_UART.c ****         tmpStatus = (uart_GetRxInterruptSource() & uart_INTR_RX_ERR);
 367              		.loc 1 596 0
 368 0014 064A     		ldr	r2, .L25+4
 369 0016 1368     		ldr	r3, [r2]
 370              	.LVL21:
 597:Generated_Source\PSoC4/uart_UART.c ****         uart_ClearRxInterruptSource(uart_INTR_RX_ERR);
ARM GAS  C:\Users\ASUS\AppData\Local\Temp\ccoddz3I.s 			page 18


 371              		.loc 1 597 0
 372 0018 D821     		movs	r1, #216
 373 001a 8900     		lsls	r1, r1, #2
 374 001c 1160     		str	r1, [r2]
 598:Generated_Source\PSoC4/uart_UART.c **** 
 599:Generated_Source\PSoC4/uart_UART.c ****         /* Puts together data and error status:
 600:Generated_Source\PSoC4/uart_UART.c ****         * MP mode and accept address: 9th bit is set to notify mark.
 601:Generated_Source\PSoC4/uart_UART.c ****         */
 602:Generated_Source\PSoC4/uart_UART.c ****         rxData |= ((uint32) (tmpStatus << 8u));
 375              		.loc 1 602 0
 376 001e 1B02     		lsls	r3, r3, #8
 377              	.LVL22:
 378 0020 D822     		movs	r2, #216
 379 0022 9202     		lsls	r2, r2, #10
 380 0024 1340     		ands	r3, r2
 381 0026 1843     		orrs	r0, r3
 382              	.LVL23:
 603:Generated_Source\PSoC4/uart_UART.c **** 
 604:Generated_Source\PSoC4/uart_UART.c ****         return (rxData);
 605:Generated_Source\PSoC4/uart_UART.c ****     }
 383              		.loc 1 605 0
 384              		@ sp needed
 385 0028 10BD     		pop	{r4, pc}
 386              	.L26:
 387 002a C046     		.align	2
 388              	.L25:
 389 002c 40030940 		.word	1074332480
 390 0030 C00F0940 		.word	1074335680
 391              		.cfi_endproc
 392              	.LFE7:
 393              		.size	uart_UartGetByte, .-uart_UartGetByte
 394              		.section	.text.uart_UartSetRtsPolarity,"ax",%progbits
 395              		.align	2
 396              		.global	uart_UartSetRtsPolarity
 397              		.code	16
 398              		.thumb_func
 399              		.type	uart_UartSetRtsPolarity, %function
 400              	uart_UartSetRtsPolarity:
 401              	.LFB8:
 606:Generated_Source\PSoC4/uart_UART.c **** 
 607:Generated_Source\PSoC4/uart_UART.c **** 
 608:Generated_Source\PSoC4/uart_UART.c ****     #if !(uart_CY_SCBIP_V0 || uart_CY_SCBIP_V1)
 609:Generated_Source\PSoC4/uart_UART.c ****         /*******************************************************************************
 610:Generated_Source\PSoC4/uart_UART.c ****         * Function Name: uart_UartSetRtsPolarity
 611:Generated_Source\PSoC4/uart_UART.c ****         ****************************************************************************//**
 612:Generated_Source\PSoC4/uart_UART.c ****         *
 613:Generated_Source\PSoC4/uart_UART.c ****         *  Sets active polarity of RTS output signal.
 614:Generated_Source\PSoC4/uart_UART.c ****         *  Only available for PSoC 4100 BLE / PSoC 4200 BLE / PSoC 4100M / PSoC 4200M /
 615:Generated_Source\PSoC4/uart_UART.c ****         *  PSoC 4200L / PSoC 4000S / PSoC 4100S / PSoC Analog Coprocessor devices.
 616:Generated_Source\PSoC4/uart_UART.c ****         *
 617:Generated_Source\PSoC4/uart_UART.c ****         *  \param polarity: Active polarity of RTS output signal.
 618:Generated_Source\PSoC4/uart_UART.c ****         *   - uart_UART_RTS_ACTIVE_LOW  - RTS signal is active low.
 619:Generated_Source\PSoC4/uart_UART.c ****         *   - uart_UART_RTS_ACTIVE_HIGH - RTS signal is active high.
 620:Generated_Source\PSoC4/uart_UART.c ****         *
 621:Generated_Source\PSoC4/uart_UART.c ****         *******************************************************************************/
 622:Generated_Source\PSoC4/uart_UART.c ****         void uart_UartSetRtsPolarity(uint32 polarity)
 623:Generated_Source\PSoC4/uart_UART.c ****         {
ARM GAS  C:\Users\ASUS\AppData\Local\Temp\ccoddz3I.s 			page 19


 402              		.loc 1 623 0
 403              		.cfi_startproc
 404              		@ args = 0, pretend = 0, frame = 0
 405              		@ frame_needed = 0, uses_anonymous_args = 0
 406              		@ link register save eliminated.
 407              	.LVL24:
 624:Generated_Source\PSoC4/uart_UART.c ****             if(0u != polarity)
 408              		.loc 1 624 0
 409 0000 0028     		cmp	r0, #0
 410 0002 06D0     		beq	.L28
 625:Generated_Source\PSoC4/uart_UART.c ****             {
 626:Generated_Source\PSoC4/uart_UART.c ****                 uart_UART_FLOW_CTRL_REG |= (uint32)  uart_UART_FLOW_CTRL_RTS_POLARITY;
 411              		.loc 1 626 0
 412 0004 064A     		ldr	r2, .L30
 413 0006 1368     		ldr	r3, [r2]
 414 0008 8021     		movs	r1, #128
 415 000a 4902     		lsls	r1, r1, #9
 416 000c 0B43     		orrs	r3, r1
 417 000e 1360     		str	r3, [r2]
 418 0010 04E0     		b	.L27
 419              	.L28:
 627:Generated_Source\PSoC4/uart_UART.c ****             }
 628:Generated_Source\PSoC4/uart_UART.c ****             else
 629:Generated_Source\PSoC4/uart_UART.c ****             {
 630:Generated_Source\PSoC4/uart_UART.c ****                 uart_UART_FLOW_CTRL_REG &= (uint32) ~uart_UART_FLOW_CTRL_RTS_POLARITY;
 420              		.loc 1 630 0
 421 0012 034A     		ldr	r2, .L30
 422 0014 1168     		ldr	r1, [r2]
 423 0016 034B     		ldr	r3, .L30+4
 424 0018 0B40     		ands	r3, r1
 425 001a 1360     		str	r3, [r2]
 426              	.L27:
 631:Generated_Source\PSoC4/uart_UART.c ****             }
 632:Generated_Source\PSoC4/uart_UART.c ****         }
 427              		.loc 1 632 0
 428              		@ sp needed
 429 001c 7047     		bx	lr
 430              	.L31:
 431 001e C046     		.align	2
 432              	.L30:
 433 0020 50000940 		.word	1074331728
 434 0024 FFFFFEFF 		.word	-65537
 435              		.cfi_endproc
 436              	.LFE8:
 437              		.size	uart_UartSetRtsPolarity, .-uart_UartSetRtsPolarity
 438              		.section	.text.uart_UartSetRtsFifoLevel,"ax",%progbits
 439              		.align	2
 440              		.global	uart_UartSetRtsFifoLevel
 441              		.code	16
 442              		.thumb_func
 443              		.type	uart_UartSetRtsFifoLevel, %function
 444              	uart_UartSetRtsFifoLevel:
 445              	.LFB9:
 633:Generated_Source\PSoC4/uart_UART.c **** 
 634:Generated_Source\PSoC4/uart_UART.c **** 
 635:Generated_Source\PSoC4/uart_UART.c ****         /*******************************************************************************
 636:Generated_Source\PSoC4/uart_UART.c ****         * Function Name: uart_UartSetRtsFifoLevel
ARM GAS  C:\Users\ASUS\AppData\Local\Temp\ccoddz3I.s 			page 20


 637:Generated_Source\PSoC4/uart_UART.c ****         ****************************************************************************//**
 638:Generated_Source\PSoC4/uart_UART.c ****         *
 639:Generated_Source\PSoC4/uart_UART.c ****         *  Sets level in the RX FIFO for RTS signal activation.
 640:Generated_Source\PSoC4/uart_UART.c ****         *  While the RX FIFO has fewer entries than the RX FIFO level the RTS signal
 641:Generated_Source\PSoC4/uart_UART.c ****         *  remains active, otherwise the RTS signal becomes inactive.
 642:Generated_Source\PSoC4/uart_UART.c ****         *  Only available for PSoC 4100 BLE / PSoC 4200 BLE / PSoC 4100M / PSoC 4200M /
 643:Generated_Source\PSoC4/uart_UART.c ****         *  PSoC 4200L / PSoC 4000S / PSoC 4100S / PSoC Analog Coprocessor devices.
 644:Generated_Source\PSoC4/uart_UART.c ****         *
 645:Generated_Source\PSoC4/uart_UART.c ****         *  \param level: Level in the RX FIFO for RTS signal activation.
 646:Generated_Source\PSoC4/uart_UART.c ****         *   The range of valid level values is between 0 and RX FIFO depth - 1.
 647:Generated_Source\PSoC4/uart_UART.c ****         *   Setting level value to 0 disables RTS signal activation.
 648:Generated_Source\PSoC4/uart_UART.c ****         *
 649:Generated_Source\PSoC4/uart_UART.c ****         *******************************************************************************/
 650:Generated_Source\PSoC4/uart_UART.c ****         void uart_UartSetRtsFifoLevel(uint32 level)
 651:Generated_Source\PSoC4/uart_UART.c ****         {
 446              		.loc 1 651 0
 447              		.cfi_startproc
 448              		@ args = 0, pretend = 0, frame = 0
 449              		@ frame_needed = 0, uses_anonymous_args = 0
 450              		@ link register save eliminated.
 451              	.LVL25:
 652:Generated_Source\PSoC4/uart_UART.c ****             uint32 uartFlowCtrl;
 653:Generated_Source\PSoC4/uart_UART.c **** 
 654:Generated_Source\PSoC4/uart_UART.c ****             uartFlowCtrl = uart_UART_FLOW_CTRL_REG;
 452              		.loc 1 654 0
 453 0000 034A     		ldr	r2, .L33
 454 0002 1368     		ldr	r3, [r2]
 455              	.LVL26:
 655:Generated_Source\PSoC4/uart_UART.c **** 
 656:Generated_Source\PSoC4/uart_UART.c ****             uartFlowCtrl &= ((uint32) ~uart_UART_FLOW_CTRL_TRIGGER_LEVEL_MASK); /* Clear level mask
 456              		.loc 1 656 0
 457 0004 0F21     		movs	r1, #15
 458 0006 8B43     		bics	r3, r1
 459              	.LVL27:
 657:Generated_Source\PSoC4/uart_UART.c ****             uartFlowCtrl |= ((uint32) (uart_UART_FLOW_CTRL_TRIGGER_LEVEL_MASK & level));
 460              		.loc 1 657 0
 461 0008 0840     		ands	r0, r1
 462              	.LVL28:
 463 000a 1843     		orrs	r0, r3
 464              	.LVL29:
 658:Generated_Source\PSoC4/uart_UART.c **** 
 659:Generated_Source\PSoC4/uart_UART.c ****             uart_UART_FLOW_CTRL_REG = uartFlowCtrl;
 465              		.loc 1 659 0
 466 000c 1060     		str	r0, [r2]
 660:Generated_Source\PSoC4/uart_UART.c ****         }
 467              		.loc 1 660 0
 468              		@ sp needed
 469 000e 7047     		bx	lr
 470              	.L34:
 471              		.align	2
 472              	.L33:
 473 0010 50000940 		.word	1074331728
 474              		.cfi_endproc
 475              	.LFE9:
 476              		.size	uart_UartSetRtsFifoLevel, .-uart_UartSetRtsFifoLevel
 477              		.section	.text.uart_UartPutString,"ax",%progbits
 478              		.align	2
ARM GAS  C:\Users\ASUS\AppData\Local\Temp\ccoddz3I.s 			page 21


 479              		.global	uart_UartPutString
 480              		.code	16
 481              		.thumb_func
 482              		.type	uart_UartPutString, %function
 483              	uart_UartPutString:
 484              	.LFB10:
 661:Generated_Source\PSoC4/uart_UART.c ****     #endif /* !(uart_CY_SCBIP_V0 || uart_CY_SCBIP_V1) */
 662:Generated_Source\PSoC4/uart_UART.c **** 
 663:Generated_Source\PSoC4/uart_UART.c **** #endif /* (uart_UART_RX_DIRECTION) */
 664:Generated_Source\PSoC4/uart_UART.c **** 
 665:Generated_Source\PSoC4/uart_UART.c **** 
 666:Generated_Source\PSoC4/uart_UART.c **** #if(uart_UART_TX_DIRECTION)
 667:Generated_Source\PSoC4/uart_UART.c ****     /*******************************************************************************
 668:Generated_Source\PSoC4/uart_UART.c ****     * Function Name: uart_UartPutString
 669:Generated_Source\PSoC4/uart_UART.c ****     ****************************************************************************//**
 670:Generated_Source\PSoC4/uart_UART.c ****     *
 671:Generated_Source\PSoC4/uart_UART.c ****     *  Places a NULL terminated string in the transmit buffer to be sent at the
 672:Generated_Source\PSoC4/uart_UART.c ****     *  next available bus time.
 673:Generated_Source\PSoC4/uart_UART.c ****     *  This function is blocking and waits until there is a space available to put
 674:Generated_Source\PSoC4/uart_UART.c ****     *  requested data in transmit buffer.
 675:Generated_Source\PSoC4/uart_UART.c ****     *
 676:Generated_Source\PSoC4/uart_UART.c ****     *  \param string: pointer to the null terminated string array to be placed in the
 677:Generated_Source\PSoC4/uart_UART.c ****     *   transmit buffer.
 678:Generated_Source\PSoC4/uart_UART.c ****     *
 679:Generated_Source\PSoC4/uart_UART.c ****     *******************************************************************************/
 680:Generated_Source\PSoC4/uart_UART.c ****     void uart_UartPutString(const char8 string[])
 681:Generated_Source\PSoC4/uart_UART.c ****     {
 485              		.loc 1 681 0
 486              		.cfi_startproc
 487              		@ args = 0, pretend = 0, frame = 0
 488              		@ frame_needed = 0, uses_anonymous_args = 0
 489              	.LVL30:
 490 0000 70B5     		push	{r4, r5, r6, lr}
 491              		.cfi_def_cfa_offset 16
 492              		.cfi_offset 4, -16
 493              		.cfi_offset 5, -12
 494              		.cfi_offset 6, -8
 495              		.cfi_offset 14, -4
 496 0002 0500     		movs	r5, r0
 497              	.LVL31:
 682:Generated_Source\PSoC4/uart_UART.c ****         uint32 bufIndex;
 683:Generated_Source\PSoC4/uart_UART.c **** 
 684:Generated_Source\PSoC4/uart_UART.c ****         bufIndex = 0u;
 498              		.loc 1 684 0
 499 0004 0024     		movs	r4, #0
 685:Generated_Source\PSoC4/uart_UART.c **** 
 686:Generated_Source\PSoC4/uart_UART.c ****         /* Blocks the control flow until all data has been sent */
 687:Generated_Source\PSoC4/uart_UART.c ****         while(string[bufIndex] != ((char8) 0))
 500              		.loc 1 687 0
 501 0006 02E0     		b	.L36
 502              	.LVL32:
 503              	.L37:
 688:Generated_Source\PSoC4/uart_UART.c ****         {
 689:Generated_Source\PSoC4/uart_UART.c ****             uart_UartPutChar((uint32) string[bufIndex]);
 504              		.loc 1 689 0
 505 0008 FFF7FEFF 		bl	uart_SpiUartWriteTxData
 506              	.LVL33:
ARM GAS  C:\Users\ASUS\AppData\Local\Temp\ccoddz3I.s 			page 22


 690:Generated_Source\PSoC4/uart_UART.c ****             bufIndex++;
 507              		.loc 1 690 0
 508 000c 0134     		adds	r4, r4, #1
 509              	.LVL34:
 510              	.L36:
 687:Generated_Source\PSoC4/uart_UART.c ****         {
 511              		.loc 1 687 0
 512 000e 285D     		ldrb	r0, [r5, r4]
 513 0010 0028     		cmp	r0, #0
 514 0012 F9D1     		bne	.L37
 691:Generated_Source\PSoC4/uart_UART.c ****         }
 692:Generated_Source\PSoC4/uart_UART.c ****     }
 515              		.loc 1 692 0
 516              		@ sp needed
 517              	.LVL35:
 518              	.LVL36:
 519 0014 70BD     		pop	{r4, r5, r6, pc}
 520              		.cfi_endproc
 521              	.LFE10:
 522              		.size	uart_UartPutString, .-uart_UartPutString
 523 0016 C046     		.section	.text.uart_UartPutCRLF,"ax",%progbits
 524              		.align	2
 525              		.global	uart_UartPutCRLF
 526              		.code	16
 527              		.thumb_func
 528              		.type	uart_UartPutCRLF, %function
 529              	uart_UartPutCRLF:
 530              	.LFB11:
 693:Generated_Source\PSoC4/uart_UART.c **** 
 694:Generated_Source\PSoC4/uart_UART.c **** 
 695:Generated_Source\PSoC4/uart_UART.c ****     /*******************************************************************************
 696:Generated_Source\PSoC4/uart_UART.c ****     * Function Name: uart_UartPutCRLF
 697:Generated_Source\PSoC4/uart_UART.c ****     ****************************************************************************//**
 698:Generated_Source\PSoC4/uart_UART.c ****     *
 699:Generated_Source\PSoC4/uart_UART.c ****     *  Places byte of data followed by a carriage return (0x0D) and line feed
 700:Generated_Source\PSoC4/uart_UART.c ****     *  (0x0A) in the transmit buffer.
 701:Generated_Source\PSoC4/uart_UART.c ****     *  This function is blocking and waits until there is a space available to put
 702:Generated_Source\PSoC4/uart_UART.c ****     *  all requested data in transmit buffer.
 703:Generated_Source\PSoC4/uart_UART.c ****     *
 704:Generated_Source\PSoC4/uart_UART.c ****     *  \param txDataByte: the data to be transmitted.
 705:Generated_Source\PSoC4/uart_UART.c ****     *
 706:Generated_Source\PSoC4/uart_UART.c ****     *******************************************************************************/
 707:Generated_Source\PSoC4/uart_UART.c ****     void uart_UartPutCRLF(uint32 txDataByte)
 708:Generated_Source\PSoC4/uart_UART.c ****     {
 531              		.loc 1 708 0
 532              		.cfi_startproc
 533              		@ args = 0, pretend = 0, frame = 0
 534              		@ frame_needed = 0, uses_anonymous_args = 0
 535              	.LVL37:
 536 0000 10B5     		push	{r4, lr}
 537              		.cfi_def_cfa_offset 8
 538              		.cfi_offset 4, -8
 539              		.cfi_offset 14, -4
 709:Generated_Source\PSoC4/uart_UART.c ****         uart_UartPutChar(txDataByte);  /* Blocks control flow until all data has been sent */
 540              		.loc 1 709 0
 541 0002 FFF7FEFF 		bl	uart_SpiUartWriteTxData
 542              	.LVL38:
ARM GAS  C:\Users\ASUS\AppData\Local\Temp\ccoddz3I.s 			page 23


 710:Generated_Source\PSoC4/uart_UART.c ****         uart_UartPutChar(0x0Du);       /* Blocks control flow until all data has been sent */
 543              		.loc 1 710 0
 544 0006 0D20     		movs	r0, #13
 545 0008 FFF7FEFF 		bl	uart_SpiUartWriteTxData
 546              	.LVL39:
 711:Generated_Source\PSoC4/uart_UART.c ****         uart_UartPutChar(0x0Au);       /* Blocks control flow until all data has been sent */
 547              		.loc 1 711 0
 548 000c 0A20     		movs	r0, #10
 549 000e FFF7FEFF 		bl	uart_SpiUartWriteTxData
 550              	.LVL40:
 712:Generated_Source\PSoC4/uart_UART.c ****     }
 551              		.loc 1 712 0
 552              		@ sp needed
 553 0012 10BD     		pop	{r4, pc}
 554              		.cfi_endproc
 555              	.LFE11:
 556              		.size	uart_UartPutCRLF, .-uart_UartPutCRLF
 557              		.section	.text.uart_UartEnableCts,"ax",%progbits
 558              		.align	2
 559              		.global	uart_UartEnableCts
 560              		.code	16
 561              		.thumb_func
 562              		.type	uart_UartEnableCts, %function
 563              	uart_UartEnableCts:
 564              	.LFB12:
 713:Generated_Source\PSoC4/uart_UART.c **** 
 714:Generated_Source\PSoC4/uart_UART.c **** 
 715:Generated_Source\PSoC4/uart_UART.c ****     #if !(uart_CY_SCBIP_V0 || uart_CY_SCBIP_V1)
 716:Generated_Source\PSoC4/uart_UART.c ****         /*******************************************************************************
 717:Generated_Source\PSoC4/uart_UART.c ****         * Function Name: uartSCB_UartEnableCts
 718:Generated_Source\PSoC4/uart_UART.c ****         ****************************************************************************//**
 719:Generated_Source\PSoC4/uart_UART.c ****         *
 720:Generated_Source\PSoC4/uart_UART.c ****         *  Enables usage of CTS input signal by the UART transmitter.
 721:Generated_Source\PSoC4/uart_UART.c ****         *  Only available for PSoC 4100 BLE / PSoC 4200 BLE / PSoC 4100M / PSoC 4200M /
 722:Generated_Source\PSoC4/uart_UART.c ****         *  PSoC 4200L / PSoC 4000S / PSoC 4100S / PSoC Analog Coprocessor devices.
 723:Generated_Source\PSoC4/uart_UART.c ****         *
 724:Generated_Source\PSoC4/uart_UART.c ****         *******************************************************************************/
 725:Generated_Source\PSoC4/uart_UART.c ****         void uart_UartEnableCts(void)
 726:Generated_Source\PSoC4/uart_UART.c ****         {
 565              		.loc 1 726 0
 566              		.cfi_startproc
 567              		@ args = 0, pretend = 0, frame = 0
 568              		@ frame_needed = 0, uses_anonymous_args = 0
 569              		@ link register save eliminated.
 727:Generated_Source\PSoC4/uart_UART.c ****             uart_UART_FLOW_CTRL_REG |= (uint32)  uart_UART_FLOW_CTRL_CTS_ENABLE;
 570              		.loc 1 727 0
 571 0000 034A     		ldr	r2, .L40
 572 0002 1368     		ldr	r3, [r2]
 573 0004 8021     		movs	r1, #128
 574 0006 8904     		lsls	r1, r1, #18
 575 0008 0B43     		orrs	r3, r1
 576 000a 1360     		str	r3, [r2]
 728:Generated_Source\PSoC4/uart_UART.c ****         }
 577              		.loc 1 728 0
 578              		@ sp needed
 579 000c 7047     		bx	lr
 580              	.L41:
ARM GAS  C:\Users\ASUS\AppData\Local\Temp\ccoddz3I.s 			page 24


 581 000e C046     		.align	2
 582              	.L40:
 583 0010 50000940 		.word	1074331728
 584              		.cfi_endproc
 585              	.LFE12:
 586              		.size	uart_UartEnableCts, .-uart_UartEnableCts
 587              		.section	.text.uart_UartDisableCts,"ax",%progbits
 588              		.align	2
 589              		.global	uart_UartDisableCts
 590              		.code	16
 591              		.thumb_func
 592              		.type	uart_UartDisableCts, %function
 593              	uart_UartDisableCts:
 594              	.LFB13:
 729:Generated_Source\PSoC4/uart_UART.c **** 
 730:Generated_Source\PSoC4/uart_UART.c **** 
 731:Generated_Source\PSoC4/uart_UART.c ****         /*******************************************************************************
 732:Generated_Source\PSoC4/uart_UART.c ****         * Function Name: uart_UartDisableCts
 733:Generated_Source\PSoC4/uart_UART.c ****         ****************************************************************************//**
 734:Generated_Source\PSoC4/uart_UART.c ****         *
 735:Generated_Source\PSoC4/uart_UART.c ****         *  Disables usage of CTS input signal by the UART transmitter.
 736:Generated_Source\PSoC4/uart_UART.c ****         *  Only available for PSoC 4100 BLE / PSoC 4200 BLE / PSoC 4100M / PSoC 4200M /
 737:Generated_Source\PSoC4/uart_UART.c ****         *  PSoC 4200L / PSoC 4000S / PSoC 4100S / PSoC Analog Coprocessor devices.
 738:Generated_Source\PSoC4/uart_UART.c ****         *
 739:Generated_Source\PSoC4/uart_UART.c ****         *******************************************************************************/
 740:Generated_Source\PSoC4/uart_UART.c ****         void uart_UartDisableCts(void)
 741:Generated_Source\PSoC4/uart_UART.c ****         {
 595              		.loc 1 741 0
 596              		.cfi_startproc
 597              		@ args = 0, pretend = 0, frame = 0
 598              		@ frame_needed = 0, uses_anonymous_args = 0
 599              		@ link register save eliminated.
 742:Generated_Source\PSoC4/uart_UART.c ****             uart_UART_FLOW_CTRL_REG &= (uint32) ~uart_UART_FLOW_CTRL_CTS_ENABLE;
 600              		.loc 1 742 0
 601 0000 024A     		ldr	r2, .L43
 602 0002 1168     		ldr	r1, [r2]
 603 0004 024B     		ldr	r3, .L43+4
 604 0006 0B40     		ands	r3, r1
 605 0008 1360     		str	r3, [r2]
 743:Generated_Source\PSoC4/uart_UART.c ****         }
 606              		.loc 1 743 0
 607              		@ sp needed
 608 000a 7047     		bx	lr
 609              	.L44:
 610              		.align	2
 611              	.L43:
 612 000c 50000940 		.word	1074331728
 613 0010 FFFFFFFD 		.word	-33554433
 614              		.cfi_endproc
 615              	.LFE13:
 616              		.size	uart_UartDisableCts, .-uart_UartDisableCts
 617              		.section	.text.uart_UartSetCtsPolarity,"ax",%progbits
 618              		.align	2
 619              		.global	uart_UartSetCtsPolarity
 620              		.code	16
 621              		.thumb_func
 622              		.type	uart_UartSetCtsPolarity, %function
ARM GAS  C:\Users\ASUS\AppData\Local\Temp\ccoddz3I.s 			page 25


 623              	uart_UartSetCtsPolarity:
 624              	.LFB14:
 744:Generated_Source\PSoC4/uart_UART.c **** 
 745:Generated_Source\PSoC4/uart_UART.c **** 
 746:Generated_Source\PSoC4/uart_UART.c ****         /*******************************************************************************
 747:Generated_Source\PSoC4/uart_UART.c ****         * Function Name: uart_UartSetCtsPolarity
 748:Generated_Source\PSoC4/uart_UART.c ****         ****************************************************************************//**
 749:Generated_Source\PSoC4/uart_UART.c ****         *
 750:Generated_Source\PSoC4/uart_UART.c ****         *  Sets active polarity of CTS input signal.
 751:Generated_Source\PSoC4/uart_UART.c ****         *  Only available for PSoC 4100 BLE / PSoC 4200 BLE / PSoC 4100M / PSoC 4200M /
 752:Generated_Source\PSoC4/uart_UART.c ****         *  PSoC 4200L / PSoC 4000S / PSoC 4100S / PSoC Analog Coprocessor devices.
 753:Generated_Source\PSoC4/uart_UART.c ****         *
 754:Generated_Source\PSoC4/uart_UART.c ****         * \param
 755:Generated_Source\PSoC4/uart_UART.c ****         * polarity: Active polarity of CTS output signal.
 756:Generated_Source\PSoC4/uart_UART.c ****         *   - uart_UART_CTS_ACTIVE_LOW  - CTS signal is active low.
 757:Generated_Source\PSoC4/uart_UART.c ****         *   - uart_UART_CTS_ACTIVE_HIGH - CTS signal is active high.
 758:Generated_Source\PSoC4/uart_UART.c ****         *
 759:Generated_Source\PSoC4/uart_UART.c ****         *******************************************************************************/
 760:Generated_Source\PSoC4/uart_UART.c ****         void uart_UartSetCtsPolarity(uint32 polarity)
 761:Generated_Source\PSoC4/uart_UART.c ****         {
 625              		.loc 1 761 0
 626              		.cfi_startproc
 627              		@ args = 0, pretend = 0, frame = 0
 628              		@ frame_needed = 0, uses_anonymous_args = 0
 629              		@ link register save eliminated.
 630              	.LVL41:
 762:Generated_Source\PSoC4/uart_UART.c ****             if (0u != polarity)
 631              		.loc 1 762 0
 632 0000 0028     		cmp	r0, #0
 633 0002 06D0     		beq	.L46
 763:Generated_Source\PSoC4/uart_UART.c ****             {
 764:Generated_Source\PSoC4/uart_UART.c ****                 uart_UART_FLOW_CTRL_REG |= (uint32)  uart_UART_FLOW_CTRL_CTS_POLARITY;
 634              		.loc 1 764 0
 635 0004 064A     		ldr	r2, .L48
 636 0006 1368     		ldr	r3, [r2]
 637 0008 8021     		movs	r1, #128
 638 000a 4904     		lsls	r1, r1, #17
 639 000c 0B43     		orrs	r3, r1
 640 000e 1360     		str	r3, [r2]
 641 0010 04E0     		b	.L45
 642              	.L46:
 765:Generated_Source\PSoC4/uart_UART.c ****             }
 766:Generated_Source\PSoC4/uart_UART.c ****             else
 767:Generated_Source\PSoC4/uart_UART.c ****             {
 768:Generated_Source\PSoC4/uart_UART.c ****                 uart_UART_FLOW_CTRL_REG &= (uint32) ~uart_UART_FLOW_CTRL_CTS_POLARITY;
 643              		.loc 1 768 0
 644 0012 034A     		ldr	r2, .L48
 645 0014 1168     		ldr	r1, [r2]
 646 0016 034B     		ldr	r3, .L48+4
 647 0018 0B40     		ands	r3, r1
 648 001a 1360     		str	r3, [r2]
 649              	.L45:
 769:Generated_Source\PSoC4/uart_UART.c ****             }
 770:Generated_Source\PSoC4/uart_UART.c ****         }
 650              		.loc 1 770 0
 651              		@ sp needed
 652 001c 7047     		bx	lr
ARM GAS  C:\Users\ASUS\AppData\Local\Temp\ccoddz3I.s 			page 26


 653              	.L49:
 654 001e C046     		.align	2
 655              	.L48:
 656 0020 50000940 		.word	1074331728
 657 0024 FFFFFFFE 		.word	-16777217
 658              		.cfi_endproc
 659              	.LFE14:
 660              		.size	uart_UartSetCtsPolarity, .-uart_UartSetCtsPolarity
 661              		.section	.text.uart_UartSendBreakBlocking,"ax",%progbits
 662              		.align	2
 663              		.global	uart_UartSendBreakBlocking
 664              		.code	16
 665              		.thumb_func
 666              		.type	uart_UartSendBreakBlocking, %function
 667              	uart_UartSendBreakBlocking:
 668              	.LFB15:
 771:Generated_Source\PSoC4/uart_UART.c ****     #endif /* !(uart_CY_SCBIP_V0 || uart_CY_SCBIP_V1) */
 772:Generated_Source\PSoC4/uart_UART.c **** 
 773:Generated_Source\PSoC4/uart_UART.c **** 
 774:Generated_Source\PSoC4/uart_UART.c ****     /*******************************************************************************
 775:Generated_Source\PSoC4/uart_UART.c ****     * Function Name: uart_UartSendBreakBlocking
 776:Generated_Source\PSoC4/uart_UART.c ****     ****************************************************************************//**
 777:Generated_Source\PSoC4/uart_UART.c ****     *
 778:Generated_Source\PSoC4/uart_UART.c ****     * Sends a break condition (logic low) of specified width on UART TX line.
 779:Generated_Source\PSoC4/uart_UART.c ****     * Blocks until break is completed. Only call this function when UART TX FIFO
 780:Generated_Source\PSoC4/uart_UART.c ****     * and shifter are empty.
 781:Generated_Source\PSoC4/uart_UART.c ****     *
 782:Generated_Source\PSoC4/uart_UART.c ****     * \param breakWidth
 783:Generated_Source\PSoC4/uart_UART.c ****     * Width of break condition. Valid range is 4 to 16 bits.
 784:Generated_Source\PSoC4/uart_UART.c ****     *
 785:Generated_Source\PSoC4/uart_UART.c ****     * \note
 786:Generated_Source\PSoC4/uart_UART.c ****     * Before sending break all UART TX interrupt sources are disabled. The state
 787:Generated_Source\PSoC4/uart_UART.c ****     * of UART TX interrupt sources is restored before function returns.
 788:Generated_Source\PSoC4/uart_UART.c ****     *
 789:Generated_Source\PSoC4/uart_UART.c ****     * \sideeffect
 790:Generated_Source\PSoC4/uart_UART.c ****     * If this function is called while there is data in the TX FIFO or shifter that
 791:Generated_Source\PSoC4/uart_UART.c ****     * data will be shifted out in packets the size of breakWidth.
 792:Generated_Source\PSoC4/uart_UART.c ****     *
 793:Generated_Source\PSoC4/uart_UART.c ****     *******************************************************************************/
 794:Generated_Source\PSoC4/uart_UART.c ****     void uart_UartSendBreakBlocking(uint32 breakWidth)
 795:Generated_Source\PSoC4/uart_UART.c ****     {
 669              		.loc 1 795 0
 670              		.cfi_startproc
 671              		@ args = 0, pretend = 0, frame = 0
 672              		@ frame_needed = 0, uses_anonymous_args = 0
 673              	.LVL42:
 674 0000 70B5     		push	{r4, r5, r6, lr}
 675              		.cfi_def_cfa_offset 16
 676              		.cfi_offset 4, -16
 677              		.cfi_offset 5, -12
 678              		.cfi_offset 6, -8
 679              		.cfi_offset 14, -4
 680 0002 0300     		movs	r3, r0
 796:Generated_Source\PSoC4/uart_UART.c ****         uint32 txCtrlReg;
 797:Generated_Source\PSoC4/uart_UART.c ****         uint32 txIntrReg;
 798:Generated_Source\PSoC4/uart_UART.c **** 
 799:Generated_Source\PSoC4/uart_UART.c ****         /* Disable all UART TX interrupt source and clear UART TX Done history */
ARM GAS  C:\Users\ASUS\AppData\Local\Temp\ccoddz3I.s 			page 27


 800:Generated_Source\PSoC4/uart_UART.c ****         txIntrReg = uart_GetTxInterruptMode();
 681              		.loc 1 800 0
 682 0004 0F4A     		ldr	r2, .L52
 683 0006 1568     		ldr	r5, [r2]
 684              	.LVL43:
 801:Generated_Source\PSoC4/uart_UART.c ****         uart_SetTxInterruptMode(0u);
 685              		.loc 1 801 0
 686 0008 0024     		movs	r4, #0
 687 000a 1460     		str	r4, [r2]
 802:Generated_Source\PSoC4/uart_UART.c ****         uart_ClearTxInterruptSource(uart_INTR_TX_UART_DONE);
 688              		.loc 1 802 0
 689 000c 8021     		movs	r1, #128
 690 000e 8900     		lsls	r1, r1, #2
 691 0010 0D4A     		ldr	r2, .L52+4
 692 0012 1160     		str	r1, [r2]
 803:Generated_Source\PSoC4/uart_UART.c **** 
 804:Generated_Source\PSoC4/uart_UART.c ****         /* Store TX CTRL configuration */
 805:Generated_Source\PSoC4/uart_UART.c ****         txCtrlReg = uart_TX_CTRL_REG;
 693              		.loc 1 805 0
 694 0014 0D4A     		ldr	r2, .L52+8
 695 0016 1668     		ldr	r6, [r2]
 696              	.LVL44:
 806:Generated_Source\PSoC4/uart_UART.c **** 
 807:Generated_Source\PSoC4/uart_UART.c ****         /* Set break width */
 808:Generated_Source\PSoC4/uart_UART.c ****         uart_TX_CTRL_REG = (uart_TX_CTRL_REG & (uint32) ~uart_TX_CTRL_DATA_WIDTH_MASK) |
 697              		.loc 1 808 0
 698 0018 1168     		ldr	r1, [r2]
 699 001a 0F20     		movs	r0, #15
 700              	.LVL45:
 701 001c 8143     		bics	r1, r0
 809:Generated_Source\PSoC4/uart_UART.c ****                                         uart_GET_TX_CTRL_DATA_WIDTH(breakWidth);
 702              		.loc 1 809 0
 703 001e 013B     		subs	r3, r3, #1
 704              	.LVL46:
 705 0020 1840     		ands	r0, r3
 808:Generated_Source\PSoC4/uart_UART.c ****                                         uart_GET_TX_CTRL_DATA_WIDTH(breakWidth);
 706              		.loc 1 808 0
 707 0022 0843     		orrs	r0, r1
 708 0024 1060     		str	r0, [r2]
 810:Generated_Source\PSoC4/uart_UART.c **** 
 811:Generated_Source\PSoC4/uart_UART.c ****         /* Generate break */
 812:Generated_Source\PSoC4/uart_UART.c ****         uart_TX_FIFO_WR_REG = 0u;
 709              		.loc 1 812 0
 710 0026 0A4B     		ldr	r3, .L52+12
 711              	.LVL47:
 712 0028 1C60     		str	r4, [r3]
 713              	.L51:
 813:Generated_Source\PSoC4/uart_UART.c **** 
 814:Generated_Source\PSoC4/uart_UART.c ****         /* Wait for break completion */
 815:Generated_Source\PSoC4/uart_UART.c ****         while (0u == (uart_GetTxInterruptSource() & uart_INTR_TX_UART_DONE))
 714              		.loc 1 815 0 discriminator 1
 715 002a 074B     		ldr	r3, .L52+4
 716 002c 1B68     		ldr	r3, [r3]
 717 002e 9B05     		lsls	r3, r3, #22
 718 0030 FBD5     		bpl	.L51
 816:Generated_Source\PSoC4/uart_UART.c ****         {
 817:Generated_Source\PSoC4/uart_UART.c ****         }
ARM GAS  C:\Users\ASUS\AppData\Local\Temp\ccoddz3I.s 			page 28


 818:Generated_Source\PSoC4/uart_UART.c **** 
 819:Generated_Source\PSoC4/uart_UART.c ****         /* Clear all UART TX interrupt sources to  */
 820:Generated_Source\PSoC4/uart_UART.c ****         uart_ClearTxInterruptSource(uart_INTR_TX_ALL);
 719              		.loc 1 820 0
 720 0032 084A     		ldr	r2, .L52+16
 721 0034 044B     		ldr	r3, .L52+4
 722 0036 1A60     		str	r2, [r3]
 821:Generated_Source\PSoC4/uart_UART.c **** 
 822:Generated_Source\PSoC4/uart_UART.c ****         /* Restore TX interrupt sources and data width */
 823:Generated_Source\PSoC4/uart_UART.c ****         uart_TX_CTRL_REG = txCtrlReg;
 723              		.loc 1 823 0
 724 0038 044B     		ldr	r3, .L52+8
 725 003a 1E60     		str	r6, [r3]
 824:Generated_Source\PSoC4/uart_UART.c ****         uart_SetTxInterruptMode(txIntrReg);
 726              		.loc 1 824 0
 727 003c 014B     		ldr	r3, .L52
 728 003e 1D60     		str	r5, [r3]
 825:Generated_Source\PSoC4/uart_UART.c ****     }
 729              		.loc 1 825 0
 730              		@ sp needed
 731              	.LVL48:
 732              	.LVL49:
 733 0040 70BD     		pop	{r4, r5, r6, pc}
 734              	.L53:
 735 0042 C046     		.align	2
 736              	.L52:
 737 0044 880F0940 		.word	1074335624
 738 0048 800F0940 		.word	1074335616
 739 004c 00020940 		.word	1074332160
 740 0050 40020940 		.word	1074332224
 741 0054 F3070000 		.word	2035
 742              		.cfi_endproc
 743              	.LFE15:
 744              		.size	uart_UartSendBreakBlocking, .-uart_UartSendBreakBlocking
 745              		.text
 746              	.Letext0:
 747              		.file 2 "Generated_Source\\PSoC4/cytypes.h"
 748              		.file 3 "Generated_Source\\PSoC4\\uart_SPI_UART.h"
 749              		.file 4 "Generated_Source\\PSoC4\\uart_PVT.h"