ARM GAS  C:\Users\ASUS\AppData\Local\Temp\ccgv2I1u.s 			page 1


   1              		.syntax unified
   2              		.cpu cortex-m0plus
   3              		.fpu softvfp
   4              		.eabi_attribute 20, 1
   5              		.eabi_attribute 21, 1
   6              		.eabi_attribute 23, 3
   7              		.eabi_attribute 24, 1
   8              		.eabi_attribute 25, 1
   9              		.eabi_attribute 26, 1
  10              		.eabi_attribute 30, 1
  11              		.eabi_attribute 34, 0
  12              		.eabi_attribute 18, 4
  13              		.thumb
  14              		.syntax unified
  15              		.file	"capsense_ADC_Control.c"
  16              		.text
  17              	.Ltext0:
  18              		.cfi_sections	.debug_frame
  19              		.section	.text.capsense_ADC_Initialize,"ax",%progbits
  20              		.align	2
  21              		.global	capsense_ADC_Initialize
  22              		.code	16
  23              		.thumb_func
  24              		.type	capsense_ADC_Initialize, %function
  25              	capsense_ADC_Initialize:
  26              	.LFB2:
  27              		.file 1 "Generated_Source\\PSoC4\\capsense_ADC_Control.c"
   1:Generated_Source\PSoC4/capsense_ADC_Control.c **** /***************************************************************************//**
   2:Generated_Source\PSoC4/capsense_ADC_Control.c **** * \file capsense_ADC_Control.c
   3:Generated_Source\PSoC4/capsense_ADC_Control.c **** * \version 7.10
   4:Generated_Source\PSoC4/capsense_ADC_Control.c **** *
   5:Generated_Source\PSoC4/capsense_ADC_Control.c **** * \brief
   6:Generated_Source\PSoC4/capsense_ADC_Control.c **** *   This file provides the source code to the Control module API of the
   7:Generated_Source\PSoC4/capsense_ADC_Control.c **** *   Component.
   8:Generated_Source\PSoC4/capsense_ADC_Control.c **** *
   9:Generated_Source\PSoC4/capsense_ADC_Control.c **** * \see capsense_ADC v7.10 Datasheet
  10:Generated_Source\PSoC4/capsense_ADC_Control.c **** *
  11:Generated_Source\PSoC4/capsense_ADC_Control.c **** *//*****************************************************************************
  12:Generated_Source\PSoC4/capsense_ADC_Control.c **** * Copyright (2016-2019), Cypress Semiconductor Corporation.
  13:Generated_Source\PSoC4/capsense_ADC_Control.c **** ********************************************************************************
  14:Generated_Source\PSoC4/capsense_ADC_Control.c **** * This software is owned by Cypress Semiconductor Corporation (Cypress) and is
  15:Generated_Source\PSoC4/capsense_ADC_Control.c **** * protected by and subject to worldwide patent protection (United States and
  16:Generated_Source\PSoC4/capsense_ADC_Control.c **** * foreign), United States copyright laws and international treaty provisions.
  17:Generated_Source\PSoC4/capsense_ADC_Control.c **** * Cypress hereby grants to licensee a personal, non-exclusive, non-transferable
  18:Generated_Source\PSoC4/capsense_ADC_Control.c **** * license to copy, use, modify, create derivative works of, and compile the
  19:Generated_Source\PSoC4/capsense_ADC_Control.c **** * Cypress Source Code and derivative works for the sole purpose of creating
  20:Generated_Source\PSoC4/capsense_ADC_Control.c **** * custom software in support of licensee product to be used only in conjunction
  21:Generated_Source\PSoC4/capsense_ADC_Control.c **** * with a Cypress integrated circuit as specified in the applicable agreement.
  22:Generated_Source\PSoC4/capsense_ADC_Control.c **** * Any reproduction, modification, translation, compilation, or representation of
  23:Generated_Source\PSoC4/capsense_ADC_Control.c **** * this software except as specified above is prohibited without the express
  24:Generated_Source\PSoC4/capsense_ADC_Control.c **** * written permission of Cypress.
  25:Generated_Source\PSoC4/capsense_ADC_Control.c **** *
  26:Generated_Source\PSoC4/capsense_ADC_Control.c **** * Disclaimer: CYPRESS MAKES NO WARRANTY OF ANY KIND, EXPRESS OR IMPLIED, WITH
  27:Generated_Source\PSoC4/capsense_ADC_Control.c **** * REGARD TO THIS MATERIAL, INCLUDING, BUT NOT LIMITED TO, THE IMPLIED
  28:Generated_Source\PSoC4/capsense_ADC_Control.c **** * WARRANTIES OF MERCHANTABILITY AND FITNESS FOR A PARTICULAR PURPOSE.
  29:Generated_Source\PSoC4/capsense_ADC_Control.c **** * Cypress reserves the right to make changes without further notice to the
  30:Generated_Source\PSoC4/capsense_ADC_Control.c **** * materials described herein. Cypress does not assume any liability arising out
ARM GAS  C:\Users\ASUS\AppData\Local\Temp\ccgv2I1u.s 			page 2


  31:Generated_Source\PSoC4/capsense_ADC_Control.c **** * of the application or use of any product or circuit described herein. Cypress
  32:Generated_Source\PSoC4/capsense_ADC_Control.c **** * does not authorize its products for use as critical components in life-support
  33:Generated_Source\PSoC4/capsense_ADC_Control.c **** * systems where a malfunction or failure may reasonably be expected to result in
  34:Generated_Source\PSoC4/capsense_ADC_Control.c **** * significant injury to the user. The inclusion of Cypress' product in a life-
  35:Generated_Source\PSoC4/capsense_ADC_Control.c **** * support systems application implies that the manufacturer assumes all risk of
  36:Generated_Source\PSoC4/capsense_ADC_Control.c **** * such use and in doing so indemnifies Cypress against all charges. Use may be
  37:Generated_Source\PSoC4/capsense_ADC_Control.c **** * limited by and subject to the applicable Cypress software license agreement.
  38:Generated_Source\PSoC4/capsense_ADC_Control.c **** *******************************************************************************/
  39:Generated_Source\PSoC4/capsense_ADC_Control.c **** 
  40:Generated_Source\PSoC4/capsense_ADC_Control.c **** #include "cytypes.h"
  41:Generated_Source\PSoC4/capsense_ADC_Control.c **** #include "CyLib.h"
  42:Generated_Source\PSoC4/capsense_ADC_Control.c **** #include "cyPm.h"
  43:Generated_Source\PSoC4/capsense_ADC_Control.c **** #include "capsense_ADC_Configuration.h"
  44:Generated_Source\PSoC4/capsense_ADC_Control.c **** #include "capsense_ADC_Structure.h"
  45:Generated_Source\PSoC4/capsense_ADC_Control.c **** #include "capsense_ADC_Control.h"
  46:Generated_Source\PSoC4/capsense_ADC_Control.c **** #include "capsense_ADC_Processing.h"
  47:Generated_Source\PSoC4/capsense_ADC_Control.c **** #include "capsense_ADC_Filter.h"
  48:Generated_Source\PSoC4/capsense_ADC_Control.c **** #include "capsense_ADC_Sensing.h"
  49:Generated_Source\PSoC4/capsense_ADC_Control.c **** #include "capsense_ADC_Tuner.h"
  50:Generated_Source\PSoC4/capsense_ADC_Control.c **** 
  51:Generated_Source\PSoC4/capsense_ADC_Control.c **** #if (capsense_ADC_ENABLE == capsense_ADC_SELF_TEST_EN)
  52:Generated_Source\PSoC4/capsense_ADC_Control.c ****     #include "capsense_ADC_SelfTest.h"
  53:Generated_Source\PSoC4/capsense_ADC_Control.c **** #endif
  54:Generated_Source\PSoC4/capsense_ADC_Control.c **** 
  55:Generated_Source\PSoC4/capsense_ADC_Control.c **** #if (0u != capsense_ADC_ADC_EN)
  56:Generated_Source\PSoC4/capsense_ADC_Control.c ****     #include "capsense_ADC_Adc.h"
  57:Generated_Source\PSoC4/capsense_ADC_Control.c **** #endif /* (0u != capsense_ADC_ADC_EN) */
  58:Generated_Source\PSoC4/capsense_ADC_Control.c **** 
  59:Generated_Source\PSoC4/capsense_ADC_Control.c **** #if ((capsense_ADC_ENABLE == capsense_ADC_GES_GLOBAL_EN) || \
  60:Generated_Source\PSoC4/capsense_ADC_Control.c ****      (capsense_ADC_ENABLE == capsense_ADC_BALLISTIC_MULTIPLIER_EN))
  61:Generated_Source\PSoC4/capsense_ADC_Control.c ****     #include "capsense_ADC_Gesture.h"
  62:Generated_Source\PSoC4/capsense_ADC_Control.c **** #endif /* (capsense_ADC_ENABLE == capsense_ADC_GES_GLOBAL_EN) */
  63:Generated_Source\PSoC4/capsense_ADC_Control.c **** 
  64:Generated_Source\PSoC4/capsense_ADC_Control.c **** /**************************************************************************************************
  65:Generated_Source\PSoC4/capsense_ADC_Control.c **** * Local definition
  66:Generated_Source\PSoC4/capsense_ADC_Control.c **** ***************************************************************************************************
  67:Generated_Source\PSoC4/capsense_ADC_Control.c **** #define capsense_ADC_INIT_DONE   (1u)
  68:Generated_Source\PSoC4/capsense_ADC_Control.c **** #define capsense_ADC_INIT_NEEDED (0u)
  69:Generated_Source\PSoC4/capsense_ADC_Control.c **** 
  70:Generated_Source\PSoC4/capsense_ADC_Control.c **** /**************************************************************************************************
  71:Generated_Source\PSoC4/capsense_ADC_Control.c **** * Local variables
  72:Generated_Source\PSoC4/capsense_ADC_Control.c **** ***************************************************************************************************
  73:Generated_Source\PSoC4/capsense_ADC_Control.c **** static uint8 capsense_ADC_InitVar = capsense_ADC_INIT_NEEDED;
  74:Generated_Source\PSoC4/capsense_ADC_Control.c **** 
  75:Generated_Source\PSoC4/capsense_ADC_Control.c **** /*******************************************************************************
  76:Generated_Source\PSoC4/capsense_ADC_Control.c **** * Function Name: capsense_ADC_Start
  77:Generated_Source\PSoC4/capsense_ADC_Control.c **** ****************************************************************************//**
  78:Generated_Source\PSoC4/capsense_ADC_Control.c **** *
  79:Generated_Source\PSoC4/capsense_ADC_Control.c **** * \brief
  80:Generated_Source\PSoC4/capsense_ADC_Control.c **** *  Initializes the Component hardware and firmware modules. This function is
  81:Generated_Source\PSoC4/capsense_ADC_Control.c **** *  called by the application program prior to calling any other function of the
  82:Generated_Source\PSoC4/capsense_ADC_Control.c **** *  Component.
  83:Generated_Source\PSoC4/capsense_ADC_Control.c **** *
  84:Generated_Source\PSoC4/capsense_ADC_Control.c **** * \details
  85:Generated_Source\PSoC4/capsense_ADC_Control.c **** *  This function initializes the Component hardware and firmware modules and
  86:Generated_Source\PSoC4/capsense_ADC_Control.c **** *  is called by the application program prior to calling any other API
  87:Generated_Source\PSoC4/capsense_ADC_Control.c **** *  of the Component. When this function is called, the following tasks are
ARM GAS  C:\Users\ASUS\AppData\Local\Temp\ccgv2I1u.s 			page 3


  88:Generated_Source\PSoC4/capsense_ADC_Control.c **** *  executed as part of the initialization process:
  89:Generated_Source\PSoC4/capsense_ADC_Control.c **** *    1. Initialize the registers of the \ref group_structures variable
  90:Generated_Source\PSoC4/capsense_ADC_Control.c **** *       capsense_ADC_dsRam based on the user selection in the Component
  91:Generated_Source\PSoC4/capsense_ADC_Control.c **** *       configuration wizard.
  92:Generated_Source\PSoC4/capsense_ADC_Control.c **** *    2. Configure the hardware to perform sensing.
  93:Generated_Source\PSoC4/capsense_ADC_Control.c **** *    \if SECTION_C_HIGH_LEVEL
  94:Generated_Source\PSoC4/capsense_ADC_Control.c **** *    3. If SmartSense Auto-tuning is selected for the CSD Tuning mode in the
  95:Generated_Source\PSoC4/capsense_ADC_Control.c **** *       Basic tab, the auto-tuning algorithm is executed to set the optimal
  96:Generated_Source\PSoC4/capsense_ADC_Control.c **** *       values for the hardware parameters of the widgets/sensors.
  97:Generated_Source\PSoC4/capsense_ADC_Control.c **** *    \endif
  98:Generated_Source\PSoC4/capsense_ADC_Control.c **** *    4. Calibrate the sensors and find the optimal values for IDACs of each
  99:Generated_Source\PSoC4/capsense_ADC_Control.c **** *       widget / sensor, if the Enable IDAC auto-calibration is enabled in the
 100:Generated_Source\PSoC4/capsense_ADC_Control.c **** *       Mode's Setting tabs.
 101:Generated_Source\PSoC4/capsense_ADC_Control.c **** *    5. Perform scanning for all the sensors and initialize the baseline history.
 102:Generated_Source\PSoC4/capsense_ADC_Control.c **** *    6. If the firmware filters are enabled in the Advanced General tab, the
 103:Generated_Source\PSoC4/capsense_ADC_Control.c **** *       filter histories are also initialized.
 104:Generated_Source\PSoC4/capsense_ADC_Control.c **** 
 105:Generated_Source\PSoC4/capsense_ADC_Control.c **** *  Any next call of this API repeats an initialization process except for
 106:Generated_Source\PSoC4/capsense_ADC_Control.c **** *  data structure initialization. Therefore, it is possible to change the
 107:Generated_Source\PSoC4/capsense_ADC_Control.c **** *  Component configuration from the application program by writing registers to the
 108:Generated_Source\PSoC4/capsense_ADC_Control.c **** *  data structure and calling this function again. This is also
 109:Generated_Source\PSoC4/capsense_ADC_Control.c **** *  done inside the capsense_ADC_RunTuner() function when a restart command
 110:Generated_Source\PSoC4/capsense_ADC_Control.c **** *  is received.
 111:Generated_Source\PSoC4/capsense_ADC_Control.c **** *
 112:Generated_Source\PSoC4/capsense_ADC_Control.c **** *  When the Component operation is stopped by the capsense_ADC_Stop()
 113:Generated_Source\PSoC4/capsense_ADC_Control.c **** *  function, the capsense_ADC_Start() function repeats an initialization
 114:Generated_Source\PSoC4/capsense_ADC_Control.c **** *  process including data structure initialization.
 115:Generated_Source\PSoC4/capsense_ADC_Control.c **** *
 116:Generated_Source\PSoC4/capsense_ADC_Control.c **** * \return
 117:Generated_Source\PSoC4/capsense_ADC_Control.c **** *  Returns the status of the initialization process. If CYRET_SUCCESS is not
 118:Generated_Source\PSoC4/capsense_ADC_Control.c **** *  received, some of the initialization fails and the Component may not operate
 119:Generated_Source\PSoC4/capsense_ADC_Control.c **** *  as expected.
 120:Generated_Source\PSoC4/capsense_ADC_Control.c **** *
 121:Generated_Source\PSoC4/capsense_ADC_Control.c **** *******************************************************************************/
 122:Generated_Source\PSoC4/capsense_ADC_Control.c **** cystatus capsense_ADC_Start(void)
 123:Generated_Source\PSoC4/capsense_ADC_Control.c **** {
 124:Generated_Source\PSoC4/capsense_ADC_Control.c ****     cystatus result;
 125:Generated_Source\PSoC4/capsense_ADC_Control.c ****     uint32 watchdogCounter;
 126:Generated_Source\PSoC4/capsense_ADC_Control.c **** 
 127:Generated_Source\PSoC4/capsense_ADC_Control.c ****     /* Initialize capsense_ADC modules */
 128:Generated_Source\PSoC4/capsense_ADC_Control.c ****     result = capsense_ADC_Initialize();
 129:Generated_Source\PSoC4/capsense_ADC_Control.c **** 
 130:Generated_Source\PSoC4/capsense_ADC_Control.c ****     #if (capsense_ADC_CSD_AUTOTUNE != capsense_ADC_CSD_SS_DIS)
 131:Generated_Source\PSoC4/capsense_ADC_Control.c ****         if (CYRET_SUCCESS == result)
 132:Generated_Source\PSoC4/capsense_ADC_Control.c ****         {
 133:Generated_Source\PSoC4/capsense_ADC_Control.c ****             result = capsense_ADC_SsAutoTune();
 134:Generated_Source\PSoC4/capsense_ADC_Control.c ****         }
 135:Generated_Source\PSoC4/capsense_ADC_Control.c ****     #endif /* #if (capsense_ADC_CSD_AUTOTUNE != capsense_ADC_CSD_SS_DIS) */
 136:Generated_Source\PSoC4/capsense_ADC_Control.c **** 
 137:Generated_Source\PSoC4/capsense_ADC_Control.c ****     #if (capsense_ADC_ANY_NONSS_AUTOCAL)
 138:Generated_Source\PSoC4/capsense_ADC_Control.c ****         if (CYRET_SUCCESS == result)
 139:Generated_Source\PSoC4/capsense_ADC_Control.c ****         {
 140:Generated_Source\PSoC4/capsense_ADC_Control.c ****             result = capsense_ADC_CalibrateAllWidgets();
 141:Generated_Source\PSoC4/capsense_ADC_Control.c ****         }
 142:Generated_Source\PSoC4/capsense_ADC_Control.c ****     #endif
 143:Generated_Source\PSoC4/capsense_ADC_Control.c **** 
 144:Generated_Source\PSoC4/capsense_ADC_Control.c ****     if (CYRET_SUCCESS == result)
ARM GAS  C:\Users\ASUS\AppData\Local\Temp\ccgv2I1u.s 			page 4


 145:Generated_Source\PSoC4/capsense_ADC_Control.c ****     {
 146:Generated_Source\PSoC4/capsense_ADC_Control.c ****         result = capsense_ADC_ScanAllWidgets();
 147:Generated_Source\PSoC4/capsense_ADC_Control.c ****     }
 148:Generated_Source\PSoC4/capsense_ADC_Control.c **** 
 149:Generated_Source\PSoC4/capsense_ADC_Control.c ****     if (CYRET_SUCCESS == result)
 150:Generated_Source\PSoC4/capsense_ADC_Control.c ****     {
 151:Generated_Source\PSoC4/capsense_ADC_Control.c ****         /* Init Watchdog Counter to prevent a hang */
 152:Generated_Source\PSoC4/capsense_ADC_Control.c ****         watchdogCounter = capsense_ADC_SW_WATCHDOG_SCAN_ALL;
 153:Generated_Source\PSoC4/capsense_ADC_Control.c **** 
 154:Generated_Source\PSoC4/capsense_ADC_Control.c ****         /* Wait for scan to finish. */
 155:Generated_Source\PSoC4/capsense_ADC_Control.c ****         while((capsense_ADC_NOT_BUSY != capsense_ADC_IsBusy()) && (0u != watchdogCounter))
 156:Generated_Source\PSoC4/capsense_ADC_Control.c ****         {
 157:Generated_Source\PSoC4/capsense_ADC_Control.c ****             watchdogCounter--;
 158:Generated_Source\PSoC4/capsense_ADC_Control.c ****         }
 159:Generated_Source\PSoC4/capsense_ADC_Control.c ****         if (0u == watchdogCounter)
 160:Generated_Source\PSoC4/capsense_ADC_Control.c ****         {
 161:Generated_Source\PSoC4/capsense_ADC_Control.c ****             result = CYRET_TIMEOUT;
 162:Generated_Source\PSoC4/capsense_ADC_Control.c ****         }
 163:Generated_Source\PSoC4/capsense_ADC_Control.c ****     }
 164:Generated_Source\PSoC4/capsense_ADC_Control.c **** 
 165:Generated_Source\PSoC4/capsense_ADC_Control.c ****     capsense_ADC_FtInitialize();
 166:Generated_Source\PSoC4/capsense_ADC_Control.c ****     capsense_ADC_InitializeAllBaselines();
 167:Generated_Source\PSoC4/capsense_ADC_Control.c **** 
 168:Generated_Source\PSoC4/capsense_ADC_Control.c ****     #if(capsense_ADC_ENABLE == capsense_ADC_GES_GLOBAL_EN)
 169:Generated_Source\PSoC4/capsense_ADC_Control.c ****         if (CYRET_SUCCESS == result)
 170:Generated_Source\PSoC4/capsense_ADC_Control.c ****         {
 171:Generated_Source\PSoC4/capsense_ADC_Control.c ****             capsense_ADC_InitializeGestures();
 172:Generated_Source\PSoC4/capsense_ADC_Control.c ****         }
 173:Generated_Source\PSoC4/capsense_ADC_Control.c ****     #endif /* (capsense_ADC_ENABLE == capsense_ADC_GES_GLOBAL_EN) */
 174:Generated_Source\PSoC4/capsense_ADC_Control.c **** 
 175:Generated_Source\PSoC4/capsense_ADC_Control.c ****     #if (0u != capsense_ADC_BALLISTIC_MULTIPLIER_EN)
 176:Generated_Source\PSoC4/capsense_ADC_Control.c ****         if (CYRET_SUCCESS == result)
 177:Generated_Source\PSoC4/capsense_ADC_Control.c ****         {
 178:Generated_Source\PSoC4/capsense_ADC_Control.c ****             capsense_ADC_InitializeBallisticMultiplier();
 179:Generated_Source\PSoC4/capsense_ADC_Control.c ****         }
 180:Generated_Source\PSoC4/capsense_ADC_Control.c ****     #endif /* (0u != capsense_ADC_BALLISTIC_MULTIPLIER_EN) */
 181:Generated_Source\PSoC4/capsense_ADC_Control.c **** 
 182:Generated_Source\PSoC4/capsense_ADC_Control.c ****     #if (0u != capsense_ADC_ADC_EN)
 183:Generated_Source\PSoC4/capsense_ADC_Control.c ****         capsense_ADC_AdcInitialize();
 184:Generated_Source\PSoC4/capsense_ADC_Control.c ****     #endif /* (0u != capsense_ADC_ADC_EN) */
 185:Generated_Source\PSoC4/capsense_ADC_Control.c **** 
 186:Generated_Source\PSoC4/capsense_ADC_Control.c ****     return result;
 187:Generated_Source\PSoC4/capsense_ADC_Control.c **** }
 188:Generated_Source\PSoC4/capsense_ADC_Control.c **** 
 189:Generated_Source\PSoC4/capsense_ADC_Control.c **** /*******************************************************************************
 190:Generated_Source\PSoC4/capsense_ADC_Control.c **** * Function Name: capsense_ADC_Initialize
 191:Generated_Source\PSoC4/capsense_ADC_Control.c **** ****************************************************************************//**
 192:Generated_Source\PSoC4/capsense_ADC_Control.c **** *
 193:Generated_Source\PSoC4/capsense_ADC_Control.c **** * \brief
 194:Generated_Source\PSoC4/capsense_ADC_Control.c **** *  This function initializes the capsense_ADC Component.
 195:Generated_Source\PSoC4/capsense_ADC_Control.c **** *
 196:Generated_Source\PSoC4/capsense_ADC_Control.c **** * \details
 197:Generated_Source\PSoC4/capsense_ADC_Control.c **** *  This API initializes all sub-modules of the capsense_ADC Component:
 198:Generated_Source\PSoC4/capsense_ADC_Control.c **** *   - Data Structure - set the default Component parameters defined in the Customizer.
 199:Generated_Source\PSoC4/capsense_ADC_Control.c **** *   - Data Processing - resets all widget statuses.
 200:Generated_Source\PSoC4/capsense_ADC_Control.c **** *   - Tuner - resets tuning state.
 201:Generated_Source\PSoC4/capsense_ADC_Control.c **** *   - Sensing - prepares CSD HW for operation.
ARM GAS  C:\Users\ASUS\AppData\Local\Temp\ccgv2I1u.s 			page 5


 202:Generated_Source\PSoC4/capsense_ADC_Control.c **** *
 203:Generated_Source\PSoC4/capsense_ADC_Control.c **** *  Note that Data Structure module is initialized only once after the reset or
 204:Generated_Source\PSoC4/capsense_ADC_Control.c **** *  capsense_ADC_Stop() API is called. The repeated calls of Initialize API
 205:Generated_Source\PSoC4/capsense_ADC_Control.c **** *  will not re-initialize Data Structure. This is done to preserve Component
 206:Generated_Source\PSoC4/capsense_ADC_Control.c **** *  parameters that user may set in runtime.
 207:Generated_Source\PSoC4/capsense_ADC_Control.c **** *
 208:Generated_Source\PSoC4/capsense_ADC_Control.c **** * \return
 209:Generated_Source\PSoC4/capsense_ADC_Control.c **** *  Return CYRET_SUCCESS if the initialization was successful.
 210:Generated_Source\PSoC4/capsense_ADC_Control.c **** *
 211:Generated_Source\PSoC4/capsense_ADC_Control.c **** *******************************************************************************/
 212:Generated_Source\PSoC4/capsense_ADC_Control.c **** cystatus capsense_ADC_Initialize(void)
 213:Generated_Source\PSoC4/capsense_ADC_Control.c **** {
  28              		.loc 1 213 0
  29              		.cfi_startproc
  30              		@ args = 0, pretend = 0, frame = 0
  31              		@ frame_needed = 0, uses_anonymous_args = 0
  32 0000 10B5     		push	{r4, lr}
  33              		.cfi_def_cfa_offset 8
  34              		.cfi_offset 4, -8
  35              		.cfi_offset 14, -4
 214:Generated_Source\PSoC4/capsense_ADC_Control.c ****     cystatus result;
 215:Generated_Source\PSoC4/capsense_ADC_Control.c **** 
 216:Generated_Source\PSoC4/capsense_ADC_Control.c ****     /* The Data Structure and Tuner are initialized only once */
 217:Generated_Source\PSoC4/capsense_ADC_Control.c ****     if (capsense_ADC_INIT_NEEDED == capsense_ADC_InitVar)
  36              		.loc 1 217 0
  37 0002 084B     		ldr	r3, .L3
  38 0004 1B78     		ldrb	r3, [r3]
  39 0006 002B     		cmp	r3, #0
  40 0008 06D1     		bne	.L2
 218:Generated_Source\PSoC4/capsense_ADC_Control.c ****     {
 219:Generated_Source\PSoC4/capsense_ADC_Control.c ****         capsense_ADC_DsInitialize();
  41              		.loc 1 219 0
  42 000a FFF7FEFF 		bl	capsense_ADC_DsInitialize
  43              	.LVL0:
 220:Generated_Source\PSoC4/capsense_ADC_Control.c ****         capsense_ADC_TuInitialize();
  44              		.loc 1 220 0
  45 000e FFF7FEFF 		bl	capsense_ADC_TuInitialize
  46              	.LVL1:
 221:Generated_Source\PSoC4/capsense_ADC_Control.c ****         capsense_ADC_InitVar = capsense_ADC_INIT_DONE;
  47              		.loc 1 221 0
  48 0012 0122     		movs	r2, #1
  49 0014 034B     		ldr	r3, .L3
  50 0016 1A70     		strb	r2, [r3]
  51              	.L2:
 222:Generated_Source\PSoC4/capsense_ADC_Control.c ****     }
 223:Generated_Source\PSoC4/capsense_ADC_Control.c **** 
 224:Generated_Source\PSoC4/capsense_ADC_Control.c ****     capsense_ADC_DpInitialize();
  52              		.loc 1 224 0
  53 0018 FFF7FEFF 		bl	capsense_ADC_DpInitialize
  54              	.LVL2:
 225:Generated_Source\PSoC4/capsense_ADC_Control.c **** 
 226:Generated_Source\PSoC4/capsense_ADC_Control.c ****     result = capsense_ADC_SsInitialize();
  55              		.loc 1 226 0
  56 001c FFF7FEFF 		bl	capsense_ADC_SsInitialize
  57              	.LVL3:
 227:Generated_Source\PSoC4/capsense_ADC_Control.c **** 
 228:Generated_Source\PSoC4/capsense_ADC_Control.c ****     return result;
ARM GAS  C:\Users\ASUS\AppData\Local\Temp\ccgv2I1u.s 			page 6


 229:Generated_Source\PSoC4/capsense_ADC_Control.c **** }
  58              		.loc 1 229 0
  59              		@ sp needed
  60 0020 10BD     		pop	{r4, pc}
  61              	.L4:
  62 0022 C046     		.align	2
  63              	.L3:
  64 0024 00000000 		.word	.LANCHOR0
  65              		.cfi_endproc
  66              	.LFE2:
  67              		.size	capsense_ADC_Initialize, .-capsense_ADC_Initialize
  68              		.section	.text.capsense_ADC_Start,"ax",%progbits
  69              		.align	2
  70              		.global	capsense_ADC_Start
  71              		.code	16
  72              		.thumb_func
  73              		.type	capsense_ADC_Start, %function
  74              	capsense_ADC_Start:
  75              	.LFB1:
 123:Generated_Source\PSoC4/capsense_ADC_Control.c ****     cystatus result;
  76              		.loc 1 123 0
  77              		.cfi_startproc
  78              		@ args = 0, pretend = 0, frame = 0
  79              		@ frame_needed = 0, uses_anonymous_args = 0
  80 0000 70B5     		push	{r4, r5, r6, lr}
  81              		.cfi_def_cfa_offset 16
  82              		.cfi_offset 4, -16
  83              		.cfi_offset 5, -12
  84              		.cfi_offset 6, -8
  85              		.cfi_offset 14, -4
 128:Generated_Source\PSoC4/capsense_ADC_Control.c **** 
  86              		.loc 1 128 0
  87 0002 FFF7FEFF 		bl	capsense_ADC_Initialize
  88              	.LVL4:
  89 0006 051E     		subs	r5, r0, #0
  90              	.LVL5:
 131:Generated_Source\PSoC4/capsense_ADC_Control.c ****         {
  91              		.loc 1 131 0
  92 0008 02D1     		bne	.L6
 133:Generated_Source\PSoC4/capsense_ADC_Control.c ****         }
  93              		.loc 1 133 0
  94 000a FFF7FEFF 		bl	capsense_ADC_SsAutoTune
  95              	.LVL6:
  96 000e 0500     		movs	r5, r0
  97              	.LVL7:
  98              	.L6:
 144:Generated_Source\PSoC4/capsense_ADC_Control.c ****     {
  99              		.loc 1 144 0
 100 0010 002D     		cmp	r5, #0
 101 0012 02D1     		bne	.L7
 146:Generated_Source\PSoC4/capsense_ADC_Control.c ****     }
 102              		.loc 1 146 0
 103 0014 FFF7FEFF 		bl	capsense_ADC_ScanAllWidgets
 104              	.LVL8:
 105 0018 0500     		movs	r5, r0
 106              	.LVL9:
 107              	.L7:
ARM GAS  C:\Users\ASUS\AppData\Local\Temp\ccgv2I1u.s 			page 7


 149:Generated_Source\PSoC4/capsense_ADC_Control.c ****     {
 108              		.loc 1 149 0
 109 001a 002D     		cmp	r5, #0
 110 001c 02D0     		beq	.L12
 111 001e 0BE0     		b	.L9
 112              	.LVL10:
 113              	.L11:
 157:Generated_Source\PSoC4/capsense_ADC_Control.c ****         }
 114              		.loc 1 157 0
 115 0020 013C     		subs	r4, r4, #1
 116              	.LVL11:
 117 0022 00E0     		b	.L8
 118              	.LVL12:
 119              	.L12:
 120 0024 084C     		ldr	r4, .L14
 121              	.LVL13:
 122              	.L8:
 155:Generated_Source\PSoC4/capsense_ADC_Control.c ****         {
 123              		.loc 1 155 0
 124 0026 FFF7FEFF 		bl	capsense_ADC_IsBusy
 125              	.LVL14:
 126 002a 0028     		cmp	r0, #0
 127 002c 01D0     		beq	.L10
 155:Generated_Source\PSoC4/capsense_ADC_Control.c ****         {
 128              		.loc 1 155 0 is_stmt 0 discriminator 1
 129 002e 002C     		cmp	r4, #0
 130 0030 F6D1     		bne	.L11
 131              	.L10:
 159:Generated_Source\PSoC4/capsense_ADC_Control.c ****         {
 132              		.loc 1 159 0 is_stmt 1
 133 0032 002C     		cmp	r4, #0
 134 0034 00D1     		bne	.L9
 161:Generated_Source\PSoC4/capsense_ADC_Control.c ****         }
 135              		.loc 1 161 0
 136 0036 1025     		movs	r5, #16
 137              	.LVL15:
 138              	.L9:
 165:Generated_Source\PSoC4/capsense_ADC_Control.c ****     capsense_ADC_InitializeAllBaselines();
 139              		.loc 1 165 0
 140 0038 FFF7FEFF 		bl	capsense_ADC_FtInitialize
 141              	.LVL16:
 166:Generated_Source\PSoC4/capsense_ADC_Control.c **** 
 142              		.loc 1 166 0
 143 003c FFF7FEFF 		bl	capsense_ADC_InitializeAllBaselines
 144              	.LVL17:
 183:Generated_Source\PSoC4/capsense_ADC_Control.c ****     #endif /* (0u != capsense_ADC_ADC_EN) */
 145              		.loc 1 183 0
 146 0040 FFF7FEFF 		bl	capsense_ADC_AdcInitialize
 147              	.LVL18:
 187:Generated_Source\PSoC4/capsense_ADC_Control.c **** 
 148              		.loc 1 187 0
 149 0044 2800     		movs	r0, r5
 150              		@ sp needed
 151              	.LVL19:
 152 0046 70BD     		pop	{r4, r5, r6, pc}
 153              	.L15:
 154              		.align	2
ARM GAS  C:\Users\ASUS\AppData\Local\Temp\ccgv2I1u.s 			page 8


 155              	.L14:
 156 0048 404B4C00 		.word	5000000
 157              		.cfi_endproc
 158              	.LFE1:
 159              		.size	capsense_ADC_Start, .-capsense_ADC_Start
 160              		.section	.text.capsense_ADC_Stop,"ax",%progbits
 161              		.align	2
 162              		.global	capsense_ADC_Stop
 163              		.code	16
 164              		.thumb_func
 165              		.type	capsense_ADC_Stop, %function
 166              	capsense_ADC_Stop:
 167              	.LFB3:
 230:Generated_Source\PSoC4/capsense_ADC_Control.c **** 
 231:Generated_Source\PSoC4/capsense_ADC_Control.c **** /*******************************************************************************
 232:Generated_Source\PSoC4/capsense_ADC_Control.c **** * Function Name: capsense_ADC_Stop
 233:Generated_Source\PSoC4/capsense_ADC_Control.c **** ****************************************************************************//**
 234:Generated_Source\PSoC4/capsense_ADC_Control.c **** *
 235:Generated_Source\PSoC4/capsense_ADC_Control.c **** * \brief
 236:Generated_Source\PSoC4/capsense_ADC_Control.c **** *  Stops the Component operation.
 237:Generated_Source\PSoC4/capsense_ADC_Control.c **** *
 238:Generated_Source\PSoC4/capsense_ADC_Control.c **** * \details
 239:Generated_Source\PSoC4/capsense_ADC_Control.c **** *  This function stops the Component operation, no sensor scanning can be
 240:Generated_Source\PSoC4/capsense_ADC_Control.c **** *  executed when the Component is stopped. Once stopped, the hardware block may
 241:Generated_Source\PSoC4/capsense_ADC_Control.c **** *  be reconfigured by the application program for any other special usage. The
 242:Generated_Source\PSoC4/capsense_ADC_Control.c **** *  Component operation can be resumed by calling the capsense_ADC_Resume()
 243:Generated_Source\PSoC4/capsense_ADC_Control.c **** *  function or the Component can be reset by calling the
 244:Generated_Source\PSoC4/capsense_ADC_Control.c **** *  capsense_ADC_Start() function.
 245:Generated_Source\PSoC4/capsense_ADC_Control.c **** *
 246:Generated_Source\PSoC4/capsense_ADC_Control.c **** *  This function is called when no scanning is in progress.
 247:Generated_Source\PSoC4/capsense_ADC_Control.c **** *  I.e. capsense_ADC_IsBusy() returns a non-busy status.
 248:Generated_Source\PSoC4/capsense_ADC_Control.c **** *
 249:Generated_Source\PSoC4/capsense_ADC_Control.c **** * \return
 250:Generated_Source\PSoC4/capsense_ADC_Control.c **** *  Returns the status of the stop process. If CYRET_SUCCESS is not received,
 251:Generated_Source\PSoC4/capsense_ADC_Control.c **** *  the stop process fails and retries may be required.
 252:Generated_Source\PSoC4/capsense_ADC_Control.c **** *
 253:Generated_Source\PSoC4/capsense_ADC_Control.c **** *******************************************************************************/
 254:Generated_Source\PSoC4/capsense_ADC_Control.c **** cystatus capsense_ADC_Stop(void)
 255:Generated_Source\PSoC4/capsense_ADC_Control.c **** {
 168              		.loc 1 255 0
 169              		.cfi_startproc
 170              		@ args = 0, pretend = 0, frame = 0
 171              		@ frame_needed = 0, uses_anonymous_args = 0
 172 0000 10B5     		push	{r4, lr}
 173              		.cfi_def_cfa_offset 8
 174              		.cfi_offset 4, -8
 175              		.cfi_offset 14, -4
 176              	.LVL20:
 256:Generated_Source\PSoC4/capsense_ADC_Control.c ****     cystatus result = CYRET_SUCCESS;
 257:Generated_Source\PSoC4/capsense_ADC_Control.c **** 
 258:Generated_Source\PSoC4/capsense_ADC_Control.c ****     #if (capsense_ADC_ENABLE == capsense_ADC_ADC_EN)
 259:Generated_Source\PSoC4/capsense_ADC_Control.c ****         /* Release CSD resources */
 260:Generated_Source\PSoC4/capsense_ADC_Control.c ****         result = capsense_ADC_SsReleaseResources();
 177              		.loc 1 260 0
 178 0002 FFF7FEFF 		bl	capsense_ADC_SsReleaseResources
 179              	.LVL21:
 180 0006 0400     		movs	r4, r0
ARM GAS  C:\Users\ASUS\AppData\Local\Temp\ccgv2I1u.s 			page 9


 181              	.LVL22:
 261:Generated_Source\PSoC4/capsense_ADC_Control.c **** 
 262:Generated_Source\PSoC4/capsense_ADC_Control.c ****         /* Release ADC resources */
 263:Generated_Source\PSoC4/capsense_ADC_Control.c ****         capsense_ADC_AdcStop();
 182              		.loc 1 263 0
 183 0008 FFF7FEFF 		bl	capsense_ADC_AdcStop
 184              	.LVL23:
 264:Generated_Source\PSoC4/capsense_ADC_Control.c ****     #endif /* (capsense_ADC_ENABLE == capsense_ADC_ADC_EN) */
 265:Generated_Source\PSoC4/capsense_ADC_Control.c **** 
 266:Generated_Source\PSoC4/capsense_ADC_Control.c ****     capsense_ADC_InitVar = capsense_ADC_INIT_NEEDED;
 185              		.loc 1 266 0
 186 000c 0022     		movs	r2, #0
 187 000e 024B     		ldr	r3, .L17
 188 0010 1A70     		strb	r2, [r3]
 267:Generated_Source\PSoC4/capsense_ADC_Control.c **** 
 268:Generated_Source\PSoC4/capsense_ADC_Control.c ****     return result;
 269:Generated_Source\PSoC4/capsense_ADC_Control.c **** }
 189              		.loc 1 269 0
 190 0012 2000     		movs	r0, r4
 191              		@ sp needed
 192              	.LVL24:
 193 0014 10BD     		pop	{r4, pc}
 194              	.L18:
 195 0016 C046     		.align	2
 196              	.L17:
 197 0018 00000000 		.word	.LANCHOR0
 198              		.cfi_endproc
 199              	.LFE3:
 200              		.size	capsense_ADC_Stop, .-capsense_ADC_Stop
 201              		.section	.text.capsense_ADC_Resume,"ax",%progbits
 202              		.align	2
 203              		.global	capsense_ADC_Resume
 204              		.code	16
 205              		.thumb_func
 206              		.type	capsense_ADC_Resume, %function
 207              	capsense_ADC_Resume:
 208              	.LFB4:
 270:Generated_Source\PSoC4/capsense_ADC_Control.c **** 
 271:Generated_Source\PSoC4/capsense_ADC_Control.c **** /*******************************************************************************
 272:Generated_Source\PSoC4/capsense_ADC_Control.c **** * Function Name: capsense_ADC_Resume
 273:Generated_Source\PSoC4/capsense_ADC_Control.c **** ****************************************************************************//**
 274:Generated_Source\PSoC4/capsense_ADC_Control.c **** *
 275:Generated_Source\PSoC4/capsense_ADC_Control.c **** * \brief
 276:Generated_Source\PSoC4/capsense_ADC_Control.c **** *  Resumes the Component operation if the capsense_ADC_Stop() function was
 277:Generated_Source\PSoC4/capsense_ADC_Control.c **** *  called previously.
 278:Generated_Source\PSoC4/capsense_ADC_Control.c **** *
 279:Generated_Source\PSoC4/capsense_ADC_Control.c **** * \details
 280:Generated_Source\PSoC4/capsense_ADC_Control.c **** *  This function resumes the Component operation if the operation is stopped
 281:Generated_Source\PSoC4/capsense_ADC_Control.c **** *  previously by the capsense_ADC_Stop() function. The following tasks are
 282:Generated_Source\PSoC4/capsense_ADC_Control.c **** *  executed as part of the operation resume process:
 283:Generated_Source\PSoC4/capsense_ADC_Control.c **** *    1. Reset all the Widgets/Sensors statuses.
 284:Generated_Source\PSoC4/capsense_ADC_Control.c **** *    2. Configure the hardware to perform sensing.
 285:Generated_Source\PSoC4/capsense_ADC_Control.c **** *
 286:Generated_Source\PSoC4/capsense_ADC_Control.c **** * \return
 287:Generated_Source\PSoC4/capsense_ADC_Control.c **** *  Returns the status of the resume process. If CYRET_SUCCESS is not received,
 288:Generated_Source\PSoC4/capsense_ADC_Control.c **** *  the resume process fails and retries may be required.
 289:Generated_Source\PSoC4/capsense_ADC_Control.c **** *
ARM GAS  C:\Users\ASUS\AppData\Local\Temp\ccgv2I1u.s 			page 10


 290:Generated_Source\PSoC4/capsense_ADC_Control.c **** *******************************************************************************/
 291:Generated_Source\PSoC4/capsense_ADC_Control.c **** cystatus capsense_ADC_Resume(void)
 292:Generated_Source\PSoC4/capsense_ADC_Control.c **** {
 209              		.loc 1 292 0
 210              		.cfi_startproc
 211              		@ args = 0, pretend = 0, frame = 0
 212              		@ frame_needed = 0, uses_anonymous_args = 0
 213 0000 10B5     		push	{r4, lr}
 214              		.cfi_def_cfa_offset 8
 215              		.cfi_offset 4, -8
 216              		.cfi_offset 14, -4
 293:Generated_Source\PSoC4/capsense_ADC_Control.c ****     cystatus result;
 294:Generated_Source\PSoC4/capsense_ADC_Control.c **** 
 295:Generated_Source\PSoC4/capsense_ADC_Control.c ****     /* The Tuner are initialized only once in order not to break communication */
 296:Generated_Source\PSoC4/capsense_ADC_Control.c ****     if (capsense_ADC_INIT_NEEDED == capsense_ADC_InitVar)
 217              		.loc 1 296 0
 218 0002 074B     		ldr	r3, .L21
 219 0004 1B78     		ldrb	r3, [r3]
 220 0006 002B     		cmp	r3, #0
 221 0008 04D1     		bne	.L20
 297:Generated_Source\PSoC4/capsense_ADC_Control.c ****     {
 298:Generated_Source\PSoC4/capsense_ADC_Control.c ****         capsense_ADC_TuInitialize();
 222              		.loc 1 298 0
 223 000a FFF7FEFF 		bl	capsense_ADC_TuInitialize
 224              	.LVL25:
 299:Generated_Source\PSoC4/capsense_ADC_Control.c ****         capsense_ADC_InitVar = capsense_ADC_INIT_DONE;
 225              		.loc 1 299 0
 226 000e 0122     		movs	r2, #1
 227 0010 034B     		ldr	r3, .L21
 228 0012 1A70     		strb	r2, [r3]
 229              	.L20:
 300:Generated_Source\PSoC4/capsense_ADC_Control.c ****     }
 301:Generated_Source\PSoC4/capsense_ADC_Control.c ****     capsense_ADC_DpInitialize();
 230              		.loc 1 301 0
 231 0014 FFF7FEFF 		bl	capsense_ADC_DpInitialize
 232              	.LVL26:
 302:Generated_Source\PSoC4/capsense_ADC_Control.c **** 
 303:Generated_Source\PSoC4/capsense_ADC_Control.c ****     result = capsense_ADC_SsInitialize();
 233              		.loc 1 303 0
 234 0018 FFF7FEFF 		bl	capsense_ADC_SsInitialize
 235              	.LVL27:
 304:Generated_Source\PSoC4/capsense_ADC_Control.c **** 
 305:Generated_Source\PSoC4/capsense_ADC_Control.c ****     return result;
 306:Generated_Source\PSoC4/capsense_ADC_Control.c **** }
 236              		.loc 1 306 0
 237              		@ sp needed
 238 001c 10BD     		pop	{r4, pc}
 239              	.L22:
 240 001e C046     		.align	2
 241              	.L21:
 242 0020 00000000 		.word	.LANCHOR0
 243              		.cfi_endproc
 244              	.LFE4:
 245              		.size	capsense_ADC_Resume, .-capsense_ADC_Resume
 246              		.section	.text.capsense_ADC_ProcessAllWidgets,"ax",%progbits
 247              		.align	2
 248              		.global	capsense_ADC_ProcessAllWidgets
ARM GAS  C:\Users\ASUS\AppData\Local\Temp\ccgv2I1u.s 			page 11


 249              		.code	16
 250              		.thumb_func
 251              		.type	capsense_ADC_ProcessAllWidgets, %function
 252              	capsense_ADC_ProcessAllWidgets:
 253              	.LFB5:
 307:Generated_Source\PSoC4/capsense_ADC_Control.c **** 
 308:Generated_Source\PSoC4/capsense_ADC_Control.c **** /*******************************************************************************
 309:Generated_Source\PSoC4/capsense_ADC_Control.c **** * Function Name: capsense_ADC_ProcessAllWidgets
 310:Generated_Source\PSoC4/capsense_ADC_Control.c **** ****************************************************************************//**
 311:Generated_Source\PSoC4/capsense_ADC_Control.c **** *
 312:Generated_Source\PSoC4/capsense_ADC_Control.c **** * \brief
 313:Generated_Source\PSoC4/capsense_ADC_Control.c **** *  Performs full data processing of all enabled widgets.
 314:Generated_Source\PSoC4/capsense_ADC_Control.c **** *
 315:Generated_Source\PSoC4/capsense_ADC_Control.c **** * \details
 316:Generated_Source\PSoC4/capsense_ADC_Control.c **** *  This function performs all data processes for all enabled widgets in the
 317:Generated_Source\PSoC4/capsense_ADC_Control.c **** *  Component. The following tasks are executed as part of processing all the
 318:Generated_Source\PSoC4/capsense_ADC_Control.c **** *  widgets:
 319:Generated_Source\PSoC4/capsense_ADC_Control.c **** *    1. Apply raw count filters to the raw counts, if they are enabled in the
 320:Generated_Source\PSoC4/capsense_ADC_Control.c **** *       customizer.
 321:Generated_Source\PSoC4/capsense_ADC_Control.c **** *    2. Update the thresholds if the SmartSense Full Auto-Tuning is enabled in
 322:Generated_Source\PSoC4/capsense_ADC_Control.c **** *       the customizer.
 323:Generated_Source\PSoC4/capsense_ADC_Control.c **** *    3. Update the baselines and difference counts for all the sensors.
 324:Generated_Source\PSoC4/capsense_ADC_Control.c **** *    4. Update the sensor and widget status (on/off), update the centroid for
 325:Generated_Source\PSoC4/capsense_ADC_Control.c **** *       the sliders and the X/Y position for the touchpads.
 326:Generated_Source\PSoC4/capsense_ADC_Control.c **** *
 327:Generated_Source\PSoC4/capsense_ADC_Control.c **** *  This function is called by an application program only after all the enabled
 328:Generated_Source\PSoC4/capsense_ADC_Control.c **** *  widgets (and sensors) in the Component is scanned. Calling this function
 329:Generated_Source\PSoC4/capsense_ADC_Control.c **** *  multiple times without sensor scanning causes unexpected behavior.
 330:Generated_Source\PSoC4/capsense_ADC_Control.c **** *
 331:Generated_Source\PSoC4/capsense_ADC_Control.c **** *  The disabled widgets are not processed by this function. To disable/enable
 332:Generated_Source\PSoC4/capsense_ADC_Control.c **** *  a widget, set the appropriate values in the
 333:Generated_Source\PSoC4/capsense_ADC_Control.c **** *  capsense_ADC_WDGT_ENABLE<RegisterNumber>_PARAM_ID register using the
 334:Generated_Source\PSoC4/capsense_ADC_Control.c **** *  capsense_ADC_SetParam() function.
 335:Generated_Source\PSoC4/capsense_ADC_Control.c **** *
 336:Generated_Source\PSoC4/capsense_ADC_Control.c **** *  If the Ballistic multiplier filter is enabled the Timestamp must be
 337:Generated_Source\PSoC4/capsense_ADC_Control.c **** *  updated before calling this function using the
 338:Generated_Source\PSoC4/capsense_ADC_Control.c **** *  capsense_ADC_IncrementGestureTimestamp() function.
 339:Generated_Source\PSoC4/capsense_ADC_Control.c **** *
 340:Generated_Source\PSoC4/capsense_ADC_Control.c **** *  If the Self-test library is enabled, this function executes the baseline duplication
 341:Generated_Source\PSoC4/capsense_ADC_Control.c **** *  test. Refer to capsense_ADC_CheckBaselineDuplication() for details.
 342:Generated_Source\PSoC4/capsense_ADC_Control.c **** *
 343:Generated_Source\PSoC4/capsense_ADC_Control.c **** *  If the ballistic multiplier filter is enabled, make sure the timestamp is
 344:Generated_Source\PSoC4/capsense_ADC_Control.c **** *  updated before calling this function. Use one of the following functions to update
 345:Generated_Source\PSoC4/capsense_ADC_Control.c **** *  the timestamp:
 346:Generated_Source\PSoC4/capsense_ADC_Control.c **** *  - capsense_ADC_IncrementGestureTimestamp().
 347:Generated_Source\PSoC4/capsense_ADC_Control.c **** *  - capsense_ADC_SetGestureTimestamp().
 348:Generated_Source\PSoC4/capsense_ADC_Control.c **** *
 349:Generated_Source\PSoC4/capsense_ADC_Control.c **** * \return
 350:Generated_Source\PSoC4/capsense_ADC_Control.c **** *  Returns the status of the processing operation. If CYRET_SUCCESS is not received,
 351:Generated_Source\PSoC4/capsense_ADC_Control.c **** *  the processing fails and retries may be required.
 352:Generated_Source\PSoC4/capsense_ADC_Control.c **** *
 353:Generated_Source\PSoC4/capsense_ADC_Control.c **** *******************************************************************************/
 354:Generated_Source\PSoC4/capsense_ADC_Control.c **** cystatus capsense_ADC_ProcessAllWidgets(void)
 355:Generated_Source\PSoC4/capsense_ADC_Control.c **** {
 254              		.loc 1 355 0
 255              		.cfi_startproc
 256              		@ args = 0, pretend = 0, frame = 0
ARM GAS  C:\Users\ASUS\AppData\Local\Temp\ccgv2I1u.s 			page 12


 257              		@ frame_needed = 0, uses_anonymous_args = 0
 258 0000 70B5     		push	{r4, r5, r6, lr}
 259              		.cfi_def_cfa_offset 16
 260              		.cfi_offset 4, -16
 261              		.cfi_offset 5, -12
 262              		.cfi_offset 6, -8
 263              		.cfi_offset 14, -4
 264              	.LVL28:
 356:Generated_Source\PSoC4/capsense_ADC_Control.c ****     uint32 wdgtId;
 357:Generated_Source\PSoC4/capsense_ADC_Control.c ****     cystatus result = CYRET_SUCCESS;
 358:Generated_Source\PSoC4/capsense_ADC_Control.c ****     capsense_ADC_FLASH_WD_STRUCT const *ptrFlashWdgt;
 359:Generated_Source\PSoC4/capsense_ADC_Control.c **** 
 360:Generated_Source\PSoC4/capsense_ADC_Control.c ****     ptrFlashWdgt = capsense_ADC_dsFlash.wdgtArray;
 265              		.loc 1 360 0
 266 0002 0E4E     		ldr	r6, .L27
 357:Generated_Source\PSoC4/capsense_ADC_Control.c ****     capsense_ADC_FLASH_WD_STRUCT const *ptrFlashWdgt;
 267              		.loc 1 357 0
 268 0004 0024     		movs	r4, #0
 361:Generated_Source\PSoC4/capsense_ADC_Control.c **** 
 362:Generated_Source\PSoC4/capsense_ADC_Control.c ****     for (wdgtId = 0u; wdgtId < capsense_ADC_TOTAL_WIDGETS; wdgtId++)
 269              		.loc 1 362 0
 270 0006 0025     		movs	r5, #0
 271 0008 13E0     		b	.L24
 272              	.LVL29:
 273              	.L26:
 363:Generated_Source\PSoC4/capsense_ADC_Control.c ****     {
 364:Generated_Source\PSoC4/capsense_ADC_Control.c ****         if (0uL != capsense_ADC_GET_WIDGET_EN_STATUS(wdgtId))
 274              		.loc 1 364 0
 275 000a 6B09     		lsrs	r3, r5, #5
 276 000c 0433     		adds	r3, r3, #4
 277 000e 9B00     		lsls	r3, r3, #2
 278 0010 0B4A     		ldr	r2, .L27+4
 279 0012 9B58     		ldr	r3, [r3, r2]
 280 0014 1F22     		movs	r2, #31
 281 0016 2A40     		ands	r2, r5
 282 0018 D340     		lsrs	r3, r3, r2
 283 001a DB07     		lsls	r3, r3, #31
 284 001c 07D5     		bpl	.L25
 365:Generated_Source\PSoC4/capsense_ADC_Control.c ****         {
 366:Generated_Source\PSoC4/capsense_ADC_Control.c ****             switch(capsense_ADC_GET_SENSE_METHOD(ptrFlashWdgt))
 367:Generated_Source\PSoC4/capsense_ADC_Control.c ****             {
 368:Generated_Source\PSoC4/capsense_ADC_Control.c ****             #if (0u != capsense_ADC_TOTAL_CSD_WIDGETS)
 369:Generated_Source\PSoC4/capsense_ADC_Control.c ****                 case capsense_ADC_SENSE_METHOD_CSD_E:
 370:Generated_Source\PSoC4/capsense_ADC_Control.c ****                     result = capsense_ADC_DpProcessCsdWidgetRawCounts(ptrFlashWdgt);
 285              		.loc 1 370 0
 286 001e 3000     		movs	r0, r6
 287 0020 FFF7FEFF 		bl	capsense_ADC_DpProcessCsdWidgetRawCounts
 288              	.LVL30:
 289 0024 0400     		movs	r4, r0
 290              	.LVL31:
 371:Generated_Source\PSoC4/capsense_ADC_Control.c ****                     capsense_ADC_DpProcessCsdWidgetStatus(wdgtId, ptrFlashWdgt);
 291              		.loc 1 371 0
 292 0026 3100     		movs	r1, r6
 293 0028 2800     		movs	r0, r5
 294              	.LVL32:
 295 002a FFF7FEFF 		bl	capsense_ADC_DpProcessCsdWidgetStatus
 296              	.LVL33:
ARM GAS  C:\Users\ASUS\AppData\Local\Temp\ccgv2I1u.s 			page 13


 297              	.L25:
 372:Generated_Source\PSoC4/capsense_ADC_Control.c ****                     break;
 373:Generated_Source\PSoC4/capsense_ADC_Control.c ****             #endif /* #if (0u != capsense_ADC_TOTAL_CSD_WIDGETS) */
 374:Generated_Source\PSoC4/capsense_ADC_Control.c **** 
 375:Generated_Source\PSoC4/capsense_ADC_Control.c ****             #if (0u != capsense_ADC_TOTAL_CSX_WIDGETS)
 376:Generated_Source\PSoC4/capsense_ADC_Control.c ****                 case capsense_ADC_SENSE_METHOD_CSX_E:
 377:Generated_Source\PSoC4/capsense_ADC_Control.c ****                     result = capsense_ADC_DpProcessCsxWidgetRawCounts(ptrFlashWdgt);
 378:Generated_Source\PSoC4/capsense_ADC_Control.c ****                     capsense_ADC_DpProcessCsxWidgetStatus(wdgtId, ptrFlashWdgt);
 379:Generated_Source\PSoC4/capsense_ADC_Control.c ****                     break;
 380:Generated_Source\PSoC4/capsense_ADC_Control.c ****             #endif /* #if (0u != capsense_ADC_TOTAL_CSX_WIDGETS) */
 381:Generated_Source\PSoC4/capsense_ADC_Control.c **** 
 382:Generated_Source\PSoC4/capsense_ADC_Control.c ****             #if (0u != capsense_ADC_TOTAL_ISX_WIDGETS)
 383:Generated_Source\PSoC4/capsense_ADC_Control.c ****                 case capsense_ADC_SENSE_METHOD_ISX_E:
 384:Generated_Source\PSoC4/capsense_ADC_Control.c ****                     result = capsense_ADC_DpProcessIsxWidgetRawCounts(ptrFlashWdgt);
 385:Generated_Source\PSoC4/capsense_ADC_Control.c ****                     capsense_ADC_DpProcessIsxWidgetStatus(wdgtId, ptrFlashWdgt);
 386:Generated_Source\PSoC4/capsense_ADC_Control.c ****                     break;
 387:Generated_Source\PSoC4/capsense_ADC_Control.c ****             #endif /* #if (0u != capsense_ADC_TOTAL_ISX_WIDGETS) */
 388:Generated_Source\PSoC4/capsense_ADC_Control.c **** 
 389:Generated_Source\PSoC4/capsense_ADC_Control.c ****             default:
 390:Generated_Source\PSoC4/capsense_ADC_Control.c ****                 CYASSERT(0u);
 391:Generated_Source\PSoC4/capsense_ADC_Control.c ****                 break;
 392:Generated_Source\PSoC4/capsense_ADC_Control.c ****             }
 393:Generated_Source\PSoC4/capsense_ADC_Control.c **** 
 394:Generated_Source\PSoC4/capsense_ADC_Control.c ****             #if (capsense_ADC_ENABLE == capsense_ADC_TST_BSLN_DUPLICATION_EN)
 395:Generated_Source\PSoC4/capsense_ADC_Control.c ****                 if (CYRET_SUCCESS != result)
 396:Generated_Source\PSoC4/capsense_ADC_Control.c ****                 {
 397:Generated_Source\PSoC4/capsense_ADC_Control.c ****                     capsense_ADC_UpdateTestResultBaselineDuplication(wdgtId, result);
 398:Generated_Source\PSoC4/capsense_ADC_Control.c ****                     result = CYRET_BAD_DATA;
 399:Generated_Source\PSoC4/capsense_ADC_Control.c ****                 }
 400:Generated_Source\PSoC4/capsense_ADC_Control.c ****             #endif /* (capsense_ADC_ENABLE == capsense_ADC_TST_BSLN_DUPLICATION_EN) */
 401:Generated_Source\PSoC4/capsense_ADC_Control.c **** 
 402:Generated_Source\PSoC4/capsense_ADC_Control.c ****         }
 403:Generated_Source\PSoC4/capsense_ADC_Control.c ****         ptrFlashWdgt++;
 298              		.loc 1 403 0 discriminator 2
 299 002e 2C36     		adds	r6, r6, #44
 300              	.LVL34:
 362:Generated_Source\PSoC4/capsense_ADC_Control.c ****     {
 301              		.loc 1 362 0 discriminator 2
 302 0030 0135     		adds	r5, r5, #1
 303              	.LVL35:
 304              	.L24:
 362:Generated_Source\PSoC4/capsense_ADC_Control.c ****     {
 305              		.loc 1 362 0 is_stmt 0 discriminator 1
 306 0032 032D     		cmp	r5, #3
 307 0034 E9D9     		bls	.L26
 404:Generated_Source\PSoC4/capsense_ADC_Control.c ****     }
 405:Generated_Source\PSoC4/capsense_ADC_Control.c ****     return result;
 406:Generated_Source\PSoC4/capsense_ADC_Control.c **** }
 308              		.loc 1 406 0 is_stmt 1
 309 0036 2000     		movs	r0, r4
 310              		@ sp needed
 311              	.LVL36:
 312              	.LVL37:
 313              	.LVL38:
 314 0038 70BD     		pop	{r4, r5, r6, pc}
 315              	.L28:
 316 003a C046     		.align	2
ARM GAS  C:\Users\ASUS\AppData\Local\Temp\ccgv2I1u.s 			page 14


 317              	.L27:
 318 003c 00000000 		.word	capsense_ADC_dsFlash
 319 0040 00000000 		.word	capsense_ADC_dsRam
 320              		.cfi_endproc
 321              	.LFE5:
 322              		.size	capsense_ADC_ProcessAllWidgets, .-capsense_ADC_ProcessAllWidgets
 323              		.section	.text.capsense_ADC_ProcessWidget,"ax",%progbits
 324              		.align	2
 325              		.global	capsense_ADC_ProcessWidget
 326              		.code	16
 327              		.thumb_func
 328              		.type	capsense_ADC_ProcessWidget, %function
 329              	capsense_ADC_ProcessWidget:
 330              	.LFB6:
 407:Generated_Source\PSoC4/capsense_ADC_Control.c **** 
 408:Generated_Source\PSoC4/capsense_ADC_Control.c **** /*******************************************************************************
 409:Generated_Source\PSoC4/capsense_ADC_Control.c **** * Function Name: capsense_ADC_ProcessWidget
 410:Generated_Source\PSoC4/capsense_ADC_Control.c **** ****************************************************************************//**
 411:Generated_Source\PSoC4/capsense_ADC_Control.c **** *
 412:Generated_Source\PSoC4/capsense_ADC_Control.c **** * \brief
 413:Generated_Source\PSoC4/capsense_ADC_Control.c **** *  Performs full data processing of the specified widget if it is enabled.
 414:Generated_Source\PSoC4/capsense_ADC_Control.c **** *
 415:Generated_Source\PSoC4/capsense_ADC_Control.c **** * \details
 416:Generated_Source\PSoC4/capsense_ADC_Control.c **** *  This function performs exactly the same tasks as
 417:Generated_Source\PSoC4/capsense_ADC_Control.c **** *  capsense_ADC_ProcessAllWidgets(), but only for a specified widget. This
 418:Generated_Source\PSoC4/capsense_ADC_Control.c **** *  function can be used along with the capsense_ADC_SetupWidget() and
 419:Generated_Source\PSoC4/capsense_ADC_Control.c **** *  capsense_ADC_Scan() functions to scan and process data for a specific
 420:Generated_Source\PSoC4/capsense_ADC_Control.c **** *  widget. This function is called only after all the sensors in the
 421:Generated_Source\PSoC4/capsense_ADC_Control.c **** *  widgets are scanned. A disabled widget is not processed by this function.
 422:Generated_Source\PSoC4/capsense_ADC_Control.c **** *
 423:Generated_Source\PSoC4/capsense_ADC_Control.c **** *  A pipeline scan method (i.e. during scanning of a widget perform processing
 424:Generated_Source\PSoC4/capsense_ADC_Control.c **** *  of the previously scanned widget) can be implemented using this function and
 425:Generated_Source\PSoC4/capsense_ADC_Control.c **** *  it may reduce the total execution time, increase the refresh rate and
 426:Generated_Source\PSoC4/capsense_ADC_Control.c **** *  decrease the average power consumption.
 427:Generated_Source\PSoC4/capsense_ADC_Control.c **** *
 428:Generated_Source\PSoC4/capsense_ADC_Control.c **** *  If the Ballistic multiplier filter is enabled the Timestamp must be
 429:Generated_Source\PSoC4/capsense_ADC_Control.c **** *  updated before calling this function using the
 430:Generated_Source\PSoC4/capsense_ADC_Control.c **** *  capsense_ADC_IncrementGestureTimestamp() function.
 431:Generated_Source\PSoC4/capsense_ADC_Control.c **** *
 432:Generated_Source\PSoC4/capsense_ADC_Control.c **** *  If the Self-test library is enabled, this function executes the baseline duplication
 433:Generated_Source\PSoC4/capsense_ADC_Control.c **** *  test. Refer to capsense_ADC_CheckBaselineDuplication() for details.
 434:Generated_Source\PSoC4/capsense_ADC_Control.c **** *
 435:Generated_Source\PSoC4/capsense_ADC_Control.c **** *  If the specified widget has enabled ballistic multiplier filter, make sure
 436:Generated_Source\PSoC4/capsense_ADC_Control.c **** *  the timestamp is updated before calling this function. Use one of the following
 437:Generated_Source\PSoC4/capsense_ADC_Control.c **** *  functions to update the timestamp:
 438:Generated_Source\PSoC4/capsense_ADC_Control.c **** *  - capsense_ADC_IncrementGestureTimestamp().
 439:Generated_Source\PSoC4/capsense_ADC_Control.c **** *  - capsense_ADC_SetGestureTimestamp().
 440:Generated_Source\PSoC4/capsense_ADC_Control.c **** *
 441:Generated_Source\PSoC4/capsense_ADC_Control.c **** * \param widgetId
 442:Generated_Source\PSoC4/capsense_ADC_Control.c **** *  Specifies the ID number of the widget to be processed.
 443:Generated_Source\PSoC4/capsense_ADC_Control.c **** *  A macro for the widget ID can be found in the
 444:Generated_Source\PSoC4/capsense_ADC_Control.c **** *  capsense_ADC Configuration header file defined as
 445:Generated_Source\PSoC4/capsense_ADC_Control.c **** *  capsense_ADC_<WidgetName>_WDGT_ID
 446:Generated_Source\PSoC4/capsense_ADC_Control.c **** *
 447:Generated_Source\PSoC4/capsense_ADC_Control.c **** * \return
 448:Generated_Source\PSoC4/capsense_ADC_Control.c **** *  Returns the status of the widget processing:
 449:Generated_Source\PSoC4/capsense_ADC_Control.c **** *  - CYRET_SUCCESS - The operation is successfully completed.
ARM GAS  C:\Users\ASUS\AppData\Local\Temp\ccgv2I1u.s 			page 15


 450:Generated_Source\PSoC4/capsense_ADC_Control.c **** *  - CYRET_BAD_PARAM - The input parameter is invalid.
 451:Generated_Source\PSoC4/capsense_ADC_Control.c **** *  - CYRET_INVALID_STATE - The specified widget is disabled.
 452:Generated_Source\PSoC4/capsense_ADC_Control.c **** *  - CYRET_BAD_DATA - The processing is failed.
 453:Generated_Source\PSoC4/capsense_ADC_Control.c **** *
 454:Generated_Source\PSoC4/capsense_ADC_Control.c **** *******************************************************************************/
 455:Generated_Source\PSoC4/capsense_ADC_Control.c **** cystatus capsense_ADC_ProcessWidget(uint32 widgetId)
 456:Generated_Source\PSoC4/capsense_ADC_Control.c **** {
 331              		.loc 1 456 0
 332              		.cfi_startproc
 333              		@ args = 0, pretend = 0, frame = 0
 334              		@ frame_needed = 0, uses_anonymous_args = 0
 335              	.LVL39:
 336 0000 70B5     		push	{r4, r5, r6, lr}
 337              		.cfi_def_cfa_offset 16
 338              		.cfi_offset 4, -16
 339              		.cfi_offset 5, -12
 340              		.cfi_offset 6, -8
 341              		.cfi_offset 14, -4
 342 0002 0500     		movs	r5, r0
 343              	.LVL40:
 457:Generated_Source\PSoC4/capsense_ADC_Control.c ****     cystatus result = CYRET_SUCCESS;
 458:Generated_Source\PSoC4/capsense_ADC_Control.c ****     capsense_ADC_FLASH_WD_STRUCT const *ptrFlashWdgt;
 459:Generated_Source\PSoC4/capsense_ADC_Control.c **** 
 460:Generated_Source\PSoC4/capsense_ADC_Control.c ****     if (widgetId >= capsense_ADC_TOTAL_WIDGETS)
 344              		.loc 1 460 0
 345 0004 0328     		cmp	r0, #3
 346 0006 01D8     		bhi	.L33
 457:Generated_Source\PSoC4/capsense_ADC_Control.c ****     cystatus result = CYRET_SUCCESS;
 347              		.loc 1 457 0
 348 0008 0024     		movs	r4, #0
 349 000a 00E0     		b	.L30
 350              	.L33:
 461:Generated_Source\PSoC4/capsense_ADC_Control.c ****     {
 462:Generated_Source\PSoC4/capsense_ADC_Control.c ****         result = CYRET_BAD_PARAM;
 351              		.loc 1 462 0
 352 000c 0124     		movs	r4, #1
 353              	.L30:
 354              	.LVL41:
 463:Generated_Source\PSoC4/capsense_ADC_Control.c ****     }
 464:Generated_Source\PSoC4/capsense_ADC_Control.c **** 
 465:Generated_Source\PSoC4/capsense_ADC_Control.c ****     if ((CYRET_SUCCESS == result) && (0uL == capsense_ADC_GET_WIDGET_EN_STATUS(widgetId)))
 355              		.loc 1 465 0
 356 000e 002C     		cmp	r4, #0
 357 0010 0AD1     		bne	.L31
 358              		.loc 1 465 0 is_stmt 0 discriminator 1
 359 0012 6B09     		lsrs	r3, r5, #5
 360 0014 0433     		adds	r3, r3, #4
 361 0016 9B00     		lsls	r3, r3, #2
 362 0018 0B4A     		ldr	r2, .L35
 363 001a 9B58     		ldr	r3, [r3, r2]
 364 001c 1F22     		movs	r2, #31
 365 001e 2A40     		ands	r2, r5
 366 0020 D340     		lsrs	r3, r3, r2
 367 0022 DB07     		lsls	r3, r3, #31
 368 0024 00D4     		bmi	.L31
 466:Generated_Source\PSoC4/capsense_ADC_Control.c ****     {
 467:Generated_Source\PSoC4/capsense_ADC_Control.c ****         result = CYRET_INVALID_STATE;
ARM GAS  C:\Users\ASUS\AppData\Local\Temp\ccgv2I1u.s 			page 16


 369              		.loc 1 467 0 is_stmt 1
 370 0026 1134     		adds	r4, r4, #17
 371              	.LVL42:
 372              	.L31:
 468:Generated_Source\PSoC4/capsense_ADC_Control.c ****     }
 469:Generated_Source\PSoC4/capsense_ADC_Control.c **** 
 470:Generated_Source\PSoC4/capsense_ADC_Control.c ****     if (CYRET_SUCCESS == result)
 373              		.loc 1 470 0
 374 0028 002C     		cmp	r4, #0
 375 002a 0BD1     		bne	.L32
 471:Generated_Source\PSoC4/capsense_ADC_Control.c ****     {
 472:Generated_Source\PSoC4/capsense_ADC_Control.c ****         ptrFlashWdgt = &capsense_ADC_dsFlash.wdgtArray[widgetId];
 376              		.loc 1 472 0
 377 002c 2C26     		movs	r6, #44
 378 002e 6E43     		muls	r6, r5
 379 0030 064B     		ldr	r3, .L35+4
 380 0032 F618     		adds	r6, r6, r3
 381              	.LVL43:
 473:Generated_Source\PSoC4/capsense_ADC_Control.c **** 
 474:Generated_Source\PSoC4/capsense_ADC_Control.c ****         switch(capsense_ADC_GET_SENSE_METHOD(ptrFlashWdgt))
 475:Generated_Source\PSoC4/capsense_ADC_Control.c ****         {
 476:Generated_Source\PSoC4/capsense_ADC_Control.c ****         #if (0u != capsense_ADC_TOTAL_CSD_WIDGETS)
 477:Generated_Source\PSoC4/capsense_ADC_Control.c ****             case capsense_ADC_SENSE_METHOD_CSD_E:
 478:Generated_Source\PSoC4/capsense_ADC_Control.c ****                 result = capsense_ADC_DpProcessCsdWidgetRawCounts(ptrFlashWdgt);
 382              		.loc 1 478 0
 383 0034 3000     		movs	r0, r6
 384              	.LVL44:
 385 0036 FFF7FEFF 		bl	capsense_ADC_DpProcessCsdWidgetRawCounts
 386              	.LVL45:
 387 003a 0400     		movs	r4, r0
 388              	.LVL46:
 479:Generated_Source\PSoC4/capsense_ADC_Control.c ****                 capsense_ADC_DpProcessCsdWidgetStatus(widgetId, ptrFlashWdgt);
 389              		.loc 1 479 0
 390 003c 3100     		movs	r1, r6
 391 003e 2800     		movs	r0, r5
 392              	.LVL47:
 393 0040 FFF7FEFF 		bl	capsense_ADC_DpProcessCsdWidgetStatus
 394              	.LVL48:
 395              	.L32:
 480:Generated_Source\PSoC4/capsense_ADC_Control.c ****                 break;
 481:Generated_Source\PSoC4/capsense_ADC_Control.c ****         #endif /* #if (0u != capsense_ADC_TOTAL_CSD_WIDGETS) */
 482:Generated_Source\PSoC4/capsense_ADC_Control.c **** 
 483:Generated_Source\PSoC4/capsense_ADC_Control.c ****         #if (0u != capsense_ADC_TOTAL_CSX_WIDGETS)
 484:Generated_Source\PSoC4/capsense_ADC_Control.c ****             case capsense_ADC_SENSE_METHOD_CSX_E:
 485:Generated_Source\PSoC4/capsense_ADC_Control.c ****                 result = capsense_ADC_DpProcessCsxWidgetRawCounts(ptrFlashWdgt);
 486:Generated_Source\PSoC4/capsense_ADC_Control.c ****                 capsense_ADC_DpProcessCsxWidgetStatus(widgetId, ptrFlashWdgt);
 487:Generated_Source\PSoC4/capsense_ADC_Control.c ****                 break;
 488:Generated_Source\PSoC4/capsense_ADC_Control.c ****         #endif /* #if (0u != capsense_ADC_TOTAL_CSX_WIDGETS) */
 489:Generated_Source\PSoC4/capsense_ADC_Control.c **** 
 490:Generated_Source\PSoC4/capsense_ADC_Control.c ****         #if (0u != capsense_ADC_TOTAL_ISX_WIDGETS)
 491:Generated_Source\PSoC4/capsense_ADC_Control.c ****             case capsense_ADC_SENSE_METHOD_ISX_E:
 492:Generated_Source\PSoC4/capsense_ADC_Control.c ****                 result = capsense_ADC_DpProcessIsxWidgetRawCounts(ptrFlashWdgt);
 493:Generated_Source\PSoC4/capsense_ADC_Control.c ****                 capsense_ADC_DpProcessIsxWidgetStatus(widgetId, ptrFlashWdgt);
 494:Generated_Source\PSoC4/capsense_ADC_Control.c ****                 break;
 495:Generated_Source\PSoC4/capsense_ADC_Control.c ****         #endif /* #if (0u != capsense_ADC_TOTAL_ISX_WIDGETS) */
 496:Generated_Source\PSoC4/capsense_ADC_Control.c **** 
 497:Generated_Source\PSoC4/capsense_ADC_Control.c ****         default:
ARM GAS  C:\Users\ASUS\AppData\Local\Temp\ccgv2I1u.s 			page 17


 498:Generated_Source\PSoC4/capsense_ADC_Control.c ****             CYASSERT(0u);
 499:Generated_Source\PSoC4/capsense_ADC_Control.c ****             break;
 500:Generated_Source\PSoC4/capsense_ADC_Control.c ****         }
 501:Generated_Source\PSoC4/capsense_ADC_Control.c **** 
 502:Generated_Source\PSoC4/capsense_ADC_Control.c ****         #if (capsense_ADC_ENABLE == capsense_ADC_TST_BSLN_DUPLICATION_EN)
 503:Generated_Source\PSoC4/capsense_ADC_Control.c ****             if (CYRET_SUCCESS != result)
 504:Generated_Source\PSoC4/capsense_ADC_Control.c ****             {
 505:Generated_Source\PSoC4/capsense_ADC_Control.c ****                 capsense_ADC_UpdateTestResultBaselineDuplication(widgetId, result);
 506:Generated_Source\PSoC4/capsense_ADC_Control.c ****                 result = CYRET_BAD_DATA;
 507:Generated_Source\PSoC4/capsense_ADC_Control.c ****             }
 508:Generated_Source\PSoC4/capsense_ADC_Control.c ****         #endif /* (capsense_ADC_ENABLE == capsense_ADC_TST_BSLN_DUPLICATION_EN) */
 509:Generated_Source\PSoC4/capsense_ADC_Control.c ****     }
 510:Generated_Source\PSoC4/capsense_ADC_Control.c ****     return result;
 511:Generated_Source\PSoC4/capsense_ADC_Control.c **** }
 396              		.loc 1 511 0
 397 0044 2000     		movs	r0, r4
 398              		@ sp needed
 399              	.LVL49:
 400              	.LVL50:
 401 0046 70BD     		pop	{r4, r5, r6, pc}
 402              	.L36:
 403              		.align	2
 404              	.L35:
 405 0048 00000000 		.word	capsense_ADC_dsRam
 406 004c 00000000 		.word	capsense_ADC_dsFlash
 407              		.cfi_endproc
 408              	.LFE6:
 409              		.size	capsense_ADC_ProcessWidget, .-capsense_ADC_ProcessWidget
 410              		.section	.text.capsense_ADC_ProcessWidgetExt,"ax",%progbits
 411              		.align	2
 412              		.global	capsense_ADC_ProcessWidgetExt
 413              		.code	16
 414              		.thumb_func
 415              		.type	capsense_ADC_ProcessWidgetExt, %function
 416              	capsense_ADC_ProcessWidgetExt:
 417              	.LFB7:
 512:Generated_Source\PSoC4/capsense_ADC_Control.c **** 
 513:Generated_Source\PSoC4/capsense_ADC_Control.c **** 
 514:Generated_Source\PSoC4/capsense_ADC_Control.c **** /*******************************************************************************
 515:Generated_Source\PSoC4/capsense_ADC_Control.c **** * Function Name: capsense_ADC_ProcessWidgetExt
 516:Generated_Source\PSoC4/capsense_ADC_Control.c **** ****************************************************************************//**
 517:Generated_Source\PSoC4/capsense_ADC_Control.c **** *
 518:Generated_Source\PSoC4/capsense_ADC_Control.c **** * \brief
 519:Generated_Source\PSoC4/capsense_ADC_Control.c **** *  Performs customized data processing on the selected widget.
 520:Generated_Source\PSoC4/capsense_ADC_Control.c **** *
 521:Generated_Source\PSoC4/capsense_ADC_Control.c **** * \details
 522:Generated_Source\PSoC4/capsense_ADC_Control.c **** *  This function performs data processes for the specified widget specified by
 523:Generated_Source\PSoC4/capsense_ADC_Control.c **** *  the mode parameter. The execution order of the requested operations is from
 524:Generated_Source\PSoC4/capsense_ADC_Control.c **** *  LSB to MSB of the mode parameter. For a different order, this API
 525:Generated_Source\PSoC4/capsense_ADC_Control.c **** *  can be called multiple times with the required mode parameter.
 526:Generated_Source\PSoC4/capsense_ADC_Control.c **** *
 527:Generated_Source\PSoC4/capsense_ADC_Control.c **** *  This function can be used with any of the available scan functions. This
 528:Generated_Source\PSoC4/capsense_ADC_Control.c **** *  function is called only after all the sensors in the specified widget are
 529:Generated_Source\PSoC4/capsense_ADC_Control.c **** *  scanned. Calling this function multiple times with the same mode without
 530:Generated_Source\PSoC4/capsense_ADC_Control.c **** *  sensor scanning causes unexpected behavior. This function ignores the value
 531:Generated_Source\PSoC4/capsense_ADC_Control.c **** *  of the wdgtEnable register.
 532:Generated_Source\PSoC4/capsense_ADC_Control.c **** *  \if SECTION_C_LOW_LEVEL
ARM GAS  C:\Users\ASUS\AppData\Local\Temp\ccgv2I1u.s 			page 18


 533:Generated_Source\PSoC4/capsense_ADC_Control.c **** *  The capsense_ADC_PROCESS_CALC_NOISE and
 534:Generated_Source\PSoC4/capsense_ADC_Control.c **** *  capsense_ADC_PROCESS_THRESHOLDS flags are supported by the CSD sensing
 535:Generated_Source\PSoC4/capsense_ADC_Control.c **** *  method only when Auto-tuning mode is enabled.
 536:Generated_Source\PSoC4/capsense_ADC_Control.c **** *  \endif
 537:Generated_Source\PSoC4/capsense_ADC_Control.c **** *  The pipeline scan method (i.e. during scanning of a widget, processing
 538:Generated_Source\PSoC4/capsense_ADC_Control.c **** *  of a previously scanned widget is performed) can be implemented using this
 539:Generated_Source\PSoC4/capsense_ADC_Control.c **** *  function and it may reduce the total scan/process time, increase the refresh
 540:Generated_Source\PSoC4/capsense_ADC_Control.c **** *  rate and decrease the power consumption.
 541:Generated_Source\PSoC4/capsense_ADC_Control.c **** *
 542:Generated_Source\PSoC4/capsense_ADC_Control.c **** *  If the Ballistic multiplier filter is enabled the Timestamp must be
 543:Generated_Source\PSoC4/capsense_ADC_Control.c **** *  updated before calling this function using the
 544:Generated_Source\PSoC4/capsense_ADC_Control.c **** *  capsense_ADC_IncrementGestureTimestamp() function.
 545:Generated_Source\PSoC4/capsense_ADC_Control.c **** *
 546:Generated_Source\PSoC4/capsense_ADC_Control.c **** *  If the Self-test library is enabled, this function executes the baseline duplication
 547:Generated_Source\PSoC4/capsense_ADC_Control.c **** *  test. Refer to capsense_ADC_CheckBaselineDuplication() for details.
 548:Generated_Source\PSoC4/capsense_ADC_Control.c **** *
 549:Generated_Source\PSoC4/capsense_ADC_Control.c **** *  If the specified widget has enabled ballistic multiplier filter, make sure
 550:Generated_Source\PSoC4/capsense_ADC_Control.c **** *  the timestamp is updated before calling this function. Use one of the following
 551:Generated_Source\PSoC4/capsense_ADC_Control.c **** *  functions to update the timestamp:
 552:Generated_Source\PSoC4/capsense_ADC_Control.c **** *  - capsense_ADC_IncrementGestureTimestamp().
 553:Generated_Source\PSoC4/capsense_ADC_Control.c **** *  - capsense_ADC_SetGestureTimestamp().
 554:Generated_Source\PSoC4/capsense_ADC_Control.c **** *
 555:Generated_Source\PSoC4/capsense_ADC_Control.c **** * \param widgetId
 556:Generated_Source\PSoC4/capsense_ADC_Control.c **** *  Specifies the ID number of the widget to be processed.
 557:Generated_Source\PSoC4/capsense_ADC_Control.c **** *  A macro for the widget ID can be found in the capsense_ADC Configuration header
 558:Generated_Source\PSoC4/capsense_ADC_Control.c **** *  file defined as capsense_ADC_<WidgetName>_WDGT_ID.
 559:Generated_Source\PSoC4/capsense_ADC_Control.c **** 
 560:Generated_Source\PSoC4/capsense_ADC_Control.c **** * \param mode
 561:Generated_Source\PSoC4/capsense_ADC_Control.c **** *  Specifies the type of widget processing to be executed for the
 562:Generated_Source\PSoC4/capsense_ADC_Control.c **** *  specified widget:
 563:Generated_Source\PSoC4/capsense_ADC_Control.c **** *    1. Bits [31..6] - Reserved.
 564:Generated_Source\PSoC4/capsense_ADC_Control.c **** *    2. Bits [5..0] - capsense_ADC_PROCESS_ALL - Execute all the tasks.
 565:Generated_Source\PSoC4/capsense_ADC_Control.c **** *    3. Bit [5] - capsense_ADC_PROCESS_STATUS - Update the status (on/off,
 566:Generated_Source\PSoC4/capsense_ADC_Control.c **** *       centroid position).
 567:Generated_Source\PSoC4/capsense_ADC_Control.c **** *    \if SECTION_C_LOW_LEVEL
 568:Generated_Source\PSoC4/capsense_ADC_Control.c **** *    4. Bit [4] - capsense_ADC_PROCESS_THRESHOLDS - Update the thresholds
 569:Generated_Source\PSoC4/capsense_ADC_Control.c **** *       (only in CSD auto-tuning mode).
 570:Generated_Source\PSoC4/capsense_ADC_Control.c **** *    5. Bit [3] - capsense_ADC_PROCESS_CALC_NOISE - Calculate the noise (only in
 571:Generated_Source\PSoC4/capsense_ADC_Control.c **** *       CSD auto-tuning mode).
 572:Generated_Source\PSoC4/capsense_ADC_Control.c **** *    \endif
 573:Generated_Source\PSoC4/capsense_ADC_Control.c **** *    6. Bit [2] - capsense_ADC_PROCESS_DIFFCOUNTS - Update the difference counts.
 574:Generated_Source\PSoC4/capsense_ADC_Control.c **** *    7. Bit [1] - capsense_ADC_PROCESS_BASELINE - Update the baselines.
 575:Generated_Source\PSoC4/capsense_ADC_Control.c **** *    8. Bit [0] - capsense_ADC_PROCESS_FILTER - Run the firmware filters.
 576:Generated_Source\PSoC4/capsense_ADC_Control.c **** *
 577:Generated_Source\PSoC4/capsense_ADC_Control.c **** * \return
 578:Generated_Source\PSoC4/capsense_ADC_Control.c **** *  Returns the status of the widget processing operation:
 579:Generated_Source\PSoC4/capsense_ADC_Control.c **** *  - CYRET_SUCCESS - The processing is successfully performed.
 580:Generated_Source\PSoC4/capsense_ADC_Control.c **** *  - CYRET_BAD_PARAM - The input parameter is invalid.
 581:Generated_Source\PSoC4/capsense_ADC_Control.c **** *  - CYRET_BAD_DATA - The processing is failed.
 582:Generated_Source\PSoC4/capsense_ADC_Control.c **** *
 583:Generated_Source\PSoC4/capsense_ADC_Control.c **** *******************************************************************************/
 584:Generated_Source\PSoC4/capsense_ADC_Control.c **** cystatus capsense_ADC_ProcessWidgetExt(uint32 widgetId, uint32 mode)
 585:Generated_Source\PSoC4/capsense_ADC_Control.c **** {
 418              		.loc 1 585 0
 419              		.cfi_startproc
 420              		@ args = 0, pretend = 0, frame = 16
 421              		@ frame_needed = 0, uses_anonymous_args = 0
ARM GAS  C:\Users\ASUS\AppData\Local\Temp\ccgv2I1u.s 			page 19


 422              	.LVL51:
 423 0000 F0B5     		push	{r4, r5, r6, r7, lr}
 424              		.cfi_def_cfa_offset 20
 425              		.cfi_offset 4, -20
 426              		.cfi_offset 5, -16
 427              		.cfi_offset 6, -12
 428              		.cfi_offset 7, -8
 429              		.cfi_offset 14, -4
 430 0002 85B0     		sub	sp, sp, #20
 431              		.cfi_def_cfa_offset 40
 432 0004 0600     		movs	r6, r0
 433 0006 0291     		str	r1, [sp, #8]
 434              	.LVL52:
 586:Generated_Source\PSoC4/capsense_ADC_Control.c ****     uint32 snsCount;
 587:Generated_Source\PSoC4/capsense_ADC_Control.c ****     cystatus result = CYRET_BAD_PARAM;
 588:Generated_Source\PSoC4/capsense_ADC_Control.c ****     capsense_ADC_FLASH_WD_STRUCT const *ptrFlashWdgt;
 589:Generated_Source\PSoC4/capsense_ADC_Control.c ****     capsense_ADC_PTR_FILTER_VARIANT fltrHistV;
 590:Generated_Source\PSoC4/capsense_ADC_Control.c ****     capsense_ADC_RAM_SNS_STRUCT *ptrSnsTmp;
 591:Generated_Source\PSoC4/capsense_ADC_Control.c **** 
 592:Generated_Source\PSoC4/capsense_ADC_Control.c ****     #if (0u != capsense_ADC_TOTAL_CSD_WIDGETS)
 593:Generated_Source\PSoC4/capsense_ADC_Control.c ****         uint32 isProxWdgt;
 594:Generated_Source\PSoC4/capsense_ADC_Control.c ****     #endif
 595:Generated_Source\PSoC4/capsense_ADC_Control.c **** 
 596:Generated_Source\PSoC4/capsense_ADC_Control.c ****     if (widgetId < capsense_ADC_TOTAL_WIDGETS)
 435              		.loc 1 596 0
 436 0008 0328     		cmp	r0, #3
 437 000a 1ED8     		bhi	.L41
 597:Generated_Source\PSoC4/capsense_ADC_Control.c ****     {
 598:Generated_Source\PSoC4/capsense_ADC_Control.c ****         ptrFlashWdgt = &capsense_ADC_dsFlash.wdgtArray[widgetId];
 438              		.loc 1 598 0
 439 000c 2C22     		movs	r2, #44
 440 000e 4243     		muls	r2, r0
 441 0010 104B     		ldr	r3, .L42
 442 0012 D518     		adds	r5, r2, r3
 443              	.LVL53:
 599:Generated_Source\PSoC4/capsense_ADC_Control.c ****         snsCount = capsense_ADC_GET_SNS_CNT_BY_PTR(ptrFlashWdgt);
 444              		.loc 1 599 0
 445 0014 2B8B     		ldrh	r3, [r5, #24]
 446              	.LVL54:
 600:Generated_Source\PSoC4/capsense_ADC_Control.c ****         ptrSnsTmp = ptrFlashWdgt->ptr2SnsRam;
 447              		.loc 1 600 0
 448 0016 AF68     		ldr	r7, [r5, #8]
 449              	.LVL55:
 601:Generated_Source\PSoC4/capsense_ADC_Control.c ****         fltrHistV.ptr = ptrFlashWdgt->ptr2FltrHistory;
 450              		.loc 1 601 0
 451 0018 EA68     		ldr	r2, [r5, #12]
 452              	.LVL56:
 453 001a 0392     		str	r2, [sp, #12]
 587:Generated_Source\PSoC4/capsense_ADC_Control.c ****     capsense_ADC_FLASH_WD_STRUCT const *ptrFlashWdgt;
 454              		.loc 1 587 0
 455 001c 0122     		movs	r2, #1
 456              	.LVL57:
 457 001e 0192     		str	r2, [sp, #4]
 458 0020 08E0     		b	.L39
 459              	.LVL58:
 460              	.L40:
 602:Generated_Source\PSoC4/capsense_ADC_Control.c **** 
ARM GAS  C:\Users\ASUS\AppData\Local\Temp\ccgv2I1u.s 			page 20


 603:Generated_Source\PSoC4/capsense_ADC_Control.c ****         switch(capsense_ADC_GET_SENSE_METHOD(ptrFlashWdgt))
 604:Generated_Source\PSoC4/capsense_ADC_Control.c ****         {
 605:Generated_Source\PSoC4/capsense_ADC_Control.c ****         #if (0u != capsense_ADC_TOTAL_CSD_WIDGETS)
 606:Generated_Source\PSoC4/capsense_ADC_Control.c ****             case capsense_ADC_SENSE_METHOD_CSD_E:
 607:Generated_Source\PSoC4/capsense_ADC_Control.c ****             {
 608:Generated_Source\PSoC4/capsense_ADC_Control.c ****                 /* Determine if widget is type of proximity.
 609:Generated_Source\PSoC4/capsense_ADC_Control.c ****                  * The Proximity widgets use different filters and
 610:Generated_Source\PSoC4/capsense_ADC_Control.c ****                  * therefore have different filter history object structure */
 611:Generated_Source\PSoC4/capsense_ADC_Control.c ****                 isProxWdgt = (capsense_ADC_GET_WIDGET_TYPE(ptrFlashWdgt) == capsense_ADC_WD_PROXIMI
 612:Generated_Source\PSoC4/capsense_ADC_Control.c **** 
 613:Generated_Source\PSoC4/capsense_ADC_Control.c ****                 /* Run the desired processing for the all CSD widget sensors */
 614:Generated_Source\PSoC4/capsense_ADC_Control.c ****                 for (;snsCount-- > 0u;)
 615:Generated_Source\PSoC4/capsense_ADC_Control.c ****                 {
 616:Generated_Source\PSoC4/capsense_ADC_Control.c ****                     result = capsense_ADC_DpProcessCsdSensorRawCountsExt(ptrFlashWdgt, ptrSnsTmp, f
 461              		.loc 1 616 0
 462 0022 029B     		ldr	r3, [sp, #8]
 463 0024 039A     		ldr	r2, [sp, #12]
 464 0026 3900     		movs	r1, r7
 465 0028 2800     		movs	r0, r5
 466 002a FFF7FEFF 		bl	capsense_ADC_DpProcessCsdSensorRawCountsExt
 467              	.LVL59:
 468 002e 0190     		str	r0, [sp, #4]
 469              	.LVL60:
 617:Generated_Source\PSoC4/capsense_ADC_Control.c **** 
 618:Generated_Source\PSoC4/capsense_ADC_Control.c ****                     #if (capsense_ADC_ENABLE == capsense_ADC_TST_BSLN_DUPLICATION_EN)
 619:Generated_Source\PSoC4/capsense_ADC_Control.c ****                         if (CYRET_SUCCESS != result)
 620:Generated_Source\PSoC4/capsense_ADC_Control.c ****                         {
 621:Generated_Source\PSoC4/capsense_ADC_Control.c ****                             result = (result | capsense_ADC_TST_LSBYTE) & snsCount;
 622:Generated_Source\PSoC4/capsense_ADC_Control.c ****                         }
 623:Generated_Source\PSoC4/capsense_ADC_Control.c ****                     #endif /* (capsense_ADC_ENABLE == capsense_ADC_TST_BSLN_DUPLICATION_EN) */
 624:Generated_Source\PSoC4/capsense_ADC_Control.c **** 
 625:Generated_Source\PSoC4/capsense_ADC_Control.c ****                     /* Move to the next sensor and filter history objects */
 626:Generated_Source\PSoC4/capsense_ADC_Control.c ****                     ptrSnsTmp++;
 470              		.loc 1 626 0
 471 0030 0A37     		adds	r7, r7, #10
 472              	.LVL61:
 614:Generated_Source\PSoC4/capsense_ADC_Control.c ****                 {
 473              		.loc 1 614 0
 474 0032 2300     		movs	r3, r4
 475              	.LVL62:
 476              	.L39:
 477 0034 5C1E     		subs	r4, r3, #1
 478              	.LVL63:
 479 0036 002B     		cmp	r3, #0
 480 0038 F3D1     		bne	.L40
 627:Generated_Source\PSoC4/capsense_ADC_Control.c ****                     capsense_ADC_INC_FLTR_OBJ_VARIANT(isProxWdgt, fltrHistV);
 628:Generated_Source\PSoC4/capsense_ADC_Control.c ****                 }
 629:Generated_Source\PSoC4/capsense_ADC_Control.c **** 
 630:Generated_Source\PSoC4/capsense_ADC_Control.c ****                 if (0u != (mode & capsense_ADC_PROCESS_STATUS))
 481              		.loc 1 630 0
 482 003a 029B     		ldr	r3, [sp, #8]
 483 003c 9B06     		lsls	r3, r3, #26
 484 003e 06D5     		bpl	.L38
 631:Generated_Source\PSoC4/capsense_ADC_Control.c ****                 {
 632:Generated_Source\PSoC4/capsense_ADC_Control.c ****                     capsense_ADC_DpProcessCsdWidgetStatus(widgetId, ptrFlashWdgt);
 485              		.loc 1 632 0
 486 0040 2900     		movs	r1, r5
ARM GAS  C:\Users\ASUS\AppData\Local\Temp\ccgv2I1u.s 			page 21


 487 0042 3000     		movs	r0, r6
 488 0044 FFF7FEFF 		bl	capsense_ADC_DpProcessCsdWidgetStatus
 489              	.LVL64:
 490 0048 01E0     		b	.L38
 491              	.LVL65:
 492              	.L41:
 587:Generated_Source\PSoC4/capsense_ADC_Control.c ****     capsense_ADC_FLASH_WD_STRUCT const *ptrFlashWdgt;
 493              		.loc 1 587 0
 494 004a 0123     		movs	r3, #1
 495 004c 0193     		str	r3, [sp, #4]
 496              	.LVL66:
 497              	.L38:
 633:Generated_Source\PSoC4/capsense_ADC_Control.c ****                 }
 634:Generated_Source\PSoC4/capsense_ADC_Control.c ****                 break;
 635:Generated_Source\PSoC4/capsense_ADC_Control.c ****             }
 636:Generated_Source\PSoC4/capsense_ADC_Control.c ****         #endif /* #if (0u != capsense_ADC_TOTAL_CSD_WIDGETS) */
 637:Generated_Source\PSoC4/capsense_ADC_Control.c **** 
 638:Generated_Source\PSoC4/capsense_ADC_Control.c ****         #if (0u != capsense_ADC_TOTAL_CSX_WIDGETS)
 639:Generated_Source\PSoC4/capsense_ADC_Control.c ****             case capsense_ADC_SENSE_METHOD_CSX_E:
 640:Generated_Source\PSoC4/capsense_ADC_Control.c **** 
 641:Generated_Source\PSoC4/capsense_ADC_Control.c ****                 #if (0u != capsense_ADC_CSX_MULTIPHASE_TX_EN)
 642:Generated_Source\PSoC4/capsense_ADC_Control.c ****                     if ((0u != (mode & capsense_ADC_PROCESS_DECONVOLUTION)) &&
 643:Generated_Source\PSoC4/capsense_ADC_Control.c ****                         (0u != (ptrFlashWdgt->staticConfig & capsense_ADC_MULTIPHASE_TX_MASK)))
 644:Generated_Source\PSoC4/capsense_ADC_Control.c ****                     {
 645:Generated_Source\PSoC4/capsense_ADC_Control.c ****                         capsense_ADC_DpDeconvolution(ptrFlashWdgt);
 646:Generated_Source\PSoC4/capsense_ADC_Control.c ****                     }
 647:Generated_Source\PSoC4/capsense_ADC_Control.c ****                 #endif /* #if (0u != capsense_ADC_CSX_MULTIPHASE_TX_EN) */
 648:Generated_Source\PSoC4/capsense_ADC_Control.c **** 
 649:Generated_Source\PSoC4/capsense_ADC_Control.c ****                 /* Run the desired processing for the all CSX widget sensors */
 650:Generated_Source\PSoC4/capsense_ADC_Control.c ****                 for (;snsCount-- > 0u;)
 651:Generated_Source\PSoC4/capsense_ADC_Control.c ****                 {
 652:Generated_Source\PSoC4/capsense_ADC_Control.c ****                     result = capsense_ADC_DpProcessCsxSensorRawCountsExt(ptrFlashWdgt, ptrSnsTmp, f
 653:Generated_Source\PSoC4/capsense_ADC_Control.c **** 
 654:Generated_Source\PSoC4/capsense_ADC_Control.c ****                     #if (capsense_ADC_ENABLE == capsense_ADC_TST_BSLN_DUPLICATION_EN)
 655:Generated_Source\PSoC4/capsense_ADC_Control.c ****                         if (CYRET_SUCCESS != result)
 656:Generated_Source\PSoC4/capsense_ADC_Control.c ****                         {
 657:Generated_Source\PSoC4/capsense_ADC_Control.c ****                             result = (result | capsense_ADC_TST_LSBYTE) & snsCount;
 658:Generated_Source\PSoC4/capsense_ADC_Control.c ****                         }
 659:Generated_Source\PSoC4/capsense_ADC_Control.c ****                     #endif /* (capsense_ADC_ENABLE == capsense_ADC_TST_BSLN_DUPLICATION_EN) */
 660:Generated_Source\PSoC4/capsense_ADC_Control.c **** 
 661:Generated_Source\PSoC4/capsense_ADC_Control.c ****                     /* Move to the next sensor and filter history objects */
 662:Generated_Source\PSoC4/capsense_ADC_Control.c ****                     ptrSnsTmp++;
 663:Generated_Source\PSoC4/capsense_ADC_Control.c ****                     capsense_ADC_INC_REG_FLTR_OBJ(fltrHistV);
 664:Generated_Source\PSoC4/capsense_ADC_Control.c ****                 }
 665:Generated_Source\PSoC4/capsense_ADC_Control.c **** 
 666:Generated_Source\PSoC4/capsense_ADC_Control.c ****                 if (0u != (mode & capsense_ADC_PROCESS_STATUS))
 667:Generated_Source\PSoC4/capsense_ADC_Control.c ****                 {
 668:Generated_Source\PSoC4/capsense_ADC_Control.c ****                     capsense_ADC_DpProcessCsxWidgetStatus(widgetId, ptrFlashWdgt);
 669:Generated_Source\PSoC4/capsense_ADC_Control.c ****                 }
 670:Generated_Source\PSoC4/capsense_ADC_Control.c ****                 break;
 671:Generated_Source\PSoC4/capsense_ADC_Control.c ****         #endif /* #if (0u != capsense_ADC_TOTAL_CSX_WIDGETS) */
 672:Generated_Source\PSoC4/capsense_ADC_Control.c **** 
 673:Generated_Source\PSoC4/capsense_ADC_Control.c ****         #if (0u != capsense_ADC_TOTAL_ISX_WIDGETS)
 674:Generated_Source\PSoC4/capsense_ADC_Control.c ****             case capsense_ADC_SENSE_METHOD_ISX_E:
 675:Generated_Source\PSoC4/capsense_ADC_Control.c ****                 /* Run the desired processing for the all ISX widget sensors */
 676:Generated_Source\PSoC4/capsense_ADC_Control.c ****                 for (;snsCount-- > 0u;)
 677:Generated_Source\PSoC4/capsense_ADC_Control.c ****                 {
ARM GAS  C:\Users\ASUS\AppData\Local\Temp\ccgv2I1u.s 			page 22


 678:Generated_Source\PSoC4/capsense_ADC_Control.c ****                     result = capsense_ADC_DpProcessIsxSensorRawCountsExt(ptrFlashWdgt, ptrSnsTmp, f
 679:Generated_Source\PSoC4/capsense_ADC_Control.c **** 
 680:Generated_Source\PSoC4/capsense_ADC_Control.c ****                     #if (capsense_ADC_ENABLE == capsense_ADC_TST_BSLN_DUPLICATION_EN)
 681:Generated_Source\PSoC4/capsense_ADC_Control.c ****                         if (CYRET_SUCCESS != result)
 682:Generated_Source\PSoC4/capsense_ADC_Control.c ****                         {
 683:Generated_Source\PSoC4/capsense_ADC_Control.c ****                             result = (result | capsense_ADC_TST_LSBYTE) & snsCount;
 684:Generated_Source\PSoC4/capsense_ADC_Control.c ****                         }
 685:Generated_Source\PSoC4/capsense_ADC_Control.c ****                     #endif /* (capsense_ADC_ENABLE == capsense_ADC_TST_BSLN_DUPLICATION_EN) */
 686:Generated_Source\PSoC4/capsense_ADC_Control.c **** 
 687:Generated_Source\PSoC4/capsense_ADC_Control.c ****                     /* Move to the next sensor and filter history objects */
 688:Generated_Source\PSoC4/capsense_ADC_Control.c ****                     ptrSnsTmp++;
 689:Generated_Source\PSoC4/capsense_ADC_Control.c ****                     capsense_ADC_INC_REG_FLTR_OBJ(fltrHistV);
 690:Generated_Source\PSoC4/capsense_ADC_Control.c ****                 }
 691:Generated_Source\PSoC4/capsense_ADC_Control.c **** 
 692:Generated_Source\PSoC4/capsense_ADC_Control.c ****                 if (0u != (mode & capsense_ADC_PROCESS_STATUS))
 693:Generated_Source\PSoC4/capsense_ADC_Control.c ****                 {
 694:Generated_Source\PSoC4/capsense_ADC_Control.c ****                     capsense_ADC_DpProcessIsxWidgetStatus(widgetId, ptrFlashWdgt);
 695:Generated_Source\PSoC4/capsense_ADC_Control.c ****                 }
 696:Generated_Source\PSoC4/capsense_ADC_Control.c ****                 break;
 697:Generated_Source\PSoC4/capsense_ADC_Control.c ****         #endif /* #if (0u != capsense_ADC_TOTAL_ISX_WIDGETS) */
 698:Generated_Source\PSoC4/capsense_ADC_Control.c **** 
 699:Generated_Source\PSoC4/capsense_ADC_Control.c ****         default:
 700:Generated_Source\PSoC4/capsense_ADC_Control.c ****             CYASSERT(0u);
 701:Generated_Source\PSoC4/capsense_ADC_Control.c ****             break;
 702:Generated_Source\PSoC4/capsense_ADC_Control.c ****         }
 703:Generated_Source\PSoC4/capsense_ADC_Control.c **** 
 704:Generated_Source\PSoC4/capsense_ADC_Control.c ****         #if (capsense_ADC_ENABLE == capsense_ADC_TST_BSLN_DUPLICATION_EN)
 705:Generated_Source\PSoC4/capsense_ADC_Control.c ****             if (CYRET_SUCCESS != result)
 706:Generated_Source\PSoC4/capsense_ADC_Control.c ****             {
 707:Generated_Source\PSoC4/capsense_ADC_Control.c ****                 capsense_ADC_UpdateTestResultBaselineDuplication(widgetId, snsCount);
 708:Generated_Source\PSoC4/capsense_ADC_Control.c ****                 result = CYRET_BAD_DATA;
 709:Generated_Source\PSoC4/capsense_ADC_Control.c ****             }
 710:Generated_Source\PSoC4/capsense_ADC_Control.c ****         #endif /* (capsense_ADC_ENABLE == capsense_ADC_TST_BSLN_DUPLICATION_EN) */
 711:Generated_Source\PSoC4/capsense_ADC_Control.c **** 
 712:Generated_Source\PSoC4/capsense_ADC_Control.c ****     }
 713:Generated_Source\PSoC4/capsense_ADC_Control.c ****     return result;
 714:Generated_Source\PSoC4/capsense_ADC_Control.c **** }
 498              		.loc 1 714 0
 499 004e 0198     		ldr	r0, [sp, #4]
 500 0050 05B0     		add	sp, sp, #20
 501              		@ sp needed
 502              	.LVL67:
 503 0052 F0BD     		pop	{r4, r5, r6, r7, pc}
 504              	.L43:
 505              		.align	2
 506              	.L42:
 507 0054 00000000 		.word	capsense_ADC_dsFlash
 508              		.cfi_endproc
 509              	.LFE7:
 510              		.size	capsense_ADC_ProcessWidgetExt, .-capsense_ADC_ProcessWidgetExt
 511              		.section	.text.capsense_ADC_ProcessSensorExt,"ax",%progbits
 512              		.align	2
 513              		.global	capsense_ADC_ProcessSensorExt
 514              		.code	16
 515              		.thumb_func
 516              		.type	capsense_ADC_ProcessSensorExt, %function
 517              	capsense_ADC_ProcessSensorExt:
ARM GAS  C:\Users\ASUS\AppData\Local\Temp\ccgv2I1u.s 			page 23


 518              	.LFB8:
 715:Generated_Source\PSoC4/capsense_ADC_Control.c **** 
 716:Generated_Source\PSoC4/capsense_ADC_Control.c **** /*******************************************************************************
 717:Generated_Source\PSoC4/capsense_ADC_Control.c **** * Function Name: capsense_ADC_ProcessSensorExt
 718:Generated_Source\PSoC4/capsense_ADC_Control.c **** ****************************************************************************//**
 719:Generated_Source\PSoC4/capsense_ADC_Control.c **** *
 720:Generated_Source\PSoC4/capsense_ADC_Control.c **** * \brief
 721:Generated_Source\PSoC4/capsense_ADC_Control.c **** *  Performs customized data processing on the selected widget's sensor.
 722:Generated_Source\PSoC4/capsense_ADC_Control.c **** *
 723:Generated_Source\PSoC4/capsense_ADC_Control.c **** * \details
 724:Generated_Source\PSoC4/capsense_ADC_Control.c **** *  This function performs data processes for the specified sensor specified by
 725:Generated_Source\PSoC4/capsense_ADC_Control.c **** *  the mode parameter. The execution order of the requested operations is from
 726:Generated_Source\PSoC4/capsense_ADC_Control.c **** *  LSB to MSB of the mode parameter. For a different order, this
 727:Generated_Source\PSoC4/capsense_ADC_Control.c **** *  function can be called multiple times with the required mode parameter.
 728:Generated_Source\PSoC4/capsense_ADC_Control.c **** *
 729:Generated_Source\PSoC4/capsense_ADC_Control.c **** *  This function can be used with any of the available scan functions. This
 730:Generated_Source\PSoC4/capsense_ADC_Control.c **** *  function is called only after a specified sensor in the widget is
 731:Generated_Source\PSoC4/capsense_ADC_Control.c **** *  scanned. Calling this function multiple times with the same mode without
 732:Generated_Source\PSoC4/capsense_ADC_Control.c **** *  sensor scanning causes unexpected behavior. This function ignores the value
 733:Generated_Source\PSoC4/capsense_ADC_Control.c **** *  of the wdgtEnable register.
 734:Generated_Source\PSoC4/capsense_ADC_Control.c **** *
 735:Generated_Source\PSoC4/capsense_ADC_Control.c **** *  \if SECTION_C_LOW_LEVEL
 736:Generated_Source\PSoC4/capsense_ADC_Control.c **** *  The capsense_ADC_PROCESS_CALC_NOISE and
 737:Generated_Source\PSoC4/capsense_ADC_Control.c **** *  capsense_ADC_PROCESS_THRESHOLDS flags are supported by the CSD sensing
 738:Generated_Source\PSoC4/capsense_ADC_Control.c **** *  method only when Auto-tuning mode is enabled.
 739:Generated_Source\PSoC4/capsense_ADC_Control.c **** *  \endif
 740:Generated_Source\PSoC4/capsense_ADC_Control.c **** *
 741:Generated_Source\PSoC4/capsense_ADC_Control.c **** *  The pipeline scan method (i.e. during scanning of a sensor, processing
 742:Generated_Source\PSoC4/capsense_ADC_Control.c **** *  of a previously scanned sensor is performed) can be implemented using this
 743:Generated_Source\PSoC4/capsense_ADC_Control.c **** *  function and it may reduce the total scan/process time, increase the refresh
 744:Generated_Source\PSoC4/capsense_ADC_Control.c **** *  rate and decrease the power consumption.
 745:Generated_Source\PSoC4/capsense_ADC_Control.c **** *
 746:Generated_Source\PSoC4/capsense_ADC_Control.c **** *  If the Self-test library is enabled, this function executes the baseline duplication
 747:Generated_Source\PSoC4/capsense_ADC_Control.c **** *  test. Refer to capsense_ADC_CheckBaselineDuplication() for details.
 748:Generated_Source\PSoC4/capsense_ADC_Control.c **** *
 749:Generated_Source\PSoC4/capsense_ADC_Control.c **** * \param widgetId
 750:Generated_Source\PSoC4/capsense_ADC_Control.c **** *  Specifies the ID number of the widget to process one of its sensors.
 751:Generated_Source\PSoC4/capsense_ADC_Control.c **** *  A macro for the widget ID can be found in the
 752:Generated_Source\PSoC4/capsense_ADC_Control.c **** *  capsense_ADC Configuration header file defined as
 753:Generated_Source\PSoC4/capsense_ADC_Control.c **** *  capsense_ADC_<WidgetName>_WDGT_ID.
 754:Generated_Source\PSoC4/capsense_ADC_Control.c **** *
 755:Generated_Source\PSoC4/capsense_ADC_Control.c **** * \param sensorId
 756:Generated_Source\PSoC4/capsense_ADC_Control.c **** *  Specifies the ID number of the sensor within the widget to process it.
 757:Generated_Source\PSoC4/capsense_ADC_Control.c **** *  A macro for the sensor ID within a specified widget can be found in the
 758:Generated_Source\PSoC4/capsense_ADC_Control.c **** *  capsense_ADC Configuration header file defined as
 759:Generated_Source\PSoC4/capsense_ADC_Control.c **** *  capsense_ADC_<WidgetName>_SNS<SensorNumber>_ID.
 760:Generated_Source\PSoC4/capsense_ADC_Control.c **** *
 761:Generated_Source\PSoC4/capsense_ADC_Control.c **** * \param mode
 762:Generated_Source\PSoC4/capsense_ADC_Control.c **** *  Specifies the type of the sensor processing that needs to be executed for the
 763:Generated_Source\PSoC4/capsense_ADC_Control.c **** *  specified sensor:
 764:Generated_Source\PSoC4/capsense_ADC_Control.c **** *    1. Bits [31..5] - Reserved.
 765:Generated_Source\PSoC4/capsense_ADC_Control.c **** *    2. Bits [4..0] - capsense_ADC_PROCESS_ALL - Executes all the tasks.
 766:Generated_Source\PSoC4/capsense_ADC_Control.c **** *    \if SECTION_C_LOW_LEVEL
 767:Generated_Source\PSoC4/capsense_ADC_Control.c **** *    3. Bit [4] - capsense_ADC_PROCESS_THRESHOLDS - Updates the thresholds (only
 768:Generated_Source\PSoC4/capsense_ADC_Control.c **** *       in auto-tuning mode).
 769:Generated_Source\PSoC4/capsense_ADC_Control.c **** *    4. Bit [3] - capsense_ADC_PROCESS_CALC_NOISE - Calculates the noise (only
 770:Generated_Source\PSoC4/capsense_ADC_Control.c **** *       in auto-tuning mode).
ARM GAS  C:\Users\ASUS\AppData\Local\Temp\ccgv2I1u.s 			page 24


 771:Generated_Source\PSoC4/capsense_ADC_Control.c **** *    \endif
 772:Generated_Source\PSoC4/capsense_ADC_Control.c **** *    5. Bit [2] - capsense_ADC_PROCESS_DIFFCOUNTS - Updates the difference count.
 773:Generated_Source\PSoC4/capsense_ADC_Control.c **** *    6. Bit [1] - capsense_ADC_PROCESS_BASELINE - Updates the baseline.
 774:Generated_Source\PSoC4/capsense_ADC_Control.c **** *    7. Bit [0] - capsense_ADC_PROCESS_FILTER - Runs the firmware filters.
 775:Generated_Source\PSoC4/capsense_ADC_Control.c **** *
 776:Generated_Source\PSoC4/capsense_ADC_Control.c **** * \return
 777:Generated_Source\PSoC4/capsense_ADC_Control.c **** *  Returns the status of the sensor process operation:
 778:Generated_Source\PSoC4/capsense_ADC_Control.c **** *  - CYRET_SUCCESS - The processing is successfully performed.
 779:Generated_Source\PSoC4/capsense_ADC_Control.c **** *  - CYRET_BAD_PARAM - The input parameter is invalid.
 780:Generated_Source\PSoC4/capsense_ADC_Control.c **** *  - CYRET_BAD_DATA - The processing is failed.
 781:Generated_Source\PSoC4/capsense_ADC_Control.c **** *
 782:Generated_Source\PSoC4/capsense_ADC_Control.c **** *******************************************************************************/
 783:Generated_Source\PSoC4/capsense_ADC_Control.c **** cystatus capsense_ADC_ProcessSensorExt(uint32 widgetId, uint32 sensorId, uint32 mode)
 784:Generated_Source\PSoC4/capsense_ADC_Control.c **** {
 519              		.loc 1 784 0
 520              		.cfi_startproc
 521              		@ args = 0, pretend = 0, frame = 0
 522              		@ frame_needed = 0, uses_anonymous_args = 0
 523              	.LVL68:
 524 0000 10B5     		push	{r4, lr}
 525              		.cfi_def_cfa_offset 8
 526              		.cfi_offset 4, -8
 527              		.cfi_offset 14, -4
 528              	.LVL69:
 785:Generated_Source\PSoC4/capsense_ADC_Control.c ****     cystatus result = CYRET_BAD_PARAM;
 786:Generated_Source\PSoC4/capsense_ADC_Control.c ****     capsense_ADC_FLASH_WD_STRUCT const *ptrFlashWdgt;
 787:Generated_Source\PSoC4/capsense_ADC_Control.c ****     capsense_ADC_PTR_FILTER_VARIANT fltrHistV;
 788:Generated_Source\PSoC4/capsense_ADC_Control.c ****     capsense_ADC_RAM_SNS_STRUCT *ptrSnsTmp;
 789:Generated_Source\PSoC4/capsense_ADC_Control.c **** 
 790:Generated_Source\PSoC4/capsense_ADC_Control.c ****     if ((widgetId < capsense_ADC_TOTAL_WIDGETS) && (sensorId < capsense_ADC_GET_SENSOR_COUNT(widget
 529              		.loc 1 790 0
 530 0002 0328     		cmp	r0, #3
 531 0004 11D8     		bhi	.L46
 532              		.loc 1 790 0 is_stmt 0 discriminator 1
 533 0006 2C24     		movs	r4, #44
 534 0008 4443     		muls	r4, r0
 535 000a 0A4B     		ldr	r3, .L48
 536 000c 1C19     		adds	r4, r3, r4
 537 000e 238B     		ldrh	r3, [r4, #24]
 538 0010 8B42     		cmp	r3, r1
 539 0012 0CD9     		bls	.L47
 540              	.LVL70:
 791:Generated_Source\PSoC4/capsense_ADC_Control.c ****     {
 792:Generated_Source\PSoC4/capsense_ADC_Control.c ****         result = CYRET_SUCCESS;
 793:Generated_Source\PSoC4/capsense_ADC_Control.c **** 
 794:Generated_Source\PSoC4/capsense_ADC_Control.c ****         ptrFlashWdgt = &capsense_ADC_dsFlash.wdgtArray[widgetId];
 541              		.loc 1 794 0 is_stmt 1
 542 0014 2000     		movs	r0, r4
 543              	.LVL71:
 795:Generated_Source\PSoC4/capsense_ADC_Control.c ****         fltrHistV.ptr = ptrFlashWdgt->ptr2FltrHistory;
 796:Generated_Source\PSoC4/capsense_ADC_Control.c ****         ptrSnsTmp = ptrFlashWdgt->ptr2SnsRam;
 797:Generated_Source\PSoC4/capsense_ADC_Control.c ****         ptrSnsTmp += sensorId;
 544              		.loc 1 797 0
 545 0016 8B00     		lsls	r3, r1, #2
 546 0018 5918     		adds	r1, r3, r1
 547              	.LVL72:
 548 001a 4B00     		lsls	r3, r1, #1
ARM GAS  C:\Users\ASUS\AppData\Local\Temp\ccgv2I1u.s 			page 25


 549 001c A168     		ldr	r1, [r4, #8]
 550 001e C918     		adds	r1, r1, r3
 551              	.LVL73:
 798:Generated_Source\PSoC4/capsense_ADC_Control.c **** 
 799:Generated_Source\PSoC4/capsense_ADC_Control.c ****         switch(capsense_ADC_GET_SENSE_METHOD(ptrFlashWdgt))
 800:Generated_Source\PSoC4/capsense_ADC_Control.c ****         {
 801:Generated_Source\PSoC4/capsense_ADC_Control.c ****         #if (0u != capsense_ADC_TOTAL_CSD_WIDGETS)
 802:Generated_Source\PSoC4/capsense_ADC_Control.c ****             case capsense_ADC_SENSE_METHOD_CSD_E:
 803:Generated_Source\PSoC4/capsense_ADC_Control.c ****                 if (capsense_ADC_WD_PROXIMITY_E == (capsense_ADC_WD_TYPE_ENUM)ptrFlashWdgt->wdgtTyp
 804:Generated_Source\PSoC4/capsense_ADC_Control.c ****                 {
 805:Generated_Source\PSoC4/capsense_ADC_Control.c ****                     #if (0u != capsense_ADC_PROX_RC_ALP_FILTER_EN)
 806:Generated_Source\PSoC4/capsense_ADC_Control.c ****                         fltrHistV.ptr = &fltrHistV.ptrAlp[sensorId];
 807:Generated_Source\PSoC4/capsense_ADC_Control.c ****                     #elif (0u != capsense_ADC_PROX_RC_FILTER_EN)
 808:Generated_Source\PSoC4/capsense_ADC_Control.c ****                         fltrHistV.ptr = &fltrHistV.ptrProx[sensorId];
 809:Generated_Source\PSoC4/capsense_ADC_Control.c ****                     #endif
 810:Generated_Source\PSoC4/capsense_ADC_Control.c ****                 }
 811:Generated_Source\PSoC4/capsense_ADC_Control.c ****                 else
 812:Generated_Source\PSoC4/capsense_ADC_Control.c ****                 {
 813:Generated_Source\PSoC4/capsense_ADC_Control.c ****                     #if (0u != capsense_ADC_REGULAR_RC_ALP_FILTER_EN)
 814:Generated_Source\PSoC4/capsense_ADC_Control.c ****                         fltrHistV.ptr = &fltrHistV.ptrAlp[sensorId];
 815:Generated_Source\PSoC4/capsense_ADC_Control.c ****                     #elif (0u != capsense_ADC_REGULAR_RC_FILTER_EN)
 816:Generated_Source\PSoC4/capsense_ADC_Control.c ****                         fltrHistV.ptr = &fltrHistV.ptrRegular[sensorId];
 817:Generated_Source\PSoC4/capsense_ADC_Control.c ****                     #endif
 818:Generated_Source\PSoC4/capsense_ADC_Control.c ****                 }
 819:Generated_Source\PSoC4/capsense_ADC_Control.c **** 
 820:Generated_Source\PSoC4/capsense_ADC_Control.c ****                 result = capsense_ADC_DpProcessCsdSensorRawCountsExt(ptrFlashWdgt, ptrSnsTmp, fltrH
 552              		.loc 1 820 0
 553 0020 1300     		movs	r3, r2
 554 0022 E268     		ldr	r2, [r4, #12]
 555              	.LVL74:
 556 0024 FFF7FEFF 		bl	capsense_ADC_DpProcessCsdSensorRawCountsExt
 557              	.LVL75:
 821:Generated_Source\PSoC4/capsense_ADC_Control.c ****                 break;
 558              		.loc 1 821 0
 559 0028 02E0     		b	.L45
 560              	.LVL76:
 561              	.L46:
 785:Generated_Source\PSoC4/capsense_ADC_Control.c ****     capsense_ADC_FLASH_WD_STRUCT const *ptrFlashWdgt;
 562              		.loc 1 785 0
 563 002a 0120     		movs	r0, #1
 564              	.LVL77:
 565 002c 00E0     		b	.L45
 566              	.LVL78:
 567              	.L47:
 568 002e 0120     		movs	r0, #1
 569              	.LVL79:
 570              	.L45:
 822:Generated_Source\PSoC4/capsense_ADC_Control.c ****         #endif /* #if (0u != capsense_ADC_TOTAL_CSD_WIDGETS) */
 823:Generated_Source\PSoC4/capsense_ADC_Control.c **** 
 824:Generated_Source\PSoC4/capsense_ADC_Control.c ****         #if (0u != capsense_ADC_TOTAL_CSX_WIDGETS)
 825:Generated_Source\PSoC4/capsense_ADC_Control.c ****             case capsense_ADC_SENSE_METHOD_CSX_E:
 826:Generated_Source\PSoC4/capsense_ADC_Control.c ****                 #if (0u != capsense_ADC_REGULAR_RC_ALP_FILTER_EN)
 827:Generated_Source\PSoC4/capsense_ADC_Control.c ****                     fltrHistV.ptr = &fltrHistV.ptrAlp[sensorId];
 828:Generated_Source\PSoC4/capsense_ADC_Control.c ****                 #elif (0u != capsense_ADC_REGULAR_RC_FILTER_EN)
 829:Generated_Source\PSoC4/capsense_ADC_Control.c ****                     fltrHistV.ptr = &fltrHistV.ptrRegular[sensorId];
 830:Generated_Source\PSoC4/capsense_ADC_Control.c ****                 #endif
 831:Generated_Source\PSoC4/capsense_ADC_Control.c **** 
ARM GAS  C:\Users\ASUS\AppData\Local\Temp\ccgv2I1u.s 			page 26


 832:Generated_Source\PSoC4/capsense_ADC_Control.c ****                 result = capsense_ADC_DpProcessCsxSensorRawCountsExt(ptrFlashWdgt, ptrSnsTmp, fltrH
 833:Generated_Source\PSoC4/capsense_ADC_Control.c ****                 break;
 834:Generated_Source\PSoC4/capsense_ADC_Control.c ****         #endif /* #if (0u != capsense_ADC_TOTAL_CSX_WIDGETS) */
 835:Generated_Source\PSoC4/capsense_ADC_Control.c **** 
 836:Generated_Source\PSoC4/capsense_ADC_Control.c ****         #if (0u != capsense_ADC_TOTAL_ISX_WIDGETS)
 837:Generated_Source\PSoC4/capsense_ADC_Control.c ****             case capsense_ADC_SENSE_METHOD_ISX_E:
 838:Generated_Source\PSoC4/capsense_ADC_Control.c ****                 if (capsense_ADC_WD_PROXIMITY_E == (capsense_ADC_WD_TYPE_ENUM)ptrFlashWdgt->wdgtTyp
 839:Generated_Source\PSoC4/capsense_ADC_Control.c ****                 {
 840:Generated_Source\PSoC4/capsense_ADC_Control.c ****                     #if (0u != capsense_ADC_PROX_RC_FILTER_EN)
 841:Generated_Source\PSoC4/capsense_ADC_Control.c ****                         fltrHistV.ptr = &fltrHistV.ptrProx[sensorId];
 842:Generated_Source\PSoC4/capsense_ADC_Control.c ****                     #endif /* #if (0u != capsense_ADC_PROX_RC_FILTER_EN) */
 843:Generated_Source\PSoC4/capsense_ADC_Control.c ****                 }
 844:Generated_Source\PSoC4/capsense_ADC_Control.c ****                 else
 845:Generated_Source\PSoC4/capsense_ADC_Control.c ****                 {
 846:Generated_Source\PSoC4/capsense_ADC_Control.c ****                     #if (0u != capsense_ADC_REGULAR_RC_FILTER_EN)
 847:Generated_Source\PSoC4/capsense_ADC_Control.c ****                         fltrHistV.ptr = &fltrHistV.ptrRegular[sensorId];
 848:Generated_Source\PSoC4/capsense_ADC_Control.c ****                     #endif /* #if (0u != capsense_ADC_REGULAR_RC_FILTER_EN) */
 849:Generated_Source\PSoC4/capsense_ADC_Control.c ****                 }
 850:Generated_Source\PSoC4/capsense_ADC_Control.c **** 
 851:Generated_Source\PSoC4/capsense_ADC_Control.c ****                 result = capsense_ADC_DpProcessIsxSensorRawCountsExt(ptrFlashWdgt, ptrSnsTmp, fltrH
 852:Generated_Source\PSoC4/capsense_ADC_Control.c ****                 break;
 853:Generated_Source\PSoC4/capsense_ADC_Control.c ****         #endif /* #if (0u != capsense_ADC_TOTAL_ISX_WIDGETS) */
 854:Generated_Source\PSoC4/capsense_ADC_Control.c **** 
 855:Generated_Source\PSoC4/capsense_ADC_Control.c ****         default:
 856:Generated_Source\PSoC4/capsense_ADC_Control.c ****             CYASSERT(0u);
 857:Generated_Source\PSoC4/capsense_ADC_Control.c ****             break;
 858:Generated_Source\PSoC4/capsense_ADC_Control.c ****         }
 859:Generated_Source\PSoC4/capsense_ADC_Control.c **** 
 860:Generated_Source\PSoC4/capsense_ADC_Control.c ****         #if (capsense_ADC_ENABLE == capsense_ADC_TST_BSLN_DUPLICATION_EN)
 861:Generated_Source\PSoC4/capsense_ADC_Control.c ****             if (CYRET_SUCCESS != result)
 862:Generated_Source\PSoC4/capsense_ADC_Control.c ****             {
 863:Generated_Source\PSoC4/capsense_ADC_Control.c ****                 capsense_ADC_UpdateTestResultBaselineDuplication(widgetId, sensorId);
 864:Generated_Source\PSoC4/capsense_ADC_Control.c ****                 result = CYRET_BAD_DATA;
 865:Generated_Source\PSoC4/capsense_ADC_Control.c ****             }
 866:Generated_Source\PSoC4/capsense_ADC_Control.c ****         #endif /* (capsense_ADC_ENABLE == capsense_ADC_TST_BSLN_DUPLICATION_EN) */
 867:Generated_Source\PSoC4/capsense_ADC_Control.c **** 
 868:Generated_Source\PSoC4/capsense_ADC_Control.c ****     }
 869:Generated_Source\PSoC4/capsense_ADC_Control.c ****     return result;
 870:Generated_Source\PSoC4/capsense_ADC_Control.c **** }
 571              		.loc 1 870 0
 572              		@ sp needed
 573 0030 10BD     		pop	{r4, pc}
 574              	.L49:
 575 0032 C046     		.align	2
 576              	.L48:
 577 0034 00000000 		.word	capsense_ADC_dsFlash
 578              		.cfi_endproc
 579              	.LFE8:
 580              		.size	capsense_ADC_ProcessSensorExt, .-capsense_ADC_ProcessSensorExt
 581              		.section	.text.capsense_ADC_Sleep,"ax",%progbits
 582              		.align	2
 583              		.global	capsense_ADC_Sleep
 584              		.code	16
 585              		.thumb_func
 586              		.type	capsense_ADC_Sleep, %function
 587              	capsense_ADC_Sleep:
 588              	.LFB9:
ARM GAS  C:\Users\ASUS\AppData\Local\Temp\ccgv2I1u.s 			page 27


 871:Generated_Source\PSoC4/capsense_ADC_Control.c **** 
 872:Generated_Source\PSoC4/capsense_ADC_Control.c **** /*******************************************************************************
 873:Generated_Source\PSoC4/capsense_ADC_Control.c **** * Function Name: capsense_ADC_Sleep
 874:Generated_Source\PSoC4/capsense_ADC_Control.c **** ****************************************************************************//**
 875:Generated_Source\PSoC4/capsense_ADC_Control.c **** *
 876:Generated_Source\PSoC4/capsense_ADC_Control.c **** * \brief
 877:Generated_Source\PSoC4/capsense_ADC_Control.c **** *  Prepares the Component for deep sleep.
 878:Generated_Source\PSoC4/capsense_ADC_Control.c **** *
 879:Generated_Source\PSoC4/capsense_ADC_Control.c **** * \details
 880:Generated_Source\PSoC4/capsense_ADC_Control.c **** *  Currently this function is empty and exists as a place for future updates,
 881:Generated_Source\PSoC4/capsense_ADC_Control.c **** *  this function will be used to prepare the Component to enter deep sleep.
 882:Generated_Source\PSoC4/capsense_ADC_Control.c **** *
 883:Generated_Source\PSoC4/capsense_ADC_Control.c **** *******************************************************************************/
 884:Generated_Source\PSoC4/capsense_ADC_Control.c **** void capsense_ADC_Sleep(void)
 885:Generated_Source\PSoC4/capsense_ADC_Control.c **** {
 589              		.loc 1 885 0
 590              		.cfi_startproc
 591              		@ args = 0, pretend = 0, frame = 0
 592              		@ frame_needed = 0, uses_anonymous_args = 0
 593              		@ link register save eliminated.
 886:Generated_Source\PSoC4/capsense_ADC_Control.c **** }
 594              		.loc 1 886 0
 595              		@ sp needed
 596 0000 7047     		bx	lr
 597              		.cfi_endproc
 598              	.LFE9:
 599              		.size	capsense_ADC_Sleep, .-capsense_ADC_Sleep
 600 0002 C046     		.section	.text.capsense_ADC_Wakeup,"ax",%progbits
 601              		.align	2
 602              		.global	capsense_ADC_Wakeup
 603              		.code	16
 604              		.thumb_func
 605              		.type	capsense_ADC_Wakeup, %function
 606              	capsense_ADC_Wakeup:
 607              	.LFB10:
 887:Generated_Source\PSoC4/capsense_ADC_Control.c **** 
 888:Generated_Source\PSoC4/capsense_ADC_Control.c **** 
 889:Generated_Source\PSoC4/capsense_ADC_Control.c **** /*******************************************************************************
 890:Generated_Source\PSoC4/capsense_ADC_Control.c **** * Function Name: capsense_ADC_Wakeup
 891:Generated_Source\PSoC4/capsense_ADC_Control.c **** ****************************************************************************//**
 892:Generated_Source\PSoC4/capsense_ADC_Control.c **** *
 893:Generated_Source\PSoC4/capsense_ADC_Control.c **** * \brief
 894:Generated_Source\PSoC4/capsense_ADC_Control.c **** *  Resumes the Component after deep sleep power mode.
 895:Generated_Source\PSoC4/capsense_ADC_Control.c **** *
 896:Generated_Source\PSoC4/capsense_ADC_Control.c **** * \details
 897:Generated_Source\PSoC4/capsense_ADC_Control.c **** *  Resumes the Component after deep sleep power mode. This function is used to
 898:Generated_Source\PSoC4/capsense_ADC_Control.c **** *  resume the Component after exiting deep sleep.
 899:Generated_Source\PSoC4/capsense_ADC_Control.c **** *
 900:Generated_Source\PSoC4/capsense_ADC_Control.c **** *******************************************************************************/
 901:Generated_Source\PSoC4/capsense_ADC_Control.c **** void capsense_ADC_Wakeup(void)
 902:Generated_Source\PSoC4/capsense_ADC_Control.c **** {
 608              		.loc 1 902 0
 609              		.cfi_startproc
 610              		@ args = 0, pretend = 0, frame = 0
 611              		@ frame_needed = 0, uses_anonymous_args = 0
 612              		@ link register save eliminated.
 903:Generated_Source\PSoC4/capsense_ADC_Control.c ****     #if(capsense_ADC_ENABLE == capsense_ADC_CSDV2)
ARM GAS  C:\Users\ASUS\AppData\Local\Temp\ccgv2I1u.s 			page 28


 904:Generated_Source\PSoC4/capsense_ADC_Control.c ****         #if(capsense_ADC_BLOCK_ANALOG_WAKEUP_DELAY_US > 0uL)
 905:Generated_Source\PSoC4/capsense_ADC_Control.c ****             CyDelayUs(capsense_ADC_BLOCK_ANALOG_WAKEUP_DELAY_US);
 906:Generated_Source\PSoC4/capsense_ADC_Control.c ****         #endif /* (capsense_ADC_BLOCK_ANALOG_WAKEUP_DELAY_US > 0uL) */
 907:Generated_Source\PSoC4/capsense_ADC_Control.c ****     #endif /* (capsense_ADC_ENABLE == capsense_ADC_CSDV2) */
 908:Generated_Source\PSoC4/capsense_ADC_Control.c **** }
 613              		.loc 1 908 0
 614              		@ sp needed
 615 0000 7047     		bx	lr
 616              		.cfi_endproc
 617              	.LFE10:
 618              		.size	capsense_ADC_Wakeup, .-capsense_ADC_Wakeup
 619 0002 C046     		.bss
 620              		.set	.LANCHOR0,. + 0
 621              		.type	capsense_ADC_InitVar, %object
 622              		.size	capsense_ADC_InitVar, 1
 623              	capsense_ADC_InitVar:
 624 0000 00       		.space	1
 625              		.text
 626              	.Letext0:
 627              		.file 2 "Generated_Source\\PSoC4\\cytypes.h"
 628              		.file 3 "Generated_Source\\PSoC4\\capsense_ADC_Configuration.h"
 629              		.file 4 "Generated_Source\\PSoC4\\capsense_ADC_SmartSense_LL.h"
 630              		.file 5 "Generated_Source\\PSoC4\\capsense_ADC_Structure.h"
 631              		.file 6 "Generated_Source\\PSoC4\\capsense_ADC_Tuner.h"
 632              		.file 7 "Generated_Source\\PSoC4\\capsense_ADC_Processing.h"
 633              		.file 8 "Generated_Source\\PSoC4\\capsense_ADC_Sensing.h"
 634              		.file 9 "Generated_Source\\PSoC4\\capsense_ADC_Filter.h"
 635              		.file 10 "Generated_Source\\PSoC4\\capsense_ADC_Adc.h"