ARM GAS  C:\Users\ASUS\AppData\Local\Temp\ccDHWSgt.s 			page 1


   1              		.syntax unified
   2              		.cpu cortex-m0plus
   3              		.fpu softvfp
   4              		.eabi_attribute 20, 1
   5              		.eabi_attribute 21, 1
   6              		.eabi_attribute 23, 3
   7              		.eabi_attribute 24, 1
   8              		.eabi_attribute 25, 1
   9              		.eabi_attribute 26, 1
  10              		.eabi_attribute 30, 1
  11              		.eabi_attribute 34, 0
  12              		.eabi_attribute 18, 4
  13              		.thumb
  14              		.syntax unified
  15              		.file	"capsense_ADC_Adc.c"
  16              		.text
  17              	.Ltext0:
  18              		.cfi_sections	.debug_frame
  19              		.section	.text.capsense_ADC_SetNonDedicatedAdcChannel,"ax",%progbits
  20              		.align	2
  21              		.global	capsense_ADC_SetNonDedicatedAdcChannel
  22              		.code	16
  23              		.thumb_func
  24              		.type	capsense_ADC_SetNonDedicatedAdcChannel, %function
  25              	capsense_ADC_SetNonDedicatedAdcChannel:
  26              	.LFB1:
  27              		.file 1 "Generated_Source\\PSoC4\\capsense_ADC_Adc.c"
   1:Generated_Source\PSoC4/capsense_ADC_Adc.c **** /***************************************************************************//**
   2:Generated_Source\PSoC4/capsense_ADC_Adc.c **** * \file capsense_ADC_Adc.c
   3:Generated_Source\PSoC4/capsense_ADC_Adc.c **** * \version 7.10
   4:Generated_Source\PSoC4/capsense_ADC_Adc.c **** *
   5:Generated_Source\PSoC4/capsense_ADC_Adc.c **** * \brief
   6:Generated_Source\PSoC4/capsense_ADC_Adc.c **** *   This file provides implementation for the ADC module of the capsense_ADC
   7:Generated_Source\PSoC4/capsense_ADC_Adc.c **** *   Component.
   8:Generated_Source\PSoC4/capsense_ADC_Adc.c **** *
   9:Generated_Source\PSoC4/capsense_ADC_Adc.c **** * \see capsense_ADC v7.10 Datasheet
  10:Generated_Source\PSoC4/capsense_ADC_Adc.c **** *
  11:Generated_Source\PSoC4/capsense_ADC_Adc.c **** *//*****************************************************************************
  12:Generated_Source\PSoC4/capsense_ADC_Adc.c **** * Copyright (2016-2019), Cypress Semiconductor Corporation.
  13:Generated_Source\PSoC4/capsense_ADC_Adc.c **** ********************************************************************************
  14:Generated_Source\PSoC4/capsense_ADC_Adc.c **** * This software is owned by Cypress Semiconductor Corporation (Cypress) and is
  15:Generated_Source\PSoC4/capsense_ADC_Adc.c **** * protected by and subject to worldwide patent protection (United States and
  16:Generated_Source\PSoC4/capsense_ADC_Adc.c **** * foreign), United States copyright laws and international treaty provisions.
  17:Generated_Source\PSoC4/capsense_ADC_Adc.c **** * Cypress hereby grants to licensee a personal, non-exclusive, non-transferable
  18:Generated_Source\PSoC4/capsense_ADC_Adc.c **** * license to copy, use, modify, create derivative works of, and compile the
  19:Generated_Source\PSoC4/capsense_ADC_Adc.c **** * Cypress Source Code and derivative works for the sole purpose of creating
  20:Generated_Source\PSoC4/capsense_ADC_Adc.c **** * custom software in support of licensee product to be used only in conjunction
  21:Generated_Source\PSoC4/capsense_ADC_Adc.c **** * with a Cypress integrated circuit as specified in the applicable agreement.
  22:Generated_Source\PSoC4/capsense_ADC_Adc.c **** * Any reproduction, modification, translation, compilation, or representation of
  23:Generated_Source\PSoC4/capsense_ADC_Adc.c **** * this software except as specified above is prohibited without the express
  24:Generated_Source\PSoC4/capsense_ADC_Adc.c **** * written permission of Cypress.
  25:Generated_Source\PSoC4/capsense_ADC_Adc.c **** *
  26:Generated_Source\PSoC4/capsense_ADC_Adc.c **** * Disclaimer: CYPRESS MAKES NO WARRANTY OF ANY KIND, EXPRESS OR IMPLIED, WITH
  27:Generated_Source\PSoC4/capsense_ADC_Adc.c **** * REGARD TO THIS MATERIAL, INCLUDING, BUT NOT LIMITED TO, THE IMPLIED
  28:Generated_Source\PSoC4/capsense_ADC_Adc.c **** * WARRANTIES OF MERCHANTABILITY AND FITNESS FOR A PARTICULAR PURPOSE.
  29:Generated_Source\PSoC4/capsense_ADC_Adc.c **** * Cypress reserves the right to make changes without further notice to the
  30:Generated_Source\PSoC4/capsense_ADC_Adc.c **** * materials described herein. Cypress does not assume any liability arising out
ARM GAS  C:\Users\ASUS\AppData\Local\Temp\ccDHWSgt.s 			page 2


  31:Generated_Source\PSoC4/capsense_ADC_Adc.c **** * of the application or use of any product or circuit described herein. Cypress
  32:Generated_Source\PSoC4/capsense_ADC_Adc.c **** * does not authorize its products for use as critical components in life-support
  33:Generated_Source\PSoC4/capsense_ADC_Adc.c **** * systems where a malfunction or failure may reasonably be expected to result in
  34:Generated_Source\PSoC4/capsense_ADC_Adc.c **** * significant injury to the user. The inclusion of Cypress' product in a life-
  35:Generated_Source\PSoC4/capsense_ADC_Adc.c **** * support systems application implies that the manufacturer assumes all risk of
  36:Generated_Source\PSoC4/capsense_ADC_Adc.c **** * such use and in doing so indemnifies Cypress against all charges. Use may be
  37:Generated_Source\PSoC4/capsense_ADC_Adc.c **** * limited by and subject to the applicable Cypress software license agreement.
  38:Generated_Source\PSoC4/capsense_ADC_Adc.c **** *******************************************************************************/
  39:Generated_Source\PSoC4/capsense_ADC_Adc.c **** #include <cytypes.h>
  40:Generated_Source\PSoC4/capsense_ADC_Adc.c **** #include "CyLib.h"
  41:Generated_Source\PSoC4/capsense_ADC_Adc.c **** #include "capsense_ADC_ISR.h"
  42:Generated_Source\PSoC4/capsense_ADC_Adc.c **** #include "capsense_ADC_Configuration.h"
  43:Generated_Source\PSoC4/capsense_ADC_Adc.c **** #include "capsense_ADC_Structure.h"
  44:Generated_Source\PSoC4/capsense_ADC_Adc.c **** #include "capsense_ADC_Adc.h"
  45:Generated_Source\PSoC4/capsense_ADC_Adc.c **** #include "capsense_ADC_Sensing.h"
  46:Generated_Source\PSoC4/capsense_ADC_Adc.c **** #if (capsense_ADC_ENABLE == capsense_ADC_SELF_TEST_EN)
  47:Generated_Source\PSoC4/capsense_ADC_Adc.c ****     #include "capsense_ADC_SelfTest.h"
  48:Generated_Source\PSoC4/capsense_ADC_Adc.c **** #endif
  49:Generated_Source\PSoC4/capsense_ADC_Adc.c **** 
  50:Generated_Source\PSoC4/capsense_ADC_Adc.c **** #if (capsense_ADC_ADC_EN)
  51:Generated_Source\PSoC4/capsense_ADC_Adc.c **** 
  52:Generated_Source\PSoC4/capsense_ADC_Adc.c **** static uint8 capsense_ADC_initVar;
  53:Generated_Source\PSoC4/capsense_ADC_Adc.c **** uint16 capsense_ADC_adcVrefMv = capsense_ADC_ADC_VREF_MV;
  54:Generated_Source\PSoC4/capsense_ADC_Adc.c **** 
  55:Generated_Source\PSoC4/capsense_ADC_Adc.c **** 
  56:Generated_Source\PSoC4/capsense_ADC_Adc.c **** /*******************************************************************************
  57:Generated_Source\PSoC4/capsense_ADC_Adc.c **** * Module local function declarations
  58:Generated_Source\PSoC4/capsense_ADC_Adc.c **** *******************************************************************************/
  59:Generated_Source\PSoC4/capsense_ADC_Adc.c **** /**
  60:Generated_Source\PSoC4/capsense_ADC_Adc.c **** * \cond SECTION_ADC_INTERNAL
  61:Generated_Source\PSoC4/capsense_ADC_Adc.c **** * \addtogroup group_adc_internal
  62:Generated_Source\PSoC4/capsense_ADC_Adc.c **** * \{
  63:Generated_Source\PSoC4/capsense_ADC_Adc.c **** */
  64:Generated_Source\PSoC4/capsense_ADC_Adc.c **** 
  65:Generated_Source\PSoC4/capsense_ADC_Adc.c **** void capsense_ADC_AdcSetModClkClockDivider(uint32 modClk);
  66:Generated_Source\PSoC4/capsense_ADC_Adc.c **** 
  67:Generated_Source\PSoC4/capsense_ADC_Adc.c **** /** \}
  68:Generated_Source\PSoC4/capsense_ADC_Adc.c **** * \endcond */
  69:Generated_Source\PSoC4/capsense_ADC_Adc.c **** 
  70:Generated_Source\PSoC4/capsense_ADC_Adc.c **** /*******************************************************************************
  71:Generated_Source\PSoC4/capsense_ADC_Adc.c **** * Local definition
  72:Generated_Source\PSoC4/capsense_ADC_Adc.c **** *******************************************************************************/
  73:Generated_Source\PSoC4/capsense_ADC_Adc.c **** #define capsense_ADC_AdcINIT_DONE                    (1u)
  74:Generated_Source\PSoC4/capsense_ADC_Adc.c **** #define capsense_ADC_AdcINIT_NEEDED                  (0u)
  75:Generated_Source\PSoC4/capsense_ADC_Adc.c **** #define capsense_ADC_AdcCAL_WATCHDOG_CYCLES_NUM      (0x0000FFFFLu)
  76:Generated_Source\PSoC4/capsense_ADC_Adc.c **** 
  77:Generated_Source\PSoC4/capsense_ADC_Adc.c **** #if (capsense_ADC_ENABLE == capsense_ADC_ADC_STANDALONE_EN)
  78:Generated_Source\PSoC4/capsense_ADC_Adc.c ****     /*******************************************************************************
  79:Generated_Source\PSoC4/capsense_ADC_Adc.c ****     * Function Name: capsense_ADC_Start
  80:Generated_Source\PSoC4/capsense_ADC_Adc.c ****     ****************************************************************************//**
  81:Generated_Source\PSoC4/capsense_ADC_Adc.c ****     * \cond SECTION_STANDALONE_ADC
  82:Generated_Source\PSoC4/capsense_ADC_Adc.c ****     * \brief
  83:Generated_Source\PSoC4/capsense_ADC_Adc.c ****     *   Configures the hardware and performs calibration.
  84:Generated_Source\PSoC4/capsense_ADC_Adc.c ****     *
  85:Generated_Source\PSoC4/capsense_ADC_Adc.c ****     * \details
  86:Generated_Source\PSoC4/capsense_ADC_Adc.c ****     *   Configures the hardware and performs calibration.
  87:Generated_Source\PSoC4/capsense_ADC_Adc.c ****     * \endcond
ARM GAS  C:\Users\ASUS\AppData\Local\Temp\ccDHWSgt.s 			page 3


  88:Generated_Source\PSoC4/capsense_ADC_Adc.c ****     *
  89:Generated_Source\PSoC4/capsense_ADC_Adc.c ****     *******************************************************************************/
  90:Generated_Source\PSoC4/capsense_ADC_Adc.c ****     void capsense_ADC_Start(void)
  91:Generated_Source\PSoC4/capsense_ADC_Adc.c ****     {
  92:Generated_Source\PSoC4/capsense_ADC_Adc.c ****         capsense_ADC_ClearAdcChannels();
  93:Generated_Source\PSoC4/capsense_ADC_Adc.c **** 
  94:Generated_Source\PSoC4/capsense_ADC_Adc.c ****         if (capsense_ADC_AdcINIT_DONE != capsense_ADC_initVar)
  95:Generated_Source\PSoC4/capsense_ADC_Adc.c ****         {
  96:Generated_Source\PSoC4/capsense_ADC_Adc.c ****             capsense_ADC_AdcDsInitialize();
  97:Generated_Source\PSoC4/capsense_ADC_Adc.c ****         }
  98:Generated_Source\PSoC4/capsense_ADC_Adc.c ****         capsense_ADC_ConfigAdcResources();
  99:Generated_Source\PSoC4/capsense_ADC_Adc.c ****         (void) capsense_ADC_AdcCalibrate();
 100:Generated_Source\PSoC4/capsense_ADC_Adc.c ****     }
 101:Generated_Source\PSoC4/capsense_ADC_Adc.c **** 
 102:Generated_Source\PSoC4/capsense_ADC_Adc.c ****     /*******************************************************************************
 103:Generated_Source\PSoC4/capsense_ADC_Adc.c ****     * Function Name: capsense_ADC_Sleep
 104:Generated_Source\PSoC4/capsense_ADC_Adc.c ****     ****************************************************************************//**
 105:Generated_Source\PSoC4/capsense_ADC_Adc.c ****     * \cond SECTION_STANDALONE_ADC
 106:Generated_Source\PSoC4/capsense_ADC_Adc.c ****     * \brief
 107:Generated_Source\PSoC4/capsense_ADC_Adc.c ****     *  Prepares the Component for deep sleep.
 108:Generated_Source\PSoC4/capsense_ADC_Adc.c ****     *
 109:Generated_Source\PSoC4/capsense_ADC_Adc.c ****     * \details
 110:Generated_Source\PSoC4/capsense_ADC_Adc.c ****     *  Currently this function is empty and exists as a place for future updates,
 111:Generated_Source\PSoC4/capsense_ADC_Adc.c ****     *  this function will be used to prepare the Component to enter deep sleep.
 112:Generated_Source\PSoC4/capsense_ADC_Adc.c ****     * \endcond
 113:Generated_Source\PSoC4/capsense_ADC_Adc.c ****     *
 114:Generated_Source\PSoC4/capsense_ADC_Adc.c ****     *******************************************************************************/
 115:Generated_Source\PSoC4/capsense_ADC_Adc.c ****     void capsense_ADC_Sleep(void)
 116:Generated_Source\PSoC4/capsense_ADC_Adc.c ****     {
 117:Generated_Source\PSoC4/capsense_ADC_Adc.c ****     }
 118:Generated_Source\PSoC4/capsense_ADC_Adc.c **** 
 119:Generated_Source\PSoC4/capsense_ADC_Adc.c **** 
 120:Generated_Source\PSoC4/capsense_ADC_Adc.c ****     /*******************************************************************************
 121:Generated_Source\PSoC4/capsense_ADC_Adc.c ****     * Function Name: capsense_ADC_Wakeup
 122:Generated_Source\PSoC4/capsense_ADC_Adc.c ****     ****************************************************************************//**
 123:Generated_Source\PSoC4/capsense_ADC_Adc.c ****     * \cond SECTION_STANDALONE_ADC
 124:Generated_Source\PSoC4/capsense_ADC_Adc.c ****     * \brief
 125:Generated_Source\PSoC4/capsense_ADC_Adc.c ****     *  This function resumes the Component after sleep.
 126:Generated_Source\PSoC4/capsense_ADC_Adc.c ****     *
 127:Generated_Source\PSoC4/capsense_ADC_Adc.c ****     * \details
 128:Generated_Source\PSoC4/capsense_ADC_Adc.c ****     *  Currently this function is empty and exists as a place for future updates,
 129:Generated_Source\PSoC4/capsense_ADC_Adc.c ****     *  this function will be used to resume the Component after exiting deep sleep.
 130:Generated_Source\PSoC4/capsense_ADC_Adc.c ****     * \endcond
 131:Generated_Source\PSoC4/capsense_ADC_Adc.c ****     *
 132:Generated_Source\PSoC4/capsense_ADC_Adc.c ****     *******************************************************************************/
 133:Generated_Source\PSoC4/capsense_ADC_Adc.c ****     void capsense_ADC_Wakeup(void)
 134:Generated_Source\PSoC4/capsense_ADC_Adc.c ****     {
 135:Generated_Source\PSoC4/capsense_ADC_Adc.c ****     }
 136:Generated_Source\PSoC4/capsense_ADC_Adc.c **** #endif  /* (capsense_ADC_ENABLE != capsense_ADC_ADC_STANDALONE_EN) */
 137:Generated_Source\PSoC4/capsense_ADC_Adc.c **** 
 138:Generated_Source\PSoC4/capsense_ADC_Adc.c **** /*******************************************************************************
 139:Generated_Source\PSoC4/capsense_ADC_Adc.c **** * Function Name: capsense_ADC_SetNonDedicatedAdcChannel
 140:Generated_Source\PSoC4/capsense_ADC_Adc.c **** ****************************************************************************//**
 141:Generated_Source\PSoC4/capsense_ADC_Adc.c **** *
 142:Generated_Source\PSoC4/capsense_ADC_Adc.c **** * \brief
 143:Generated_Source\PSoC4/capsense_ADC_Adc.c **** *   Sets the non dedicated channel to the given state.
 144:Generated_Source\PSoC4/capsense_ADC_Adc.c **** *
ARM GAS  C:\Users\ASUS\AppData\Local\Temp\ccDHWSgt.s 			page 4


 145:Generated_Source\PSoC4/capsense_ADC_Adc.c **** * \details
 146:Generated_Source\PSoC4/capsense_ADC_Adc.c **** *   Connects/disconnects the pin and the analog muxbus B. Sets the drive mode
 147:Generated_Source\PSoC4/capsense_ADC_Adc.c **** *   of the pin as well.
 148:Generated_Source\PSoC4/capsense_ADC_Adc.c **** *
 149:Generated_Source\PSoC4/capsense_ADC_Adc.c **** * \param chId  The ID of the non dedicated channel to be set.
 150:Generated_Source\PSoC4/capsense_ADC_Adc.c **** * \param state The state in which the channel is to be put:
 151:Generated_Source\PSoC4/capsense_ADC_Adc.c **** *         - (0) capsense_ADC_AdcCHAN_DISCONNECT
 152:Generated_Source\PSoC4/capsense_ADC_Adc.c **** *         - (1) capsense_ADC_AdcCHAN_CONNECT
 153:Generated_Source\PSoC4/capsense_ADC_Adc.c **** *
 154:Generated_Source\PSoC4/capsense_ADC_Adc.c **** *******************************************************************************/
 155:Generated_Source\PSoC4/capsense_ADC_Adc.c **** void capsense_ADC_SetNonDedicatedAdcChannel(uint8 chId, uint32 state)
 156:Generated_Source\PSoC4/capsense_ADC_Adc.c **** {
  28              		.loc 1 156 0
  29              		.cfi_startproc
  30              		@ args = 0, pretend = 0, frame = 0
  31              		@ frame_needed = 0, uses_anonymous_args = 0
  32              	.LVL0:
  33 0000 F8B5     		push	{r3, r4, r5, r6, r7, lr}
  34              		.cfi_def_cfa_offset 24
  35              		.cfi_offset 3, -24
  36              		.cfi_offset 4, -20
  37              		.cfi_offset 5, -16
  38              		.cfi_offset 6, -12
  39              		.cfi_offset 7, -8
  40              		.cfi_offset 14, -4
  41 0002 4F46     		mov	r7, r9
  42 0004 4646     		mov	r6, r8
  43 0006 C0B4     		push	{r6, r7}
  44              		.cfi_def_cfa_offset 32
  45              		.cfi_offset 8, -32
  46              		.cfi_offset 9, -28
  47 0008 0400     		movs	r4, r0
  48 000a 8846     		mov	r8, r1
  49              	.LVL1:
 157:Generated_Source\PSoC4/capsense_ADC_Adc.c ****     capsense_ADC_FLASH_IO_STRUCT const *ptr2adcIO;
 158:Generated_Source\PSoC4/capsense_ADC_Adc.c ****     uint32 newRegisterValue;
 159:Generated_Source\PSoC4/capsense_ADC_Adc.c ****     uint8  interruptState;
 160:Generated_Source\PSoC4/capsense_ADC_Adc.c ****     uint32 pinHSIOMShift;
 161:Generated_Source\PSoC4/capsense_ADC_Adc.c ****     uint32 pinModeShift;
 162:Generated_Source\PSoC4/capsense_ADC_Adc.c ****     uint32 tmpVal;
 163:Generated_Source\PSoC4/capsense_ADC_Adc.c **** 
 164:Generated_Source\PSoC4/capsense_ADC_Adc.c ****     ptr2adcIO = &capsense_ADC_adcIoList[chId];
 165:Generated_Source\PSoC4/capsense_ADC_Adc.c ****     pinHSIOMShift = (uint32)ptr2adcIO->hsiomShift;
  50              		.loc 1 165 0
  51 000c 2F49     		ldr	r1, .L8
  52              	.LVL2:
  53 000e C300     		lsls	r3, r0, #3
  54 0010 181A     		subs	r0, r3, r0
  55              	.LVL3:
  56 0012 8200     		lsls	r2, r0, #2
  57 0014 1000     		movs	r0, r2
  58 0016 8A18     		adds	r2, r1, r2
  59 0018 177E     		ldrb	r7, [r2, #24]
  60              	.LVL4:
 166:Generated_Source\PSoC4/capsense_ADC_Adc.c ****     pinModeShift = (uint32)ptr2adcIO->shift;
  61              		.loc 1 166 0
  62 001a 967E     		ldrb	r6, [r2, #26]
ARM GAS  C:\Users\ASUS\AppData\Local\Temp\ccDHWSgt.s 			page 5


  63              	.LVL5:
 167:Generated_Source\PSoC4/capsense_ADC_Adc.c **** 
 168:Generated_Source\PSoC4/capsense_ADC_Adc.c ****     /* Clear port connections. */
 169:Generated_Source\PSoC4/capsense_ADC_Adc.c ****     tmpVal = CY_GET_REG32(ptr2adcIO->hsiomPtr);
  64              		.loc 1 169 0
  65 001c 4558     		ldr	r5, [r0, r1]
  66 001e 2A68     		ldr	r2, [r5]
  67              	.LVL6:
 170:Generated_Source\PSoC4/capsense_ADC_Adc.c ****     tmpVal &= ~(capsense_ADC_HSIOM_SEL_MASK << pinHSIOMShift);
  68              		.loc 1 170 0
  69 0020 0F23     		movs	r3, #15
  70 0022 BB40     		lsls	r3, r3, r7
  71 0024 9A43     		bics	r2, r3
  72              	.LVL7:
  73 0026 9146     		mov	r9, r2
  74              	.LVL8:
 171:Generated_Source\PSoC4/capsense_ADC_Adc.c **** 
 172:Generated_Source\PSoC4/capsense_ADC_Adc.c ****     interruptState = CyEnterCriticalSection();
  75              		.loc 1 172 0
  76 0028 FFF7FEFF 		bl	CyEnterCriticalSection
  77              	.LVL9:
 173:Generated_Source\PSoC4/capsense_ADC_Adc.c **** 
 174:Generated_Source\PSoC4/capsense_ADC_Adc.c ****     switch (state)
  78              		.loc 1 174 0
  79 002c 4346     		mov	r3, r8
  80 002e 012B     		cmp	r3, #1
  81 0030 21D1     		bne	.L7
 175:Generated_Source\PSoC4/capsense_ADC_Adc.c ****     {
 176:Generated_Source\PSoC4/capsense_ADC_Adc.c ****     case capsense_ADC_AdcCHAN_CONNECT:
 177:Generated_Source\PSoC4/capsense_ADC_Adc.c ****         /* Connect AMuxBusB to the selected port */
 178:Generated_Source\PSoC4/capsense_ADC_Adc.c ****         CY_SET_REG32(ptr2adcIO->hsiomPtr, (tmpVal | (capsense_ADC_HSIOM_SEL_AMUXB << pinHSIOMShift)
  82              		.loc 1 178 0
  83 0032 0722     		movs	r2, #7
  84 0034 1300     		movs	r3, r2
  85 0036 BB40     		lsls	r3, r3, r7
  86 0038 4946     		mov	r1, r9
  87 003a 1943     		orrs	r1, r3
  88 003c 2960     		str	r1, [r5]
 179:Generated_Source\PSoC4/capsense_ADC_Adc.c ****         /* Update port configuration register (drive mode) to HiZ Analog */
 180:Generated_Source\PSoC4/capsense_ADC_Adc.c ****         newRegisterValue = CY_GET_REG32(ptr2adcIO->pcPtr);
  89              		.loc 1 180 0
  90 003e E100     		lsls	r1, r4, #3
  91 0040 091B     		subs	r1, r1, r4
  92 0042 8B00     		lsls	r3, r1, #2
  93 0044 2149     		ldr	r1, .L8
  94 0046 CB18     		adds	r3, r1, r3
  95 0048 5968     		ldr	r1, [r3, #4]
  96 004a 0B68     		ldr	r3, [r1]
  97              	.LVL10:
 181:Generated_Source\PSoC4/capsense_ADC_Adc.c ****         newRegisterValue &= ~(capsense_ADC_GPIO_PC_MASK << pinModeShift);
  98              		.loc 1 181 0
  99 004c B240     		lsls	r2, r2, r6
 100 004e 9343     		bics	r3, r2
 101              	.LVL11:
 102 0050 1A00     		movs	r2, r3
 103              	.LVL12:
 182:Generated_Source\PSoC4/capsense_ADC_Adc.c ****         newRegisterValue |= (capsense_ADC_AdcGPIO_PC_INPUT << pinModeShift);
ARM GAS  C:\Users\ASUS\AppData\Local\Temp\ccDHWSgt.s 			page 6


 104              		.loc 1 182 0
 105 0052 0123     		movs	r3, #1
 106 0054 B340     		lsls	r3, r3, r6
 107 0056 1343     		orrs	r3, r2
 108              	.LVL13:
 183:Generated_Source\PSoC4/capsense_ADC_Adc.c ****         CY_SET_REG32(ptr2adcIO->pcPtr, newRegisterValue);
 109              		.loc 1 183 0
 110 0058 0B60     		str	r3, [r1]
 184:Generated_Source\PSoC4/capsense_ADC_Adc.c **** 
 185:Generated_Source\PSoC4/capsense_ADC_Adc.c ****         /* Cmod and Ctank are not typical GPIO, require CSD setting. */
 186:Generated_Source\PSoC4/capsense_ADC_Adc.c ****         if (0u != ((uint32)(ptr2adcIO->hsiomPtr) & capsense_ADC_AdcSW_CMOD_PORT_MASK))
 111              		.loc 1 186 0
 112 005a 6B05     		lsls	r3, r5, #21
 113 005c 21D5     		bpl	.L4
 114              	.LVL14:
 187:Generated_Source\PSoC4/capsense_ADC_Adc.c ****         {
 188:Generated_Source\PSoC4/capsense_ADC_Adc.c ****             if (capsense_ADC_AdcSW_CTANK_PINSHIFT == pinModeShift)
 115              		.loc 1 188 0
 116 005e 092E     		cmp	r6, #9
 117 0060 03D1     		bne	.L5
 189:Generated_Source\PSoC4/capsense_ADC_Adc.c ****             {
 190:Generated_Source\PSoC4/capsense_ADC_Adc.c ****                 CY_SET_REG32(capsense_ADC_SW_DSI_SEL_PTR, capsense_ADC_SW_DSI_CTANK);
 118              		.loc 1 190 0
 119 0062 0122     		movs	r2, #1
 120 0064 1A4B     		ldr	r3, .L8+4
 121 0066 1A60     		str	r2, [r3]
 122              	.LVL15:
 123 0068 1BE0     		b	.L4
 124              	.LVL16:
 125              	.L5:
 191:Generated_Source\PSoC4/capsense_ADC_Adc.c ****             }
 192:Generated_Source\PSoC4/capsense_ADC_Adc.c ****             else if (capsense_ADC_AdcSW_CMOD_PINSHIFT == pinModeShift)
 126              		.loc 1 192 0
 127 006a 062E     		cmp	r6, #6
 128 006c 19D1     		bne	.L4
 193:Generated_Source\PSoC4/capsense_ADC_Adc.c ****             {
 194:Generated_Source\PSoC4/capsense_ADC_Adc.c ****                 CY_SET_REG32(capsense_ADC_SW_DSI_SEL_PTR, capsense_ADC_SW_DSI_CMOD);
 129              		.loc 1 194 0
 130 006e 1022     		movs	r2, #16
 131 0070 174B     		ldr	r3, .L8+4
 132 0072 1A60     		str	r2, [r3]
 133              	.LVL17:
 134 0074 15E0     		b	.L4
 135              	.LVL18:
 136              	.L7:
 195:Generated_Source\PSoC4/capsense_ADC_Adc.c ****             }
 196:Generated_Source\PSoC4/capsense_ADC_Adc.c ****             else { /* No action */ }
 197:Generated_Source\PSoC4/capsense_ADC_Adc.c ****         }
 198:Generated_Source\PSoC4/capsense_ADC_Adc.c ****         break;
 199:Generated_Source\PSoC4/capsense_ADC_Adc.c **** 
 200:Generated_Source\PSoC4/capsense_ADC_Adc.c ****     /* Disconnection is a safe default state. Fall-through is intentional. */
 201:Generated_Source\PSoC4/capsense_ADC_Adc.c ****     case capsense_ADC_AdcCHAN_DISCONNECT:
 202:Generated_Source\PSoC4/capsense_ADC_Adc.c ****     default:
 203:Generated_Source\PSoC4/capsense_ADC_Adc.c ****         /* Disconnec AMuxBusB from the selected port */
 204:Generated_Source\PSoC4/capsense_ADC_Adc.c ****         CY_SET_REG32(ptr2adcIO->hsiomPtr, tmpVal);
 137              		.loc 1 204 0
 138 0076 4B46     		mov	r3, r9
ARM GAS  C:\Users\ASUS\AppData\Local\Temp\ccDHWSgt.s 			page 7


 139              	.LVL19:
 140 0078 2B60     		str	r3, [r5]
 205:Generated_Source\PSoC4/capsense_ADC_Adc.c **** 
 206:Generated_Source\PSoC4/capsense_ADC_Adc.c ****         /* Update port configuration register (drive mode) to HiZ input/output by clearing PC */
 207:Generated_Source\PSoC4/capsense_ADC_Adc.c ****         newRegisterValue = CY_GET_REG32(ptr2adcIO->pcPtr);
 141              		.loc 1 207 0
 142 007a E200     		lsls	r2, r4, #3
 143 007c 121B     		subs	r2, r2, r4
 144 007e 9300     		lsls	r3, r2, #2
 145 0080 124A     		ldr	r2, .L8
 146 0082 D318     		adds	r3, r2, r3
 147 0084 5968     		ldr	r1, [r3, #4]
 148 0086 0B68     		ldr	r3, [r1]
 149              	.LVL20:
 208:Generated_Source\PSoC4/capsense_ADC_Adc.c ****         newRegisterValue &= ~(capsense_ADC_GPIO_PC_MASK << pinModeShift);
 150              		.loc 1 208 0
 151 0088 0722     		movs	r2, #7
 152 008a B240     		lsls	r2, r2, r6
 153 008c 9343     		bics	r3, r2
 154              	.LVL21:
 209:Generated_Source\PSoC4/capsense_ADC_Adc.c ****         CY_SET_REG32(ptr2adcIO->pcPtr, newRegisterValue);
 155              		.loc 1 209 0
 156 008e 0B60     		str	r3, [r1]
 210:Generated_Source\PSoC4/capsense_ADC_Adc.c **** 
 211:Generated_Source\PSoC4/capsense_ADC_Adc.c ****         /* Cmod and Ctank are not typical GPIO, require CSD setting. */
 212:Generated_Source\PSoC4/capsense_ADC_Adc.c ****         if (0u != ((uint32)(ptr2adcIO->hsiomPtr) & capsense_ADC_AdcSW_CMOD_PORT_MASK))
 157              		.loc 1 212 0
 158 0090 6B05     		lsls	r3, r5, #21
 159 0092 06D5     		bpl	.L4
 160              	.LVL22:
 213:Generated_Source\PSoC4/capsense_ADC_Adc.c ****         {
 214:Generated_Source\PSoC4/capsense_ADC_Adc.c ****             if ((capsense_ADC_AdcSW_CTANK_PINSHIFT == pinModeShift) ||
 161              		.loc 1 214 0
 162 0094 092E     		cmp	r6, #9
 163 0096 01D0     		beq	.L6
 164              		.loc 1 214 0 is_stmt 0 discriminator 1
 165 0098 062E     		cmp	r6, #6
 166 009a 02D1     		bne	.L4
 167              	.L6:
 215:Generated_Source\PSoC4/capsense_ADC_Adc.c ****                 (capsense_ADC_AdcSW_CMOD_PINSHIFT == pinModeShift ))
 216:Generated_Source\PSoC4/capsense_ADC_Adc.c ****             {
 217:Generated_Source\PSoC4/capsense_ADC_Adc.c ****                 CY_SET_REG32(capsense_ADC_SW_DSI_SEL_PTR, 0u);
 168              		.loc 1 217 0 is_stmt 1
 169 009c 0022     		movs	r2, #0
 170 009e 0C4B     		ldr	r3, .L8+4
 171 00a0 1A60     		str	r2, [r3]
 172              	.LVL23:
 173              	.L4:
 218:Generated_Source\PSoC4/capsense_ADC_Adc.c ****             }
 219:Generated_Source\PSoC4/capsense_ADC_Adc.c ****         }
 220:Generated_Source\PSoC4/capsense_ADC_Adc.c ****         break;
 221:Generated_Source\PSoC4/capsense_ADC_Adc.c ****     }
 222:Generated_Source\PSoC4/capsense_ADC_Adc.c **** 
 223:Generated_Source\PSoC4/capsense_ADC_Adc.c ****     /* Set logic 0 to port data register */
 224:Generated_Source\PSoC4/capsense_ADC_Adc.c ****     tmpVal = CY_GET_REG32(ptr2adcIO->drPtr);
 174              		.loc 1 224 0
 175 00a2 0A4D     		ldr	r5, .L8
ARM GAS  C:\Users\ASUS\AppData\Local\Temp\ccDHWSgt.s 			page 8


 176 00a4 E300     		lsls	r3, r4, #3
 177 00a6 191B     		subs	r1, r3, r4
 178 00a8 8A00     		lsls	r2, r1, #2
 179 00aa AA18     		adds	r2, r5, r2
 180 00ac 9168     		ldr	r1, [r2, #8]
 181 00ae 0A68     		ldr	r2, [r1]
 182              	.LVL24:
 225:Generated_Source\PSoC4/capsense_ADC_Adc.c ****     tmpVal &= (uint32)~(uint32)((uint32)1u << ptr2adcIO->drShift);
 183              		.loc 1 225 0
 184 00b0 1C1B     		subs	r4, r3, r4
 185              	.LVL25:
 186 00b2 A300     		lsls	r3, r4, #2
 187 00b4 EB18     		adds	r3, r5, r3
 188 00b6 5C7E     		ldrb	r4, [r3, #25]
 189 00b8 0123     		movs	r3, #1
 190 00ba A340     		lsls	r3, r3, r4
 191 00bc 9A43     		bics	r2, r3
 192              	.LVL26:
 226:Generated_Source\PSoC4/capsense_ADC_Adc.c ****     CY_SET_REG32(ptr2adcIO->drPtr, tmpVal);
 193              		.loc 1 226 0
 194 00be 0A60     		str	r2, [r1]
 227:Generated_Source\PSoC4/capsense_ADC_Adc.c ****     
 228:Generated_Source\PSoC4/capsense_ADC_Adc.c ****     CyExitCriticalSection(interruptState);
 195              		.loc 1 228 0
 196 00c0 FFF7FEFF 		bl	CyExitCriticalSection
 197              	.LVL27:
 229:Generated_Source\PSoC4/capsense_ADC_Adc.c **** }
 198              		.loc 1 229 0
 199              		@ sp needed
 200              	.LVL28:
 201              	.LVL29:
 202              	.LVL30:
 203 00c4 0CBC     		pop	{r2, r3}
 204 00c6 9046     		mov	r8, r2
 205 00c8 9946     		mov	r9, r3
 206 00ca F8BD     		pop	{r3, r4, r5, r6, r7, pc}
 207              	.L9:
 208              		.align	2
 209              	.L8:
 210 00cc 00000000 		.word	capsense_ADC_adcIoList
 211 00d0 C0020B40 		.word	1074463424
 212              		.cfi_endproc
 213              	.LFE1:
 214              		.size	capsense_ADC_SetNonDedicatedAdcChannel, .-capsense_ADC_SetNonDedicatedAdcChannel
 215              		.section	.text.capsense_ADC_SetAdcChannel,"ax",%progbits
 216              		.align	2
 217              		.global	capsense_ADC_SetAdcChannel
 218              		.code	16
 219              		.thumb_func
 220              		.type	capsense_ADC_SetAdcChannel, %function
 221              	capsense_ADC_SetAdcChannel:
 222              	.LFB2:
 230:Generated_Source\PSoC4/capsense_ADC_Adc.c **** 
 231:Generated_Source\PSoC4/capsense_ADC_Adc.c **** 
 232:Generated_Source\PSoC4/capsense_ADC_Adc.c **** /*******************************************************************************
 233:Generated_Source\PSoC4/capsense_ADC_Adc.c **** * Function Name: capsense_ADC_SetAdcChannel
 234:Generated_Source\PSoC4/capsense_ADC_Adc.c **** ****************************************************************************//**
ARM GAS  C:\Users\ASUS\AppData\Local\Temp\ccDHWSgt.s 			page 9


 235:Generated_Source\PSoC4/capsense_ADC_Adc.c **** *
 236:Generated_Source\PSoC4/capsense_ADC_Adc.c **** * \brief
 237:Generated_Source\PSoC4/capsense_ADC_Adc.c **** *   Sets the given channel to the given state.
 238:Generated_Source\PSoC4/capsense_ADC_Adc.c **** *
 239:Generated_Source\PSoC4/capsense_ADC_Adc.c **** * \details
 240:Generated_Source\PSoC4/capsense_ADC_Adc.c **** *   Connects/disconnects the pin and the analog muxbus B.  Sets the drive mode
 241:Generated_Source\PSoC4/capsense_ADC_Adc.c **** *   of the pin as well.
 242:Generated_Source\PSoC4/capsense_ADC_Adc.c **** *
 243:Generated_Source\PSoC4/capsense_ADC_Adc.c **** * \param chId  The ID of the channel to be set.
 244:Generated_Source\PSoC4/capsense_ADC_Adc.c **** * \param state The state in which the channel is to be put:
 245:Generated_Source\PSoC4/capsense_ADC_Adc.c **** *         - (0) capsense_ADC_AdcCHAN_DISCONNECT
 246:Generated_Source\PSoC4/capsense_ADC_Adc.c **** *         - (1) capsense_ADC_AdcCHAN_CONNECT
 247:Generated_Source\PSoC4/capsense_ADC_Adc.c **** *
 248:Generated_Source\PSoC4/capsense_ADC_Adc.c **** *******************************************************************************/
 249:Generated_Source\PSoC4/capsense_ADC_Adc.c **** void capsense_ADC_SetAdcChannel(uint8 chId, uint32 state)
 250:Generated_Source\PSoC4/capsense_ADC_Adc.c **** {
 223              		.loc 1 250 0
 224              		.cfi_startproc
 225              		@ args = 0, pretend = 0, frame = 0
 226              		@ frame_needed = 0, uses_anonymous_args = 0
 227              	.LVL31:
 228 0000 10B5     		push	{r4, lr}
 229              		.cfi_def_cfa_offset 8
 230              		.cfi_offset 4, -8
 231              		.cfi_offset 14, -4
 251:Generated_Source\PSoC4/capsense_ADC_Adc.c ****     #if (0u != capsense_ADC_ADC_AMUXB_INPUT_EN)
 252:Generated_Source\PSoC4/capsense_ADC_Adc.c ****         #if (capsense_ADC_ADC_MIN_CHANNELS < capsense_ADC_ADC_TOTAL_CHANNELS)
 253:Generated_Source\PSoC4/capsense_ADC_Adc.c ****             if(capsense_ADC_ADC_SELECT_AMUXB_CH != chId)
 254:Generated_Source\PSoC4/capsense_ADC_Adc.c ****             {
 255:Generated_Source\PSoC4/capsense_ADC_Adc.c ****                 capsense_ADC_SetNonDedicatedAdcChannel(chId, state);
 256:Generated_Source\PSoC4/capsense_ADC_Adc.c ****             }
 257:Generated_Source\PSoC4/capsense_ADC_Adc.c ****         #endif /* (0u != capsense_ADC_ADC_TOTAL_CHANNELS) */
 258:Generated_Source\PSoC4/capsense_ADC_Adc.c ****     #else
 259:Generated_Source\PSoC4/capsense_ADC_Adc.c ****         capsense_ADC_SetNonDedicatedAdcChannel(chId, state);
 232              		.loc 1 259 0
 233 0002 FFF7FEFF 		bl	capsense_ADC_SetNonDedicatedAdcChannel
 234              	.LVL32:
 260:Generated_Source\PSoC4/capsense_ADC_Adc.c ****     #endif /* (0u != capsense_ADC_ADC_AMUXB_INPUT_EN) */
 261:Generated_Source\PSoC4/capsense_ADC_Adc.c **** }
 235              		.loc 1 261 0
 236              		@ sp needed
 237 0006 10BD     		pop	{r4, pc}
 238              		.cfi_endproc
 239              	.LFE2:
 240              		.size	capsense_ADC_SetAdcChannel, .-capsense_ADC_SetAdcChannel
 241              		.section	.text.capsense_ADC_StartAdcFSM,"ax",%progbits
 242              		.align	2
 243              		.global	capsense_ADC_StartAdcFSM
 244              		.code	16
 245              		.thumb_func
 246              		.type	capsense_ADC_StartAdcFSM, %function
 247              	capsense_ADC_StartAdcFSM:
 248              	.LFB4:
 262:Generated_Source\PSoC4/capsense_ADC_Adc.c **** 
 263:Generated_Source\PSoC4/capsense_ADC_Adc.c **** 
 264:Generated_Source\PSoC4/capsense_ADC_Adc.c **** /*******************************************************************************
 265:Generated_Source\PSoC4/capsense_ADC_Adc.c **** * Function Name: capsense_ADC_ConfigAdcResources
ARM GAS  C:\Users\ASUS\AppData\Local\Temp\ccDHWSgt.s 			page 10


 266:Generated_Source\PSoC4/capsense_ADC_Adc.c **** ****************************************************************************//**
 267:Generated_Source\PSoC4/capsense_ADC_Adc.c **** *
 268:Generated_Source\PSoC4/capsense_ADC_Adc.c **** * \brief
 269:Generated_Source\PSoC4/capsense_ADC_Adc.c **** *   Configures the CSD block to be used as an ADC.
 270:Generated_Source\PSoC4/capsense_ADC_Adc.c **** *
 271:Generated_Source\PSoC4/capsense_ADC_Adc.c **** * \details
 272:Generated_Source\PSoC4/capsense_ADC_Adc.c **** *   Configures the IDACB, internal switches, REFGEN, HSCOMP, enables CSD
 273:Generated_Source\PSoC4/capsense_ADC_Adc.c **** *   block interrupt and set interrupt vector to ADC sensing method.
 274:Generated_Source\PSoC4/capsense_ADC_Adc.c **** *
 275:Generated_Source\PSoC4/capsense_ADC_Adc.c **** *******************************************************************************/
 276:Generated_Source\PSoC4/capsense_ADC_Adc.c **** void capsense_ADC_ConfigAdcResources(void)
 277:Generated_Source\PSoC4/capsense_ADC_Adc.c **** {
 278:Generated_Source\PSoC4/capsense_ADC_Adc.c ****     uint8  interruptState;
 279:Generated_Source\PSoC4/capsense_ADC_Adc.c ****     uint32 newRegValue;
 280:Generated_Source\PSoC4/capsense_ADC_Adc.c **** 
 281:Generated_Source\PSoC4/capsense_ADC_Adc.c ****     /* Configure clocks */
 282:Generated_Source\PSoC4/capsense_ADC_Adc.c ****     capsense_ADC_AdcSetModClkClockDivider(capsense_ADC_ADC_MODCLK_DIV_DEFAULT);
 283:Generated_Source\PSoC4/capsense_ADC_Adc.c ****     CY_SET_REG32(capsense_ADC_SENSE_PERIOD_PTR, (capsense_ADC_AdcSENSE_DIV_DEFAULT - 1uL));
 284:Generated_Source\PSoC4/capsense_ADC_Adc.c **** 
 285:Generated_Source\PSoC4/capsense_ADC_Adc.c ****     /* Configure the IDAC */
 286:Generated_Source\PSoC4/capsense_ADC_Adc.c ****     CY_SET_REG32(capsense_ADC_CONFIG_PTR, capsense_ADC_AdcCONFIG_DEFAULT);
 287:Generated_Source\PSoC4/capsense_ADC_Adc.c ****     CY_SET_REG32(capsense_ADC_CSD_IDACB_PTR, capsense_ADC_AdcIDACB_CONFIG | capsense_ADC_dsRam.adcI
 288:Generated_Source\PSoC4/capsense_ADC_Adc.c **** 
 289:Generated_Source\PSoC4/capsense_ADC_Adc.c ****     /* Configure AZ Time */
 290:Generated_Source\PSoC4/capsense_ADC_Adc.c ****     CY_SET_REG32(capsense_ADC_SEQ_TIME_PTR, (capsense_ADC_AdcSEQ_TIME_DEFAUL - 1uL));
 291:Generated_Source\PSoC4/capsense_ADC_Adc.c **** 
 292:Generated_Source\PSoC4/capsense_ADC_Adc.c ****     CY_SET_REG32(capsense_ADC_CSDCMP_PTR, 0uL);
 293:Generated_Source\PSoC4/capsense_ADC_Adc.c ****     CY_SET_REG32(capsense_ADC_SW_DSI_SEL_PTR, 0uL);
 294:Generated_Source\PSoC4/capsense_ADC_Adc.c **** 
 295:Generated_Source\PSoC4/capsense_ADC_Adc.c ****     CY_SET_REG32(capsense_ADC_SENSE_DUTY_PTR, 0uL);
 296:Generated_Source\PSoC4/capsense_ADC_Adc.c ****     CY_SET_REG32(capsense_ADC_SEQ_INIT_CNT_PTR, 1uL);
 297:Generated_Source\PSoC4/capsense_ADC_Adc.c ****     CY_SET_REG32(capsense_ADC_SEQ_NORM_CNT_PTR, 2uL);
 298:Generated_Source\PSoC4/capsense_ADC_Adc.c **** 
 299:Generated_Source\PSoC4/capsense_ADC_Adc.c ****     /* Configure the block-level routing */
 300:Generated_Source\PSoC4/capsense_ADC_Adc.c ****     CY_SET_REG32(capsense_ADC_SW_HS_P_SEL_PTR, capsense_ADC_AdcSW_HSP_DEFAULT);
 301:Generated_Source\PSoC4/capsense_ADC_Adc.c ****     CY_SET_REG32(capsense_ADC_SW_HS_N_SEL_PTR, capsense_ADC_AdcSW_HSN_DEFAULT);
 302:Generated_Source\PSoC4/capsense_ADC_Adc.c ****     CY_SET_REG32(capsense_ADC_SW_SHIELD_SEL_PTR, capsense_ADC_AdcSW_SHIELD_DEFAULT);
 303:Generated_Source\PSoC4/capsense_ADC_Adc.c ****     CY_SET_REG32(capsense_ADC_SW_CMP_P_SEL_PTR, capsense_ADC_AdcSW_CMPP_DEFAULT);
 304:Generated_Source\PSoC4/capsense_ADC_Adc.c ****     CY_SET_REG32(capsense_ADC_SW_CMP_N_SEL_PTR, capsense_ADC_AdcSW_CMPN_DEFAULT);
 305:Generated_Source\PSoC4/capsense_ADC_Adc.c ****     CY_SET_REG32(capsense_ADC_SW_FW_MOD_SEL_PTR, capsense_ADC_AdcSW_FWMOD_DEFAULT);
 306:Generated_Source\PSoC4/capsense_ADC_Adc.c ****     CY_SET_REG32(capsense_ADC_SW_FW_TANK_SEL_PTR, capsense_ADC_AdcSW_FWTANK_DEFAULT);
 307:Generated_Source\PSoC4/capsense_ADC_Adc.c ****     CY_SET_REG32(capsense_ADC_SW_REFGEN_SEL_PTR, capsense_ADC_AdcSW_REFGEN_DEFAULT);
 308:Generated_Source\PSoC4/capsense_ADC_Adc.c **** 
 309:Generated_Source\PSoC4/capsense_ADC_Adc.c ****     interruptState = CyEnterCriticalSection();
 310:Generated_Source\PSoC4/capsense_ADC_Adc.c ****     newRegValue = CY_GET_REG32(capsense_ADC_SW_BYP_SEL_PTR);
 311:Generated_Source\PSoC4/capsense_ADC_Adc.c ****     newRegValue |= capsense_ADC_AdcSW_BYP_DEFAULT;
 312:Generated_Source\PSoC4/capsense_ADC_Adc.c ****     CY_SET_REG32(capsense_ADC_SW_BYP_SEL_PTR, newRegValue);
 313:Generated_Source\PSoC4/capsense_ADC_Adc.c ****     CyExitCriticalSection(interruptState);
 314:Generated_Source\PSoC4/capsense_ADC_Adc.c **** 
 315:Generated_Source\PSoC4/capsense_ADC_Adc.c ****     /* Config RefGen */
 316:Generated_Source\PSoC4/capsense_ADC_Adc.c ****     #if (capsense_ADC_CYDEV_VDDA_MV < capsense_ADC_AdcLVTHRESH)
 317:Generated_Source\PSoC4/capsense_ADC_Adc.c ****         /* The routing of the HS_N and AMUXBUF switches depend on RefGen */
 318:Generated_Source\PSoC4/capsense_ADC_Adc.c ****         CY_SET_REG32(capsense_ADC_REFGEN_PTR, capsense_ADC_REFGEN_LV);
 319:Generated_Source\PSoC4/capsense_ADC_Adc.c ****         CY_SET_REG32(capsense_ADC_SW_AMUXBUF_SEL_PTR, capsense_ADC_AdcSW_AMUBUF_LV);
 320:Generated_Source\PSoC4/capsense_ADC_Adc.c ****         CY_SET_REG32(capsense_ADC_AMBUF_PTR, capsense_ADC_AdcAMBUF_LV);
 321:Generated_Source\PSoC4/capsense_ADC_Adc.c ****     #else
 322:Generated_Source\PSoC4/capsense_ADC_Adc.c ****         CY_SET_REG32(capsense_ADC_REFGEN_PTR, capsense_ADC_AdcREFGEN_NORM);
ARM GAS  C:\Users\ASUS\AppData\Local\Temp\ccDHWSgt.s 			page 11


 323:Generated_Source\PSoC4/capsense_ADC_Adc.c ****         CY_SET_REG32(capsense_ADC_SW_AMUXBUF_SEL_PTR, capsense_ADC_AdcSW_AMUBUF_NORM);
 324:Generated_Source\PSoC4/capsense_ADC_Adc.c ****     #endif /* capsense_ADC__CYDEV_VDDA_MV < capsense_ADC_AdcLVTHRESH */
 325:Generated_Source\PSoC4/capsense_ADC_Adc.c **** 
 326:Generated_Source\PSoC4/capsense_ADC_Adc.c ****     /* Configure HSCOMP */
 327:Generated_Source\PSoC4/capsense_ADC_Adc.c ****     CY_SET_REG32(capsense_ADC_HSCMP_PTR, capsense_ADC_AdcHSCMP_AZ_DEFAULT);
 328:Generated_Source\PSoC4/capsense_ADC_Adc.c **** 
 329:Generated_Source\PSoC4/capsense_ADC_Adc.c ****     /* Clear all pending interrupts of CSD block */
 330:Generated_Source\PSoC4/capsense_ADC_Adc.c ****     CY_SET_REG32(capsense_ADC_INTR_PTR, capsense_ADC_INTR_ALL_MASK);
 331:Generated_Source\PSoC4/capsense_ADC_Adc.c **** 
 332:Generated_Source\PSoC4/capsense_ADC_Adc.c ****     /* Mask all CSD block interrupts (disable all interrupts) */
 333:Generated_Source\PSoC4/capsense_ADC_Adc.c ****     CY_SET_REG32(capsense_ADC_INTR_MASK_PTR, capsense_ADC_INTR_MASK_CLEAR_MASK);
 334:Generated_Source\PSoC4/capsense_ADC_Adc.c **** 
 335:Generated_Source\PSoC4/capsense_ADC_Adc.c ****     /* Set the ISR vector */
 336:Generated_Source\PSoC4/capsense_ADC_Adc.c ****     capsense_ADC_ISR_StartEx(&capsense_ADC_AdcIntrHandler);
 337:Generated_Source\PSoC4/capsense_ADC_Adc.c **** 
 338:Generated_Source\PSoC4/capsense_ADC_Adc.c ****     /* Component is initialized */
 339:Generated_Source\PSoC4/capsense_ADC_Adc.c ****     capsense_ADC_initVar = capsense_ADC_AdcINIT_DONE;
 340:Generated_Source\PSoC4/capsense_ADC_Adc.c **** }
 341:Generated_Source\PSoC4/capsense_ADC_Adc.c **** 
 342:Generated_Source\PSoC4/capsense_ADC_Adc.c **** 
 343:Generated_Source\PSoC4/capsense_ADC_Adc.c **** /*******************************************************************************
 344:Generated_Source\PSoC4/capsense_ADC_Adc.c **** * Function Name: capsense_ADC_StartAdcFSM
 345:Generated_Source\PSoC4/capsense_ADC_Adc.c **** ****************************************************************************//**
 346:Generated_Source\PSoC4/capsense_ADC_Adc.c **** *
 347:Generated_Source\PSoC4/capsense_ADC_Adc.c **** * \brief
 348:Generated_Source\PSoC4/capsense_ADC_Adc.c **** *   Starts the CSD state machine with correct parameters to initialize an ADC
 349:Generated_Source\PSoC4/capsense_ADC_Adc.c **** *   conversion.
 350:Generated_Source\PSoC4/capsense_ADC_Adc.c **** *
 351:Generated_Source\PSoC4/capsense_ADC_Adc.c **** * \details
 352:Generated_Source\PSoC4/capsense_ADC_Adc.c **** *   Starts the CSD state machine with correct parameters to initialize an ADC
 353:Generated_Source\PSoC4/capsense_ADC_Adc.c **** *   conversion.
 354:Generated_Source\PSoC4/capsense_ADC_Adc.c **** *
 355:Generated_Source\PSoC4/capsense_ADC_Adc.c **** * \param measureMode The FSM mode:
 356:Generated_Source\PSoC4/capsense_ADC_Adc.c **** *        - (0) capsense_ADC_AdcMEASMODE_OFF
 357:Generated_Source\PSoC4/capsense_ADC_Adc.c **** *        - (1) capsense_ADC_AdcMEASMODE_VREF
 358:Generated_Source\PSoC4/capsense_ADC_Adc.c **** *        - (2) capsense_ADC_AdcMEASMODE_VREFBY2
 359:Generated_Source\PSoC4/capsense_ADC_Adc.c **** *        - (3) capsense_ADC_AdcMEASMODE_VIN
 360:Generated_Source\PSoC4/capsense_ADC_Adc.c **** *
 361:Generated_Source\PSoC4/capsense_ADC_Adc.c **** *******************************************************************************/
 362:Generated_Source\PSoC4/capsense_ADC_Adc.c **** void capsense_ADC_StartAdcFSM(uint32 measureMode)
 363:Generated_Source\PSoC4/capsense_ADC_Adc.c **** {
 249              		.loc 1 363 0
 250              		.cfi_startproc
 251              		@ args = 0, pretend = 0, frame = 0
 252              		@ frame_needed = 0, uses_anonymous_args = 0
 253              		@ link register save eliminated.
 254              	.LVL33:
 364:Generated_Source\PSoC4/capsense_ADC_Adc.c ****     uint32 tmpStartVal;
 365:Generated_Source\PSoC4/capsense_ADC_Adc.c **** 
 366:Generated_Source\PSoC4/capsense_ADC_Adc.c ****     /* Set the mode and acquisition time */
 367:Generated_Source\PSoC4/capsense_ADC_Adc.c ****     CY_SET_REG32(capsense_ADC_ADC_CTL_PTR, (measureMode | (capsense_ADC_AdcACQUISITION_BASE - 1u)))
 255              		.loc 1 367 0
 256 0000 3B23     		movs	r3, #59
 257 0002 0343     		orrs	r3, r0
 258 0004 084A     		ldr	r2, .L15
 259 0006 1360     		str	r3, [r2]
 368:Generated_Source\PSoC4/capsense_ADC_Adc.c **** 
ARM GAS  C:\Users\ASUS\AppData\Local\Temp\ccDHWSgt.s 			page 12


 369:Generated_Source\PSoC4/capsense_ADC_Adc.c ****     if(capsense_ADC_AdcMEASMODE_VREF == measureMode)
 260              		.loc 1 369 0
 261 0008 8023     		movs	r3, #128
 262 000a 5B02     		lsls	r3, r3, #9
 263 000c 9842     		cmp	r0, r3
 264 000e 03D0     		beq	.L13
 370:Generated_Source\PSoC4/capsense_ADC_Adc.c ****     {
 371:Generated_Source\PSoC4/capsense_ADC_Adc.c ****         tmpStartVal =
 372:Generated_Source\PSoC4/capsense_ADC_Adc.c ****             capsense_ADC_AdcFSMSETTING_AZSKIP_DEFAULT    |
 373:Generated_Source\PSoC4/capsense_ADC_Adc.c ****             capsense_ADC_AdcFSMSETTING_DSIIGNORE   |
 374:Generated_Source\PSoC4/capsense_ADC_Adc.c ****             capsense_ADC_AdcFSMSETTING_NOABORT     |
 375:Generated_Source\PSoC4/capsense_ADC_Adc.c ****             capsense_ADC_AdcFSMSETTING_SEQMODE     |
 376:Generated_Source\PSoC4/capsense_ADC_Adc.c ****             capsense_ADC_AdcFSMSETTING_START;
 377:Generated_Source\PSoC4/capsense_ADC_Adc.c ****     }
 378:Generated_Source\PSoC4/capsense_ADC_Adc.c ****     else if (capsense_ADC_AdcMEASMODE_OFF == measureMode)
 265              		.loc 1 378 0
 266 0010 0028     		cmp	r0, #0
 267 0012 04D1     		bne	.L14
 379:Generated_Source\PSoC4/capsense_ADC_Adc.c ****     {
 380:Generated_Source\PSoC4/capsense_ADC_Adc.c ****         tmpStartVal = capsense_ADC_AdcFSMSETTING_ABORT;
 268              		.loc 1 380 0
 269 0014 0822     		movs	r2, #8
 270 0016 04E0     		b	.L12
 271              	.L13:
 371:Generated_Source\PSoC4/capsense_ADC_Adc.c ****             capsense_ADC_AdcFSMSETTING_AZSKIP_DEFAULT    |
 272              		.loc 1 371 0
 273 0018 0222     		movs	r2, #2
 274 001a FF32     		adds	r2, r2, #255
 275 001c 01E0     		b	.L12
 276              	.L14:
 381:Generated_Source\PSoC4/capsense_ADC_Adc.c ****     }
 382:Generated_Source\PSoC4/capsense_ADC_Adc.c ****     /* This setting is used for both MEASMODE_VREFBY2 and MEASMODE_VIN */
 383:Generated_Source\PSoC4/capsense_ADC_Adc.c ****     else
 384:Generated_Source\PSoC4/capsense_ADC_Adc.c ****     {
 385:Generated_Source\PSoC4/capsense_ADC_Adc.c ****         tmpStartVal =
 277              		.loc 1 385 0
 278 001e 0222     		movs	r2, #2
 279 0020 FF32     		adds	r2, r2, #255
 280              	.L12:
 281              	.LVL34:
 386:Generated_Source\PSoC4/capsense_ADC_Adc.c ****             capsense_ADC_AdcFSMSETTING_AZSKIP_DEFAULT    |
 387:Generated_Source\PSoC4/capsense_ADC_Adc.c ****             capsense_ADC_AdcFSMSETTING_DSIIGNORE   |
 388:Generated_Source\PSoC4/capsense_ADC_Adc.c ****             capsense_ADC_AdcFSMSETTING_NOABORT     |
 389:Generated_Source\PSoC4/capsense_ADC_Adc.c ****             capsense_ADC_AdcFSMSETTING_SEQMODE     |
 390:Generated_Source\PSoC4/capsense_ADC_Adc.c ****             capsense_ADC_AdcFSMSETTING_START;
 391:Generated_Source\PSoC4/capsense_ADC_Adc.c ****     }
 392:Generated_Source\PSoC4/capsense_ADC_Adc.c **** 
 393:Generated_Source\PSoC4/capsense_ADC_Adc.c ****     /* Enable HSComp */
 394:Generated_Source\PSoC4/capsense_ADC_Adc.c ****     CY_SET_REG32(capsense_ADC_SEQ_START_PTR, tmpStartVal);
 282              		.loc 1 394 0
 283 0022 024B     		ldr	r3, .L15+4
 284 0024 1A60     		str	r2, [r3]
 395:Generated_Source\PSoC4/capsense_ADC_Adc.c **** }
 285              		.loc 1 395 0
 286              		@ sp needed
 287 0026 7047     		bx	lr
 288              	.L16:
ARM GAS  C:\Users\ASUS\AppData\Local\Temp\ccDHWSgt.s 			page 13


 289              		.align	2
 290              	.L15:
 291 0028 20030B40 		.word	1074463520
 292 002c 40030B40 		.word	1074463552
 293              		.cfi_endproc
 294              	.LFE4:
 295              		.size	capsense_ADC_StartAdcFSM, .-capsense_ADC_StartAdcFSM
 296              		.section	.text.capsense_ADC_AdcIsBusy,"ax",%progbits
 297              		.align	2
 298              		.global	capsense_ADC_AdcIsBusy
 299              		.code	16
 300              		.thumb_func
 301              		.type	capsense_ADC_AdcIsBusy, %function
 302              	capsense_ADC_AdcIsBusy:
 303              	.LFB8:
 396:Generated_Source\PSoC4/capsense_ADC_Adc.c **** 
 397:Generated_Source\PSoC4/capsense_ADC_Adc.c **** /*******************************************************************************
 398:Generated_Source\PSoC4/capsense_ADC_Adc.c **** * Function Name: capsense_ADC_AdcCaptureResources
 399:Generated_Source\PSoC4/capsense_ADC_Adc.c **** ****************************************************************************//**
 400:Generated_Source\PSoC4/capsense_ADC_Adc.c **** *
 401:Generated_Source\PSoC4/capsense_ADC_Adc.c **** * \brief
 402:Generated_Source\PSoC4/capsense_ADC_Adc.c **** *   Releases CSD resources from sensing mode, and sets it into ADC mode.
 403:Generated_Source\PSoC4/capsense_ADC_Adc.c **** *
 404:Generated_Source\PSoC4/capsense_ADC_Adc.c **** * \details
 405:Generated_Source\PSoC4/capsense_ADC_Adc.c **** *   Releases CSD resources from sensing mode, and sets it into ADC mode.
 406:Generated_Source\PSoC4/capsense_ADC_Adc.c **** *
 407:Generated_Source\PSoC4/capsense_ADC_Adc.c **** * \return     The function returns cystatus of its operation.
 408:Generated_Source\PSoC4/capsense_ADC_Adc.c **** *   - CYRET_LOCKED  - The sensing hardware is in-use and could not be released.
 409:Generated_Source\PSoC4/capsense_ADC_Adc.c **** *   - CYRET_SUCCESS - Block is configured for ADC use.
 410:Generated_Source\PSoC4/capsense_ADC_Adc.c **** *
 411:Generated_Source\PSoC4/capsense_ADC_Adc.c **** *******************************************************************************/
 412:Generated_Source\PSoC4/capsense_ADC_Adc.c **** cystatus capsense_ADC_AdcCaptureResources(void)
 413:Generated_Source\PSoC4/capsense_ADC_Adc.c **** {
 414:Generated_Source\PSoC4/capsense_ADC_Adc.c ****     cystatus tmpStatus = CYRET_SUCCESS;
 415:Generated_Source\PSoC4/capsense_ADC_Adc.c **** 
 416:Generated_Source\PSoC4/capsense_ADC_Adc.c ****     #if !(capsense_ADC_ENABLE == capsense_ADC_ADC_STANDALONE_EN)
 417:Generated_Source\PSoC4/capsense_ADC_Adc.c ****         tmpStatus = capsense_ADC_SsReleaseResources();
 418:Generated_Source\PSoC4/capsense_ADC_Adc.c **** 
 419:Generated_Source\PSoC4/capsense_ADC_Adc.c ****         if (capsense_ADC_AdcINIT_NEEDED == capsense_ADC_initVar)
 420:Generated_Source\PSoC4/capsense_ADC_Adc.c ****         {
 421:Generated_Source\PSoC4/capsense_ADC_Adc.c ****             if(CYRET_SUCCESS == tmpStatus)
 422:Generated_Source\PSoC4/capsense_ADC_Adc.c ****             {
 423:Generated_Source\PSoC4/capsense_ADC_Adc.c ****                 capsense_ADC_ConfigAdcResources();
 424:Generated_Source\PSoC4/capsense_ADC_Adc.c ****             }
 425:Generated_Source\PSoC4/capsense_ADC_Adc.c ****             else
 426:Generated_Source\PSoC4/capsense_ADC_Adc.c ****             {
 427:Generated_Source\PSoC4/capsense_ADC_Adc.c ****                 tmpStatus = CYRET_LOCKED;
 428:Generated_Source\PSoC4/capsense_ADC_Adc.c ****             }
 429:Generated_Source\PSoC4/capsense_ADC_Adc.c ****         }
 430:Generated_Source\PSoC4/capsense_ADC_Adc.c ****     #else
 431:Generated_Source\PSoC4/capsense_ADC_Adc.c ****         if (capsense_ADC_AdcINIT_NEEDED == capsense_ADC_initVar)
 432:Generated_Source\PSoC4/capsense_ADC_Adc.c ****         {
 433:Generated_Source\PSoC4/capsense_ADC_Adc.c ****             capsense_ADC_ConfigAdcResources();
 434:Generated_Source\PSoC4/capsense_ADC_Adc.c ****         }
 435:Generated_Source\PSoC4/capsense_ADC_Adc.c ****     #endif /* !(capsense_ADC_ENABLE == capsense_ADC_ADC_STANDALONE_EN) */
 436:Generated_Source\PSoC4/capsense_ADC_Adc.c **** 
 437:Generated_Source\PSoC4/capsense_ADC_Adc.c ****     return tmpStatus;
ARM GAS  C:\Users\ASUS\AppData\Local\Temp\ccDHWSgt.s 			page 14


 438:Generated_Source\PSoC4/capsense_ADC_Adc.c **** }
 439:Generated_Source\PSoC4/capsense_ADC_Adc.c **** 
 440:Generated_Source\PSoC4/capsense_ADC_Adc.c **** 
 441:Generated_Source\PSoC4/capsense_ADC_Adc.c **** /*******************************************************************************
 442:Generated_Source\PSoC4/capsense_ADC_Adc.c **** * Function Name: capsense_ADC_AdcReleaseResources
 443:Generated_Source\PSoC4/capsense_ADC_Adc.c **** ****************************************************************************//**
 444:Generated_Source\PSoC4/capsense_ADC_Adc.c **** *
 445:Generated_Source\PSoC4/capsense_ADC_Adc.c **** * \brief
 446:Generated_Source\PSoC4/capsense_ADC_Adc.c **** *   Releases CSD resources from ADC mode.
 447:Generated_Source\PSoC4/capsense_ADC_Adc.c **** *
 448:Generated_Source\PSoC4/capsense_ADC_Adc.c **** * \details
 449:Generated_Source\PSoC4/capsense_ADC_Adc.c **** *   Releases CSD resources from ADC mode.
 450:Generated_Source\PSoC4/capsense_ADC_Adc.c **** *
 451:Generated_Source\PSoC4/capsense_ADC_Adc.c **** * \return     The function returns cystatus of its operation.
 452:Generated_Source\PSoC4/capsense_ADC_Adc.c **** *   CYRET_SUCCESS   Block resources no longer in use.
 453:Generated_Source\PSoC4/capsense_ADC_Adc.c **** *
 454:Generated_Source\PSoC4/capsense_ADC_Adc.c **** *******************************************************************************/
 455:Generated_Source\PSoC4/capsense_ADC_Adc.c **** cystatus capsense_ADC_AdcReleaseResources(void)
 456:Generated_Source\PSoC4/capsense_ADC_Adc.c **** {
 457:Generated_Source\PSoC4/capsense_ADC_Adc.c ****     uint8  interruptState;
 458:Generated_Source\PSoC4/capsense_ADC_Adc.c ****     uint32 newRegValue;
 459:Generated_Source\PSoC4/capsense_ADC_Adc.c **** 
 460:Generated_Source\PSoC4/capsense_ADC_Adc.c ****     if (capsense_ADC_AdcINIT_DONE == capsense_ADC_initVar)
 461:Generated_Source\PSoC4/capsense_ADC_Adc.c ****     {
 462:Generated_Source\PSoC4/capsense_ADC_Adc.c ****         /* If the FSM is running, shut it down. */
 463:Generated_Source\PSoC4/capsense_ADC_Adc.c ****         if(capsense_ADC_AdcSTATUS_IDLE != (capsense_ADC_dsRam.adcStatus
 464:Generated_Source\PSoC4/capsense_ADC_Adc.c ****                             & capsense_ADC_AdcSTATUS_FSM_MASK))
 465:Generated_Source\PSoC4/capsense_ADC_Adc.c ****         {
 466:Generated_Source\PSoC4/capsense_ADC_Adc.c ****             capsense_ADC_StartAdcFSM(capsense_ADC_AdcMEASMODE_OFF);
 467:Generated_Source\PSoC4/capsense_ADC_Adc.c ****             capsense_ADC_SetAdcChannel((capsense_ADC_dsRam.adcStatus
 468:Generated_Source\PSoC4/capsense_ADC_Adc.c ****                             & (uint8)(capsense_ADC_AdcSTATUS_LASTCHAN_MASK)),
 469:Generated_Source\PSoC4/capsense_ADC_Adc.c ****                             capsense_ADC_AdcCHAN_DISCONNECT);
 470:Generated_Source\PSoC4/capsense_ADC_Adc.c ****             capsense_ADC_dsRam.adcStatus = capsense_ADC_AdcSTATUS_IDLE;
 471:Generated_Source\PSoC4/capsense_ADC_Adc.c ****         }
 472:Generated_Source\PSoC4/capsense_ADC_Adc.c **** 
 473:Generated_Source\PSoC4/capsense_ADC_Adc.c ****         /* Disable the subblocks. */
 474:Generated_Source\PSoC4/capsense_ADC_Adc.c ****         CY_SET_REG32(capsense_ADC_CSD_IDACB_PTR, 0u);
 475:Generated_Source\PSoC4/capsense_ADC_Adc.c ****         CY_SET_REG32(capsense_ADC_REFGEN_PTR, 0u);
 476:Generated_Source\PSoC4/capsense_ADC_Adc.c ****         CY_SET_REG32(capsense_ADC_AMBUF_PTR, 0u);
 477:Generated_Source\PSoC4/capsense_ADC_Adc.c ****         CY_SET_REG32(capsense_ADC_HSCMP_PTR, 0u);
 478:Generated_Source\PSoC4/capsense_ADC_Adc.c **** 
 479:Generated_Source\PSoC4/capsense_ADC_Adc.c ****         /* Reset the block-level routing */
 480:Generated_Source\PSoC4/capsense_ADC_Adc.c ****         CY_SET_REG32(capsense_ADC_SW_HS_P_SEL_PTR, 0u);
 481:Generated_Source\PSoC4/capsense_ADC_Adc.c ****         CY_SET_REG32(capsense_ADC_SW_HS_N_SEL_PTR, 0u);
 482:Generated_Source\PSoC4/capsense_ADC_Adc.c ****         CY_SET_REG32(capsense_ADC_SW_SHIELD_SEL_PTR, 0u);
 483:Generated_Source\PSoC4/capsense_ADC_Adc.c ****         CY_SET_REG32(capsense_ADC_SW_CMP_P_SEL_PTR, 0u);
 484:Generated_Source\PSoC4/capsense_ADC_Adc.c ****         CY_SET_REG32(capsense_ADC_SW_CMP_N_SEL_PTR, 0u);
 485:Generated_Source\PSoC4/capsense_ADC_Adc.c ****         CY_SET_REG32(capsense_ADC_SW_FW_MOD_SEL_PTR, 0u);
 486:Generated_Source\PSoC4/capsense_ADC_Adc.c ****         CY_SET_REG32(capsense_ADC_SW_FW_TANK_SEL_PTR, 0u);
 487:Generated_Source\PSoC4/capsense_ADC_Adc.c **** 
 488:Generated_Source\PSoC4/capsense_ADC_Adc.c ****         interruptState = CyEnterCriticalSection();
 489:Generated_Source\PSoC4/capsense_ADC_Adc.c ****         newRegValue = CY_GET_REG32(capsense_ADC_SW_BYP_SEL_PTR);
 490:Generated_Source\PSoC4/capsense_ADC_Adc.c ****         newRegValue &= (uint32)(~capsense_ADC_AdcSW_BYP_DEFAULT);
 491:Generated_Source\PSoC4/capsense_ADC_Adc.c ****         CY_SET_REG32(capsense_ADC_SW_BYP_SEL_PTR, newRegValue);
 492:Generated_Source\PSoC4/capsense_ADC_Adc.c ****         CyExitCriticalSection(interruptState);
 493:Generated_Source\PSoC4/capsense_ADC_Adc.c **** 
 494:Generated_Source\PSoC4/capsense_ADC_Adc.c ****          /* Disconnect all ADC channels */
ARM GAS  C:\Users\ASUS\AppData\Local\Temp\ccDHWSgt.s 			page 15


 495:Generated_Source\PSoC4/capsense_ADC_Adc.c ****         capsense_ADC_ClearAdcChannels();
 496:Generated_Source\PSoC4/capsense_ADC_Adc.c **** 
 497:Generated_Source\PSoC4/capsense_ADC_Adc.c ****         capsense_ADC_initVar = capsense_ADC_AdcINIT_NEEDED;
 498:Generated_Source\PSoC4/capsense_ADC_Adc.c ****     }
 499:Generated_Source\PSoC4/capsense_ADC_Adc.c **** 
 500:Generated_Source\PSoC4/capsense_ADC_Adc.c ****     return CYRET_SUCCESS;
 501:Generated_Source\PSoC4/capsense_ADC_Adc.c **** }
 502:Generated_Source\PSoC4/capsense_ADC_Adc.c **** 
 503:Generated_Source\PSoC4/capsense_ADC_Adc.c **** 
 504:Generated_Source\PSoC4/capsense_ADC_Adc.c **** /*******************************************************************************
 505:Generated_Source\PSoC4/capsense_ADC_Adc.c **** * Function Name: capsense_ADC_AdcStartConvert
 506:Generated_Source\PSoC4/capsense_ADC_Adc.c **** ****************************************************************************//**
 507:Generated_Source\PSoC4/capsense_ADC_Adc.c **** *
 508:Generated_Source\PSoC4/capsense_ADC_Adc.c **** * \brief
 509:Generated_Source\PSoC4/capsense_ADC_Adc.c **** *  Initializes the hardware and initiates an analog-to-digital conversion on the
 510:Generated_Source\PSoC4/capsense_ADC_Adc.c **** *  selected input channel.
 511:Generated_Source\PSoC4/capsense_ADC_Adc.c **** *
 512:Generated_Source\PSoC4/capsense_ADC_Adc.c **** * \details
 513:Generated_Source\PSoC4/capsense_ADC_Adc.c **** *  Initializes the hardware and initiates an analog-to-digital conversion on the
 514:Generated_Source\PSoC4/capsense_ADC_Adc.c **** *  selected input channel. This API only initiates a conversion and does not
 515:Generated_Source\PSoC4/capsense_ADC_Adc.c **** *  wait for the conversion to be completed, therefore the
 516:Generated_Source\PSoC4/capsense_ADC_Adc.c **** *  capsense_ADC_AdcIsBusy() API must be used to check the
 517:Generated_Source\PSoC4/capsense_ADC_Adc.c **** *  status and ensure that the conversion is complete prior to reading the result,
 518:Generated_Source\PSoC4/capsense_ADC_Adc.c **** *  starting a new conversion with the same or a different channel, or reconfiguring
 519:Generated_Source\PSoC4/capsense_ADC_Adc.c **** *  the hardware for different functionality.
 520:Generated_Source\PSoC4/capsense_ADC_Adc.c **** *
 521:Generated_Source\PSoC4/capsense_ADC_Adc.c **** * \param chId
 522:Generated_Source\PSoC4/capsense_ADC_Adc.c **** *  The ID of the channel to be converted.
 523:Generated_Source\PSoC4/capsense_ADC_Adc.c **** *
 524:Generated_Source\PSoC4/capsense_ADC_Adc.c **** * \return
 525:Generated_Source\PSoC4/capsense_ADC_Adc.c **** *  The function returns cystatus of its operation.
 526:Generated_Source\PSoC4/capsense_ADC_Adc.c **** *    - CYRET_SUCCESS - A conversion has started.
 527:Generated_Source\PSoC4/capsense_ADC_Adc.c **** *    - CYRET_LOCKED - The hardware is already in-use by a previously initialized
 528:Generated_Source\PSoC4/capsense_ADC_Adc.c **** *      conversion or other functionality. No new conversion is started by this API.
 529:Generated_Source\PSoC4/capsense_ADC_Adc.c **** *    - CYRET_BAD_PARAM - An invalid channel Id. No conversion is started.
 530:Generated_Source\PSoC4/capsense_ADC_Adc.c **** *
 531:Generated_Source\PSoC4/capsense_ADC_Adc.c **** *******************************************************************************/
 532:Generated_Source\PSoC4/capsense_ADC_Adc.c **** cystatus capsense_ADC_AdcStartConvert(uint8 chId)
 533:Generated_Source\PSoC4/capsense_ADC_Adc.c **** {
 534:Generated_Source\PSoC4/capsense_ADC_Adc.c ****     uint32 tmpStatus = CYRET_SUCCESS;
 535:Generated_Source\PSoC4/capsense_ADC_Adc.c **** 
 536:Generated_Source\PSoC4/capsense_ADC_Adc.c ****     /* If non-standalone ADC, try to Capture resources */
 537:Generated_Source\PSoC4/capsense_ADC_Adc.c ****     #if (capsense_ADC_ENABLE != capsense_ADC_ADC_STANDALONE_EN)
 538:Generated_Source\PSoC4/capsense_ADC_Adc.c ****         tmpStatus = capsense_ADC_AdcCaptureResources();
 539:Generated_Source\PSoC4/capsense_ADC_Adc.c **** 
 540:Generated_Source\PSoC4/capsense_ADC_Adc.c ****         if (CYRET_SUCCESS == tmpStatus)
 541:Generated_Source\PSoC4/capsense_ADC_Adc.c ****         {
 542:Generated_Source\PSoC4/capsense_ADC_Adc.c ****     #else /* Otherwise, configure resources if needed. */
 543:Generated_Source\PSoC4/capsense_ADC_Adc.c ****         if (capsense_ADC_AdcINIT_NEEDED == capsense_ADC_initVar)
 544:Generated_Source\PSoC4/capsense_ADC_Adc.c ****         {
 545:Generated_Source\PSoC4/capsense_ADC_Adc.c ****             capsense_ADC_ConfigAdcResources();
 546:Generated_Source\PSoC4/capsense_ADC_Adc.c ****         }
 547:Generated_Source\PSoC4/capsense_ADC_Adc.c ****     #endif /* (capsense_ADC_ENABLE != capsense_ADC_ADC_STANDALONE_EN) */
 548:Generated_Source\PSoC4/capsense_ADC_Adc.c **** 
 549:Generated_Source\PSoC4/capsense_ADC_Adc.c ****     if(chId >= capsense_ADC_ADC_TOTAL_CHANNELS)
 550:Generated_Source\PSoC4/capsense_ADC_Adc.c ****     {
 551:Generated_Source\PSoC4/capsense_ADC_Adc.c ****         tmpStatus = CYRET_BAD_PARAM;
ARM GAS  C:\Users\ASUS\AppData\Local\Temp\ccDHWSgt.s 			page 16


 552:Generated_Source\PSoC4/capsense_ADC_Adc.c ****     }
 553:Generated_Source\PSoC4/capsense_ADC_Adc.c **** 
 554:Generated_Source\PSoC4/capsense_ADC_Adc.c ****     if (CYRET_SUCCESS == tmpStatus)
 555:Generated_Source\PSoC4/capsense_ADC_Adc.c ****     {
 556:Generated_Source\PSoC4/capsense_ADC_Adc.c ****         if(capsense_ADC_AdcSTATUS_IDLE != (capsense_ADC_dsRam.adcStatus & capsense_ADC_AdcSTATUS_FS
 557:Generated_Source\PSoC4/capsense_ADC_Adc.c ****         {
 558:Generated_Source\PSoC4/capsense_ADC_Adc.c ****             tmpStatus = CYRET_LOCKED;
 559:Generated_Source\PSoC4/capsense_ADC_Adc.c ****         }
 560:Generated_Source\PSoC4/capsense_ADC_Adc.c **** 
 561:Generated_Source\PSoC4/capsense_ADC_Adc.c ****         if(CYRET_SUCCESS == tmpStatus)
 562:Generated_Source\PSoC4/capsense_ADC_Adc.c ****         {
 563:Generated_Source\PSoC4/capsense_ADC_Adc.c ****             #if(capsense_ADC_ADC_ANALOG_STARTUP_DELAY_US > 0uL)
 564:Generated_Source\PSoC4/capsense_ADC_Adc.c ****                 CyDelayUs(capsense_ADC_ADC_ANALOG_STARTUP_DELAY_US);
 565:Generated_Source\PSoC4/capsense_ADC_Adc.c ****             #endif /* (capsense_ADC_ADC_ANALOG_STARTUP_DELAY_US > 0uL) */
 566:Generated_Source\PSoC4/capsense_ADC_Adc.c **** 
 567:Generated_Source\PSoC4/capsense_ADC_Adc.c ****             /* Set Component Status */
 568:Generated_Source\PSoC4/capsense_ADC_Adc.c ****             capsense_ADC_dsRam.adcStatus = (capsense_ADC_AdcSTATUS_CONVERTING | chId);
 569:Generated_Source\PSoC4/capsense_ADC_Adc.c **** 
 570:Generated_Source\PSoC4/capsense_ADC_Adc.c ****             /* Configure a desired channel if needed */
 571:Generated_Source\PSoC4/capsense_ADC_Adc.c ****             if (chId != capsense_ADC_dsRam.adcActiveCh)
 572:Generated_Source\PSoC4/capsense_ADC_Adc.c ****             {
 573:Generated_Source\PSoC4/capsense_ADC_Adc.c ****                 if (capsense_ADC_AdcNO_CHANNEL != capsense_ADC_dsRam.adcActiveCh)
 574:Generated_Source\PSoC4/capsense_ADC_Adc.c ****                 {
 575:Generated_Source\PSoC4/capsense_ADC_Adc.c ****                     /* Disconnect existing channel */
 576:Generated_Source\PSoC4/capsense_ADC_Adc.c ****                     capsense_ADC_SetAdcChannel(capsense_ADC_dsRam.adcActiveCh, capsense_ADC_AdcCHAN
 577:Generated_Source\PSoC4/capsense_ADC_Adc.c ****                 }
 578:Generated_Source\PSoC4/capsense_ADC_Adc.c ****                 /* Connect desired input */
 579:Generated_Source\PSoC4/capsense_ADC_Adc.c ****                 capsense_ADC_SetAdcChannel(chId, capsense_ADC_AdcCHAN_CONNECT);
 580:Generated_Source\PSoC4/capsense_ADC_Adc.c ****                 capsense_ADC_dsRam.adcActiveCh = chId;
 581:Generated_Source\PSoC4/capsense_ADC_Adc.c ****             }
 582:Generated_Source\PSoC4/capsense_ADC_Adc.c **** 
 583:Generated_Source\PSoC4/capsense_ADC_Adc.c ****             /* Un-mask ADC_RES interrupt (enable interrupt) */
 584:Generated_Source\PSoC4/capsense_ADC_Adc.c ****             CY_SET_REG32(capsense_ADC_INTR_MASK_PTR, capsense_ADC_INTR_MASK_ADC_RES_MASK);
 585:Generated_Source\PSoC4/capsense_ADC_Adc.c ****             capsense_ADC_StartAdcFSM(capsense_ADC_AdcMEASMODE_VIN);
 586:Generated_Source\PSoC4/capsense_ADC_Adc.c ****         }
 587:Generated_Source\PSoC4/capsense_ADC_Adc.c ****     }
 588:Generated_Source\PSoC4/capsense_ADC_Adc.c **** 
 589:Generated_Source\PSoC4/capsense_ADC_Adc.c ****     #if (capsense_ADC_ENABLE != capsense_ADC_ADC_STANDALONE_EN)
 590:Generated_Source\PSoC4/capsense_ADC_Adc.c ****         }
 591:Generated_Source\PSoC4/capsense_ADC_Adc.c ****     #endif /* (capsense_ADC_ENABLE != capsense_ADC_ADC_STANDALONE_EN) */
 592:Generated_Source\PSoC4/capsense_ADC_Adc.c **** 
 593:Generated_Source\PSoC4/capsense_ADC_Adc.c ****     return tmpStatus;
 594:Generated_Source\PSoC4/capsense_ADC_Adc.c **** }
 595:Generated_Source\PSoC4/capsense_ADC_Adc.c **** 
 596:Generated_Source\PSoC4/capsense_ADC_Adc.c **** 
 597:Generated_Source\PSoC4/capsense_ADC_Adc.c **** /*******************************************************************************
 598:Generated_Source\PSoC4/capsense_ADC_Adc.c **** * Function Name: capsense_ADC_AdcIsBusy
 599:Generated_Source\PSoC4/capsense_ADC_Adc.c **** ****************************************************************************//**
 600:Generated_Source\PSoC4/capsense_ADC_Adc.c **** *
 601:Generated_Source\PSoC4/capsense_ADC_Adc.c **** * \brief
 602:Generated_Source\PSoC4/capsense_ADC_Adc.c **** *   The function returns the status of the ADC's operation.
 603:Generated_Source\PSoC4/capsense_ADC_Adc.c **** *
 604:Generated_Source\PSoC4/capsense_ADC_Adc.c **** * \details
 605:Generated_Source\PSoC4/capsense_ADC_Adc.c **** *   The function returns the status of the ADC's operation. A new conversion or
 606:Generated_Source\PSoC4/capsense_ADC_Adc.c **** *   calibration must not be started unless the ADC is in the IDLE state.
 607:Generated_Source\PSoC4/capsense_ADC_Adc.c **** *
 608:Generated_Source\PSoC4/capsense_ADC_Adc.c **** * \return
ARM GAS  C:\Users\ASUS\AppData\Local\Temp\ccDHWSgt.s 			page 17


 609:Generated_Source\PSoC4/capsense_ADC_Adc.c **** *  The function returns the status of the ADC's operation.
 610:Generated_Source\PSoC4/capsense_ADC_Adc.c **** *    - capsense_ADC_AdcSTATUS_IDLE - The ADC is not busy,
 611:Generated_Source\PSoC4/capsense_ADC_Adc.c **** *       a new conversion can be initiated.
 612:Generated_Source\PSoC4/capsense_ADC_Adc.c **** *    - capsense_ADC_AdcSTATUS_CONVERTING - A previously
 613:Generated_Source\PSoC4/capsense_ADC_Adc.c **** *       initiated conversion is in progress.
 614:Generated_Source\PSoC4/capsense_ADC_Adc.c **** *    - capsense_ADC_AdcSTATUS_CALIBPH1 - The ADC is in the
 615:Generated_Source\PSoC4/capsense_ADC_Adc.c **** *      first phase (of 3) of calibration.
 616:Generated_Source\PSoC4/capsense_ADC_Adc.c **** *    - capsense_ADC_AdcSTATUS_CALIBPH2 - The ADC is in the
 617:Generated_Source\PSoC4/capsense_ADC_Adc.c **** *      second phase (of 3) of calibration.
 618:Generated_Source\PSoC4/capsense_ADC_Adc.c **** *    - capsense_ADC_AdcSTATUS_CALIBPH3 - The ADC is in the
 619:Generated_Source\PSoC4/capsense_ADC_Adc.c **** *      third phase (of 3) of calibration.
 620:Generated_Source\PSoC4/capsense_ADC_Adc.c **** *    - capsense_ADC_AdcSTATUS_OVERFLOW - The most recent
 621:Generated_Source\PSoC4/capsense_ADC_Adc.c **** *      measurement caused an overflow. The root cause of the overflow may be
 622:Generated_Source\PSoC4/capsense_ADC_Adc.c **** *      the previous calibration values being invalid or the VDDA setting in cydwr
 623:Generated_Source\PSoC4/capsense_ADC_Adc.c **** *      and hardware do not match. Perform re-calibration or set the
 624:Generated_Source\PSoC4/capsense_ADC_Adc.c **** *      appropriate VDDA value in cydwr to avoid this error condition.
 625:Generated_Source\PSoC4/capsense_ADC_Adc.c **** *
 626:Generated_Source\PSoC4/capsense_ADC_Adc.c **** *******************************************************************************/
 627:Generated_Source\PSoC4/capsense_ADC_Adc.c **** uint8 capsense_ADC_AdcIsBusy(void)
 628:Generated_Source\PSoC4/capsense_ADC_Adc.c **** {
 304              		.loc 1 628 0
 305              		.cfi_startproc
 306              		@ args = 0, pretend = 0, frame = 0
 307              		@ frame_needed = 0, uses_anonymous_args = 0
 308              		@ link register save eliminated.
 629:Generated_Source\PSoC4/capsense_ADC_Adc.c ****     uint8 tmpStatus;
 630:Generated_Source\PSoC4/capsense_ADC_Adc.c **** 
 631:Generated_Source\PSoC4/capsense_ADC_Adc.c ****     if (0u != (capsense_ADC_ADC_RES_REG & capsense_ADC_AdcADC_RES_OVERFLOW_MASK))
 309              		.loc 1 631 0
 310 0000 054B     		ldr	r3, .L20
 311 0002 1B68     		ldr	r3, [r3]
 312 0004 5B00     		lsls	r3, r3, #1
 313 0006 05D4     		bmi	.L19
 632:Generated_Source\PSoC4/capsense_ADC_Adc.c ****     {
 633:Generated_Source\PSoC4/capsense_ADC_Adc.c ****         tmpStatus = capsense_ADC_AdcSTATUS_OVERFLOW;
 634:Generated_Source\PSoC4/capsense_ADC_Adc.c ****     }
 635:Generated_Source\PSoC4/capsense_ADC_Adc.c ****     else
 636:Generated_Source\PSoC4/capsense_ADC_Adc.c ****     {
 637:Generated_Source\PSoC4/capsense_ADC_Adc.c ****         tmpStatus = (uint8)((*(volatile uint8 *)&capsense_ADC_dsRam.adcStatus) & capsense_ADC_AdcST
 314              		.loc 1 637 0
 315 0008 2023     		movs	r3, #32
 316 000a 044A     		ldr	r2, .L20+4
 317 000c D05C     		ldrb	r0, [r2, r3]
 318 000e 113B     		subs	r3, r3, #17
 319 0010 9843     		bics	r0, r3
 320              	.LVL35:
 321 0012 00E0     		b	.L18
 322              	.LVL36:
 323              	.L19:
 633:Generated_Source\PSoC4/capsense_ADC_Adc.c ****     }
 324              		.loc 1 633 0
 325 0014 8020     		movs	r0, #128
 326              	.L18:
 327              	.LVL37:
 638:Generated_Source\PSoC4/capsense_ADC_Adc.c ****     }
 639:Generated_Source\PSoC4/capsense_ADC_Adc.c **** 
 640:Generated_Source\PSoC4/capsense_ADC_Adc.c ****     return tmpStatus;
ARM GAS  C:\Users\ASUS\AppData\Local\Temp\ccDHWSgt.s 			page 18


 641:Generated_Source\PSoC4/capsense_ADC_Adc.c **** }
 328              		.loc 1 641 0
 329              		@ sp needed
 330 0016 7047     		bx	lr
 331              	.L21:
 332              		.align	2
 333              	.L20:
 334 0018 E0000B40 		.word	1074462944
 335 001c 00000000 		.word	capsense_ADC_dsRam
 336              		.cfi_endproc
 337              	.LFE8:
 338              		.size	capsense_ADC_AdcIsBusy, .-capsense_ADC_AdcIsBusy
 339              		.section	.text.capsense_ADC_AdcGetResult_mVolts,"ax",%progbits
 340              		.align	2
 341              		.global	capsense_ADC_AdcGetResult_mVolts
 342              		.code	16
 343              		.thumb_func
 344              		.type	capsense_ADC_AdcGetResult_mVolts, %function
 345              	capsense_ADC_AdcGetResult_mVolts:
 346              	.LFB10:
 642:Generated_Source\PSoC4/capsense_ADC_Adc.c **** 
 643:Generated_Source\PSoC4/capsense_ADC_Adc.c **** 
 644:Generated_Source\PSoC4/capsense_ADC_Adc.c **** /*******************************************************************************
 645:Generated_Source\PSoC4/capsense_ADC_Adc.c **** * Function Name: capsense_ADC_AdcReadResult_mVolts
 646:Generated_Source\PSoC4/capsense_ADC_Adc.c **** ****************************************************************************//**
 647:Generated_Source\PSoC4/capsense_ADC_Adc.c **** *
 648:Generated_Source\PSoC4/capsense_ADC_Adc.c **** * \brief
 649:Generated_Source\PSoC4/capsense_ADC_Adc.c **** *  This is a blocking API. It initiates a conversion, waits for completion and
 650:Generated_Source\PSoC4/capsense_ADC_Adc.c **** *  returns the result.
 651:Generated_Source\PSoC4/capsense_ADC_Adc.c **** *
 652:Generated_Source\PSoC4/capsense_ADC_Adc.c **** * \details
 653:Generated_Source\PSoC4/capsense_ADC_Adc.c **** *  This is a blocking API. Internally, it starts a conversion using
 654:Generated_Source\PSoC4/capsense_ADC_Adc.c **** *  capsense_ADC_AdcStartConvert(), checks the status using
 655:Generated_Source\PSoC4/capsense_ADC_Adc.c **** *  capsense_ADC_AdcIsBusy(), waits until the conversion is
 656:Generated_Source\PSoC4/capsense_ADC_Adc.c **** *  completed and returns the result.
 657:Generated_Source\PSoC4/capsense_ADC_Adc.c **** *
 658:Generated_Source\PSoC4/capsense_ADC_Adc.c **** * \param chId
 659:Generated_Source\PSoC4/capsense_ADC_Adc.c **** *  The ID of the channel to be measured
 660:Generated_Source\PSoC4/capsense_ADC_Adc.c **** *
 661:Generated_Source\PSoC4/capsense_ADC_Adc.c **** * \return
 662:Generated_Source\PSoC4/capsense_ADC_Adc.c **** *  The function returns voltage in millivolts or
 663:Generated_Source\PSoC4/capsense_ADC_Adc.c **** *  capsense_ADC_AdcVALUE_BAD_RESULT if:
 664:Generated_Source\PSoC4/capsense_ADC_Adc.c **** *   - chId is invalid
 665:Generated_Source\PSoC4/capsense_ADC_Adc.c **** *   - The ADC conversion is not started
 666:Generated_Source\PSoC4/capsense_ADC_Adc.c **** *   - The ADC conversion watch-dog triggered.
 667:Generated_Source\PSoC4/capsense_ADC_Adc.c **** *
 668:Generated_Source\PSoC4/capsense_ADC_Adc.c **** *******************************************************************************/
 669:Generated_Source\PSoC4/capsense_ADC_Adc.c **** uint16 capsense_ADC_AdcReadResult_mVolts(uint8 chId)
 670:Generated_Source\PSoC4/capsense_ADC_Adc.c **** {
 671:Generated_Source\PSoC4/capsense_ADC_Adc.c ****     cystatus convertStatus;
 672:Generated_Source\PSoC4/capsense_ADC_Adc.c ****     uint16 tmpValue;
 673:Generated_Source\PSoC4/capsense_ADC_Adc.c ****     uint32 watchdogAdcCounter;
 674:Generated_Source\PSoC4/capsense_ADC_Adc.c **** 
 675:Generated_Source\PSoC4/capsense_ADC_Adc.c ****     convertStatus = capsense_ADC_AdcStartConvert(chId);
 676:Generated_Source\PSoC4/capsense_ADC_Adc.c ****     if (CYRET_SUCCESS == convertStatus)
 677:Generated_Source\PSoC4/capsense_ADC_Adc.c ****     {
 678:Generated_Source\PSoC4/capsense_ADC_Adc.c ****         /* Initialize Watchdog Counter with time interval which is enough to ADC conversion is comp
ARM GAS  C:\Users\ASUS\AppData\Local\Temp\ccDHWSgt.s 			page 19


 679:Generated_Source\PSoC4/capsense_ADC_Adc.c ****         watchdogAdcCounter = capsense_ADC_AdcCAL_WATCHDOG_CYCLES_NUM;
 680:Generated_Source\PSoC4/capsense_ADC_Adc.c ****         while ((capsense_ADC_AdcIsBusy() != capsense_ADC_AdcSTATUS_IDLE) &&
 681:Generated_Source\PSoC4/capsense_ADC_Adc.c ****                (0u != watchdogAdcCounter))
 682:Generated_Source\PSoC4/capsense_ADC_Adc.c ****         {
 683:Generated_Source\PSoC4/capsense_ADC_Adc.c ****             /* Wait until conversion complete and decrement Watchdog Counter to prevent unending lo
 684:Generated_Source\PSoC4/capsense_ADC_Adc.c ****             watchdogAdcCounter--;
 685:Generated_Source\PSoC4/capsense_ADC_Adc.c ****         }
 686:Generated_Source\PSoC4/capsense_ADC_Adc.c ****         if (0u != watchdogAdcCounter)
 687:Generated_Source\PSoC4/capsense_ADC_Adc.c ****         {
 688:Generated_Source\PSoC4/capsense_ADC_Adc.c ****             tmpValue = capsense_ADC_AdcGetResult_mVolts(chId);
 689:Generated_Source\PSoC4/capsense_ADC_Adc.c ****         }
 690:Generated_Source\PSoC4/capsense_ADC_Adc.c ****         else
 691:Generated_Source\PSoC4/capsense_ADC_Adc.c ****         {
 692:Generated_Source\PSoC4/capsense_ADC_Adc.c ****             tmpValue = (uint16) capsense_ADC_AdcVALUE_BAD_RESULT;
 693:Generated_Source\PSoC4/capsense_ADC_Adc.c ****         }
 694:Generated_Source\PSoC4/capsense_ADC_Adc.c ****     }
 695:Generated_Source\PSoC4/capsense_ADC_Adc.c ****     else
 696:Generated_Source\PSoC4/capsense_ADC_Adc.c ****     {
 697:Generated_Source\PSoC4/capsense_ADC_Adc.c ****         tmpValue = (uint16) capsense_ADC_AdcVALUE_BAD_RESULT;
 698:Generated_Source\PSoC4/capsense_ADC_Adc.c ****     }
 699:Generated_Source\PSoC4/capsense_ADC_Adc.c **** 
 700:Generated_Source\PSoC4/capsense_ADC_Adc.c ****     return tmpValue;
 701:Generated_Source\PSoC4/capsense_ADC_Adc.c **** }
 702:Generated_Source\PSoC4/capsense_ADC_Adc.c **** 
 703:Generated_Source\PSoC4/capsense_ADC_Adc.c **** 
 704:Generated_Source\PSoC4/capsense_ADC_Adc.c **** /*******************************************************************************
 705:Generated_Source\PSoC4/capsense_ADC_Adc.c **** * Function Name: capsense_ADC_AdcGetResult_mVolts
 706:Generated_Source\PSoC4/capsense_ADC_Adc.c **** ****************************************************************************//**
 707:Generated_Source\PSoC4/capsense_ADC_Adc.c **** *
 708:Generated_Source\PSoC4/capsense_ADC_Adc.c **** * \brief
 709:Generated_Source\PSoC4/capsense_ADC_Adc.c **** *  This API does not perform an ADC conversion and returns the last valid result
 710:Generated_Source\PSoC4/capsense_ADC_Adc.c **** *  for the specified channel.
 711:Generated_Source\PSoC4/capsense_ADC_Adc.c **** *
 712:Generated_Source\PSoC4/capsense_ADC_Adc.c **** * \details
 713:Generated_Source\PSoC4/capsense_ADC_Adc.c **** *  Returns the last valid result from the data structure for the specified channel.
 714:Generated_Source\PSoC4/capsense_ADC_Adc.c **** *  This function can be used to read a previous result of any channel even if the
 715:Generated_Source\PSoC4/capsense_ADC_Adc.c **** *  ADC is busy or a conversion is in progress. However, it is highly recommended
 716:Generated_Source\PSoC4/capsense_ADC_Adc.c **** *  not to use this function with a channel that is in an active conversion.
 717:Generated_Source\PSoC4/capsense_ADC_Adc.c **** *
 718:Generated_Source\PSoC4/capsense_ADC_Adc.c **** * \param chId
 719:Generated_Source\PSoC4/capsense_ADC_Adc.c **** *  The ID of the channel to be measured
 720:Generated_Source\PSoC4/capsense_ADC_Adc.c **** *
 721:Generated_Source\PSoC4/capsense_ADC_Adc.c **** * \return
 722:Generated_Source\PSoC4/capsense_ADC_Adc.c **** *  The function returns a voltage in millivolts or
 723:Generated_Source\PSoC4/capsense_ADC_Adc.c **** *  capsense_ADC_AdcVALUE_BAD_CHAN_ID if chId is invalid.
 724:Generated_Source\PSoC4/capsense_ADC_Adc.c **** *
 725:Generated_Source\PSoC4/capsense_ADC_Adc.c **** *******************************************************************************/
 726:Generated_Source\PSoC4/capsense_ADC_Adc.c **** uint16 capsense_ADC_AdcGetResult_mVolts(uint8 chId)
 727:Generated_Source\PSoC4/capsense_ADC_Adc.c **** {
 347              		.loc 1 727 0
 348              		.cfi_startproc
 349              		@ args = 0, pretend = 0, frame = 0
 350              		@ frame_needed = 0, uses_anonymous_args = 0
 351              		@ link register save eliminated.
 352              	.LVL38:
 728:Generated_Source\PSoC4/capsense_ADC_Adc.c ****     uint32 tmpRetVal = capsense_ADC_AdcVALUE_BAD_CHAN_ID;
 729:Generated_Source\PSoC4/capsense_ADC_Adc.c **** 
ARM GAS  C:\Users\ASUS\AppData\Local\Temp\ccDHWSgt.s 			page 20


 730:Generated_Source\PSoC4/capsense_ADC_Adc.c ****     if(chId < capsense_ADC_ADC_TOTAL_CHANNELS)
 353              		.loc 1 730 0
 354 0000 0028     		cmp	r0, #0
 355 0002 05D1     		bne	.L24
 731:Generated_Source\PSoC4/capsense_ADC_Adc.c ****     {
 732:Generated_Source\PSoC4/capsense_ADC_Adc.c ****         tmpRetVal = capsense_ADC_dsRam.adcResult[chId];
 356              		.loc 1 732 0
 357 0004 0C30     		adds	r0, r0, #12
 358              	.LVL39:
 359 0006 4000     		lsls	r0, r0, #1
 360 0008 034B     		ldr	r3, .L25
 361 000a 1818     		adds	r0, r3, r0
 362 000c 8088     		ldrh	r0, [r0, #4]
 363              	.LVL40:
 364 000e 00E0     		b	.L23
 365              	.LVL41:
 366              	.L24:
 728:Generated_Source\PSoC4/capsense_ADC_Adc.c ****     uint32 tmpRetVal = capsense_ADC_AdcVALUE_BAD_CHAN_ID;
 367              		.loc 1 728 0
 368 0010 0248     		ldr	r0, .L25+4
 369              	.LVL42:
 370              	.L23:
 733:Generated_Source\PSoC4/capsense_ADC_Adc.c ****     }
 734:Generated_Source\PSoC4/capsense_ADC_Adc.c ****     return (uint16)tmpRetVal;
 371              		.loc 1 734 0
 372 0012 80B2     		uxth	r0, r0
 373              	.LVL43:
 735:Generated_Source\PSoC4/capsense_ADC_Adc.c **** }
 374              		.loc 1 735 0
 375              		@ sp needed
 376 0014 7047     		bx	lr
 377              	.L26:
 378 0016 C046     		.align	2
 379              	.L25:
 380 0018 00000000 		.word	capsense_ADC_dsRam
 381 001c FFFF0000 		.word	65535
 382              		.cfi_endproc
 383              	.LFE10:
 384              		.size	capsense_ADC_AdcGetResult_mVolts, .-capsense_ADC_AdcGetResult_mVolts
 385              		.section	.text.capsense_ADC_ClearAdcChannels,"ax",%progbits
 386              		.align	2
 387              		.global	capsense_ADC_ClearAdcChannels
 388              		.code	16
 389              		.thumb_func
 390              		.type	capsense_ADC_ClearAdcChannels, %function
 391              	capsense_ADC_ClearAdcChannels:
 392              	.LFB15:
 736:Generated_Source\PSoC4/capsense_ADC_Adc.c **** 
 737:Generated_Source\PSoC4/capsense_ADC_Adc.c **** 
 738:Generated_Source\PSoC4/capsense_ADC_Adc.c **** /*******************************************************************************
 739:Generated_Source\PSoC4/capsense_ADC_Adc.c **** * Function Name: capsense_ADC_AdcCalibrate
 740:Generated_Source\PSoC4/capsense_ADC_Adc.c **** ****************************************************************************//**
 741:Generated_Source\PSoC4/capsense_ADC_Adc.c **** *
 742:Generated_Source\PSoC4/capsense_ADC_Adc.c **** * \brief
 743:Generated_Source\PSoC4/capsense_ADC_Adc.c **** *  Performs calibration of the ADC module.
 744:Generated_Source\PSoC4/capsense_ADC_Adc.c **** *
 745:Generated_Source\PSoC4/capsense_ADC_Adc.c **** * \details
ARM GAS  C:\Users\ASUS\AppData\Local\Temp\ccDHWSgt.s 			page 21


 746:Generated_Source\PSoC4/capsense_ADC_Adc.c **** *  Performs calibration for the ADC to identify the appropriate hardware configuration
 747:Generated_Source\PSoC4/capsense_ADC_Adc.c **** *  to produce accurate results. It is recommended to run the calibration
 748:Generated_Source\PSoC4/capsense_ADC_Adc.c **** *  periodically (for example every 10 seconds) for accuracy and compensations.
 749:Generated_Source\PSoC4/capsense_ADC_Adc.c **** *
 750:Generated_Source\PSoC4/capsense_ADC_Adc.c **** * \return
 751:Generated_Source\PSoC4/capsense_ADC_Adc.c **** *  The function returns cystatus of its operation.
 752:Generated_Source\PSoC4/capsense_ADC_Adc.c **** *    - CYRET_SUCCESS - The block is configured for the ADC use.
 753:Generated_Source\PSoC4/capsense_ADC_Adc.c **** *    - CYRET_LOCKED - The hardware is already in-use by a previously initialized
 754:Generated_Source\PSoC4/capsense_ADC_Adc.c **** *      conversion or other functionality. No new conversion is started by this API.
 755:Generated_Source\PSoC4/capsense_ADC_Adc.c **** *
 756:Generated_Source\PSoC4/capsense_ADC_Adc.c **** *******************************************************************************/
 757:Generated_Source\PSoC4/capsense_ADC_Adc.c **** cystatus capsense_ADC_AdcCalibrate(void)
 758:Generated_Source\PSoC4/capsense_ADC_Adc.c **** {
 759:Generated_Source\PSoC4/capsense_ADC_Adc.c ****     uint32 tmpStatus;
 760:Generated_Source\PSoC4/capsense_ADC_Adc.c ****     uint32 watchdogAdcCounter;
 761:Generated_Source\PSoC4/capsense_ADC_Adc.c ****     uint32 tmpVrefCal;
 762:Generated_Source\PSoC4/capsense_ADC_Adc.c **** 
 763:Generated_Source\PSoC4/capsense_ADC_Adc.c ****     tmpStatus = capsense_ADC_AdcCaptureResources();
 764:Generated_Source\PSoC4/capsense_ADC_Adc.c **** 
 765:Generated_Source\PSoC4/capsense_ADC_Adc.c ****     if(capsense_ADC_AdcSTATUS_IDLE != (capsense_ADC_dsRam.adcStatus
 766:Generated_Source\PSoC4/capsense_ADC_Adc.c ****         & capsense_ADC_AdcSTATUS_FSM_MASK))
 767:Generated_Source\PSoC4/capsense_ADC_Adc.c ****     {
 768:Generated_Source\PSoC4/capsense_ADC_Adc.c ****         tmpStatus = CYRET_LOCKED;
 769:Generated_Source\PSoC4/capsense_ADC_Adc.c ****     }
 770:Generated_Source\PSoC4/capsense_ADC_Adc.c **** 
 771:Generated_Source\PSoC4/capsense_ADC_Adc.c ****     if (CYRET_SUCCESS == tmpStatus)
 772:Generated_Source\PSoC4/capsense_ADC_Adc.c ****     {
 773:Generated_Source\PSoC4/capsense_ADC_Adc.c ****         #if(capsense_ADC_ADC_ANALOG_STARTUP_DELAY_US > 0uL)
 774:Generated_Source\PSoC4/capsense_ADC_Adc.c ****             CyDelayUs(capsense_ADC_ADC_ANALOG_STARTUP_DELAY_US);
 775:Generated_Source\PSoC4/capsense_ADC_Adc.c ****         #endif /* (capsense_ADC_ADC_ANALOG_STARTUP_DELAY_US > 0uL) */
 776:Generated_Source\PSoC4/capsense_ADC_Adc.c **** 
 777:Generated_Source\PSoC4/capsense_ADC_Adc.c ****         /* Disconnect a channel if connected */
 778:Generated_Source\PSoC4/capsense_ADC_Adc.c ****         if (capsense_ADC_AdcNO_CHANNEL != capsense_ADC_dsRam.adcActiveCh)
 779:Generated_Source\PSoC4/capsense_ADC_Adc.c ****         {
 780:Generated_Source\PSoC4/capsense_ADC_Adc.c ****             capsense_ADC_SetAdcChannel(capsense_ADC_dsRam.adcActiveCh, capsense_ADC_AdcCHAN_DISCONN
 781:Generated_Source\PSoC4/capsense_ADC_Adc.c ****             capsense_ADC_dsRam.adcActiveCh = capsense_ADC_AdcNO_CHANNEL;
 782:Generated_Source\PSoC4/capsense_ADC_Adc.c ****         }
 783:Generated_Source\PSoC4/capsense_ADC_Adc.c **** 
 784:Generated_Source\PSoC4/capsense_ADC_Adc.c ****         /* Get Vref trim-value */
 785:Generated_Source\PSoC4/capsense_ADC_Adc.c ****         tmpVrefCal = (uint32)CY_GET_REG8(CYREG_SFLASH_CSDV2_CSD0_ADC_TRIM1) |
 786:Generated_Source\PSoC4/capsense_ADC_Adc.c ****             (((uint32)CY_GET_REG8(CYREG_SFLASH_CSDV2_CSD0_ADC_TRIM2)) << 8u);
 787:Generated_Source\PSoC4/capsense_ADC_Adc.c **** 
 788:Generated_Source\PSoC4/capsense_ADC_Adc.c ****         /* Update nominal Vref to real Vref */
 789:Generated_Source\PSoC4/capsense_ADC_Adc.c ****         tmpVrefCal *= capsense_ADC_ADC_VREF_MV;
 790:Generated_Source\PSoC4/capsense_ADC_Adc.c ****         tmpVrefCal /= capsense_ADC_AdcVREFCALIB_BASE;
 791:Generated_Source\PSoC4/capsense_ADC_Adc.c **** 
 792:Generated_Source\PSoC4/capsense_ADC_Adc.c ****         capsense_ADC_adcVrefMv = (uint16)tmpVrefCal;
 793:Generated_Source\PSoC4/capsense_ADC_Adc.c **** 
 794:Generated_Source\PSoC4/capsense_ADC_Adc.c ****         capsense_ADC_dsRam.adcIdac = (uint8)capsense_ADC_ADC_IDAC_DEFAULT;
 795:Generated_Source\PSoC4/capsense_ADC_Adc.c ****         CY_SET_REG32(capsense_ADC_CSD_IDACB_PTR, capsense_ADC_AdcIDACB_CONFIG |
 796:Generated_Source\PSoC4/capsense_ADC_Adc.c ****                                                      capsense_ADC_dsRam.adcIdac);
 797:Generated_Source\PSoC4/capsense_ADC_Adc.c **** 
 798:Generated_Source\PSoC4/capsense_ADC_Adc.c ****         capsense_ADC_dsRam.adcStatus = (capsense_ADC_AdcSTATUS_CALIBPH1);
 799:Generated_Source\PSoC4/capsense_ADC_Adc.c **** 
 800:Generated_Source\PSoC4/capsense_ADC_Adc.c ****         /* Un-mask ADC_RES interrupt (enable interrupt) */
 801:Generated_Source\PSoC4/capsense_ADC_Adc.c ****         CY_SET_REG32(capsense_ADC_INTR_MASK_PTR, capsense_ADC_INTR_MASK_ADC_RES_MASK);
 802:Generated_Source\PSoC4/capsense_ADC_Adc.c ****         capsense_ADC_StartAdcFSM(capsense_ADC_AdcMEASMODE_VREF);
ARM GAS  C:\Users\ASUS\AppData\Local\Temp\ccDHWSgt.s 			page 22


 803:Generated_Source\PSoC4/capsense_ADC_Adc.c **** 
 804:Generated_Source\PSoC4/capsense_ADC_Adc.c ****         /* Global CRC update */
 805:Generated_Source\PSoC4/capsense_ADC_Adc.c ****         #if (capsense_ADC_ENABLE == capsense_ADC_SELF_TEST_EN)
 806:Generated_Source\PSoC4/capsense_ADC_Adc.c ****             #if (capsense_ADC_ENABLE ==capsense_ADC_TST_GLOBAL_CRC_EN)
 807:Generated_Source\PSoC4/capsense_ADC_Adc.c ****                 capsense_ADC_DsUpdateGlobalCrc();
 808:Generated_Source\PSoC4/capsense_ADC_Adc.c ****             #endif /* (capsense_ADC_ENABLE == capsense_ADC_TST_GLOBAL_CRC_EN) */
 809:Generated_Source\PSoC4/capsense_ADC_Adc.c ****         #endif /* (capsense_ADC_ENABLE == capsense_ADC_SELF_TEST_EN) */
 810:Generated_Source\PSoC4/capsense_ADC_Adc.c **** 
 811:Generated_Source\PSoC4/capsense_ADC_Adc.c ****         /* Initialize Watchdog Counter with time interval which is enough to ADC calibration is com
 812:Generated_Source\PSoC4/capsense_ADC_Adc.c ****         watchdogAdcCounter = capsense_ADC_AdcCAL_WATCHDOG_CYCLES_NUM;
 813:Generated_Source\PSoC4/capsense_ADC_Adc.c ****         while (((*(volatile uint8 *)&capsense_ADC_dsRam.adcStatus & capsense_ADC_AdcSTATUS_FSM_MASK
 814:Generated_Source\PSoC4/capsense_ADC_Adc.c ****                 != 0u) &&  (0u != watchdogAdcCounter))
 815:Generated_Source\PSoC4/capsense_ADC_Adc.c ****         {
 816:Generated_Source\PSoC4/capsense_ADC_Adc.c ****             /* Wait until scan complete and decrement Watchdog Counter to prevent unending loop */
 817:Generated_Source\PSoC4/capsense_ADC_Adc.c ****             watchdogAdcCounter--;
 818:Generated_Source\PSoC4/capsense_ADC_Adc.c ****         }
 819:Generated_Source\PSoC4/capsense_ADC_Adc.c ****     }
 820:Generated_Source\PSoC4/capsense_ADC_Adc.c **** 
 821:Generated_Source\PSoC4/capsense_ADC_Adc.c ****     return tmpStatus;
 822:Generated_Source\PSoC4/capsense_ADC_Adc.c **** }
 823:Generated_Source\PSoC4/capsense_ADC_Adc.c **** 
 824:Generated_Source\PSoC4/capsense_ADC_Adc.c **** 
 825:Generated_Source\PSoC4/capsense_ADC_Adc.c **** /*******************************************************************************
 826:Generated_Source\PSoC4/capsense_ADC_Adc.c **** * Function Name: capsense_ADC_AdcInitialize
 827:Generated_Source\PSoC4/capsense_ADC_Adc.c **** ****************************************************************************//**
 828:Generated_Source\PSoC4/capsense_ADC_Adc.c **** *
 829:Generated_Source\PSoC4/capsense_ADC_Adc.c **** * \brief
 830:Generated_Source\PSoC4/capsense_ADC_Adc.c **** *   Configures the hardware to ADC mode and begins a calibration.
 831:Generated_Source\PSoC4/capsense_ADC_Adc.c **** *
 832:Generated_Source\PSoC4/capsense_ADC_Adc.c **** * \details
 833:Generated_Source\PSoC4/capsense_ADC_Adc.c **** *   Configures the hardware to ADC mode and begins a calibration.
 834:Generated_Source\PSoC4/capsense_ADC_Adc.c **** *
 835:Generated_Source\PSoC4/capsense_ADC_Adc.c **** *******************************************************************************/
 836:Generated_Source\PSoC4/capsense_ADC_Adc.c **** void capsense_ADC_AdcInitialize(void)
 837:Generated_Source\PSoC4/capsense_ADC_Adc.c **** {
 838:Generated_Source\PSoC4/capsense_ADC_Adc.c ****     capsense_ADC_ConfigAdcResources();
 839:Generated_Source\PSoC4/capsense_ADC_Adc.c ****     (void)capsense_ADC_AdcCalibrate();
 840:Generated_Source\PSoC4/capsense_ADC_Adc.c **** }
 841:Generated_Source\PSoC4/capsense_ADC_Adc.c **** 
 842:Generated_Source\PSoC4/capsense_ADC_Adc.c **** 
 843:Generated_Source\PSoC4/capsense_ADC_Adc.c **** /*******************************************************************************
 844:Generated_Source\PSoC4/capsense_ADC_Adc.c **** * Function Name: capsense_ADC_AdcStop
 845:Generated_Source\PSoC4/capsense_ADC_Adc.c **** ****************************************************************************//**
 846:Generated_Source\PSoC4/capsense_ADC_Adc.c **** *
 847:Generated_Source\PSoC4/capsense_ADC_Adc.c **** * \brief
 848:Generated_Source\PSoC4/capsense_ADC_Adc.c **** *   Disables the hardware sub-blocks that are in use while in the ADC mode,
 849:Generated_Source\PSoC4/capsense_ADC_Adc.c **** *   and frees the routing.
 850:Generated_Source\PSoC4/capsense_ADC_Adc.c **** *
 851:Generated_Source\PSoC4/capsense_ADC_Adc.c **** * \details
 852:Generated_Source\PSoC4/capsense_ADC_Adc.c **** *   This function stops the Component operation. No ADC conversion can be
 853:Generated_Source\PSoC4/capsense_ADC_Adc.c **** *   initiated when the Component is stopped. Once stopped, the hardware block
 854:Generated_Source\PSoC4/capsense_ADC_Adc.c **** *   may be reconfigured by the application program for any other special usage.
 855:Generated_Source\PSoC4/capsense_ADC_Adc.c **** *   The ADC operation can be resumed by calling the
 856:Generated_Source\PSoC4/capsense_ADC_Adc.c **** *   capsense_ADC_AdcResume() function or the Component can
 857:Generated_Source\PSoC4/capsense_ADC_Adc.c **** *   be reset by calling the capsense_ADC_Start() function.
 858:Generated_Source\PSoC4/capsense_ADC_Adc.c **** *   This function is called when no ADC conversion is in progress.
 859:Generated_Source\PSoC4/capsense_ADC_Adc.c **** *
ARM GAS  C:\Users\ASUS\AppData\Local\Temp\ccDHWSgt.s 			page 23


 860:Generated_Source\PSoC4/capsense_ADC_Adc.c **** *******************************************************************************/
 861:Generated_Source\PSoC4/capsense_ADC_Adc.c **** void capsense_ADC_AdcStop(void)
 862:Generated_Source\PSoC4/capsense_ADC_Adc.c **** {
 863:Generated_Source\PSoC4/capsense_ADC_Adc.c ****     #if (capsense_ADC_ENABLE != capsense_ADC_ADC_STANDALONE_EN)
 864:Generated_Source\PSoC4/capsense_ADC_Adc.c ****         (void)capsense_ADC_AdcReleaseResources();
 865:Generated_Source\PSoC4/capsense_ADC_Adc.c ****     #endif /* (capsense_ADC_ENABLE != capsense_ADC_ADC_STANDALONE_EN) */
 866:Generated_Source\PSoC4/capsense_ADC_Adc.c ****     capsense_ADC_initVar = capsense_ADC_AdcINIT_NEEDED;
 867:Generated_Source\PSoC4/capsense_ADC_Adc.c **** }
 868:Generated_Source\PSoC4/capsense_ADC_Adc.c **** 
 869:Generated_Source\PSoC4/capsense_ADC_Adc.c **** 
 870:Generated_Source\PSoC4/capsense_ADC_Adc.c **** /*******************************************************************************
 871:Generated_Source\PSoC4/capsense_ADC_Adc.c **** * Function Name: capsense_ADC_AdcResume
 872:Generated_Source\PSoC4/capsense_ADC_Adc.c **** ****************************************************************************//**
 873:Generated_Source\PSoC4/capsense_ADC_Adc.c **** *
 874:Generated_Source\PSoC4/capsense_ADC_Adc.c **** * \brief
 875:Generated_Source\PSoC4/capsense_ADC_Adc.c **** *   Resumes the ADC operation after a stop call.
 876:Generated_Source\PSoC4/capsense_ADC_Adc.c **** *
 877:Generated_Source\PSoC4/capsense_ADC_Adc.c **** * \details
 878:Generated_Source\PSoC4/capsense_ADC_Adc.c **** *   Resumes the ADC operation if the operation is stopped
 879:Generated_Source\PSoC4/capsense_ADC_Adc.c **** *   previously by the capsense_ADC_AdcStop() API.
 880:Generated_Source\PSoC4/capsense_ADC_Adc.c **** *
 881:Generated_Source\PSoC4/capsense_ADC_Adc.c **** *******************************************************************************/
 882:Generated_Source\PSoC4/capsense_ADC_Adc.c **** void capsense_ADC_AdcResume(void)
 883:Generated_Source\PSoC4/capsense_ADC_Adc.c **** {
 884:Generated_Source\PSoC4/capsense_ADC_Adc.c ****     capsense_ADC_AdcInitialize();
 885:Generated_Source\PSoC4/capsense_ADC_Adc.c **** }
 886:Generated_Source\PSoC4/capsense_ADC_Adc.c **** 
 887:Generated_Source\PSoC4/capsense_ADC_Adc.c **** 
 888:Generated_Source\PSoC4/capsense_ADC_Adc.c **** /*******************************************************************************
 889:Generated_Source\PSoC4/capsense_ADC_Adc.c **** * Function Name: capsense_ADC_ClearAdcChannels
 890:Generated_Source\PSoC4/capsense_ADC_Adc.c **** ****************************************************************************//**
 891:Generated_Source\PSoC4/capsense_ADC_Adc.c **** *
 892:Generated_Source\PSoC4/capsense_ADC_Adc.c **** * \brief
 893:Generated_Source\PSoC4/capsense_ADC_Adc.c **** *  Resets all the ADC channels to disconnected state.
 894:Generated_Source\PSoC4/capsense_ADC_Adc.c **** *
 895:Generated_Source\PSoC4/capsense_ADC_Adc.c **** * \details
 896:Generated_Source\PSoC4/capsense_ADC_Adc.c **** *   The function goes through all the ADC channels and disconnects the pin
 897:Generated_Source\PSoC4/capsense_ADC_Adc.c **** *   and the analog muxbus B.  Sets the drive mode of the pin as well.
 898:Generated_Source\PSoC4/capsense_ADC_Adc.c **** *
 899:Generated_Source\PSoC4/capsense_ADC_Adc.c **** *******************************************************************************/
 900:Generated_Source\PSoC4/capsense_ADC_Adc.c **** void capsense_ADC_ClearAdcChannels(void)
 901:Generated_Source\PSoC4/capsense_ADC_Adc.c **** {
 393              		.loc 1 901 0
 394              		.cfi_startproc
 395              		@ args = 0, pretend = 0, frame = 0
 396              		@ frame_needed = 0, uses_anonymous_args = 0
 397 0000 10B5     		push	{r4, lr}
 398              		.cfi_def_cfa_offset 8
 399              		.cfi_offset 4, -8
 400              		.cfi_offset 14, -4
 401              	.LVL44:
 902:Generated_Source\PSoC4/capsense_ADC_Adc.c ****     uint32 chId;
 903:Generated_Source\PSoC4/capsense_ADC_Adc.c **** 
 904:Generated_Source\PSoC4/capsense_ADC_Adc.c ****     for (chId = 0u; chId < capsense_ADC_ADC_TOTAL_CHANNELS; chId++)
 402              		.loc 1 904 0
 403 0002 0024     		movs	r4, #0
 404 0004 04E0     		b	.L28
ARM GAS  C:\Users\ASUS\AppData\Local\Temp\ccDHWSgt.s 			page 24


 405              	.LVL45:
 406              	.L29:
 905:Generated_Source\PSoC4/capsense_ADC_Adc.c ****     {
 906:Generated_Source\PSoC4/capsense_ADC_Adc.c ****         capsense_ADC_SetAdcChannel((uint8)chId, capsense_ADC_AdcCHAN_DISCONNECT);
 407              		.loc 1 906 0 discriminator 3
 408 0006 E0B2     		uxtb	r0, r4
 409 0008 0021     		movs	r1, #0
 410 000a FFF7FEFF 		bl	capsense_ADC_SetAdcChannel
 411              	.LVL46:
 904:Generated_Source\PSoC4/capsense_ADC_Adc.c ****     {
 412              		.loc 1 904 0 discriminator 3
 413 000e 0134     		adds	r4, r4, #1
 414              	.LVL47:
 415              	.L28:
 904:Generated_Source\PSoC4/capsense_ADC_Adc.c ****     {
 416              		.loc 1 904 0 is_stmt 0 discriminator 1
 417 0010 002C     		cmp	r4, #0
 418 0012 F8D0     		beq	.L29
 907:Generated_Source\PSoC4/capsense_ADC_Adc.c ****     }
 908:Generated_Source\PSoC4/capsense_ADC_Adc.c ****     capsense_ADC_dsRam.adcActiveCh = capsense_ADC_AdcNO_CHANNEL;
 419              		.loc 1 908 0 is_stmt 1
 420 0014 FF21     		movs	r1, #255
 421 0016 2223     		movs	r3, #34
 422 0018 014A     		ldr	r2, .L30
 423 001a D154     		strb	r1, [r2, r3]
 909:Generated_Source\PSoC4/capsense_ADC_Adc.c **** }
 424              		.loc 1 909 0
 425              		@ sp needed
 426              	.LVL48:
 427 001c 10BD     		pop	{r4, pc}
 428              	.L31:
 429 001e C046     		.align	2
 430              	.L30:
 431 0020 00000000 		.word	capsense_ADC_dsRam
 432              		.cfi_endproc
 433              	.LFE15:
 434              		.size	capsense_ADC_ClearAdcChannels, .-capsense_ADC_ClearAdcChannels
 435              		.section	.text.capsense_ADC_AdcReleaseResources,"ax",%progbits
 436              		.align	2
 437              		.global	capsense_ADC_AdcReleaseResources
 438              		.code	16
 439              		.thumb_func
 440              		.type	capsense_ADC_AdcReleaseResources, %function
 441              	capsense_ADC_AdcReleaseResources:
 442              	.LFB6:
 456:Generated_Source\PSoC4/capsense_ADC_Adc.c ****     uint8  interruptState;
 443              		.loc 1 456 0
 444              		.cfi_startproc
 445              		@ args = 0, pretend = 0, frame = 0
 446              		@ frame_needed = 0, uses_anonymous_args = 0
 447 0000 70B5     		push	{r4, r5, r6, lr}
 448              		.cfi_def_cfa_offset 16
 449              		.cfi_offset 4, -16
 450              		.cfi_offset 5, -12
 451              		.cfi_offset 6, -8
 452              		.cfi_offset 14, -4
 460:Generated_Source\PSoC4/capsense_ADC_Adc.c ****     {
ARM GAS  C:\Users\ASUS\AppData\Local\Temp\ccDHWSgt.s 			page 25


 453              		.loc 1 460 0
 454 0002 1E4B     		ldr	r3, .L35
 455 0004 1B78     		ldrb	r3, [r3]
 456 0006 012B     		cmp	r3, #1
 457 0008 36D1     		bne	.L33
 463:Generated_Source\PSoC4/capsense_ADC_Adc.c ****                             & capsense_ADC_AdcSTATUS_FSM_MASK))
 458              		.loc 1 463 0
 459 000a 1F33     		adds	r3, r3, #31
 460 000c 1C4A     		ldr	r2, .L35+4
 461 000e D35C     		ldrb	r3, [r2, r3]
 462 0010 0F22     		movs	r2, #15
 463 0012 9343     		bics	r3, r2
 464 0014 0CD0     		beq	.L34
 466:Generated_Source\PSoC4/capsense_ADC_Adc.c ****             capsense_ADC_SetAdcChannel((capsense_ADC_dsRam.adcStatus
 465              		.loc 1 466 0
 466 0016 0020     		movs	r0, #0
 467 0018 FFF7FEFF 		bl	capsense_ADC_StartAdcFSM
 468              	.LVL49:
 467:Generated_Source\PSoC4/capsense_ADC_Adc.c ****                             & (uint8)(capsense_ADC_AdcSTATUS_LASTCHAN_MASK)),
 469              		.loc 1 467 0
 470 001c 184D     		ldr	r5, .L35+4
 471 001e 2024     		movs	r4, #32
 472 0020 285D     		ldrb	r0, [r5, r4]
 473 0022 0F23     		movs	r3, #15
 474 0024 1840     		ands	r0, r3
 475 0026 0021     		movs	r1, #0
 476 0028 FFF7FEFF 		bl	capsense_ADC_SetAdcChannel
 477              	.LVL50:
 470:Generated_Source\PSoC4/capsense_ADC_Adc.c ****         }
 478              		.loc 1 470 0
 479 002c 0023     		movs	r3, #0
 480 002e 2B55     		strb	r3, [r5, r4]
 481              	.L34:
 474:Generated_Source\PSoC4/capsense_ADC_Adc.c ****         CY_SET_REG32(capsense_ADC_REFGEN_PTR, 0u);
 482              		.loc 1 474 0
 483 0030 0024     		movs	r4, #0
 484 0032 144B     		ldr	r3, .L35+8
 485 0034 1C60     		str	r4, [r3]
 475:Generated_Source\PSoC4/capsense_ADC_Adc.c ****         CY_SET_REG32(capsense_ADC_AMBUF_PTR, 0u);
 486              		.loc 1 475 0
 487 0036 144B     		ldr	r3, .L35+12
 488 0038 1C60     		str	r4, [r3]
 476:Generated_Source\PSoC4/capsense_ADC_Adc.c ****         CY_SET_REG32(capsense_ADC_HSCMP_PTR, 0u);
 489              		.loc 1 476 0
 490 003a 144B     		ldr	r3, .L35+16
 491 003c 1C60     		str	r4, [r3]
 477:Generated_Source\PSoC4/capsense_ADC_Adc.c **** 
 492              		.loc 1 477 0
 493 003e 144B     		ldr	r3, .L35+20
 494 0040 1C60     		str	r4, [r3]
 480:Generated_Source\PSoC4/capsense_ADC_Adc.c ****         CY_SET_REG32(capsense_ADC_SW_HS_N_SEL_PTR, 0u);
 495              		.loc 1 480 0
 496 0042 144B     		ldr	r3, .L35+24
 497 0044 1C60     		str	r4, [r3]
 481:Generated_Source\PSoC4/capsense_ADC_Adc.c ****         CY_SET_REG32(capsense_ADC_SW_SHIELD_SEL_PTR, 0u);
 498              		.loc 1 481 0
 499 0046 144B     		ldr	r3, .L35+28
ARM GAS  C:\Users\ASUS\AppData\Local\Temp\ccDHWSgt.s 			page 26


 500 0048 1C60     		str	r4, [r3]
 482:Generated_Source\PSoC4/capsense_ADC_Adc.c ****         CY_SET_REG32(capsense_ADC_SW_CMP_P_SEL_PTR, 0u);
 501              		.loc 1 482 0
 502 004a 144B     		ldr	r3, .L35+32
 503 004c 1C60     		str	r4, [r3]
 483:Generated_Source\PSoC4/capsense_ADC_Adc.c ****         CY_SET_REG32(capsense_ADC_SW_CMP_N_SEL_PTR, 0u);
 504              		.loc 1 483 0
 505 004e 144B     		ldr	r3, .L35+36
 506 0050 1C60     		str	r4, [r3]
 484:Generated_Source\PSoC4/capsense_ADC_Adc.c ****         CY_SET_REG32(capsense_ADC_SW_FW_MOD_SEL_PTR, 0u);
 507              		.loc 1 484 0
 508 0052 144B     		ldr	r3, .L35+40
 509 0054 1C60     		str	r4, [r3]
 485:Generated_Source\PSoC4/capsense_ADC_Adc.c ****         CY_SET_REG32(capsense_ADC_SW_FW_TANK_SEL_PTR, 0u);
 510              		.loc 1 485 0
 511 0056 144B     		ldr	r3, .L35+44
 512 0058 1C60     		str	r4, [r3]
 486:Generated_Source\PSoC4/capsense_ADC_Adc.c **** 
 513              		.loc 1 486 0
 514 005a 144B     		ldr	r3, .L35+48
 515 005c 1C60     		str	r4, [r3]
 488:Generated_Source\PSoC4/capsense_ADC_Adc.c ****         newRegValue = CY_GET_REG32(capsense_ADC_SW_BYP_SEL_PTR);
 516              		.loc 1 488 0
 517 005e FFF7FEFF 		bl	CyEnterCriticalSection
 518              	.LVL51:
 489:Generated_Source\PSoC4/capsense_ADC_Adc.c ****         newRegValue &= (uint32)(~capsense_ADC_AdcSW_BYP_DEFAULT);
 519              		.loc 1 489 0
 520 0062 134A     		ldr	r2, .L35+52
 521 0064 1168     		ldr	r1, [r2]
 522              	.LVL52:
 490:Generated_Source\PSoC4/capsense_ADC_Adc.c ****         CY_SET_REG32(capsense_ADC_SW_BYP_SEL_PTR, newRegValue);
 523              		.loc 1 490 0
 524 0066 134B     		ldr	r3, .L35+56
 525 0068 0B40     		ands	r3, r1
 526              	.LVL53:
 491:Generated_Source\PSoC4/capsense_ADC_Adc.c ****         CyExitCriticalSection(interruptState);
 527              		.loc 1 491 0
 528 006a 1360     		str	r3, [r2]
 492:Generated_Source\PSoC4/capsense_ADC_Adc.c **** 
 529              		.loc 1 492 0
 530 006c FFF7FEFF 		bl	CyExitCriticalSection
 531              	.LVL54:
 495:Generated_Source\PSoC4/capsense_ADC_Adc.c **** 
 532              		.loc 1 495 0
 533 0070 FFF7FEFF 		bl	capsense_ADC_ClearAdcChannels
 534              	.LVL55:
 497:Generated_Source\PSoC4/capsense_ADC_Adc.c ****     }
 535              		.loc 1 497 0
 536 0074 014B     		ldr	r3, .L35
 537 0076 1C70     		strb	r4, [r3]
 538              	.L33:
 501:Generated_Source\PSoC4/capsense_ADC_Adc.c **** 
 539              		.loc 1 501 0
 540 0078 0020     		movs	r0, #0
 541              		@ sp needed
 542 007a 70BD     		pop	{r4, r5, r6, pc}
 543              	.L36:
ARM GAS  C:\Users\ASUS\AppData\Local\Temp\ccDHWSgt.s 			page 27


 544              		.align	2
 545              	.L35:
 546 007c 00000000 		.word	.LANCHOR0
 547 0080 00000000 		.word	capsense_ADC_dsRam
 548 0084 C4010B40 		.word	1074463172
 549 0088 88010B40 		.word	1074463112
 550 008c 84010B40 		.word	1074463108
 551 0090 80010B40 		.word	1074463104
 552 0094 80020B40 		.word	1074463360
 553 0098 84020B40 		.word	1074463364
 554 009c 88020B40 		.word	1074463368
 555 00a0 A0020B40 		.word	1074463392
 556 00a4 A4020B40 		.word	1074463396
 557 00a8 B0020B40 		.word	1074463408
 558 00ac B4020B40 		.word	1074463412
 559 00b0 94020B40 		.word	1074463380
 560 00b4 FFFFEEFF 		.word	-1114113
 561              		.cfi_endproc
 562              	.LFE6:
 563              		.size	capsense_ADC_AdcReleaseResources, .-capsense_ADC_AdcReleaseResources
 564              		.section	.text.capsense_ADC_AdcStop,"ax",%progbits
 565              		.align	2
 566              		.global	capsense_ADC_AdcStop
 567              		.code	16
 568              		.thumb_func
 569              		.type	capsense_ADC_AdcStop, %function
 570              	capsense_ADC_AdcStop:
 571              	.LFB13:
 862:Generated_Source\PSoC4/capsense_ADC_Adc.c ****     #if (capsense_ADC_ENABLE != capsense_ADC_ADC_STANDALONE_EN)
 572              		.loc 1 862 0
 573              		.cfi_startproc
 574              		@ args = 0, pretend = 0, frame = 0
 575              		@ frame_needed = 0, uses_anonymous_args = 0
 576 0000 10B5     		push	{r4, lr}
 577              		.cfi_def_cfa_offset 8
 578              		.cfi_offset 4, -8
 579              		.cfi_offset 14, -4
 864:Generated_Source\PSoC4/capsense_ADC_Adc.c ****     #endif /* (capsense_ADC_ENABLE != capsense_ADC_ADC_STANDALONE_EN) */
 580              		.loc 1 864 0
 581 0002 FFF7FEFF 		bl	capsense_ADC_AdcReleaseResources
 582              	.LVL56:
 866:Generated_Source\PSoC4/capsense_ADC_Adc.c **** }
 583              		.loc 1 866 0
 584 0006 0022     		movs	r2, #0
 585 0008 014B     		ldr	r3, .L38
 586 000a 1A70     		strb	r2, [r3]
 867:Generated_Source\PSoC4/capsense_ADC_Adc.c **** 
 587              		.loc 1 867 0
 588              		@ sp needed
 589 000c 10BD     		pop	{r4, pc}
 590              	.L39:
 591 000e C046     		.align	2
 592              	.L38:
 593 0010 00000000 		.word	.LANCHOR0
 594              		.cfi_endproc
 595              	.LFE13:
 596              		.size	capsense_ADC_AdcStop, .-capsense_ADC_AdcStop
ARM GAS  C:\Users\ASUS\AppData\Local\Temp\ccDHWSgt.s 			page 28


 597              		.section	.text.capsense_ADC_AdcSetModClkClockDivider,"ax",%progbits
 598              		.align	2
 599              		.global	capsense_ADC_AdcSetModClkClockDivider
 600              		.code	16
 601              		.thumb_func
 602              		.type	capsense_ADC_AdcSetModClkClockDivider, %function
 603              	capsense_ADC_AdcSetModClkClockDivider:
 604              	.LFB16:
 910:Generated_Source\PSoC4/capsense_ADC_Adc.c **** 
 911:Generated_Source\PSoC4/capsense_ADC_Adc.c **** /*******************************************************************************
 912:Generated_Source\PSoC4/capsense_ADC_Adc.c **** * Function Name: capsense_ADC_AdcSetModClkClockDivider
 913:Generated_Source\PSoC4/capsense_ADC_Adc.c **** ****************************************************************************//**
 914:Generated_Source\PSoC4/capsense_ADC_Adc.c **** *
 915:Generated_Source\PSoC4/capsense_ADC_Adc.c **** * \brief
 916:Generated_Source\PSoC4/capsense_ADC_Adc.c **** *   Sets the divider values for the modulator clock and then starts
 917:Generated_Source\PSoC4/capsense_ADC_Adc.c **** *   the modulator clock.
 918:Generated_Source\PSoC4/capsense_ADC_Adc.c **** *
 919:Generated_Source\PSoC4/capsense_ADC_Adc.c **** * \details
 920:Generated_Source\PSoC4/capsense_ADC_Adc.c **** *   It is not recommended to call this function directly by the application layer.
 921:Generated_Source\PSoC4/capsense_ADC_Adc.c **** *   It is used by initialization to enable the clocks.
 922:Generated_Source\PSoC4/capsense_ADC_Adc.c **** *
 923:Generated_Source\PSoC4/capsense_ADC_Adc.c **** * \param
 924:Generated_Source\PSoC4/capsense_ADC_Adc.c **** *   modClk The divider value for the modulator clock.
 925:Generated_Source\PSoC4/capsense_ADC_Adc.c **** *
 926:Generated_Source\PSoC4/capsense_ADC_Adc.c **** *******************************************************************************/
 927:Generated_Source\PSoC4/capsense_ADC_Adc.c **** void capsense_ADC_AdcSetModClkClockDivider(uint32 modClk)
 928:Generated_Source\PSoC4/capsense_ADC_Adc.c **** {
 605              		.loc 1 928 0
 606              		.cfi_startproc
 607              		@ args = 0, pretend = 0, frame = 0
 608              		@ frame_needed = 0, uses_anonymous_args = 0
 609              		@ link register save eliminated.
 610              	.LVL57:
 929:Generated_Source\PSoC4/capsense_ADC_Adc.c ****     /* Stop modulator clock   */
 930:Generated_Source\PSoC4/capsense_ADC_Adc.c ****     CY_SET_REG32(capsense_ADC_MODCLK_CMD_PTR,
 611              		.loc 1 930 0
 612 0000 074A     		ldr	r2, .L42
 613 0002 084B     		ldr	r3, .L42+4
 614 0004 1A60     		str	r2, [r3]
 931:Generated_Source\PSoC4/capsense_ADC_Adc.c ****                  ((uint32)capsense_ADC_ModClk__DIV_ID <<
 932:Generated_Source\PSoC4/capsense_ADC_Adc.c ****                  capsense_ADC_MODCLK_CMD_DIV_SHIFT)|
 933:Generated_Source\PSoC4/capsense_ADC_Adc.c ****                  ((uint32)capsense_ADC_MODCLK_CMD_DISABLE_MASK));
 934:Generated_Source\PSoC4/capsense_ADC_Adc.c **** 
 935:Generated_Source\PSoC4/capsense_ADC_Adc.c ****     /*
 936:Generated_Source\PSoC4/capsense_ADC_Adc.c ****      * Set divider value for modClk.
 937:Generated_Source\PSoC4/capsense_ADC_Adc.c ****      * 1u is subtracted from modClk because Divider register value 0 corresponds
 938:Generated_Source\PSoC4/capsense_ADC_Adc.c ****      * to dividing by 1.
 939:Generated_Source\PSoC4/capsense_ADC_Adc.c ****      */
 940:Generated_Source\PSoC4/capsense_ADC_Adc.c ****     CY_SET_REG32(capsense_ADC_MODCLK_DIV_PTR, ((modClk - 1u) << 8u));
 615              		.loc 1 940 0
 616 0006 0138     		subs	r0, r0, #1
 617              	.LVL58:
 618 0008 0002     		lsls	r0, r0, #8
 619              	.LVL59:
 620 000a 074B     		ldr	r3, .L42+8
 621 000c 1860     		str	r0, [r3]
 622              	.L41:
ARM GAS  C:\Users\ASUS\AppData\Local\Temp\ccDHWSgt.s 			page 29


 941:Generated_Source\PSoC4/capsense_ADC_Adc.c **** 
 942:Generated_Source\PSoC4/capsense_ADC_Adc.c ****     /* Check whether previous modulator clock start command has finished. */
 943:Generated_Source\PSoC4/capsense_ADC_Adc.c ****     while(0u != (CY_GET_REG32(capsense_ADC_MODCLK_CMD_PTR) & capsense_ADC_MODCLK_CMD_ENABLE_MASK))
 623              		.loc 1 943 0 discriminator 1
 624 000e 054B     		ldr	r3, .L42+4
 625 0010 1B68     		ldr	r3, [r3]
 626 0012 002B     		cmp	r3, #0
 627 0014 FBDB     		blt	.L41
 944:Generated_Source\PSoC4/capsense_ADC_Adc.c ****     {
 945:Generated_Source\PSoC4/capsense_ADC_Adc.c ****         /* Wait until previous modulator clock start command has finished. */
 946:Generated_Source\PSoC4/capsense_ADC_Adc.c ****     }
 947:Generated_Source\PSoC4/capsense_ADC_Adc.c **** 
 948:Generated_Source\PSoC4/capsense_ADC_Adc.c ****     /* Start modulator clock, aligned to HFCLK */
 949:Generated_Source\PSoC4/capsense_ADC_Adc.c ****     CY_SET_REG32(capsense_ADC_MODCLK_CMD_PTR,
 628              		.loc 1 949 0
 629 0016 054A     		ldr	r2, .L42+12
 630 0018 024B     		ldr	r3, .L42+4
 631 001a 1A60     		str	r2, [r3]
 950:Generated_Source\PSoC4/capsense_ADC_Adc.c ****                  (uint32)(((uint32)capsense_ADC_ModClk__DIV_ID << capsense_ADC_MODCLK_CMD_DIV_SHIFT
 951:Generated_Source\PSoC4/capsense_ADC_Adc.c ****                   ((uint32)capsense_ADC_ModClk__PA_DIV_ID << capsense_ADC_MODCLK_CMD_PA_DIV_SHIFT) 
 952:Generated_Source\PSoC4/capsense_ADC_Adc.c ****                   capsense_ADC_MODCLK_CMD_ENABLE_MASK));
 953:Generated_Source\PSoC4/capsense_ADC_Adc.c **** }
 632              		.loc 1 953 0
 633              		@ sp needed
 634 001c 7047     		bx	lr
 635              	.L43:
 636 001e C046     		.align	2
 637              	.L42:
 638 0020 40000040 		.word	1073741888
 639 0024 00000140 		.word	1073807360
 640 0028 00030140 		.word	1073808128
 641 002c 40FF0080 		.word	-2147418304
 642              		.cfi_endproc
 643              	.LFE16:
 644              		.size	capsense_ADC_AdcSetModClkClockDivider, .-capsense_ADC_AdcSetModClkClockDivider
 645              		.section	.text.capsense_ADC_ConfigAdcResources,"ax",%progbits
 646              		.align	2
 647              		.global	capsense_ADC_ConfigAdcResources
 648              		.code	16
 649              		.thumb_func
 650              		.type	capsense_ADC_ConfigAdcResources, %function
 651              	capsense_ADC_ConfigAdcResources:
 652              	.LFB3:
 277:Generated_Source\PSoC4/capsense_ADC_Adc.c ****     uint8  interruptState;
 653              		.loc 1 277 0
 654              		.cfi_startproc
 655              		@ args = 0, pretend = 0, frame = 0
 656              		@ frame_needed = 0, uses_anonymous_args = 0
 657 0000 70B5     		push	{r4, r5, r6, lr}
 658              		.cfi_def_cfa_offset 16
 659              		.cfi_offset 4, -16
 660              		.cfi_offset 5, -12
 661              		.cfi_offset 6, -8
 662              		.cfi_offset 14, -4
 282:Generated_Source\PSoC4/capsense_ADC_Adc.c ****     CY_SET_REG32(capsense_ADC_SENSE_PERIOD_PTR, (capsense_ADC_AdcSENSE_DIV_DEFAULT - 1uL));
 663              		.loc 1 282 0
 664 0002 0120     		movs	r0, #1
ARM GAS  C:\Users\ASUS\AppData\Local\Temp\ccDHWSgt.s 			page 30


 665 0004 FFF7FEFF 		bl	capsense_ADC_AdcSetModClkClockDivider
 666              	.LVL60:
 283:Generated_Source\PSoC4/capsense_ADC_Adc.c **** 
 667              		.loc 1 283 0
 668 0008 0322     		movs	r2, #3
 669 000a 284B     		ldr	r3, .L45
 670 000c 1A60     		str	r2, [r3]
 286:Generated_Source\PSoC4/capsense_ADC_Adc.c ****     CY_SET_REG32(capsense_ADC_CSD_IDACB_PTR, capsense_ADC_AdcIDACB_CONFIG | capsense_ADC_dsRam.adcI
 671              		.loc 1 286 0
 672 000e 284A     		ldr	r2, .L45+4
 673 0010 284B     		ldr	r3, .L45+8
 674 0012 1A60     		str	r2, [r3]
 287:Generated_Source\PSoC4/capsense_ADC_Adc.c **** 
 675              		.loc 1 287 0
 676 0014 2123     		movs	r3, #33
 677 0016 284A     		ldr	r2, .L45+12
 678 0018 D35C     		ldrb	r3, [r2, r3]
 679 001a 284A     		ldr	r2, .L45+16
 680 001c 1343     		orrs	r3, r2
 681 001e 284A     		ldr	r2, .L45+20
 682 0020 1360     		str	r3, [r2]
 290:Generated_Source\PSoC4/capsense_ADC_Adc.c **** 
 683              		.loc 1 290 0
 684 0022 1D22     		movs	r2, #29
 685 0024 274B     		ldr	r3, .L45+24
 686 0026 1A60     		str	r2, [r3]
 292:Generated_Source\PSoC4/capsense_ADC_Adc.c ****     CY_SET_REG32(capsense_ADC_SW_DSI_SEL_PTR, 0uL);
 687              		.loc 1 292 0
 688 0028 0024     		movs	r4, #0
 689 002a 274B     		ldr	r3, .L45+28
 690 002c 1C60     		str	r4, [r3]
 293:Generated_Source\PSoC4/capsense_ADC_Adc.c **** 
 691              		.loc 1 293 0
 692 002e 274B     		ldr	r3, .L45+32
 693 0030 1C60     		str	r4, [r3]
 295:Generated_Source\PSoC4/capsense_ADC_Adc.c ****     CY_SET_REG32(capsense_ADC_SEQ_INIT_CNT_PTR, 1uL);
 694              		.loc 1 295 0
 695 0032 274B     		ldr	r3, .L45+36
 696 0034 1C60     		str	r4, [r3]
 296:Generated_Source\PSoC4/capsense_ADC_Adc.c ****     CY_SET_REG32(capsense_ADC_SEQ_NORM_CNT_PTR, 2uL);
 697              		.loc 1 296 0
 698 0036 0125     		movs	r5, #1
 699 0038 264B     		ldr	r3, .L45+40
 700 003a 1D60     		str	r5, [r3]
 297:Generated_Source\PSoC4/capsense_ADC_Adc.c **** 
 701              		.loc 1 297 0
 702 003c 1B3A     		subs	r2, r2, #27
 703 003e 264B     		ldr	r3, .L45+44
 704 0040 1A60     		str	r2, [r3]
 300:Generated_Source\PSoC4/capsense_ADC_Adc.c ****     CY_SET_REG32(capsense_ADC_SW_HS_N_SEL_PTR, capsense_ADC_AdcSW_HSN_DEFAULT);
 705              		.loc 1 300 0
 706 0042 8023     		movs	r3, #128
 707 0044 5B05     		lsls	r3, r3, #21
 708 0046 254A     		ldr	r2, .L45+48
 709 0048 1360     		str	r3, [r2]
 301:Generated_Source\PSoC4/capsense_ADC_Adc.c ****     CY_SET_REG32(capsense_ADC_SW_SHIELD_SEL_PTR, capsense_ADC_AdcSW_SHIELD_DEFAULT);
 710              		.loc 1 301 0
ARM GAS  C:\Users\ASUS\AppData\Local\Temp\ccDHWSgt.s 			page 31


 711 004a 8021     		movs	r1, #128
 712 004c 4903     		lsls	r1, r1, #13
 713 004e 244A     		ldr	r2, .L45+52
 714 0050 1160     		str	r1, [r2]
 302:Generated_Source\PSoC4/capsense_ADC_Adc.c ****     CY_SET_REG32(capsense_ADC_SW_CMP_P_SEL_PTR, capsense_ADC_AdcSW_CMPP_DEFAULT);
 715              		.loc 1 302 0
 716 0052 244A     		ldr	r2, .L45+56
 717 0054 1460     		str	r4, [r2]
 303:Generated_Source\PSoC4/capsense_ADC_Adc.c ****     CY_SET_REG32(capsense_ADC_SW_CMP_N_SEL_PTR, capsense_ADC_AdcSW_CMPN_DEFAULT);
 718              		.loc 1 303 0
 719 0056 244A     		ldr	r2, .L45+60
 720 0058 1460     		str	r4, [r2]
 304:Generated_Source\PSoC4/capsense_ADC_Adc.c ****     CY_SET_REG32(capsense_ADC_SW_FW_MOD_SEL_PTR, capsense_ADC_AdcSW_FWMOD_DEFAULT);
 721              		.loc 1 304 0
 722 005a 244A     		ldr	r2, .L45+64
 723 005c 1460     		str	r4, [r2]
 305:Generated_Source\PSoC4/capsense_ADC_Adc.c ****     CY_SET_REG32(capsense_ADC_SW_FW_TANK_SEL_PTR, capsense_ADC_AdcSW_FWTANK_DEFAULT);
 724              		.loc 1 305 0
 725 005e 8822     		movs	r2, #136
 726 0060 5204     		lsls	r2, r2, #17
 727 0062 2349     		ldr	r1, .L45+68
 728 0064 0A60     		str	r2, [r1]
 306:Generated_Source\PSoC4/capsense_ADC_Adc.c ****     CY_SET_REG32(capsense_ADC_SW_REFGEN_SEL_PTR, capsense_ADC_AdcSW_REFGEN_DEFAULT);
 729              		.loc 1 306 0
 730 0066 2349     		ldr	r1, .L45+72
 731 0068 0A60     		str	r2, [r1]
 307:Generated_Source\PSoC4/capsense_ADC_Adc.c **** 
 732              		.loc 1 307 0
 733 006a 234A     		ldr	r2, .L45+76
 734 006c 1360     		str	r3, [r2]
 309:Generated_Source\PSoC4/capsense_ADC_Adc.c ****     newRegValue = CY_GET_REG32(capsense_ADC_SW_BYP_SEL_PTR);
 735              		.loc 1 309 0
 736 006e FFF7FEFF 		bl	CyEnterCriticalSection
 737              	.LVL61:
 310:Generated_Source\PSoC4/capsense_ADC_Adc.c ****     newRegValue |= capsense_ADC_AdcSW_BYP_DEFAULT;
 738              		.loc 1 310 0
 739 0072 224A     		ldr	r2, .L45+80
 740 0074 1368     		ldr	r3, [r2]
 741              	.LVL62:
 311:Generated_Source\PSoC4/capsense_ADC_Adc.c ****     CY_SET_REG32(capsense_ADC_SW_BYP_SEL_PTR, newRegValue);
 742              		.loc 1 311 0
 743 0076 8821     		movs	r1, #136
 744 0078 4903     		lsls	r1, r1, #13
 745 007a 0B43     		orrs	r3, r1
 746              	.LVL63:
 312:Generated_Source\PSoC4/capsense_ADC_Adc.c ****     CyExitCriticalSection(interruptState);
 747              		.loc 1 312 0
 748 007c 1360     		str	r3, [r2]
 313:Generated_Source\PSoC4/capsense_ADC_Adc.c **** 
 749              		.loc 1 313 0
 750 007e FFF7FEFF 		bl	CyExitCriticalSection
 751              	.LVL64:
 322:Generated_Source\PSoC4/capsense_ADC_Adc.c ****         CY_SET_REG32(capsense_ADC_SW_AMUXBUF_SEL_PTR, capsense_ADC_AdcSW_AMUBUF_NORM);
 752              		.loc 1 322 0
 753 0082 1F4A     		ldr	r2, .L45+84
 754 0084 1F4B     		ldr	r3, .L45+88
 755 0086 1A60     		str	r2, [r3]
ARM GAS  C:\Users\ASUS\AppData\Local\Temp\ccDHWSgt.s 			page 32


 323:Generated_Source\PSoC4/capsense_ADC_Adc.c ****     #endif /* capsense_ADC__CYDEV_VDDA_MV < capsense_ADC_AdcLVTHRESH */
 756              		.loc 1 323 0
 757 0088 1F4B     		ldr	r3, .L45+92
 758 008a 1C60     		str	r4, [r3]
 327:Generated_Source\PSoC4/capsense_ADC_Adc.c **** 
 759              		.loc 1 327 0
 760 008c 1F4A     		ldr	r2, .L45+96
 761 008e 204B     		ldr	r3, .L45+100
 762 0090 1A60     		str	r2, [r3]
 330:Generated_Source\PSoC4/capsense_ADC_Adc.c **** 
 763              		.loc 1 330 0
 764 0092 8322     		movs	r2, #131
 765 0094 5200     		lsls	r2, r2, #1
 766 0096 1F4B     		ldr	r3, .L45+104
 767 0098 1A60     		str	r2, [r3]
 333:Generated_Source\PSoC4/capsense_ADC_Adc.c **** 
 768              		.loc 1 333 0
 769 009a 1F4B     		ldr	r3, .L45+108
 770 009c 1C60     		str	r4, [r3]
 336:Generated_Source\PSoC4/capsense_ADC_Adc.c **** 
 771              		.loc 1 336 0
 772 009e 1F48     		ldr	r0, .L45+112
 773 00a0 FFF7FEFF 		bl	capsense_ADC_ISR_StartEx
 774              	.LVL65:
 339:Generated_Source\PSoC4/capsense_ADC_Adc.c **** }
 775              		.loc 1 339 0
 776 00a4 1E4B     		ldr	r3, .L45+116
 777 00a6 1D70     		strb	r5, [r3]
 340:Generated_Source\PSoC4/capsense_ADC_Adc.c **** 
 778              		.loc 1 340 0
 779              		@ sp needed
 780 00a8 70BD     		pop	{r4, r5, r6, pc}
 781              	.L46:
 782 00aa C046     		.align	2
 783              	.L45:
 784 00ac 00020B40 		.word	1074463232
 785 00b0 02100085 		.word	-2063593470
 786 00b4 00000B40 		.word	1074462720
 787 00b8 00000000 		.word	capsense_ADC_dsRam
 788 00bc 80000004 		.word	67108992
 789 00c0 C4010B40 		.word	1074463172
 790 00c4 00030B40 		.word	1074463488
 791 00c8 8C010B40 		.word	1074463116
 792 00cc C0020B40 		.word	1074463424
 793 00d0 04020B40 		.word	1074463236
 794 00d4 10030B40 		.word	1074463504
 795 00d8 14030B40 		.word	1074463508
 796 00dc 80020B40 		.word	1074463360
 797 00e0 84020B40 		.word	1074463364
 798 00e4 88020B40 		.word	1074463368
 799 00e8 A0020B40 		.word	1074463392
 800 00ec A4020B40 		.word	1074463396
 801 00f0 B0020B40 		.word	1074463408
 802 00f4 B4020B40 		.word	1074463412
 803 00f8 A8020B40 		.word	1074463400
 804 00fc 94020B40 		.word	1074463380
 805 0100 41090000 		.word	2369
ARM GAS  C:\Users\ASUS\AppData\Local\Temp\ccDHWSgt.s 			page 33


 806 0104 88010B40 		.word	1074463112
 807 0108 90020B40 		.word	1074463376
 808 010c 01000080 		.word	-2147483647
 809 0110 80010B40 		.word	1074463104
 810 0114 F0000B40 		.word	1074462960
 811 0118 F8000B40 		.word	1074462968
 812 011c 00000000 		.word	capsense_ADC_AdcIntrHandler
 813 0120 00000000 		.word	.LANCHOR0
 814              		.cfi_endproc
 815              	.LFE3:
 816              		.size	capsense_ADC_ConfigAdcResources, .-capsense_ADC_ConfigAdcResources
 817              		.section	.text.capsense_ADC_AdcCaptureResources,"ax",%progbits
 818              		.align	2
 819              		.global	capsense_ADC_AdcCaptureResources
 820              		.code	16
 821              		.thumb_func
 822              		.type	capsense_ADC_AdcCaptureResources, %function
 823              	capsense_ADC_AdcCaptureResources:
 824              	.LFB5:
 413:Generated_Source\PSoC4/capsense_ADC_Adc.c ****     cystatus tmpStatus = CYRET_SUCCESS;
 825              		.loc 1 413 0
 826              		.cfi_startproc
 827              		@ args = 0, pretend = 0, frame = 0
 828              		@ frame_needed = 0, uses_anonymous_args = 0
 829 0000 10B5     		push	{r4, lr}
 830              		.cfi_def_cfa_offset 8
 831              		.cfi_offset 4, -8
 832              		.cfi_offset 14, -4
 833              	.LVL66:
 417:Generated_Source\PSoC4/capsense_ADC_Adc.c **** 
 834              		.loc 1 417 0
 835 0002 FFF7FEFF 		bl	capsense_ADC_SsReleaseResources
 836              	.LVL67:
 837 0006 0400     		movs	r4, r0
 838              	.LVL68:
 419:Generated_Source\PSoC4/capsense_ADC_Adc.c ****         {
 839              		.loc 1 419 0
 840 0008 054B     		ldr	r3, .L50
 841 000a 1B78     		ldrb	r3, [r3]
 842 000c 002B     		cmp	r3, #0
 843 000e 05D1     		bne	.L48
 421:Generated_Source\PSoC4/capsense_ADC_Adc.c ****             {
 844              		.loc 1 421 0
 845 0010 0028     		cmp	r0, #0
 846 0012 02D1     		bne	.L49
 423:Generated_Source\PSoC4/capsense_ADC_Adc.c ****             }
 847              		.loc 1 423 0
 848 0014 FFF7FEFF 		bl	capsense_ADC_ConfigAdcResources
 849              	.LVL69:
 850 0018 00E0     		b	.L48
 851              	.LVL70:
 852              	.L49:
 427:Generated_Source\PSoC4/capsense_ADC_Adc.c ****             }
 853              		.loc 1 427 0
 854 001a 0424     		movs	r4, #4
 855              	.LVL71:
 856              	.L48:
ARM GAS  C:\Users\ASUS\AppData\Local\Temp\ccDHWSgt.s 			page 34


 438:Generated_Source\PSoC4/capsense_ADC_Adc.c **** 
 857              		.loc 1 438 0
 858 001c 2000     		movs	r0, r4
 859              		@ sp needed
 860              	.LVL72:
 861 001e 10BD     		pop	{r4, pc}
 862              	.L51:
 863              		.align	2
 864              	.L50:
 865 0020 00000000 		.word	.LANCHOR0
 866              		.cfi_endproc
 867              	.LFE5:
 868              		.size	capsense_ADC_AdcCaptureResources, .-capsense_ADC_AdcCaptureResources
 869              		.section	.text.capsense_ADC_AdcStartConvert,"ax",%progbits
 870              		.align	2
 871              		.global	capsense_ADC_AdcStartConvert
 872              		.code	16
 873              		.thumb_func
 874              		.type	capsense_ADC_AdcStartConvert, %function
 875              	capsense_ADC_AdcStartConvert:
 876              	.LFB7:
 533:Generated_Source\PSoC4/capsense_ADC_Adc.c ****     uint32 tmpStatus = CYRET_SUCCESS;
 877              		.loc 1 533 0
 878              		.cfi_startproc
 879              		@ args = 0, pretend = 0, frame = 0
 880              		@ frame_needed = 0, uses_anonymous_args = 0
 881              	.LVL73:
 882 0000 70B5     		push	{r4, r5, r6, lr}
 883              		.cfi_def_cfa_offset 16
 884              		.cfi_offset 4, -16
 885              		.cfi_offset 5, -12
 886              		.cfi_offset 6, -8
 887              		.cfi_offset 14, -4
 888 0002 0500     		movs	r5, r0
 889              	.LVL74:
 538:Generated_Source\PSoC4/capsense_ADC_Adc.c **** 
 890              		.loc 1 538 0
 891 0004 FFF7FEFF 		bl	capsense_ADC_AdcCaptureResources
 892              	.LVL75:
 893 0008 041E     		subs	r4, r0, #0
 894              	.LVL76:
 540:Generated_Source\PSoC4/capsense_ADC_Adc.c ****         {
 895              		.loc 1 540 0
 896 000a 2ED1     		bne	.L53
 549:Generated_Source\PSoC4/capsense_ADC_Adc.c ****     {
 897              		.loc 1 549 0
 898 000c 002D     		cmp	r5, #0
 899 000e 00D0     		beq	.L54
 551:Generated_Source\PSoC4/capsense_ADC_Adc.c ****     }
 900              		.loc 1 551 0
 901 0010 0134     		adds	r4, r4, #1
 902              	.L54:
 903              	.LVL77:
 554:Generated_Source\PSoC4/capsense_ADC_Adc.c ****     {
 904              		.loc 1 554 0
 905 0012 002C     		cmp	r4, #0
 906 0014 29D1     		bne	.L53
ARM GAS  C:\Users\ASUS\AppData\Local\Temp\ccDHWSgt.s 			page 35


 556:Generated_Source\PSoC4/capsense_ADC_Adc.c ****         {
 907              		.loc 1 556 0
 908 0016 2023     		movs	r3, #32
 909 0018 154A     		ldr	r2, .L60
 910 001a D35C     		ldrb	r3, [r2, r3]
 911 001c 0F22     		movs	r2, #15
 912 001e 9343     		bics	r3, r2
 913 0020 00D0     		beq	.L55
 558:Generated_Source\PSoC4/capsense_ADC_Adc.c ****         }
 914              		.loc 1 558 0
 915 0022 0434     		adds	r4, r4, #4
 916              	.LVL78:
 917              	.L55:
 561:Generated_Source\PSoC4/capsense_ADC_Adc.c ****         {
 918              		.loc 1 561 0
 919 0024 002C     		cmp	r4, #0
 920 0026 20D1     		bne	.L53
 564:Generated_Source\PSoC4/capsense_ADC_Adc.c ****             #endif /* (capsense_ADC_ADC_ANALOG_STARTUP_DELAY_US > 0uL) */
 921              		.loc 1 564 0
 922 0028 0520     		movs	r0, #5
 923 002a FFF7FEFF 		bl	CyDelayUs
 924              	.LVL79:
 568:Generated_Source\PSoC4/capsense_ADC_Adc.c **** 
 925              		.loc 1 568 0
 926 002e 4023     		movs	r3, #64
 927 0030 2B43     		orrs	r3, r5
 928 0032 DBB2     		uxtb	r3, r3
 929 0034 0E4A     		ldr	r2, .L60
 930 0036 2021     		movs	r1, #32
 931 0038 5354     		strb	r3, [r2, r1]
 571:Generated_Source\PSoC4/capsense_ADC_Adc.c ****             {
 932              		.loc 1 571 0
 933 003a 2223     		movs	r3, #34
 934 003c D05C     		ldrb	r0, [r2, r3]
 935 003e 8542     		cmp	r5, r0
 936 0040 0BD0     		beq	.L56
 573:Generated_Source\PSoC4/capsense_ADC_Adc.c ****                 {
 937              		.loc 1 573 0
 938 0042 FF28     		cmp	r0, #255
 939 0044 02D0     		beq	.L57
 576:Generated_Source\PSoC4/capsense_ADC_Adc.c ****                 }
 940              		.loc 1 576 0
 941 0046 0021     		movs	r1, #0
 942 0048 FFF7FEFF 		bl	capsense_ADC_SetAdcChannel
 943              	.LVL80:
 944              	.L57:
 579:Generated_Source\PSoC4/capsense_ADC_Adc.c ****                 capsense_ADC_dsRam.adcActiveCh = chId;
 945              		.loc 1 579 0
 946 004c 0121     		movs	r1, #1
 947 004e 2800     		movs	r0, r5
 948 0050 FFF7FEFF 		bl	capsense_ADC_SetAdcChannel
 949              	.LVL81:
 580:Generated_Source\PSoC4/capsense_ADC_Adc.c ****             }
 950              		.loc 1 580 0
 951 0054 2223     		movs	r3, #34
 952 0056 064A     		ldr	r2, .L60
 953 0058 D554     		strb	r5, [r2, r3]
ARM GAS  C:\Users\ASUS\AppData\Local\Temp\ccDHWSgt.s 			page 36


 954              	.L56:
 584:Generated_Source\PSoC4/capsense_ADC_Adc.c ****             capsense_ADC_StartAdcFSM(capsense_ADC_AdcMEASMODE_VIN);
 955              		.loc 1 584 0
 956 005a 8022     		movs	r2, #128
 957 005c 5200     		lsls	r2, r2, #1
 958 005e 054B     		ldr	r3, .L60+4
 959 0060 1A60     		str	r2, [r3]
 585:Generated_Source\PSoC4/capsense_ADC_Adc.c ****         }
 960              		.loc 1 585 0
 961 0062 C020     		movs	r0, #192
 962 0064 8002     		lsls	r0, r0, #10
 963 0066 FFF7FEFF 		bl	capsense_ADC_StartAdcFSM
 964              	.LVL82:
 965              	.L53:
 594:Generated_Source\PSoC4/capsense_ADC_Adc.c **** 
 966              		.loc 1 594 0
 967 006a 2000     		movs	r0, r4
 968              		@ sp needed
 969              	.LVL83:
 970 006c 70BD     		pop	{r4, r5, r6, pc}
 971              	.L61:
 972 006e C046     		.align	2
 973              	.L60:
 974 0070 00000000 		.word	capsense_ADC_dsRam
 975 0074 F8000B40 		.word	1074462968
 976              		.cfi_endproc
 977              	.LFE7:
 978              		.size	capsense_ADC_AdcStartConvert, .-capsense_ADC_AdcStartConvert
 979              		.section	.text.capsense_ADC_AdcReadResult_mVolts,"ax",%progbits
 980              		.align	2
 981              		.global	capsense_ADC_AdcReadResult_mVolts
 982              		.code	16
 983              		.thumb_func
 984              		.type	capsense_ADC_AdcReadResult_mVolts, %function
 985              	capsense_ADC_AdcReadResult_mVolts:
 986              	.LFB9:
 670:Generated_Source\PSoC4/capsense_ADC_Adc.c ****     cystatus convertStatus;
 987              		.loc 1 670 0
 988              		.cfi_startproc
 989              		@ args = 0, pretend = 0, frame = 0
 990              		@ frame_needed = 0, uses_anonymous_args = 0
 991              	.LVL84:
 992 0000 70B5     		push	{r4, r5, r6, lr}
 993              		.cfi_def_cfa_offset 16
 994              		.cfi_offset 4, -16
 995              		.cfi_offset 5, -12
 996              		.cfi_offset 6, -8
 997              		.cfi_offset 14, -4
 998 0002 0500     		movs	r5, r0
 675:Generated_Source\PSoC4/capsense_ADC_Adc.c ****     if (CYRET_SUCCESS == convertStatus)
 999              		.loc 1 675 0
 1000 0004 FFF7FEFF 		bl	capsense_ADC_AdcStartConvert
 1001              	.LVL85:
 676:Generated_Source\PSoC4/capsense_ADC_Adc.c ****     {
 1002              		.loc 1 676 0
 1003 0008 0028     		cmp	r0, #0
 1004 000a 03D0     		beq	.L67
ARM GAS  C:\Users\ASUS\AppData\Local\Temp\ccDHWSgt.s 			page 37


 697:Generated_Source\PSoC4/capsense_ADC_Adc.c ****     }
 1005              		.loc 1 697 0
 1006 000c 0948     		ldr	r0, .L69
 1007              	.LVL86:
 1008 000e 0FE0     		b	.L64
 1009              	.LVL87:
 1010              	.L66:
 684:Generated_Source\PSoC4/capsense_ADC_Adc.c ****         }
 1011              		.loc 1 684 0
 1012 0010 013C     		subs	r4, r4, #1
 1013              	.LVL88:
 1014 0012 00E0     		b	.L63
 1015              	.LVL89:
 1016              	.L67:
 1017 0014 074C     		ldr	r4, .L69
 1018              	.LVL90:
 1019              	.L63:
 680:Generated_Source\PSoC4/capsense_ADC_Adc.c ****                (0u != watchdogAdcCounter))
 1020              		.loc 1 680 0
 1021 0016 FFF7FEFF 		bl	capsense_ADC_AdcIsBusy
 1022              	.LVL91:
 1023 001a 0028     		cmp	r0, #0
 1024 001c 01D0     		beq	.L65
 680:Generated_Source\PSoC4/capsense_ADC_Adc.c ****                (0u != watchdogAdcCounter))
 1025              		.loc 1 680 0 is_stmt 0 discriminator 1
 1026 001e 002C     		cmp	r4, #0
 1027 0020 F6D1     		bne	.L66
 1028              	.L65:
 686:Generated_Source\PSoC4/capsense_ADC_Adc.c ****         {
 1029              		.loc 1 686 0 is_stmt 1
 1030 0022 002C     		cmp	r4, #0
 1031 0024 03D0     		beq	.L68
 688:Generated_Source\PSoC4/capsense_ADC_Adc.c ****         }
 1032              		.loc 1 688 0
 1033 0026 2800     		movs	r0, r5
 1034 0028 FFF7FEFF 		bl	capsense_ADC_AdcGetResult_mVolts
 1035              	.LVL92:
 1036 002c 00E0     		b	.L64
 1037              	.LVL93:
 1038              	.L68:
 692:Generated_Source\PSoC4/capsense_ADC_Adc.c ****         }
 1039              		.loc 1 692 0
 1040 002e 0148     		ldr	r0, .L69
 1041              	.LVL94:
 1042              	.L64:
 701:Generated_Source\PSoC4/capsense_ADC_Adc.c **** 
 1043              		.loc 1 701 0
 1044              		@ sp needed
 1045 0030 70BD     		pop	{r4, r5, r6, pc}
 1046              	.L70:
 1047 0032 C046     		.align	2
 1048              	.L69:
 1049 0034 FFFF0000 		.word	65535
 1050              		.cfi_endproc
 1051              	.LFE9:
 1052              		.size	capsense_ADC_AdcReadResult_mVolts, .-capsense_ADC_AdcReadResult_mVolts
 1053              		.global	__aeabi_uidiv
ARM GAS  C:\Users\ASUS\AppData\Local\Temp\ccDHWSgt.s 			page 38


 1054              		.section	.text.capsense_ADC_AdcCalibrate,"ax",%progbits
 1055              		.align	2
 1056              		.global	capsense_ADC_AdcCalibrate
 1057              		.code	16
 1058              		.thumb_func
 1059              		.type	capsense_ADC_AdcCalibrate, %function
 1060              	capsense_ADC_AdcCalibrate:
 1061              	.LFB11:
 758:Generated_Source\PSoC4/capsense_ADC_Adc.c ****     uint32 tmpStatus;
 1062              		.loc 1 758 0
 1063              		.cfi_startproc
 1064              		@ args = 0, pretend = 0, frame = 0
 1065              		@ frame_needed = 0, uses_anonymous_args = 0
 1066 0000 10B5     		push	{r4, lr}
 1067              		.cfi_def_cfa_offset 8
 1068              		.cfi_offset 4, -8
 1069              		.cfi_offset 14, -4
 763:Generated_Source\PSoC4/capsense_ADC_Adc.c **** 
 1070              		.loc 1 763 0
 1071 0002 FFF7FEFF 		bl	capsense_ADC_AdcCaptureResources
 1072              	.LVL95:
 1073 0006 0400     		movs	r4, r0
 1074              	.LVL96:
 765:Generated_Source\PSoC4/capsense_ADC_Adc.c ****         & capsense_ADC_AdcSTATUS_FSM_MASK))
 1075              		.loc 1 765 0
 1076 0008 2023     		movs	r3, #32
 1077 000a 224A     		ldr	r2, .L78
 1078 000c D35C     		ldrb	r3, [r2, r3]
 1079 000e 0F22     		movs	r2, #15
 1080 0010 9343     		bics	r3, r2
 1081 0012 00D0     		beq	.L72
 768:Generated_Source\PSoC4/capsense_ADC_Adc.c ****     }
 1082              		.loc 1 768 0
 1083 0014 0424     		movs	r4, #4
 1084              	.L72:
 1085              	.LVL97:
 771:Generated_Source\PSoC4/capsense_ADC_Adc.c ****     {
 1086              		.loc 1 771 0
 1087 0016 002C     		cmp	r4, #0
 1088 0018 39D1     		bne	.L73
 774:Generated_Source\PSoC4/capsense_ADC_Adc.c ****         #endif /* (capsense_ADC_ADC_ANALOG_STARTUP_DELAY_US > 0uL) */
 1089              		.loc 1 774 0
 1090 001a 0520     		movs	r0, #5
 1091 001c FFF7FEFF 		bl	CyDelayUs
 1092              	.LVL98:
 778:Generated_Source\PSoC4/capsense_ADC_Adc.c ****         {
 1093              		.loc 1 778 0
 1094 0020 2223     		movs	r3, #34
 1095 0022 1C4A     		ldr	r2, .L78
 1096 0024 D05C     		ldrb	r0, [r2, r3]
 1097 0026 FF28     		cmp	r0, #255
 1098 0028 06D0     		beq	.L74
 780:Generated_Source\PSoC4/capsense_ADC_Adc.c ****             capsense_ADC_dsRam.adcActiveCh = capsense_ADC_AdcNO_CHANNEL;
 1099              		.loc 1 780 0
 1100 002a 0021     		movs	r1, #0
 1101 002c FFF7FEFF 		bl	capsense_ADC_SetAdcChannel
 1102              	.LVL99:
ARM GAS  C:\Users\ASUS\AppData\Local\Temp\ccDHWSgt.s 			page 39


 781:Generated_Source\PSoC4/capsense_ADC_Adc.c ****         }
 1103              		.loc 1 781 0
 1104 0030 FF21     		movs	r1, #255
 1105 0032 2223     		movs	r3, #34
 1106 0034 174A     		ldr	r2, .L78
 1107 0036 D154     		strb	r1, [r2, r3]
 1108              	.L74:
 785:Generated_Source\PSoC4/capsense_ADC_Adc.c ****             (((uint32)CY_GET_REG8(CYREG_SFLASH_CSDV2_CSD0_ADC_TRIM2)) << 8u);
 1109              		.loc 1 785 0
 1110 0038 174B     		ldr	r3, .L78+4
 1111 003a 1A78     		ldrb	r2, [r3]
 786:Generated_Source\PSoC4/capsense_ADC_Adc.c **** 
 1112              		.loc 1 786 0
 1113 003c 174B     		ldr	r3, .L78+8
 1114 003e 1B78     		ldrb	r3, [r3]
 1115 0040 1B02     		lsls	r3, r3, #8
 785:Generated_Source\PSoC4/capsense_ADC_Adc.c ****             (((uint32)CY_GET_REG8(CYREG_SFLASH_CSDV2_CSD0_ADC_TRIM2)) << 8u);
 1116              		.loc 1 785 0
 1117 0042 1343     		orrs	r3, r2
 1118              	.LVL100:
 789:Generated_Source\PSoC4/capsense_ADC_Adc.c ****         tmpVrefCal /= capsense_ADC_AdcVREFCALIB_BASE;
 1119              		.loc 1 789 0
 1120 0044 1A01     		lsls	r2, r3, #4
 1121 0046 D31A     		subs	r3, r2, r3
 1122              	.LVL101:
 1123 0048 1802     		lsls	r0, r3, #8
 1124              	.LVL102:
 790:Generated_Source\PSoC4/capsense_ADC_Adc.c **** 
 1125              		.loc 1 790 0
 1126 004a 9621     		movs	r1, #150
 1127 004c 0901     		lsls	r1, r1, #4
 1128 004e FFF7FEFF 		bl	__aeabi_uidiv
 1129              	.LVL103:
 792:Generated_Source\PSoC4/capsense_ADC_Adc.c **** 
 1130              		.loc 1 792 0
 1131 0052 134B     		ldr	r3, .L78+12
 1132 0054 1880     		strh	r0, [r3]
 794:Generated_Source\PSoC4/capsense_ADC_Adc.c ****         CY_SET_REG32(capsense_ADC_CSD_IDACB_PTR, capsense_ADC_AdcIDACB_CONFIG |
 1133              		.loc 1 794 0
 1134 0056 0F4B     		ldr	r3, .L78
 1135 0058 1B21     		movs	r1, #27
 1136 005a 2122     		movs	r2, #33
 1137 005c 9954     		strb	r1, [r3, r2]
 795:Generated_Source\PSoC4/capsense_ADC_Adc.c ****                                                      capsense_ADC_dsRam.adcIdac);
 1138              		.loc 1 795 0
 1139 005e 1149     		ldr	r1, .L78+16
 1140 0060 114A     		ldr	r2, .L78+20
 1141 0062 1160     		str	r1, [r2]
 798:Generated_Source\PSoC4/capsense_ADC_Adc.c **** 
 1142              		.loc 1 798 0
 1143 0064 1021     		movs	r1, #16
 1144 0066 2022     		movs	r2, #32
 1145 0068 9954     		strb	r1, [r3, r2]
 801:Generated_Source\PSoC4/capsense_ADC_Adc.c ****         capsense_ADC_StartAdcFSM(capsense_ADC_AdcMEASMODE_VREF);
 1146              		.loc 1 801 0
 1147 006a E032     		adds	r2, r2, #224
 1148 006c 0F4B     		ldr	r3, .L78+24
ARM GAS  C:\Users\ASUS\AppData\Local\Temp\ccDHWSgt.s 			page 40


 1149 006e 1A60     		str	r2, [r3]
 802:Generated_Source\PSoC4/capsense_ADC_Adc.c **** 
 1150              		.loc 1 802 0
 1151 0070 8020     		movs	r0, #128
 1152              	.LVL104:
 1153 0072 4002     		lsls	r0, r0, #9
 1154 0074 FFF7FEFF 		bl	capsense_ADC_StartAdcFSM
 1155              	.LVL105:
 812:Generated_Source\PSoC4/capsense_ADC_Adc.c ****         while (((*(volatile uint8 *)&capsense_ADC_dsRam.adcStatus & capsense_ADC_AdcSTATUS_FSM_MASK
 1156              		.loc 1 812 0
 1157 0078 0D4A     		ldr	r2, .L78+28
 813:Generated_Source\PSoC4/capsense_ADC_Adc.c ****                 != 0u) &&  (0u != watchdogAdcCounter))
 1158              		.loc 1 813 0
 1159 007a 00E0     		b	.L75
 1160              	.LVL106:
 1161              	.L76:
 817:Generated_Source\PSoC4/capsense_ADC_Adc.c ****         }
 1162              		.loc 1 817 0
 1163 007c 013A     		subs	r2, r2, #1
 1164              	.LVL107:
 1165              	.L75:
 813:Generated_Source\PSoC4/capsense_ADC_Adc.c ****                 != 0u) &&  (0u != watchdogAdcCounter))
 1166              		.loc 1 813 0
 1167 007e 2023     		movs	r3, #32
 1168 0080 0449     		ldr	r1, .L78
 1169 0082 CB5C     		ldrb	r3, [r1, r3]
 1170 0084 0F21     		movs	r1, #15
 1171 0086 8B43     		bics	r3, r1
 1172 0088 01D0     		beq	.L73
 814:Generated_Source\PSoC4/capsense_ADC_Adc.c ****         {
 1173              		.loc 1 814 0
 1174 008a 002A     		cmp	r2, #0
 1175 008c F6D1     		bne	.L76
 1176              	.LVL108:
 1177              	.L73:
 822:Generated_Source\PSoC4/capsense_ADC_Adc.c **** 
 1178              		.loc 1 822 0
 1179 008e 2000     		movs	r0, r4
 1180              		@ sp needed
 1181              	.LVL109:
 1182 0090 10BD     		pop	{r4, pc}
 1183              	.L79:
 1184 0092 C046     		.align	2
 1185              	.L78:
 1186 0094 00000000 		.word	capsense_ADC_dsRam
 1187 0098 60F1FF0F 		.word	268431712
 1188 009c 61F1FF0F 		.word	268431713
 1189 00a0 00000000 		.word	.LANCHOR1
 1190 00a4 9B000004 		.word	67109019
 1191 00a8 C4010B40 		.word	1074463172
 1192 00ac F8000B40 		.word	1074462968
 1193 00b0 FFFF0000 		.word	65535
 1194              		.cfi_endproc
 1195              	.LFE11:
 1196              		.size	capsense_ADC_AdcCalibrate, .-capsense_ADC_AdcCalibrate
 1197              		.section	.text.capsense_ADC_AdcInitialize,"ax",%progbits
 1198              		.align	2
ARM GAS  C:\Users\ASUS\AppData\Local\Temp\ccDHWSgt.s 			page 41


 1199              		.global	capsense_ADC_AdcInitialize
 1200              		.code	16
 1201              		.thumb_func
 1202              		.type	capsense_ADC_AdcInitialize, %function
 1203              	capsense_ADC_AdcInitialize:
 1204              	.LFB12:
 837:Generated_Source\PSoC4/capsense_ADC_Adc.c ****     capsense_ADC_ConfigAdcResources();
 1205              		.loc 1 837 0
 1206              		.cfi_startproc
 1207              		@ args = 0, pretend = 0, frame = 0
 1208              		@ frame_needed = 0, uses_anonymous_args = 0
 1209 0000 10B5     		push	{r4, lr}
 1210              		.cfi_def_cfa_offset 8
 1211              		.cfi_offset 4, -8
 1212              		.cfi_offset 14, -4
 838:Generated_Source\PSoC4/capsense_ADC_Adc.c ****     (void)capsense_ADC_AdcCalibrate();
 1213              		.loc 1 838 0
 1214 0002 FFF7FEFF 		bl	capsense_ADC_ConfigAdcResources
 1215              	.LVL110:
 839:Generated_Source\PSoC4/capsense_ADC_Adc.c **** }
 1216              		.loc 1 839 0
 1217 0006 FFF7FEFF 		bl	capsense_ADC_AdcCalibrate
 1218              	.LVL111:
 840:Generated_Source\PSoC4/capsense_ADC_Adc.c **** 
 1219              		.loc 1 840 0
 1220              		@ sp needed
 1221 000a 10BD     		pop	{r4, pc}
 1222              		.cfi_endproc
 1223              	.LFE12:
 1224              		.size	capsense_ADC_AdcInitialize, .-capsense_ADC_AdcInitialize
 1225              		.section	.text.capsense_ADC_AdcResume,"ax",%progbits
 1226              		.align	2
 1227              		.global	capsense_ADC_AdcResume
 1228              		.code	16
 1229              		.thumb_func
 1230              		.type	capsense_ADC_AdcResume, %function
 1231              	capsense_ADC_AdcResume:
 1232              	.LFB14:
 883:Generated_Source\PSoC4/capsense_ADC_Adc.c ****     capsense_ADC_AdcInitialize();
 1233              		.loc 1 883 0
 1234              		.cfi_startproc
 1235              		@ args = 0, pretend = 0, frame = 0
 1236              		@ frame_needed = 0, uses_anonymous_args = 0
 1237 0000 10B5     		push	{r4, lr}
 1238              		.cfi_def_cfa_offset 8
 1239              		.cfi_offset 4, -8
 1240              		.cfi_offset 14, -4
 884:Generated_Source\PSoC4/capsense_ADC_Adc.c **** }
 1241              		.loc 1 884 0
 1242 0002 FFF7FEFF 		bl	capsense_ADC_AdcInitialize
 1243              	.LVL112:
 885:Generated_Source\PSoC4/capsense_ADC_Adc.c **** 
 1244              		.loc 1 885 0
 1245              		@ sp needed
 1246 0006 10BD     		pop	{r4, pc}
 1247              		.cfi_endproc
 1248              	.LFE14:
ARM GAS  C:\Users\ASUS\AppData\Local\Temp\ccDHWSgt.s 			page 42


 1249              		.size	capsense_ADC_AdcResume, .-capsense_ADC_AdcResume
 1250              		.global	capsense_ADC_adcVrefMv
 1251              		.data
 1252              		.align	1
 1253              		.set	.LANCHOR1,. + 0
 1254              		.type	capsense_ADC_adcVrefMv, %object
 1255              		.size	capsense_ADC_adcVrefMv, 2
 1256              	capsense_ADC_adcVrefMv:
 1257 0000 000F     		.short	3840
 1258              		.bss
 1259              		.set	.LANCHOR0,. + 0
 1260              		.type	capsense_ADC_initVar, %object
 1261              		.size	capsense_ADC_initVar, 1
 1262              	capsense_ADC_initVar:
 1263 0000 00       		.space	1
 1264              		.text
 1265              	.Letext0:
 1266              		.file 2 "Generated_Source\\PSoC4/cytypes.h"
 1267              		.file 3 "Generated_Source\\PSoC4\\capsense_ADC_Configuration.h"
 1268              		.file 4 "Generated_Source\\PSoC4\\capsense_ADC_Structure.h"
 1269              		.file 5 "Generated_Source\\PSoC4\\CyLib.h"
 1270              		.file 6 "Generated_Source\\PSoC4\\capsense_ADC_ISR.h"
 1271              		.file 7 "Generated_Source\\PSoC4\\capsense_ADC_Sensing.h"