ARM GAS  C:\Users\Usuario\AppData\Local\Temp\ccfAE9YS.s 			page 1


   1              		.syntax unified
   2              		.cpu cortex-m0plus
   3              		.fpu softvfp
   4              		.eabi_attribute 20, 1
   5              		.eabi_attribute 21, 1
   6              		.eabi_attribute 23, 3
   7              		.eabi_attribute 24, 1
   8              		.eabi_attribute 25, 1
   9              		.eabi_attribute 26, 1
  10              		.eabi_attribute 30, 1
  11              		.eabi_attribute 34, 0
  12              		.eabi_attribute 18, 4
  13              		.thumb
  14              		.syntax unified
  15              		.file	"main.c"
  16              		.text
  17              	.Ltext0:
  18              		.cfi_sections	.debug_frame
  19              		.section	.text.main,"ax",%progbits
  20              		.align	2
  21              		.global	main
  22              		.code	16
  23              		.thumb_func
  24              		.type	main, %function
  25              	main:
  26              	.LFB33:
  27              		.file 1 "main.c"
   1:main.c        **** /* ========================================
   2:main.c        ****  *
   3:main.c        ****  * Copyright YOUR COMPANY, THE YEAR
   4:main.c        ****  * All Rights Reserved
   5:main.c        ****  * UNPUBLISHED, LICENSED SOFTWARE.
   6:main.c        ****  *
   7:main.c        ****  * CONFIDENTIAL AND PROPRIETARY INFORMATION
   8:main.c        ****  * WHICH IS THE PROPERTY OF your company.
   9:main.c        ****  *
  10:main.c        ****  * ========================================
  11:main.c        **** */
  12:main.c        **** #include "project.h"
  13:main.c        **** 
  14:main.c        **** //#define STEP_SIZE (capsense_LINEARSLIDER_X_RESOLUTION/capsense_LINEARSLIDER_NUM_SENSORS)
  15:main.c        **** 
  16:main.c        **** //void PWM0(void),PWM1(void),PWM2(void);
  17:main.c        **** //void CAPSENSE0(void),CAPSENSE1(void);
  18:main.c        **** 
  19:main.c        **** int main(void)
  20:main.c        **** {   
  28              		.loc 1 20 0
  29              		.cfi_startproc
  30              		@ Volatile: function does not return.
  31              		@ args = 0, pretend = 0, frame = 0
  32              		@ frame_needed = 0, uses_anonymous_args = 0
  33 0000 10B5     		push	{r4, lr}
  34              		.cfi_def_cfa_offset 8
  35              		.cfi_offset 4, -8
  36              		.cfi_offset 14, -4
  21:main.c        ****     CyGlobalIntEnable; /* Enable global interrupts. */
ARM GAS  C:\Users\Usuario\AppData\Local\Temp\ccfAE9YS.s 			page 2


  37              		.loc 1 21 0
  38              		.syntax divided
  39              	@ 21 "main.c" 1
  40 0002 62B6     		CPSIE   i
  41              	@ 0 "" 2
  22:main.c        ****     uart_Start();    /* Configuracion General*/
  42              		.loc 1 22 0
  43              		.thumb
  44              		.syntax unified
  45 0004 FFF7FEFF 		bl	uart_Start
  46              	.LVL0:
  23:main.c        ****     pwm0_Start();
  47              		.loc 1 23 0
  48 0008 FFF7FEFF 		bl	pwm0_Start
  49              	.LVL1:
  24:main.c        ****     pwm1_Start();
  50              		.loc 1 24 0
  51 000c FFF7FEFF 		bl	pwm1_Start
  52              	.LVL2:
  25:main.c        ****     pwm2_Start();
  53              		.loc 1 25 0
  54 0010 FFF7FEFF 		bl	pwm2_Start
  55              	.LVL3:
  26:main.c        ****     clock_Start();
  56              		.loc 1 26 0
  57 0014 FF20     		movs	r0, #255
  58 0016 FFF7FEFF 		bl	clock_StartEx
  59              	.LVL4:
  27:main.c        ****     capsense_Start();
  60              		.loc 1 27 0
  61 001a FFF7FEFF 		bl	capsense_Start
  62              	.LVL5:
  28:main.c        ****     capsense_InitializeAllBaselines();
  63              		.loc 1 28 0
  64 001e FFF7FEFF 		bl	capsense_InitializeAllBaselines
  65              	.LVL6:
  29:main.c        ****     capsense_ScanAllWidgets();
  66              		.loc 1 29 0
  67 0022 FFF7FEFF 		bl	capsense_ScanAllWidgets
  68              	.LVL7:
  69              	.L2:
  70 0026 FEE7     		b	.L2
  71              		.cfi_endproc
  72              	.LFE33:
  73              		.size	main, .-main
  74              		.section	.text.PWM0,"ax",%progbits
  75              		.align	2
  76              		.global	PWM0
  77              		.code	16
  78              		.thumb_func
  79              		.type	PWM0, %function
  80              	PWM0:
  81              	.LFB34:
  30:main.c        ****       
  31:main.c        ****     //PWM0();
  32:main.c        ****     //PWM1();
  33:main.c        ****     //PWM2();
ARM GAS  C:\Users\Usuario\AppData\Local\Temp\ccfAE9YS.s 			page 3


  34:main.c        ****     
  35:main.c        ****     for(;;)
  36:main.c        ****     {
  37:main.c        ****         //CAPSENSE0();
  38:main.c        ****       
  39:main.c        ****         // Codigo del usuario
  40:main.c        ****                
  41:main.c        ****         //CAPSENSE1();
  42:main.c        ****     }
  43:main.c        **** }
  44:main.c        **** 
  45:main.c        **** void PWM0()
  46:main.c        ****     {
  82              		.loc 1 46 0
  83              		.cfi_startproc
  84              		@ args = 0, pretend = 0, frame = 0
  85              		@ frame_needed = 0, uses_anonymous_args = 0
  86 0000 10B5     		push	{r4, lr}
  87              		.cfi_def_cfa_offset 8
  88              		.cfi_offset 4, -8
  89              		.cfi_offset 14, -4
  90              	.LVL8:
  47:main.c        ****         uint16 ciclo_util0=20;    //Definicion por el usuario ciclo util en [%]
  48:main.c        ****         pwm0_WriteCompare(65535-ciclo_util0*655);
  91              		.loc 1 48 0
  92 0002 0248     		ldr	r0, .L4
  93 0004 FFF7FEFF 		bl	pwm0_WriteCompare
  94              	.LVL9:
  49:main.c        ****     }
  95              		.loc 1 49 0
  96              		@ sp needed
  97 0008 10BD     		pop	{r4, pc}
  98              	.L5:
  99 000a C046     		.align	2
 100              	.L4:
 101 000c D3CC0000 		.word	52435
 102              		.cfi_endproc
 103              	.LFE34:
 104              		.size	PWM0, .-PWM0
 105              		.section	.text.PWM1,"ax",%progbits
 106              		.align	2
 107              		.global	PWM1
 108              		.code	16
 109              		.thumb_func
 110              		.type	PWM1, %function
 111              	PWM1:
 112              	.LFB35:
  50:main.c        **** 
  51:main.c        **** void PWM1()
  52:main.c        ****     {
 113              		.loc 1 52 0
 114              		.cfi_startproc
 115              		@ args = 0, pretend = 0, frame = 0
 116              		@ frame_needed = 0, uses_anonymous_args = 0
 117 0000 10B5     		push	{r4, lr}
 118              		.cfi_def_cfa_offset 8
 119              		.cfi_offset 4, -8
ARM GAS  C:\Users\Usuario\AppData\Local\Temp\ccfAE9YS.s 			page 4


 120              		.cfi_offset 14, -4
 121              	.LVL10:
  53:main.c        ****         uint16 ciclo_util1=40;    //Definicion por el usuario ciclo util en [%]
  54:main.c        ****         pwm1_WriteCompare(65535-ciclo_util1*655);
 122              		.loc 1 54 0
 123 0002 0248     		ldr	r0, .L7
 124 0004 FFF7FEFF 		bl	pwm1_WriteCompare
 125              	.LVL11:
  55:main.c        ****     }
 126              		.loc 1 55 0
 127              		@ sp needed
 128 0008 10BD     		pop	{r4, pc}
 129              	.L8:
 130 000a C046     		.align	2
 131              	.L7:
 132 000c A7990000 		.word	39335
 133              		.cfi_endproc
 134              	.LFE35:
 135              		.size	PWM1, .-PWM1
 136              		.section	.text.PWM2,"ax",%progbits
 137              		.align	2
 138              		.global	PWM2
 139              		.code	16
 140              		.thumb_func
 141              		.type	PWM2, %function
 142              	PWM2:
 143              	.LFB36:
  56:main.c        ****     
  57:main.c        **** void PWM2()
  58:main.c        ****     {
 144              		.loc 1 58 0
 145              		.cfi_startproc
 146              		@ args = 0, pretend = 0, frame = 0
 147              		@ frame_needed = 0, uses_anonymous_args = 0
 148 0000 10B5     		push	{r4, lr}
 149              		.cfi_def_cfa_offset 8
 150              		.cfi_offset 4, -8
 151              		.cfi_offset 14, -4
 152              	.LVL12:
  59:main.c        ****         uint16 ciclo_util2=60;    //Definicion por el usuario ciclo util en [%]
  60:main.c        ****         pwm2_WriteCompare(65535-ciclo_util2*655);
 153              		.loc 1 60 0
 154 0002 0248     		ldr	r0, .L10
 155 0004 FFF7FEFF 		bl	pwm2_WriteCompare
 156              	.LVL13:
  61:main.c        ****     }
 157              		.loc 1 61 0
 158              		@ sp needed
 159 0008 10BD     		pop	{r4, pc}
 160              	.L11:
 161 000a C046     		.align	2
 162              	.L10:
 163 000c 7B660000 		.word	26235
 164              		.cfi_endproc
 165              	.LFE36:
 166              		.size	PWM2, .-PWM2
 167              		.section	.text.CAPSENSE0,"ax",%progbits
ARM GAS  C:\Users\Usuario\AppData\Local\Temp\ccfAE9YS.s 			page 5


 168              		.align	2
 169              		.global	CAPSENSE0
 170              		.code	16
 171              		.thumb_func
 172              		.type	CAPSENSE0, %function
 173              	CAPSENSE0:
 174              	.LFB37:
  62:main.c        ****     
  63:main.c        **** void CAPSENSE0()
  64:main.c        ****     {
 175              		.loc 1 64 0
 176              		.cfi_startproc
 177              		@ args = 0, pretend = 0, frame = 0
 178              		@ frame_needed = 0, uses_anonymous_args = 0
 179 0000 10B5     		push	{r4, lr}
 180              		.cfi_def_cfa_offset 8
 181              		.cfi_offset 4, -8
 182              		.cfi_offset 14, -4
 183              	.L13:
  65:main.c        ****         for(;;)
  66:main.c        ****         {
  67:main.c        ****             if (!capsense_IsBusy())
 184              		.loc 1 67 0
 185 0002 FFF7FEFF 		bl	capsense_IsBusy
 186              	.LVL14:
 187 0006 0028     		cmp	r0, #0
 188 0008 FBD1     		bne	.L13
  68:main.c        ****             {capsense_ProcessAllWidgets();
 189              		.loc 1 68 0
 190 000a FFF7FEFF 		bl	capsense_ProcessAllWidgets
 191              	.LVL15:
  69:main.c        ****             break;}
  70:main.c        ****         }
  71:main.c        ****     }
 192              		.loc 1 71 0
 193              		@ sp needed
 194 000e 10BD     		pop	{r4, pc}
 195              		.cfi_endproc
 196              	.LFE37:
 197              		.size	CAPSENSE0, .-CAPSENSE0
 198              		.section	.text.CAPSENSE1,"ax",%progbits
 199              		.align	2
 200              		.global	CAPSENSE1
 201              		.code	16
 202              		.thumb_func
 203              		.type	CAPSENSE1, %function
 204              	CAPSENSE1:
 205              	.LFB38:
  72:main.c        ****     
  73:main.c        **** void CAPSENSE1()
  74:main.c        ****     {
 206              		.loc 1 74 0
 207              		.cfi_startproc
 208              		@ args = 0, pretend = 0, frame = 0
 209              		@ frame_needed = 0, uses_anonymous_args = 0
 210 0000 10B5     		push	{r4, lr}
 211              		.cfi_def_cfa_offset 8
ARM GAS  C:\Users\Usuario\AppData\Local\Temp\ccfAE9YS.s 			page 6


 212              		.cfi_offset 4, -8
 213              		.cfi_offset 14, -4
  75:main.c        ****         capsense_UpdateAllBaselines();
 214              		.loc 1 75 0
 215 0002 FFF7FEFF 		bl	capsense_UpdateAllBaselines
 216              	.LVL16:
  76:main.c        ****         capsense_ScanAllWidgets();
 217              		.loc 1 76 0
 218 0006 FFF7FEFF 		bl	capsense_ScanAllWidgets
 219              	.LVL17:
  77:main.c        ****     }
 220              		.loc 1 77 0
 221              		@ sp needed
 222 000a 10BD     		pop	{r4, pc}
 223              		.cfi_endproc
 224              	.LFE38:
 225              		.size	CAPSENSE1, .-CAPSENSE1
 226              		.text
 227              	.Letext0:
 228              		.file 2 "Generated_Source\\PSoC4/uart.h"
 229              		.file 3 "Generated_Source\\PSoC4/pwm0.h"
 230              		.file 4 "Generated_Source\\PSoC4/pwm1.h"
 231              		.file 5 "Generated_Source\\PSoC4/pwm2.h"
 232              		.file 6 "Generated_Source\\PSoC4/clock.h"
 233              		.file 7 "Generated_Source\\PSoC4/capsense_Control.h"
 234              		.file 8 "Generated_Source\\PSoC4/capsense_Filter.h"
 235              		.file 9 "Generated_Source\\PSoC4/capsense_Sensing.h"
 236              		.file 10 "Generated_Source\\PSoC4/cytypes.h"