
uart0_cadena_CH573F.elf:     file format elf32-littleriscv
uart0_cadena_CH573F.elf
architecture: riscv:rv32, flags 0x00000112:
EXEC_P, HAS_SYMS, D_PAGED
start address 0x00000000

Program Header:
    LOAD off    0x00001000 vaddr 0x00000000 paddr 0x00000000 align 2**12
         filesz 0x00000004 memsz 0x00000004 flags r-x
    LOAD off    0x00001800 vaddr 0x20003800 paddr 0x00000004 align 2**12
         filesz 0x0000064c memsz 0x0000064c flags r-x
    LOAD off    0x00002650 vaddr 0x00000650 paddr 0x00000650 align 2**12
         filesz 0x00000d7c memsz 0x00000d7c flags r-x
    LOAD off    0x00003e4c vaddr 0x20003e4c paddr 0x000013cc align 2**12
         filesz 0x00000000 memsz 0x000001b4 flags rw-
    LOAD off    0x00004000 vaddr 0x20004000 paddr 0x000013cc align 2**12
         filesz 0x00000068 memsz 0x000000c8 flags rw-

Sections:
Idx Name            Size      VMA       LMA       File off  Algn  Flags
  0 .init           00000004  00000000  00000000  00001000  2**1  CONTENTS, ALLOC, LOAD, READONLY, CODE
  1 .highcodelalign 00000000  00000004  00000004  00004068  2**0  CONTENTS
  2 .highcode       0000064c  20003800  00000004  00001800  2**1  CONTENTS, ALLOC, LOAD, READONLY, CODE
  3 .text           00000d7c  00000650  00000650  00002650  2**2  CONTENTS, ALLOC, LOAD, READONLY, CODE
  4 .fini           00000000  000013cc  000013cc  00004068  2**0  CONTENTS, ALLOC, LOAD, CODE
  5 .dalign         000001b4  20003e4c  000013cc  00003e4c  2**0  ALLOC
  6 .dlalign        00000000  000013cc  000013cc  00004068  2**0  CONTENTS
  7 .data           00000068  20004000  000013cc  00004000  2**2  CONTENTS, ALLOC, LOAD, DATA
  8 .bss            00000060  20004068  00001434  00004068  2**2  ALLOC
  9 .stack          00000000  20008000  20008000  00004068  2**0  CONTENTS
 10 .debug_info     00003ac0  00000000  00000000  00004068  2**0  CONTENTS, READONLY, DEBUGGING
 11 .debug_abbrev   00000b5a  00000000  00000000  00007b28  2**0  CONTENTS, READONLY, DEBUGGING
 12 .debug_loc      00000806  00000000  00000000  00008682  2**0  CONTENTS, READONLY, DEBUGGING
 13 .debug_aranges  00000198  00000000  00000000  00008e88  2**3  CONTENTS, READONLY, DEBUGGING
 14 .debug_ranges   00000150  00000000  00000000  00009020  2**3  CONTENTS, READONLY, DEBUGGING
 15 .debug_line     0000212d  00000000  00000000  00009170  2**0  CONTENTS, READONLY, DEBUGGING
 16 .debug_str      00000d58  00000000  00000000  0000b29d  2**0  CONTENTS, READONLY, DEBUGGING
 17 .comment        00000033  00000000  00000000  0000bff5  2**0  CONTENTS, READONLY
 18 .debug_frame    00000684  00000000  00000000  0000c028  2**2  CONTENTS, READONLY, DEBUGGING
SYMBOL TABLE:
00000000 l    d  .init	00000000 .init
00000004 l    d  .highcodelalign	00000000 .highcodelalign
20003800 l    d  .highcode	00000000 .highcode
00000650 l    d  .text	00000000 .text
000013cc l    d  .fini	00000000 .fini
20003e4c l    d  .dalign	00000000 .dalign
000013cc l    d  .dlalign	00000000 .dlalign
20004000 l    d  .data	00000000 .data
20004068 l    d  .bss	00000000 .bss
20008000 l    d  .stack	00000000 .stack
00000000 l    d  .debug_info	00000000 .debug_info
00000000 l    d  .debug_abbrev	00000000 .debug_abbrev
00000000 l    d  .debug_loc	00000000 .debug_loc
00000000 l    d  .debug_aranges	00000000 .debug_aranges
00000000 l    d  .debug_ranges	00000000 .debug_ranges
00000000 l    d  .debug_line	00000000 .debug_line
00000000 l    d  .debug_str	00000000 .debug_str
00000000 l    d  .comment	00000000 .comment
00000000 l    d  .debug_frame	00000000 .debug_frame
00000000 l    df *ABS*	00000000 ./Startup/startup_CH573.o
20003800 l       .highcode	00000000 _vector_base
00000000 l    df *ABS*	00000000 CH57x_sys.c
00000000 l    df *ABS*	00000000 ISP573.c
20003a6e l       .highcode	00000000 .loop18
20003a7c l       .highcode	00000000 .loop29
20003a8a l       .highcode	00000000 .loop40
20003d0a l       .highcode	00000000 .loop401
00000000 l    df *ABS*	00000000 Main.c
00000000 l    df *ABS*	00000000 CH57x_gpio.c
00000000 l    df *ABS*	00000000 CH57x_uart0.c
00000000 l    df *ABS*	00000000 sprintf.c
00000000 l    df *ABS*	00000000 nano-vfprintf.c
00000000 l    df *ABS*	00000000 nano-vfprintf_i.c
00000000 l    df *ABS*	00000000 memchr.c
00000000 l    df *ABS*	00000000 memcpy.c
00000000 l    df *ABS*	00000000 memmove.c
00000000 l    df *ABS*	00000000 nano-mallocr.c
00000000 l    df *ABS*	00000000 nano-mallocr.c
00000000 l    df *ABS*	00000000 nano-mallocr.c
00000000 l    df *ABS*	00000000 sbrkr.c
00000000 l    df *ABS*	00000000 mlock.c
00000000 l    df *ABS*	00000000 nano-mallocr.c
00000000 l    df *ABS*	00000000 sbrk.c
20004070 l     O .bss	00000004 heap_end.1518
00000000 l    df *ABS*	00000000 impure.c
20004000 l     O .data	00000060 impure_data
00000000 l    df *ABS*	00000000 reent.c
00001332 g     F .text	00000014 _malloc_usable_size_r
20003a8a g     F .highcode	0000000e FLASH_ROM_OUT
20004860 g       .data	00000000 __global_pointer$
20003a26 g     F .highcode	0000000e mDelayuS
200039f0  w    F .highcode	00000036 HardFault_Handler
2000389c  w      .highcode	00000000 GPIOB_IRQHandler
00001330 g     F .text	00000002 __malloc_unlock
0000089a g     F .text	00000030 UART0_BaudRateCfg
2000389a  w      .highcode	00000000 GPIOA_IRQHandler
20003894  w      .highcode	00000000 SysTick_Handler
000010f4 g     F .text	0000004a memmove
20003890  w      .highcode	00000000 NMI_Handler
200038ac  w      .highcode	00000000 UART1_IRQHandler
200040c4 g     O .bss	00000004 errno
20004068 g       .bss	00000000 _sbss
20003a7c g     F .highcode	0000000e FLASH_ROM_IN
200038aa  w      .highcode	00000000 UART0_IRQHandler
0000103e g     F .text	000000b6 memcpy
000009fa g     F .text	00000276 _svfprintf_r
00000004 g       .init	00000000 _einit
200038a0  w      .highcode	00000000 BB_IRQHandler
20003b18 g     F .highcode	00000332 FLASH_EEPROM_CMD
000007b2 g     F .text	000000a6 GPIOB_ModeCfg
00001306 g     F .text	00000028 _sbrk_r
20003898  w      .highcode	00000000 TMR0_IRQHandler
20003a5c g     F .highcode	00000012 FLASH_ROM_BEG
20003a34 g     F .highcode	00000028 mDelaymS
20003a98 g     F .highcode	00000048 FLASH_ROM_ADDR
000012b8 g     F .text	0000004e _realloc_r
00001346 g     F .text	00000020 _sbrk
200038ae  w      .highcode	00000000 RTC_IRQHandler
200040c8 g       .bss	00000000 _ebss
20003ae0 g     F .highcode	00000038 FLASH_ROM_WAIT
200040c8 g       .bss	00000000 end
200038b6  w      .highcode	00000000 UART2_IRQHandler
200038b2  w      .highcode	00000000 PWMX_IRQHandler
00000912 g     F .text	000000e8 __ssputs_r
00001024 g     F .text	0000001a memchr
0000113e g     F .text	000000ac _free_r
00000000 g       .init	00000000 _start
200038b0  w      .highcode	00000000 ADC_IRQHandler
20003800 g       .highcode	00000000 _highcode_vma_start
200038a8  w      .highcode	00000000 TMR2_IRQHandler
20004000 g       .data	00000000 _data_vma
200038bc g     F .highcode	000000fc SetSysClock
200038a4  w      .highcode	00000000 USB_IRQHandler
20004074 g     O .bss	00000050 __temp_str
00000706 g     F .text	00000048 uart.setup
0000132e g     F .text	00000002 __malloc_lock
000006ee g     F .text	00000018 uart.print
0000074e g     F .text	00000064 main
000011ea g     F .text	000000ce _malloc_r
00000004 g       .highcodelalign	00000000 _highcode_lma
000008ca g     F .text	00000048 sprintf
200038a2  w      .highcode	00000000 LLE_IRQHandler
00000000 g       .init	00000000 _sinit
00000c70 g     F .text	0000010c _printf_common
20004060 g     O .data	00000004 _impure_ptr
000009fa g     F .text	00000276 _svfiprintf_r
200038ba  w      .highcode	00000000 WDOG_BAT_IRQHandler
200038b4  w      .highcode	00000000 TMR3_IRQHandler
20008000 g       .stack	00000000 _eusrstack
20003896  w      .highcode	00000000 SW_Handler
00000858 g     F .text	00000042 GetSysClock
20004068 g       .data	00000000 _edata
2000389e  w      .highcode	00000000 SPI0_IRQHandler
20003e4c g       .highcode	00000000 _highcode_vma_end
000013cc g       .dlalign	00000000 _data_lma
000008ca g     F .text	00000048 siprintf
00000650  w      .text	00000000 handle_reset
00000d7c g     F .text	000002a8 _printf_i
200038b8  w      .highcode	00000000 UART3_IRQHandler
2000406c g     O .bss	00000004 __malloc_sbrk_start
20003a6e g     F .highcode	0000000e FLASH_ROM_END
20004068 g     O .bss	00000004 __malloc_free_list
200038a6  w      .highcode	00000000 TMR1_IRQHandler
200039b8 g     F .highcode	00000038 SYS_ResetExecute



Disassembly of section .init:

00000000 <_sinit>:
_start():
C:\Users\USER\repos\aixt_ccgg\ports\WCH\CH573F-mini-BLE\projects\uart0_cadena_CH573F\obj/../Startup/startup_CH573.S:15

	.section	.init,"ax",@progbits
	.global	_start
	.align	1
_start:
	j	handle_reset
   0:	6500006f          	j	650 <handle_reset>

Disassembly of section .highcode:

20003800 <_highcode_vma_start>:
	...
_vector_base():
C:\Users\USER\repos\aixt_ccgg\ports\WCH\CH573F-mini-BLE\projects\uart0_cadena_CH573F\obj/../Startup/startup_CH573.S:23
    .align  1
_vector_base:
    .option norvc;
    .word   0
    .word   0
        j   NMI_Handler                 /* NMI Handler */
20003808:	0880006f          	j	20003890 <NMI_Handler>
C:\Users\USER\repos\aixt_ccgg\ports\WCH\CH573F-mini-BLE\projects\uart0_cadena_CH573F\obj/../Startup/startup_CH573.S:24
        j   HardFault_Handler           /* Hard Fault Handler */
2000380c:	1e40006f          	j	200039f0 <HardFault_Handler>
	...
C:\Users\USER\repos\aixt_ccgg\ports\WCH\CH573F-mini-BLE\projects\uart0_cadena_CH573F\obj/../Startup/startup_CH573.S:33
    .word   0
    .word   0
    .word   0
    .word   0
    .word   0
        j   SysTick_Handler            /* SysTick Handler */
20003830:	0640006f          	j	20003894 <SysTick_Handler>
20003834:	0000                	unimp
20003836:	0000                	unimp
C:\Users\USER\repos\aixt_ccgg\ports\WCH\CH573F-mini-BLE\projects\uart0_cadena_CH573F\obj/../Startup/startup_CH573.S:35
    .word   0
        j   SW_Handler                 /* SW Handler */
20003838:	05e0006f          	j	20003896 <SW_Handler>
2000383c:	0000                	unimp
2000383e:	0000                	unimp
C:\Users\USER\repos\aixt_ccgg\ports\WCH\CH573F-mini-BLE\projects\uart0_cadena_CH573F\obj/../Startup/startup_CH573.S:38
    .word   0
    /* External Interrupts */
        j   TMR0_IRQHandler            /* 0:  TMR0 */
20003840:	0580006f          	j	20003898 <TMR0_IRQHandler>
C:\Users\USER\repos\aixt_ccgg\ports\WCH\CH573F-mini-BLE\projects\uart0_cadena_CH573F\obj/../Startup/startup_CH573.S:39
        j   GPIOA_IRQHandler           /* GPIOA */
20003844:	0560006f          	j	2000389a <GPIOA_IRQHandler>
C:\Users\USER\repos\aixt_ccgg\ports\WCH\CH573F-mini-BLE\projects\uart0_cadena_CH573F\obj/../Startup/startup_CH573.S:40
        j   GPIOB_IRQHandler           /* GPIOB */
20003848:	0540006f          	j	2000389c <GPIOB_IRQHandler>
C:\Users\USER\repos\aixt_ccgg\ports\WCH\CH573F-mini-BLE\projects\uart0_cadena_CH573F\obj/../Startup/startup_CH573.S:41
        j   SPI0_IRQHandler            /* SPI0 */
2000384c:	0520006f          	j	2000389e <SPI0_IRQHandler>
C:\Users\USER\repos\aixt_ccgg\ports\WCH\CH573F-mini-BLE\projects\uart0_cadena_CH573F\obj/../Startup/startup_CH573.S:42
        j   BB_IRQHandler              /* BLEB */
20003850:	0500006f          	j	200038a0 <BB_IRQHandler>
C:\Users\USER\repos\aixt_ccgg\ports\WCH\CH573F-mini-BLE\projects\uart0_cadena_CH573F\obj/../Startup/startup_CH573.S:43
        j   LLE_IRQHandler             /* BLEL */
20003854:	04e0006f          	j	200038a2 <LLE_IRQHandler>
C:\Users\USER\repos\aixt_ccgg\ports\WCH\CH573F-mini-BLE\projects\uart0_cadena_CH573F\obj/../Startup/startup_CH573.S:44
        j   USB_IRQHandler             /* USB */
20003858:	04c0006f          	j	200038a4 <USB_IRQHandler>
2000385c:	0000                	unimp
2000385e:	0000                	unimp
C:\Users\USER\repos\aixt_ccgg\ports\WCH\CH573F-mini-BLE\projects\uart0_cadena_CH573F\obj/../Startup/startup_CH573.S:46
        .word   0
        j   TMR1_IRQHandler            /* TMR1 */
20003860:	0460006f          	j	200038a6 <TMR1_IRQHandler>
C:\Users\USER\repos\aixt_ccgg\ports\WCH\CH573F-mini-BLE\projects\uart0_cadena_CH573F\obj/../Startup/startup_CH573.S:47
        j   TMR2_IRQHandler            /* TMR2 */
20003864:	0440006f          	j	200038a8 <TMR2_IRQHandler>
C:\Users\USER\repos\aixt_ccgg\ports\WCH\CH573F-mini-BLE\projects\uart0_cadena_CH573F\obj/../Startup/startup_CH573.S:48
        j   UART0_IRQHandler           /* UART0 */
20003868:	0420006f          	j	200038aa <UART0_IRQHandler>
C:\Users\USER\repos\aixt_ccgg\ports\WCH\CH573F-mini-BLE\projects\uart0_cadena_CH573F\obj/../Startup/startup_CH573.S:49
        j   UART1_IRQHandler           /* UART1 */
2000386c:	0400006f          	j	200038ac <UART1_IRQHandler>
C:\Users\USER\repos\aixt_ccgg\ports\WCH\CH573F-mini-BLE\projects\uart0_cadena_CH573F\obj/../Startup/startup_CH573.S:50
        j   RTC_IRQHandler             /* RTC */
20003870:	03e0006f          	j	200038ae <RTC_IRQHandler>
C:\Users\USER\repos\aixt_ccgg\ports\WCH\CH573F-mini-BLE\projects\uart0_cadena_CH573F\obj/../Startup/startup_CH573.S:51
        j   ADC_IRQHandler             /* ADC */
20003874:	03c0006f          	j	200038b0 <ADC_IRQHandler>
20003878:	0000                	unimp
2000387a:	0000                	unimp
C:\Users\USER\repos\aixt_ccgg\ports\WCH\CH573F-mini-BLE\projects\uart0_cadena_CH573F\obj/../Startup/startup_CH573.S:53
        .word   0
        j   PWMX_IRQHandler            /* PWMX */
2000387c:	0360006f          	j	200038b2 <PWMX_IRQHandler>
C:\Users\USER\repos\aixt_ccgg\ports\WCH\CH573F-mini-BLE\projects\uart0_cadena_CH573F\obj/../Startup/startup_CH573.S:54
        j   TMR3_IRQHandler            /* TMR3 */
20003880:	0340006f          	j	200038b4 <TMR3_IRQHandler>
C:\Users\USER\repos\aixt_ccgg\ports\WCH\CH573F-mini-BLE\projects\uart0_cadena_CH573F\obj/../Startup/startup_CH573.S:55
        j   UART2_IRQHandler           /* UART2 */
20003884:	0320006f          	j	200038b6 <UART2_IRQHandler>
C:\Users\USER\repos\aixt_ccgg\ports\WCH\CH573F-mini-BLE\projects\uart0_cadena_CH573F\obj/../Startup/startup_CH573.S:56
        j   UART3_IRQHandler           /* UART3 */
20003888:	0300006f          	j	200038b8 <UART3_IRQHandler>
C:\Users\USER\repos\aixt_ccgg\ports\WCH\CH573F-mini-BLE\projects\uart0_cadena_CH573F\obj/../Startup/startup_CH573.S:57
        j   WDOG_BAT_IRQHandler        /* WDOG_BAT */
2000388c:	02e0006f          	j	200038ba <WDOG_BAT_IRQHandler>

20003890 <NMI_Handler>:
NMI_Handler():
C:\Users\USER\repos\aixt_ccgg\ports\WCH\CH573F-mini-BLE\projects\uart0_cadena_CH573F\obj/../Startup/startup_CH573.S:85
    .weak   TMR3_IRQHandler
    .weak   UART2_IRQHandler
    .weak   UART3_IRQHandler
    .weak   WDOG_BAT_IRQHandler

NMI_Handler:  1:  j 1b
20003890:	a001                	j	20003890 <NMI_Handler>
C:\Users\USER\repos\aixt_ccgg\ports\WCH\CH573F-mini-BLE\projects\uart0_cadena_CH573F\obj/../Startup/startup_CH573.S:86
HardFault_Handler:  1:  j 1b
20003892:	a001                	j	20003892 <NMI_Handler+0x2>

20003894 <SysTick_Handler>:
SysTick_Handler():
C:\Users\USER\repos\aixt_ccgg\ports\WCH\CH573F-mini-BLE\projects\uart0_cadena_CH573F\obj/../Startup/startup_CH573.S:87
SysTick_Handler:  1:  j 1b
20003894:	a001                	j	20003894 <SysTick_Handler>

20003896 <SW_Handler>:
SW_Handler():
C:\Users\USER\repos\aixt_ccgg\ports\WCH\CH573F-mini-BLE\projects\uart0_cadena_CH573F\obj/../Startup/startup_CH573.S:88
SW_Handler:  1:  j 1b
20003896:	a001                	j	20003896 <SW_Handler>

20003898 <TMR0_IRQHandler>:
TMR0_IRQHandler():
C:\Users\USER\repos\aixt_ccgg\ports\WCH\CH573F-mini-BLE\projects\uart0_cadena_CH573F\obj/../Startup/startup_CH573.S:89
TMR0_IRQHandler:  1:  j 1b
20003898:	a001                	j	20003898 <TMR0_IRQHandler>

2000389a <GPIOA_IRQHandler>:
GPIOA_IRQHandler():
C:\Users\USER\repos\aixt_ccgg\ports\WCH\CH573F-mini-BLE\projects\uart0_cadena_CH573F\obj/../Startup/startup_CH573.S:90
GPIOA_IRQHandler:  1:  j 1b
2000389a:	a001                	j	2000389a <GPIOA_IRQHandler>

2000389c <GPIOB_IRQHandler>:
GPIOB_IRQHandler():
C:\Users\USER\repos\aixt_ccgg\ports\WCH\CH573F-mini-BLE\projects\uart0_cadena_CH573F\obj/../Startup/startup_CH573.S:91
GPIOB_IRQHandler:  1:  j 1b
2000389c:	a001                	j	2000389c <GPIOB_IRQHandler>

2000389e <SPI0_IRQHandler>:
SPI0_IRQHandler():
C:\Users\USER\repos\aixt_ccgg\ports\WCH\CH573F-mini-BLE\projects\uart0_cadena_CH573F\obj/../Startup/startup_CH573.S:92
SPI0_IRQHandler:  1:  j 1b
2000389e:	a001                	j	2000389e <SPI0_IRQHandler>

200038a0 <BB_IRQHandler>:
BB_IRQHandler():
C:\Users\USER\repos\aixt_ccgg\ports\WCH\CH573F-mini-BLE\projects\uart0_cadena_CH573F\obj/../Startup/startup_CH573.S:93
BB_IRQHandler:  1:  j 1b
200038a0:	a001                	j	200038a0 <BB_IRQHandler>

200038a2 <LLE_IRQHandler>:
LLE_IRQHandler():
C:\Users\USER\repos\aixt_ccgg\ports\WCH\CH573F-mini-BLE\projects\uart0_cadena_CH573F\obj/../Startup/startup_CH573.S:94
LLE_IRQHandler:  1:  j 1b
200038a2:	a001                	j	200038a2 <LLE_IRQHandler>

200038a4 <USB_IRQHandler>:
USB_IRQHandler():
C:\Users\USER\repos\aixt_ccgg\ports\WCH\CH573F-mini-BLE\projects\uart0_cadena_CH573F\obj/../Startup/startup_CH573.S:95
USB_IRQHandler:  1:  j 1b
200038a4:	a001                	j	200038a4 <USB_IRQHandler>

200038a6 <TMR1_IRQHandler>:
TMR1_IRQHandler():
C:\Users\USER\repos\aixt_ccgg\ports\WCH\CH573F-mini-BLE\projects\uart0_cadena_CH573F\obj/../Startup/startup_CH573.S:96
TMR1_IRQHandler:  1:  j 1b
200038a6:	a001                	j	200038a6 <TMR1_IRQHandler>

200038a8 <TMR2_IRQHandler>:
TMR2_IRQHandler():
C:\Users\USER\repos\aixt_ccgg\ports\WCH\CH573F-mini-BLE\projects\uart0_cadena_CH573F\obj/../Startup/startup_CH573.S:97
TMR2_IRQHandler:  1:  j 1b
200038a8:	a001                	j	200038a8 <TMR2_IRQHandler>

200038aa <UART0_IRQHandler>:
UART0_IRQHandler():
C:\Users\USER\repos\aixt_ccgg\ports\WCH\CH573F-mini-BLE\projects\uart0_cadena_CH573F\obj/../Startup/startup_CH573.S:98
UART0_IRQHandler:  1:  j 1b
200038aa:	a001                	j	200038aa <UART0_IRQHandler>

200038ac <UART1_IRQHandler>:
UART1_IRQHandler():
C:\Users\USER\repos\aixt_ccgg\ports\WCH\CH573F-mini-BLE\projects\uart0_cadena_CH573F\obj/../Startup/startup_CH573.S:99
UART1_IRQHandler:  1:  j 1b
200038ac:	a001                	j	200038ac <UART1_IRQHandler>

200038ae <RTC_IRQHandler>:
RTC_IRQHandler():
C:\Users\USER\repos\aixt_ccgg\ports\WCH\CH573F-mini-BLE\projects\uart0_cadena_CH573F\obj/../Startup/startup_CH573.S:100
RTC_IRQHandler:  1:  j 1b
200038ae:	a001                	j	200038ae <RTC_IRQHandler>

200038b0 <ADC_IRQHandler>:
ADC_IRQHandler():
C:\Users\USER\repos\aixt_ccgg\ports\WCH\CH573F-mini-BLE\projects\uart0_cadena_CH573F\obj/../Startup/startup_CH573.S:101
ADC_IRQHandler:  1:  j 1b
200038b0:	a001                	j	200038b0 <ADC_IRQHandler>

200038b2 <PWMX_IRQHandler>:
PWMX_IRQHandler():
C:\Users\USER\repos\aixt_ccgg\ports\WCH\CH573F-mini-BLE\projects\uart0_cadena_CH573F\obj/../Startup/startup_CH573.S:102
PWMX_IRQHandler:  1:  j 1b
200038b2:	a001                	j	200038b2 <PWMX_IRQHandler>

200038b4 <TMR3_IRQHandler>:
TMR3_IRQHandler():
C:\Users\USER\repos\aixt_ccgg\ports\WCH\CH573F-mini-BLE\projects\uart0_cadena_CH573F\obj/../Startup/startup_CH573.S:103
TMR3_IRQHandler:  1:  j 1b
200038b4:	a001                	j	200038b4 <TMR3_IRQHandler>

200038b6 <UART2_IRQHandler>:
UART2_IRQHandler():
C:\Users\USER\repos\aixt_ccgg\ports\WCH\CH573F-mini-BLE\projects\uart0_cadena_CH573F\obj/../Startup/startup_CH573.S:104
UART2_IRQHandler:  1:  j 1b
200038b6:	a001                	j	200038b6 <UART2_IRQHandler>

200038b8 <UART3_IRQHandler>:
UART3_IRQHandler():
C:\Users\USER\repos\aixt_ccgg\ports\WCH\CH573F-mini-BLE\projects\uart0_cadena_CH573F\obj/../Startup/startup_CH573.S:105
UART3_IRQHandler:  1:  j 1b
200038b8:	a001                	j	200038b8 <UART3_IRQHandler>

200038ba <WDOG_BAT_IRQHandler>:
WDOG_BAT_IRQHandler():
C:\Users\USER\repos\aixt_ccgg\ports\WCH\CH573F-mini-BLE\projects\uart0_cadena_CH573F\obj/../Startup/startup_CH573.S:106
WDOG_BAT_IRQHandler:  1:  j 1b
200038ba:	a001                	j	200038ba <WDOG_BAT_IRQHandler>

200038bc <SetSysClock>:
SetSysClock():
C:\Users\USER\repos\aixt_ccgg\ports\WCH\CH573F-mini-BLE\projects\uart0_cadena_CH573F\obj/../StdPeriphDriver/CH57x_sys.c:26
 */
__attribute__((section(".highcode")))
void SetSysClock(SYS_CLKTypeDef sc)
{
    uint32_t i;
    R8_SAFE_ACCESS_SIG = SAFE_ACCESS_SIG1;
200038bc:	400017b7          	lui	a5,0x40001
200038c0:	05700693          	li	a3,87
200038c4:	04d78023          	sb	a3,64(a5) # 40001040 <_eusrstack+0x1fff9040>
C:\Users\USER\repos\aixt_ccgg\ports\WCH\CH573F-mini-BLE\projects\uart0_cadena_CH573F\obj/../StdPeriphDriver/CH57x_sys.c:27
    R8_SAFE_ACCESS_SIG = SAFE_ACCESS_SIG2;
200038c8:	fa800713          	li	a4,-88
200038cc:	04e78023          	sb	a4,64(a5)
C:\Users\USER\repos\aixt_ccgg\ports\WCH\CH573F-mini-BLE\projects\uart0_cadena_CH573F\obj/../StdPeriphDriver/CH57x_sys.c:28
    R8_PLL_CONFIG &= ~(1 << 5); //
200038d0:	04b7c603          	lbu	a2,75(a5)
200038d4:	0df67613          	andi	a2,a2,223
200038d8:	04c785a3          	sb	a2,75(a5)
C:\Users\USER\repos\aixt_ccgg\ports\WCH\CH573F-mini-BLE\projects\uart0_cadena_CH573F\obj/../StdPeriphDriver/CH57x_sys.c:29
    R8_SAFE_ACCESS_SIG = 0;
200038dc:	04078023          	sb	zero,64(a5)
C:\Users\USER\repos\aixt_ccgg\ports\WCH\CH573F-mini-BLE\projects\uart0_cadena_CH573F\obj/../StdPeriphDriver/CH57x_sys.c:30
    if(sc & 0x20)
200038e0:	02057613          	andi	a2,a0,32
200038e4:	c62d                	beqz	a2,2000394e <SetSysClock+0x92>
C:\Users\USER\repos\aixt_ccgg\ports\WCH\CH573F-mini-BLE\projects\uart0_cadena_CH573F\obj/../StdPeriphDriver/CH57x_sys.c:32
    { // HSE div
        if(!(R8_HFCK_PWR_CTRL & RB_CLK_XT32M_PON))
200038e6:	00a7c603          	lbu	a2,10(a5)
200038ea:	8a11                	andi	a2,a2,4
200038ec:	e20d                	bnez	a2,2000390e <SetSysClock+0x52>
C:\Users\USER\repos\aixt_ccgg\ports\WCH\CH573F-mini-BLE\projects\uart0_cadena_CH573F\obj/../StdPeriphDriver/CH57x_sys.c:34
        {
            R8_SAFE_ACCESS_SIG = SAFE_ACCESS_SIG1;
200038ee:	04d78023          	sb	a3,64(a5)
C:\Users\USER\repos\aixt_ccgg\ports\WCH\CH573F-mini-BLE\projects\uart0_cadena_CH573F\obj/../StdPeriphDriver/CH57x_sys.c:35
            R8_SAFE_ACCESS_SIG = SAFE_ACCESS_SIG2;
200038f2:	04e78023          	sb	a4,64(a5)
C:\Users\USER\repos\aixt_ccgg\ports\WCH\CH573F-mini-BLE\projects\uart0_cadena_CH573F\obj/../StdPeriphDriver/CH57x_sys.c:36
            R8_HFCK_PWR_CTRL |= RB_CLK_XT32M_PON; // HSE power on
200038f6:	00a7c703          	lbu	a4,10(a5)
200038fa:	00476713          	ori	a4,a4,4
200038fe:	00e78523          	sb	a4,10(a5)
20003902:	4b000793          	li	a5,1200
C:\Users\USER\repos\aixt_ccgg\ports\WCH\CH573F-mini-BLE\projects\uart0_cadena_CH573F\obj/../StdPeriphDriver/CH57x_sys.c:39 (discriminator 3)
            for(i = 0; i < 1200; i++)
            {
                __nop();
20003906:	0001                	nop
C:\Users\USER\repos\aixt_ccgg\ports\WCH\CH573F-mini-BLE\projects\uart0_cadena_CH573F\obj/../StdPeriphDriver/CH57x_sys.c:40 (discriminator 3)
                __nop();
20003908:	0001                	nop
2000390a:	17fd                	addi	a5,a5,-1
C:\Users\USER\repos\aixt_ccgg\ports\WCH\CH573F-mini-BLE\projects\uart0_cadena_CH573F\obj/../StdPeriphDriver/CH57x_sys.c:37 (discriminator 3)
            for(i = 0; i < 1200; i++)
2000390c:	ffed                	bnez	a5,20003906 <SetSysClock+0x4a>
C:\Users\USER\repos\aixt_ccgg\ports\WCH\CH573F-mini-BLE\projects\uart0_cadena_CH573F\obj/../StdPeriphDriver/CH57x_sys.c:44
            }
        }

        R8_SAFE_ACCESS_SIG = SAFE_ACCESS_SIG1;
2000390e:	400017b7          	lui	a5,0x40001
20003912:	05700693          	li	a3,87
20003916:	04d78023          	sb	a3,64(a5) # 40001040 <_eusrstack+0x1fff9040>
C:\Users\USER\repos\aixt_ccgg\ports\WCH\CH573F-mini-BLE\projects\uart0_cadena_CH573F\obj/../StdPeriphDriver/CH57x_sys.c:45
        R8_SAFE_ACCESS_SIG = SAFE_ACCESS_SIG2;
2000391a:	fa800713          	li	a4,-88
2000391e:	04e78023          	sb	a4,64(a5)
C:\Users\USER\repos\aixt_ccgg\ports\WCH\CH573F-mini-BLE\projects\uart0_cadena_CH573F\obj/../StdPeriphDriver/CH57x_sys.c:46
        R16_CLK_SYS_CFG = (0 << 6) | (sc & 0x1f);
20003922:	897d                	andi	a0,a0,31
20003924:	00a79423          	sh	a0,8(a5)
C:\Users\USER\repos\aixt_ccgg\ports\WCH\CH573F-mini-BLE\projects\uart0_cadena_CH573F\obj/../StdPeriphDriver/CH57x_sys.c:47
        __nop();
20003928:	0001                	nop
C:\Users\USER\repos\aixt_ccgg\ports\WCH\CH573F-mini-BLE\projects\uart0_cadena_CH573F\obj/../StdPeriphDriver/CH57x_sys.c:48
        __nop();
2000392a:	0001                	nop
C:\Users\USER\repos\aixt_ccgg\ports\WCH\CH573F-mini-BLE\projects\uart0_cadena_CH573F\obj/../StdPeriphDriver/CH57x_sys.c:49
        __nop();
2000392c:	0001                	nop
C:\Users\USER\repos\aixt_ccgg\ports\WCH\CH573F-mini-BLE\projects\uart0_cadena_CH573F\obj/../StdPeriphDriver/CH57x_sys.c:50
        __nop();
2000392e:	0001                	nop
C:\Users\USER\repos\aixt_ccgg\ports\WCH\CH573F-mini-BLE\projects\uart0_cadena_CH573F\obj/../StdPeriphDriver/CH57x_sys.c:51
        R8_SAFE_ACCESS_SIG = 0;
20003930:	04078023          	sb	zero,64(a5)
C:\Users\USER\repos\aixt_ccgg\ports\WCH\CH573F-mini-BLE\projects\uart0_cadena_CH573F\obj/../StdPeriphDriver/CH57x_sys.c:52
        R8_SAFE_ACCESS_SIG = SAFE_ACCESS_SIG1;
20003934:	04d78023          	sb	a3,64(a5)
C:\Users\USER\repos\aixt_ccgg\ports\WCH\CH573F-mini-BLE\projects\uart0_cadena_CH573F\obj/../StdPeriphDriver/CH57x_sys.c:53
        R8_SAFE_ACCESS_SIG = SAFE_ACCESS_SIG2;
20003938:	04e78023          	sb	a4,64(a5)
C:\Users\USER\repos\aixt_ccgg\ports\WCH\CH573F-mini-BLE\projects\uart0_cadena_CH573F\obj/../StdPeriphDriver/CH57x_sys.c:54
        R8_FLASH_CFG = 0X51;
2000393c:	05100693          	li	a3,81
20003940:	40002737          	lui	a4,0x40002
C:\Users\USER\repos\aixt_ccgg\ports\WCH\CH573F-mini-BLE\projects\uart0_cadena_CH573F\obj/../StdPeriphDriver/CH57x_sys.c:81
        __nop();
        __nop();
        R8_SAFE_ACCESS_SIG = 0;
        R8_SAFE_ACCESS_SIG = SAFE_ACCESS_SIG1;
        R8_SAFE_ACCESS_SIG = SAFE_ACCESS_SIG2;
        R8_FLASH_CFG = 0X53;
20003944:	80d703a3          	sb	a3,-2041(a4) # 40001807 <_eusrstack+0x1fff9807>
C:\Users\USER\repos\aixt_ccgg\ports\WCH\CH573F-mini-BLE\projects\uart0_cadena_CH573F\obj/../StdPeriphDriver/CH57x_sys.c:82
        R8_SAFE_ACCESS_SIG = 0;
20003948:	04078023          	sb	zero,64(a5)
C:\Users\USER\repos\aixt_ccgg\ports\WCH\CH573F-mini-BLE\projects\uart0_cadena_CH573F\obj/../StdPeriphDriver/CH57x_sys.c:84
    }
}
2000394c:	8082                	ret
C:\Users\USER\repos\aixt_ccgg\ports\WCH\CH573F-mini-BLE\projects\uart0_cadena_CH573F\obj/../StdPeriphDriver/CH57x_sys.c:58
    else if(sc & 0x40)
2000394e:	04057613          	andi	a2,a0,64
20003952:	de6d                	beqz	a2,2000394c <SetSysClock+0x90>
C:\Users\USER\repos\aixt_ccgg\ports\WCH\CH573F-mini-BLE\projects\uart0_cadena_CH573F\obj/../StdPeriphDriver/CH57x_sys.c:60
        if(!(R8_HFCK_PWR_CTRL & RB_CLK_PLL_PON))
20003954:	00a7c603          	lbu	a2,10(a5)
20003958:	8a41                	andi	a2,a2,16
2000395a:	e20d                	bnez	a2,2000397c <SetSysClock+0xc0>
C:\Users\USER\repos\aixt_ccgg\ports\WCH\CH573F-mini-BLE\projects\uart0_cadena_CH573F\obj/../StdPeriphDriver/CH57x_sys.c:62
            R8_SAFE_ACCESS_SIG = SAFE_ACCESS_SIG1;
2000395c:	04d78023          	sb	a3,64(a5)
C:\Users\USER\repos\aixt_ccgg\ports\WCH\CH573F-mini-BLE\projects\uart0_cadena_CH573F\obj/../StdPeriphDriver/CH57x_sys.c:63
            R8_SAFE_ACCESS_SIG = SAFE_ACCESS_SIG2;
20003960:	04e78023          	sb	a4,64(a5)
C:\Users\USER\repos\aixt_ccgg\ports\WCH\CH573F-mini-BLE\projects\uart0_cadena_CH573F\obj/../StdPeriphDriver/CH57x_sys.c:64
            R8_HFCK_PWR_CTRL |= RB_CLK_PLL_PON; // PLL power on
20003964:	00a7c703          	lbu	a4,10(a5)
20003968:	01076713          	ori	a4,a4,16
2000396c:	00e78523          	sb	a4,10(a5)
20003970:	7d000793          	li	a5,2000
C:\Users\USER\repos\aixt_ccgg\ports\WCH\CH573F-mini-BLE\projects\uart0_cadena_CH573F\obj/../StdPeriphDriver/CH57x_sys.c:67 (discriminator 3)
                __nop();
20003974:	0001                	nop
C:\Users\USER\repos\aixt_ccgg\ports\WCH\CH573F-mini-BLE\projects\uart0_cadena_CH573F\obj/../StdPeriphDriver/CH57x_sys.c:68 (discriminator 3)
                __nop();
20003976:	0001                	nop
20003978:	17fd                	addi	a5,a5,-1
C:\Users\USER\repos\aixt_ccgg\ports\WCH\CH573F-mini-BLE\projects\uart0_cadena_CH573F\obj/../StdPeriphDriver/CH57x_sys.c:65 (discriminator 3)
            for(i = 0; i < 2000; i++)
2000397a:	ffed                	bnez	a5,20003974 <SetSysClock+0xb8>
C:\Users\USER\repos\aixt_ccgg\ports\WCH\CH573F-mini-BLE\projects\uart0_cadena_CH573F\obj/../StdPeriphDriver/CH57x_sys.c:71
        R8_SAFE_ACCESS_SIG = SAFE_ACCESS_SIG1;
2000397c:	400017b7          	lui	a5,0x40001
20003980:	05700693          	li	a3,87
20003984:	04d78023          	sb	a3,64(a5) # 40001040 <_eusrstack+0x1fff9040>
C:\Users\USER\repos\aixt_ccgg\ports\WCH\CH573F-mini-BLE\projects\uart0_cadena_CH573F\obj/../StdPeriphDriver/CH57x_sys.c:72
        R8_SAFE_ACCESS_SIG = SAFE_ACCESS_SIG2;
20003988:	fa800713          	li	a4,-88
C:\Users\USER\repos\aixt_ccgg\ports\WCH\CH573F-mini-BLE\projects\uart0_cadena_CH573F\obj/../StdPeriphDriver/CH57x_sys.c:73
        R16_CLK_SYS_CFG = (1 << 6) | (sc & 0x1f);
2000398c:	897d                	andi	a0,a0,31
C:\Users\USER\repos\aixt_ccgg\ports\WCH\CH573F-mini-BLE\projects\uart0_cadena_CH573F\obj/../StdPeriphDriver/CH57x_sys.c:72
        R8_SAFE_ACCESS_SIG = SAFE_ACCESS_SIG2;
2000398e:	04e78023          	sb	a4,64(a5)
C:\Users\USER\repos\aixt_ccgg\ports\WCH\CH573F-mini-BLE\projects\uart0_cadena_CH573F\obj/../StdPeriphDriver/CH57x_sys.c:73
        R16_CLK_SYS_CFG = (1 << 6) | (sc & 0x1f);
20003992:	04056513          	ori	a0,a0,64
20003996:	00a79423          	sh	a0,8(a5)
C:\Users\USER\repos\aixt_ccgg\ports\WCH\CH573F-mini-BLE\projects\uart0_cadena_CH573F\obj/../StdPeriphDriver/CH57x_sys.c:74
        __nop();
2000399a:	0001                	nop
C:\Users\USER\repos\aixt_ccgg\ports\WCH\CH573F-mini-BLE\projects\uart0_cadena_CH573F\obj/../StdPeriphDriver/CH57x_sys.c:75
        __nop();
2000399c:	0001                	nop
C:\Users\USER\repos\aixt_ccgg\ports\WCH\CH573F-mini-BLE\projects\uart0_cadena_CH573F\obj/../StdPeriphDriver/CH57x_sys.c:76
        __nop();
2000399e:	0001                	nop
C:\Users\USER\repos\aixt_ccgg\ports\WCH\CH573F-mini-BLE\projects\uart0_cadena_CH573F\obj/../StdPeriphDriver/CH57x_sys.c:77
        __nop();
200039a0:	0001                	nop
C:\Users\USER\repos\aixt_ccgg\ports\WCH\CH573F-mini-BLE\projects\uart0_cadena_CH573F\obj/../StdPeriphDriver/CH57x_sys.c:78
        R8_SAFE_ACCESS_SIG = 0;
200039a2:	04078023          	sb	zero,64(a5)
C:\Users\USER\repos\aixt_ccgg\ports\WCH\CH573F-mini-BLE\projects\uart0_cadena_CH573F\obj/../StdPeriphDriver/CH57x_sys.c:79
        R8_SAFE_ACCESS_SIG = SAFE_ACCESS_SIG1;
200039a6:	04d78023          	sb	a3,64(a5)
C:\Users\USER\repos\aixt_ccgg\ports\WCH\CH573F-mini-BLE\projects\uart0_cadena_CH573F\obj/../StdPeriphDriver/CH57x_sys.c:80
        R8_SAFE_ACCESS_SIG = SAFE_ACCESS_SIG2;
200039aa:	04e78023          	sb	a4,64(a5)
C:\Users\USER\repos\aixt_ccgg\ports\WCH\CH573F-mini-BLE\projects\uart0_cadena_CH573F\obj/../StdPeriphDriver/CH57x_sys.c:81
        R8_FLASH_CFG = 0X53;
200039ae:	05300693          	li	a3,83
200039b2:	40002737          	lui	a4,0x40002
200039b6:	b779                	j	20003944 <SetSysClock+0x88>

200039b8 <SYS_ResetExecute>:
SYS_ResetExecute():
C:\Users\USER\repos\aixt_ccgg\ports\WCH\CH573F-mini-BLE\projects\uart0_cadena_CH573F\obj/../StdPeriphDriver/CH57x_sys.c:146
 *
 * @return  none
 */
__attribute__((section(".highcode")))
void SYS_ResetExecute(void)
{
200039b8:	1141                	addi	sp,sp,-16
C:\Users\USER\repos\aixt_ccgg\ports\WCH\CH573F-mini-BLE\projects\uart0_cadena_CH573F\obj/../StdPeriphDriver/CH57x_sys.c:147
    FLASH_ROM_SW_RESET();
200039ba:	4681                	li	a3,0
200039bc:	4601                	li	a2,0
200039be:	4581                	li	a1,0
200039c0:	4511                	li	a0,4
C:\Users\USER\repos\aixt_ccgg\ports\WCH\CH573F-mini-BLE\projects\uart0_cadena_CH573F\obj/../StdPeriphDriver/CH57x_sys.c:146
{
200039c2:	c606                	sw	ra,12(sp)
C:\Users\USER\repos\aixt_ccgg\ports\WCH\CH573F-mini-BLE\projects\uart0_cadena_CH573F\obj/../StdPeriphDriver/CH57x_sys.c:147
    FLASH_ROM_SW_RESET();
200039c4:	2a91                	jal	20003b18 <FLASH_EEPROM_CMD>
C:\Users\USER\repos\aixt_ccgg\ports\WCH\CH573F-mini-BLE\projects\uart0_cadena_CH573F\obj/../StdPeriphDriver/CH57x_sys.c:148
    R8_SAFE_ACCESS_SIG = SAFE_ACCESS_SIG1;
200039c6:	400017b7          	lui	a5,0x40001
200039ca:	05700713          	li	a4,87
200039ce:	04e78023          	sb	a4,64(a5) # 40001040 <_eusrstack+0x1fff9040>
C:\Users\USER\repos\aixt_ccgg\ports\WCH\CH573F-mini-BLE\projects\uart0_cadena_CH573F\obj/../StdPeriphDriver/CH57x_sys.c:149
    R8_SAFE_ACCESS_SIG = SAFE_ACCESS_SIG2;
200039d2:	fa800713          	li	a4,-88
200039d6:	04e78023          	sb	a4,64(a5)
C:\Users\USER\repos\aixt_ccgg\ports\WCH\CH573F-mini-BLE\projects\uart0_cadena_CH573F\obj/../StdPeriphDriver/CH57x_sys.c:150
    R8_RST_WDOG_CTRL |= RB_SOFTWARE_RESET;
200039da:	0467c703          	lbu	a4,70(a5)
200039de:	00176713          	ori	a4,a4,1
200039e2:	04e78323          	sb	a4,70(a5)
C:\Users\USER\repos\aixt_ccgg\ports\WCH\CH573F-mini-BLE\projects\uart0_cadena_CH573F\obj/../StdPeriphDriver/CH57x_sys.c:151
    R8_SAFE_ACCESS_SIG = 0;
200039e6:	04078023          	sb	zero,64(a5)
C:\Users\USER\repos\aixt_ccgg\ports\WCH\CH573F-mini-BLE\projects\uart0_cadena_CH573F\obj/../StdPeriphDriver/CH57x_sys.c:152
}
200039ea:	40b2                	lw	ra,12(sp)
200039ec:	0141                	addi	sp,sp,16
200039ee:	8082                	ret

200039f0 <HardFault_Handler>:
HardFault_Handler():
C:\Users\USER\repos\aixt_ccgg\ports\WCH\CH573F-mini-BLE\projects\uart0_cadena_CH573F\obj/../StdPeriphDriver/CH57x_sys.c:281
__attribute__((interrupt("WCH-Interrupt-fast")))
__attribute__((section(".highcode")))
__attribute__((weak))
void HardFault_Handler(void)
{
    FLASH_ROM_SW_RESET();
200039f0:	4681                	li	a3,0
200039f2:	4601                	li	a2,0
200039f4:	4581                	li	a1,0
200039f6:	4511                	li	a0,4
200039f8:	2205                	jal	20003b18 <FLASH_EEPROM_CMD>
C:\Users\USER\repos\aixt_ccgg\ports\WCH\CH573F-mini-BLE\projects\uart0_cadena_CH573F\obj/../StdPeriphDriver/CH57x_sys.c:282
    R8_SAFE_ACCESS_SIG = SAFE_ACCESS_SIG1;
200039fa:	400017b7          	lui	a5,0x40001
200039fe:	05700713          	li	a4,87
20003a02:	04e78023          	sb	a4,64(a5) # 40001040 <_eusrstack+0x1fff9040>
C:\Users\USER\repos\aixt_ccgg\ports\WCH\CH573F-mini-BLE\projects\uart0_cadena_CH573F\obj/../StdPeriphDriver/CH57x_sys.c:283
    R8_SAFE_ACCESS_SIG = SAFE_ACCESS_SIG2;
20003a06:	fa800713          	li	a4,-88
20003a0a:	04e78023          	sb	a4,64(a5)
C:\Users\USER\repos\aixt_ccgg\ports\WCH\CH573F-mini-BLE\projects\uart0_cadena_CH573F\obj/../StdPeriphDriver/CH57x_sys.c:284
    R16_INT32K_TUNE = 0xFFFF;
20003a0e:	577d                	li	a4,-1
20003a10:	02e79623          	sh	a4,44(a5)
C:\Users\USER\repos\aixt_ccgg\ports\WCH\CH573F-mini-BLE\projects\uart0_cadena_CH573F\obj/../StdPeriphDriver/CH57x_sys.c:285
    R8_RST_WDOG_CTRL |= RB_SOFTWARE_RESET;
20003a14:	0467c703          	lbu	a4,70(a5)
20003a18:	00176713          	ori	a4,a4,1
20003a1c:	04e78323          	sb	a4,70(a5)
C:\Users\USER\repos\aixt_ccgg\ports\WCH\CH573F-mini-BLE\projects\uart0_cadena_CH573F\obj/../StdPeriphDriver/CH57x_sys.c:286
    R8_SAFE_ACCESS_SIG = 0;
20003a20:	04078023          	sb	zero,64(a5)
C:\Users\USER\repos\aixt_ccgg\ports\WCH\CH573F-mini-BLE\projects\uart0_cadena_CH573F\obj/../StdPeriphDriver/CH57x_sys.c:287 (discriminator 1)
    while(1);
20003a24:	a001                	j	20003a24 <HardFault_Handler+0x34>

20003a26 <mDelayuS>:
mDelayuS():
C:\Users\USER\repos\aixt_ccgg\ports\WCH\CH573F-mini-BLE\projects\uart0_cadena_CH573F\obj/../StdPeriphDriver/CH57x_sys.c:304
__attribute__((section(".highcode")))
void mDelayuS(uint16_t t)
{
    uint32_t i;
#if(FREQ_SYS == 60000000)
    i = t * 15;
20003a26:	47bd                	li	a5,15
20003a28:	02f50533          	mul	a0,a0,a5
C:\Users\USER\repos\aixt_ccgg\ports\WCH\CH573F-mini-BLE\projects\uart0_cadena_CH573F\obj/../StdPeriphDriver/CH57x_sys.c:326 (discriminator 1)
#elif(FREQ_SYS == 1000000)
    i = t >> 2;
#endif
    do
    {
        __nop();
20003a2c:	0001                	nop
C:\Users\USER\repos\aixt_ccgg\ports\WCH\CH573F-mini-BLE\projects\uart0_cadena_CH573F\obj/../StdPeriphDriver/CH57x_sys.c:327 (discriminator 1)
    } while(--i);
20003a2e:	157d                	addi	a0,a0,-1
20003a30:	fd75                	bnez	a0,20003a2c <mDelayuS+0x6>
C:\Users\USER\repos\aixt_ccgg\ports\WCH\CH573F-mini-BLE\projects\uart0_cadena_CH573F\obj/../StdPeriphDriver/CH57x_sys.c:328
}
20003a32:	8082                	ret

20003a34 <mDelaymS>:
mDelaymS():
C:\Users\USER\repos\aixt_ccgg\ports\WCH\CH573F-mini-BLE\projects\uart0_cadena_CH573F\obj/../StdPeriphDriver/CH57x_sys.c:341
 *
 * @return  none
 */
__attribute__((section(".highcode")))
void mDelaymS(uint16_t t)
{
20003a34:	1141                	addi	sp,sp,-16
20003a36:	c422                	sw	s0,8(sp)
20003a38:	c226                	sw	s1,4(sp)
20003a3a:	c606                	sw	ra,12(sp)
20003a3c:	84aa                	mv	s1,a0
C:\Users\USER\repos\aixt_ccgg\ports\WCH\CH573F-mini-BLE\projects\uart0_cadena_CH573F\obj/../StdPeriphDriver/CH57x_sys.c:344
    uint16_t i;

    for(i = 0; i < t; i++)
20003a3e:	4401                	li	s0,0
C:\Users\USER\repos\aixt_ccgg\ports\WCH\CH573F-mini-BLE\projects\uart0_cadena_CH573F\obj/../StdPeriphDriver/CH57x_sys.c:344 (discriminator 1)
20003a40:	00941763          	bne	s0,s1,20003a4e <mDelaymS+0x1a>
C:\Users\USER\repos\aixt_ccgg\ports\WCH\CH573F-mini-BLE\projects\uart0_cadena_CH573F\obj/../StdPeriphDriver/CH57x_sys.c:348
    {
        mDelayuS(1000);
    }
}
20003a44:	40b2                	lw	ra,12(sp)
20003a46:	4422                	lw	s0,8(sp)
20003a48:	4492                	lw	s1,4(sp)
20003a4a:	0141                	addi	sp,sp,16
20003a4c:	8082                	ret
C:\Users\USER\repos\aixt_ccgg\ports\WCH\CH573F-mini-BLE\projects\uart0_cadena_CH573F\obj/../StdPeriphDriver/CH57x_sys.c:344 (discriminator 3)
    for(i = 0; i < t; i++)
20003a4e:	0405                	addi	s0,s0,1
C:\Users\USER\repos\aixt_ccgg\ports\WCH\CH573F-mini-BLE\projects\uart0_cadena_CH573F\obj/../StdPeriphDriver/CH57x_sys.c:346 (discriminator 3)
        mDelayuS(1000);
20003a50:	3e800513          	li	a0,1000
C:\Users\USER\repos\aixt_ccgg\ports\WCH\CH573F-mini-BLE\projects\uart0_cadena_CH573F\obj/../StdPeriphDriver/CH57x_sys.c:344 (discriminator 3)
    for(i = 0; i < t; i++)
20003a54:	0442                	slli	s0,s0,0x10
C:\Users\USER\repos\aixt_ccgg\ports\WCH\CH573F-mini-BLE\projects\uart0_cadena_CH573F\obj/../StdPeriphDriver/CH57x_sys.c:346 (discriminator 3)
        mDelayuS(1000);
20003a56:	3fc1                	jal	20003a26 <mDelayuS>
C:\Users\USER\repos\aixt_ccgg\ports\WCH\CH573F-mini-BLE\projects\uart0_cadena_CH573F\obj/../StdPeriphDriver/CH57x_sys.c:344 (discriminator 3)
    for(i = 0; i < t; i++)
20003a58:	8041                	srli	s0,s0,0x10
20003a5a:	b7dd                	j	20003a40 <mDelaymS+0xc>

20003a5c <FLASH_ROM_BEG>:
FLASH_ROM_BEG():
20003a5c:	80040323          	sb	zero,-2042(s0)
20003a60:	4715                	li	a4,5
20003a62:	80e40323          	sb	a4,-2042(s0)
20003a66:	0001                	nop
20003a68:	80a40223          	sb	a0,-2044(s0)
20003a6c:	8082                	ret

20003a6e <FLASH_ROM_END>:
FLASH_ROM_END():
20003a6e:	80640783          	lb	a5,-2042(s0)
20003a72:	fe07cee3          	bltz	a5,20003a6e <FLASH_ROM_END>
20003a76:	80040323          	sb	zero,-2042(s0)
20003a7a:	8082                	ret

20003a7c <FLASH_ROM_IN>:
FLASH_ROM_IN():
20003a7c:	80640783          	lb	a5,-2042(s0)
20003a80:	fe07cee3          	bltz	a5,20003a7c <FLASH_ROM_IN>
20003a84:	80444503          	lbu	a0,-2044(s0)
20003a88:	8082                	ret

20003a8a <FLASH_ROM_OUT>:
FLASH_ROM_OUT():
20003a8a:	80640783          	lb	a5,-2042(s0)
20003a8e:	fe07cee3          	bltz	a5,20003a8a <FLASH_ROM_OUT>
20003a92:	80a40223          	sb	a0,-2044(s0)
20003a96:	8082                	ret

20003a98 <FLASH_ROM_ADDR>:
FLASH_ROM_ADDR():
20003a98:	1141                	addi	sp,sp,-16
20003a9a:	c426                	sw	s1,8(sp)
20003a9c:	c24a                	sw	s2,4(sp)
20003a9e:	c04e                	sw	s3,0(sp)
20003aa0:	c606                	sw	ra,12(sp)
20003aa2:	0bf57713          	andi	a4,a0,191
20003aa6:	47ad                	li	a5,11
20003aa8:	89aa                	mv	s3,a0
20003aaa:	892e                	mv	s2,a1
20003aac:	4495                	li	s1,5
20003aae:	00f70663          	beq	a4,a5,20003aba <FLASH_ROM_ADDR+0x22>
20003ab2:	4519                	li	a0,6
20003ab4:	3765                	jal	20003a5c <FLASH_ROM_BEG>
20003ab6:	3f65                	jal	20003a6e <FLASH_ROM_END>
20003ab8:	448d                	li	s1,3
20003aba:	854e                	mv	a0,s3
20003abc:	3745                	jal	20003a5c <FLASH_ROM_BEG>
20003abe:	59fd                	li	s3,-1
20003ac0:	14fd                	addi	s1,s1,-1
20003ac2:	01349863          	bne	s1,s3,20003ad2 <FLASH_ROM_ADDR+0x3a>
20003ac6:	40b2                	lw	ra,12(sp)
20003ac8:	44a2                	lw	s1,8(sp)
20003aca:	4912                	lw	s2,4(sp)
20003acc:	4982                	lw	s3,0(sp)
20003ace:	0141                	addi	sp,sp,16
20003ad0:	8082                	ret
20003ad2:	01095513          	srli	a0,s2,0x10
20003ad6:	0ff57513          	andi	a0,a0,255
20003ada:	3f45                	jal	20003a8a <FLASH_ROM_OUT>
20003adc:	0922                	slli	s2,s2,0x8
20003ade:	b7cd                	j	20003ac0 <FLASH_ROM_ADDR+0x28>

20003ae0 <FLASH_ROM_WAIT>:
FLASH_ROM_WAIT():
20003ae0:	1101                	addi	sp,sp,-32
20003ae2:	cc26                	sw	s1,24(sp)
20003ae4:	ce06                	sw	ra,28(sp)
20003ae6:	000804b7          	lui	s1,0x80
20003aea:	3751                	jal	20003a6e <FLASH_ROM_END>
20003aec:	4515                	li	a0,5
20003aee:	37bd                	jal	20003a5c <FLASH_ROM_BEG>
20003af0:	3771                	jal	20003a7c <FLASH_ROM_IN>
20003af2:	3769                	jal	20003a7c <FLASH_ROM_IN>
20003af4:	c62a                	sw	a0,12(sp)
20003af6:	3fa5                	jal	20003a6e <FLASH_ROM_END>
20003af8:	4532                	lw	a0,12(sp)
20003afa:	00157793          	andi	a5,a0,1
20003afe:	eb89                	bnez	a5,20003b10 <FLASH_ROM_WAIT+0x30>
20003b00:	00156513          	ori	a0,a0,1
20003b04:	0ff57513          	andi	a0,a0,255
20003b08:	40f2                	lw	ra,28(sp)
20003b0a:	44e2                	lw	s1,24(sp)
20003b0c:	6105                	addi	sp,sp,32
20003b0e:	8082                	ret
20003b10:	14fd                	addi	s1,s1,-1
20003b12:	fce9                	bnez	s1,20003aec <FLASH_ROM_WAIT+0xc>
20003b14:	4501                	li	a0,0
20003b16:	bfcd                	j	20003b08 <FLASH_ROM_WAIT+0x28>

20003b18 <FLASH_EEPROM_CMD>:
FLASH_EEPROM_CMD():
20003b18:	7139                	addi	sp,sp,-64
20003b1a:	dc26                	sw	s1,56(sp)
20003b1c:	da4a                	sw	s2,52(sp)
20003b1e:	d84e                	sw	s3,48(sp)
20003b20:	d652                	sw	s4,44(sp)
20003b22:	d456                	sw	s5,40(sp)
20003b24:	d25a                	sw	s6,36(sp)
20003b26:	d05e                	sw	s7,32(sp)
20003b28:	de06                	sw	ra,60(sp)
20003b2a:	ce62                	sw	s8,28(sp)
20003b2c:	cc66                	sw	s9,24(sp)
20003b2e:	e000e7b7          	lui	a5,0xe000e
20003b32:	577d                	li	a4,-1
20003b34:	0007aa83          	lw	s5,0(a5) # e000e000 <_eusrstack+0xc0006000>
20003b38:	c622                	sw	s0,12(sp)
20003b3a:	0047aa03          	lw	s4,4(a5)
20003b3e:	18e7a023          	sw	a4,384(a5)
20003b42:	18e7a223          	sw	a4,388(a5)
20003b46:	400017b7          	lui	a5,0x40001
20003b4a:	05700713          	li	a4,87
20003b4e:	04e78023          	sb	a4,64(a5) # 40001040 <_eusrstack+0x1fff9040>
20003b52:	fa800713          	li	a4,-88
20003b56:	04e78023          	sb	a4,64(a5)
20003b5a:	0447c783          	lbu	a5,68(a5)
20003b5e:	ff750b93          	addi	s7,a0,-9
20003b62:	84b6                	mv	s1,a3
20003b64:	07e2                	slli	a5,a5,0x18
20003b66:	0ffbfb93          	andi	s7,s7,255
20003b6a:	4685                	li	a3,1
20003b6c:	89aa                	mv	s3,a0
20003b6e:	8b2e                	mv	s6,a1
20003b70:	8932                	mv	s2,a2
20003b72:	40002437          	lui	s0,0x40002
20003b76:	87e1                	srai	a5,a5,0x18
20003b78:	5701                	li	a4,-32
20003b7a:	0176fa63          	bgeu	a3,s7,20003b8e <FLASH_EEPROM_CMD+0x76>
20003b7e:	00d50863          	beq	a0,a3,20003b8e <FLASH_EEPROM_CMD+0x76>
20003b82:	4689                	li	a3,2
20003b84:	02000713          	li	a4,32
20003b88:	00d51363          	bne	a0,a3,20003b8e <FLASH_EEPROM_CMD+0x76>
20003b8c:	5701                	li	a4,-32
20003b8e:	8fd9                	or	a5,a5,a4
20003b90:	0ff7f793          	andi	a5,a5,255
20003b94:	40001cb7          	lui	s9,0x40001
20003b98:	04fc8223          	sb	a5,68(s9) # 40001044 <_eusrstack+0x1fff9044>
20003b9c:	4711                	li	a4,4
20003b9e:	80e40323          	sb	a4,-2042(s0) # 40001806 <_eusrstack+0x1fff9806>
20003ba2:	0ff00513          	li	a0,255
20003ba6:	3d5d                	jal	20003a5c <FLASH_ROM_BEG>
20003ba8:	4c09                	li	s8,2
20003baa:	35d1                	jal	20003a6e <FLASH_ROM_END>
20003bac:	117c6963          	bltu	s8,s7,20003cbe <FLASH_EEPROM_CMD+0x1a6>
20003bb0:	000707b7          	lui	a5,0x70
20003bb4:	9b3e                	add	s6,s6,a5
20003bb6:	00078737          	lui	a4,0x78
20003bba:	5579                	li	a0,-2
20003bbc:	02eb7e63          	bgeu	s6,a4,20003bf8 <FLASH_EEPROM_CMD+0xe0>
20003bc0:	009b07b3          	add	a5,s6,s1
20003bc4:	02f76a63          	bltu	a4,a5,20003bf8 <FLASH_EEPROM_CMD+0xe0>
20003bc8:	47a9                	li	a5,10
20003bca:	06f99963          	bne	s3,a5,20003c3c <FLASH_EEPROM_CMD+0x124>
20003bce:	e489                	bnez	s1,20003bd8 <FLASH_EEPROM_CMD+0xc0>
20003bd0:	4481                	li	s1,0
20003bd2:	3d71                	jal	20003a6e <FLASH_ROM_END>
20003bd4:	8526                	mv	a0,s1
20003bd6:	a00d                	j	20003bf8 <FLASH_EEPROM_CMD+0xe0>
20003bd8:	85da                	mv	a1,s6
20003bda:	4509                	li	a0,2
20003bdc:	3d75                	jal	20003a98 <FLASH_ROM_ADDR>
20003bde:	0905                	addi	s2,s2,1
20003be0:	fff94503          	lbu	a0,-1(s2)
20003be4:	14fd                	addi	s1,s1,-1
20003be6:	0b05                	addi	s6,s6,1
20003be8:	354d                	jal	20003a8a <FLASH_ROM_OUT>
20003bea:	c481                	beqz	s1,20003bf2 <FLASH_EEPROM_CMD+0xda>
20003bec:	0ffb7793          	andi	a5,s6,255
20003bf0:	f7fd                	bnez	a5,20003bde <FLASH_EEPROM_CMD+0xc6>
20003bf2:	35fd                	jal	20003ae0 <FLASH_ROM_WAIT>
20003bf4:	fd69                	bnez	a0,20003bce <FLASH_EEPROM_CMD+0xb6>
20003bf6:	557d                	li	a0,-1
20003bf8:	400017b7          	lui	a5,0x40001
20003bfc:	05700713          	li	a4,87
20003c00:	04e78023          	sb	a4,64(a5) # 40001040 <_eusrstack+0x1fff9040>
20003c04:	fa800713          	li	a4,-88
20003c08:	04e78023          	sb	a4,64(a5)
20003c0c:	0447c703          	lbu	a4,68(a5)
20003c10:	8b41                	andi	a4,a4,16
20003c12:	04e78223          	sb	a4,68(a5)
20003c16:	50f2                	lw	ra,60(sp)
20003c18:	e000e7b7          	lui	a5,0xe000e
20003c1c:	1157a023          	sw	s5,256(a5) # e000e100 <_eusrstack+0xc0006100>
20003c20:	1147a223          	sw	s4,260(a5)
20003c24:	54e2                	lw	s1,56(sp)
20003c26:	4432                	lw	s0,12(sp)
20003c28:	5952                	lw	s2,52(sp)
20003c2a:	59c2                	lw	s3,48(sp)
20003c2c:	5a32                	lw	s4,44(sp)
20003c2e:	5aa2                	lw	s5,40(sp)
20003c30:	5b12                	lw	s6,36(sp)
20003c32:	5b82                	lw	s7,32(sp)
20003c34:	4c72                	lw	s8,28(sp)
20003c36:	4ce2                	lw	s9,24(sp)
20003c38:	6121                	addi	sp,sp,64
20003c3a:	8082                	ret
20003c3c:	47a5                	li	a5,9
20003c3e:	06f99563          	bne	s3,a5,20003ca8 <FLASH_EEPROM_CMD+0x190>
20003c42:	6985                	lui	s3,0x1
20003c44:	0ff00913          	li	s2,255
20003c48:	009906b3          	add	a3,s2,s1
20003c4c:	012b74b3          	and	s1,s6,s2
20003c50:	94b6                	add	s1,s1,a3
20003c52:	fff94913          	not	s2,s2
20003c56:	009974b3          	and	s1,s2,s1
20003c5a:	6b85                	lui	s7,0x1
20003c5c:	01697933          	and	s2,s2,s6
20003c60:	6b41                	lui	s6,0x10
20003c62:	fff98793          	addi	a5,s3,-1 # fff <_printf_i+0x283>
20003c66:	0127f7b3          	and	a5,a5,s2
20003c6a:	e399                	bnez	a5,20003c70 <FLASH_EEPROM_CMD+0x158>
20003c6c:	0134fc63          	bgeu	s1,s3,20003c84 <FLASH_EEPROM_CMD+0x16c>
20003c70:	0049d993          	srli	s3,s3,0x4
20003c74:	47c1                	li	a5,16
20003c76:	ff37e6e3          	bltu	a5,s3,20003c62 <FLASH_EEPROM_CMD+0x14a>
20003c7a:	bf99                	j	20003bd0 <FLASH_EEPROM_CMD+0xb8>
20003c7c:	6905                	lui	s2,0x1
20003c7e:	69c1                	lui	s3,0x10
20003c80:	197d                	addi	s2,s2,-1
20003c82:	b7d9                	j	20003c48 <FLASH_EEPROM_CMD+0x130>
20003c84:	0d800513          	li	a0,216
20003c88:	01698863          	beq	s3,s6,20003c98 <FLASH_EEPROM_CMD+0x180>
20003c8c:	02000513          	li	a0,32
20003c90:	01798463          	beq	s3,s7,20003c98 <FLASH_EEPROM_CMD+0x180>
20003c94:	08100513          	li	a0,129
20003c98:	85ca                	mv	a1,s2
20003c9a:	3bfd                	jal	20003a98 <FLASH_ROM_ADDR>
20003c9c:	3591                	jal	20003ae0 <FLASH_ROM_WAIT>
20003c9e:	dd21                	beqz	a0,20003bf6 <FLASH_EEPROM_CMD+0xde>
20003ca0:	994e                	add	s2,s2,s3
20003ca2:	413484b3          	sub	s1,s1,s3
20003ca6:	b7d9                	j	20003c6c <FLASH_EEPROM_CMD+0x154>
20003ca8:	85da                	mv	a1,s6
20003caa:	452d                	li	a0,11
20003cac:	33f5                	jal	20003a98 <FLASH_ROM_ADDR>
20003cae:	94ca                	add	s1,s1,s2
20003cb0:	f29900e3          	beq	s2,s1,20003bd0 <FLASH_EEPROM_CMD+0xb8>
20003cb4:	0905                	addi	s2,s2,1
20003cb6:	33d9                	jal	20003a7c <FLASH_ROM_IN>
20003cb8:	fea90fa3          	sb	a0,-1(s2) # fff <_printf_i+0x283>
20003cbc:	bfd5                	j	20003cb0 <FLASH_EEPROM_CMD+0x198>
20003cbe:	fff98793          	addi	a5,s3,-1 # ffff <_data_lma+0xec33>
20003cc2:	0ff7f793          	andi	a5,a5,255
20003cc6:	08fc6c63          	bltu	s8,a5,20003d5e <.loop401+0x54>
20003cca:	045cc703          	lbu	a4,69(s9)
20003cce:	000807b7          	lui	a5,0x80
20003cd2:	02077713          	andi	a4,a4,32
20003cd6:	e319                	bnez	a4,20003cdc <FLASH_EEPROM_CMD+0x1c4>
20003cd8:	000787b7          	lui	a5,0x78
20003cdc:	5579                	li	a0,-2
20003cde:	f0fb7de3          	bgeu	s6,a5,20003bf8 <FLASH_EEPROM_CMD+0xe0>
20003ce2:	009b0733          	add	a4,s6,s1
20003ce6:	f0e7e9e3          	bltu	a5,a4,20003bf8 <FLASH_EEPROM_CMD+0xe0>
20003cea:	4789                	li	a5,2
20003cec:	04f99063          	bne	s3,a5,20003d2c <.loop401+0x22>
20003cf0:	8089                	srli	s1,s1,0x2
20003cf2:	49d5                	li	s3,21
20003cf4:	ec048ee3          	beqz	s1,20003bd0 <FLASH_EEPROM_CMD+0xb8>
20003cf8:	85da                	mv	a1,s6
20003cfa:	4509                	li	a0,2
20003cfc:	3b71                	jal	20003a98 <FLASH_ROM_ADDR>
20003cfe:	0911                	addi	s2,s2,4
20003d00:	ffc92703          	lw	a4,-4(s2)
20003d04:	4791                	li	a5,4
20003d06:	80e42023          	sw	a4,-2048(s0)

20003d0a <.loop401>:
20003d0a:	80640703          	lb	a4,-2042(s0)
20003d0e:	fe074ee3          	bltz	a4,20003d0a <.loop401>
20003d12:	81340323          	sb	s3,-2042(s0)
20003d16:	17fd                	addi	a5,a5,-1
20003d18:	fbed                	bnez	a5,20003d0a <.loop401>
20003d1a:	14fd                	addi	s1,s1,-1
20003d1c:	0b11                	addi	s6,s6,4
20003d1e:	c481                	beqz	s1,20003d26 <.loop401+0x1c>
20003d20:	0ffb7793          	andi	a5,s6,255
20003d24:	ffe9                	bnez	a5,20003cfe <FLASH_EEPROM_CMD+0x1e6>
20003d26:	3b6d                	jal	20003ae0 <FLASH_ROM_WAIT>
20003d28:	f571                	bnez	a0,20003cf4 <FLASH_EEPROM_CMD+0x1dc>
20003d2a:	b5f1                	j	20003bf6 <FLASH_EEPROM_CMD+0xde>
20003d2c:	4785                	li	a5,1
20003d2e:	f4f987e3          	beq	s3,a5,20003c7c <FLASH_EEPROM_CMD+0x164>
20003d32:	85da                	mv	a1,s6
20003d34:	452d                	li	a0,11
20003d36:	338d                	jal	20003a98 <FLASH_ROM_ADDR>
20003d38:	fff48993          	addi	s3,s1,-1 # 7ffff <_data_lma+0x7ec33>
20003d3c:	e8048ae3          	beqz	s1,20003bd0 <FLASH_EEPROM_CMD+0xb8>
20003d40:	3b35                	jal	20003a7c <FLASH_ROM_IN>
20003d42:	0039f793          	andi	a5,s3,3
20003d46:	eb91                	bnez	a5,20003d5a <.loop401+0x50>
20003d48:	80042683          	lw	a3,-2048(s0)
20003d4c:	00092703          	lw	a4,0(s2)
20003d50:	00490793          	addi	a5,s2,4
20003d54:	e6e69fe3          	bne	a3,a4,20003bd2 <FLASH_EEPROM_CMD+0xba>
20003d58:	893e                	mv	s2,a5
20003d5a:	84ce                	mv	s1,s3
20003d5c:	bff1                	j	20003d38 <.loop401+0x2e>
20003d5e:	47b5                	li	a5,13
20003d60:	00f99663          	bne	s3,a5,20003d6c <.loop401+0x62>
20003d64:	0b900513          	li	a0,185
20003d68:	39d5                	jal	20003a5c <FLASH_ROM_BEG>
20003d6a:	b59d                	j	20003bd0 <FLASH_EEPROM_CMD+0xb8>
20003d6c:	47b1                	li	a5,12
20003d6e:	0ab00513          	li	a0,171
20003d72:	fef98be3          	beq	s3,a5,20003d68 <.loop401+0x5e>
20003d76:	4799                	li	a5,6
20003d78:	02f99e63          	bne	s3,a5,20003db4 <.loop401+0xaa>
20003d7c:	85da                	mv	a1,s6
20003d7e:	452d                	li	a0,11
20003d80:	3b21                	jal	20003a98 <FLASH_ROM_ADDR>
20003d82:	4481                	li	s1,0
20003d84:	4b8d                	li	s7,3
20003d86:	49a1                	li	s3,8
20003d88:	39d5                	jal	20003a7c <FLASH_ROM_IN>
20003d8a:	01749663          	bne	s1,s7,20003d96 <.loop401+0x8c>
20003d8e:	80042783          	lw	a5,-2048(s0)
20003d92:	00f92023          	sw	a5,0(s2)
20003d96:	0485                	addi	s1,s1,1
20003d98:	ff3498e3          	bne	s1,s3,20003d88 <.loop401+0x7e>
20003d9c:	80042783          	lw	a5,-2048(s0)
20003da0:	012b1713          	slli	a4,s6,0x12
20003da4:	00075563          	bgez	a4,20003dae <.loop401+0xa4>
20003da8:	00f91223          	sh	a5,4(s2)
20003dac:	b515                	j	20003bd0 <FLASH_EEPROM_CMD+0xb8>
20003dae:	00f92223          	sw	a5,4(s2)
20003db2:	bd39                	j	20003bd0 <FLASH_EEPROM_CMD+0xb8>
20003db4:	479d                	li	a5,7
20003db6:	02f99963          	bne	s3,a5,20003de8 <.loop401+0xde>
20003dba:	4581                	li	a1,0
20003dbc:	04b00513          	li	a0,75
20003dc0:	39e1                	jal	20003a98 <FLASH_ROM_ADDR>
20003dc2:	44bd                	li	s1,15
20003dc4:	00092023          	sw	zero,0(s2)
20003dc8:	00092223          	sw	zero,4(s2)
20003dcc:	59fd                	li	s3,-1
20003dce:	317d                	jal	20003a7c <FLASH_ROM_IN>
20003dd0:	0074f793          	andi	a5,s1,7
20003dd4:	97ca                	add	a5,a5,s2
20003dd6:	0007c703          	lbu	a4,0(a5) # 78000 <_data_lma+0x76c34>
20003dda:	14fd                	addi	s1,s1,-1
20003ddc:	8d39                	xor	a0,a0,a4
20003dde:	00a78023          	sb	a0,0(a5)
20003de2:	ff3496e3          	bne	s1,s3,20003dce <.loop401+0xc4>
20003de6:	b3ed                	j	20003bd0 <FLASH_EEPROM_CMD+0xb8>
20003de8:	47a1                	li	a5,8
20003dea:	04f99263          	bne	s3,a5,20003e2e <.loop401+0x124>
20003dee:	39cd                	jal	20003ae0 <FLASH_ROM_WAIT>
20003df0:	4481                	li	s1,0
20003df2:	000b0d63          	beqz	s6,20003e0c <.loop401+0x102>
20003df6:	478d                	li	a5,3
20003df8:	03c00493          	li	s1,60
20003dfc:	00fb0863          	beq	s6,a5,20003e0c <.loop401+0x102>
20003e00:	05000493          	li	s1,80
20003e04:	018b0463          	beq	s6,s8,20003e0c <.loop401+0x102>
20003e08:	04400493          	li	s1,68
20003e0c:	07c57513          	andi	a0,a0,124
20003e10:	dc9500e3          	beq	a0,s1,20003bd0 <FLASH_EEPROM_CMD+0xb8>
20003e14:	4519                	li	a0,6
20003e16:	3199                	jal	20003a5c <FLASH_ROM_BEG>
20003e18:	3999                	jal	20003a6e <FLASH_ROM_END>
20003e1a:	4505                	li	a0,1
20003e1c:	3181                	jal	20003a5c <FLASH_ROM_BEG>
20003e1e:	8526                	mv	a0,s1
20003e20:	31ad                	jal	20003a8a <FLASH_ROM_OUT>
20003e22:	4509                	li	a0,2
20003e24:	319d                	jal	20003a8a <FLASH_ROM_OUT>
20003e26:	396d                	jal	20003ae0 <FLASH_ROM_WAIT>
20003e28:	da0514e3          	bnez	a0,20003bd0 <FLASH_EEPROM_CMD+0xb8>
20003e2c:	b3e9                	j	20003bf6 <FLASH_EEPROM_CMD+0xde>
20003e2e:	4791                	li	a5,4
20003e30:	00f99963          	bne	s3,a5,20003e42 <.loop401+0x138>
20003e34:	06600513          	li	a0,102
20003e38:	3115                	jal	20003a5c <FLASH_ROM_BEG>
20003e3a:	3915                	jal	20003a6e <FLASH_ROM_END>
20003e3c:	09900513          	li	a0,153
20003e40:	b725                	j	20003d68 <.loop401+0x5e>
20003e42:	d80987e3          	beqz	s3,20003bd0 <FLASH_EEPROM_CMD+0xb8>
20003e46:	54f1                	li	s1,-4
20003e48:	b369                	j	20003bd2 <FLASH_EEPROM_CMD+0xba>
	...

Disassembly of section .text:

00000650 <handle_reset>:
handle_reset():
C:\Users\USER\repos\aixt_ccgg\ports\WCH\CH573F-mini-BLE\projects\uart0_cadena_CH573F\obj/../Startup/startup_CH573.S:114
	.weak	handle_reset
	.align	1
handle_reset:
.option push 
.option	norelax 
	la gp, __global_pointer$
     650:	20004197          	auipc	gp,0x20004
     654:	21018193          	addi	gp,gp,528 # 20004860 <__global_pointer$>
C:\Users\USER\repos\aixt_ccgg\ports\WCH\CH573F-mini-BLE\projects\uart0_cadena_CH573F\obj/../Startup/startup_CH573.S:117
.option	pop 
1:
	la sp, _eusrstack 
     658:	20008117          	auipc	sp,0x20008
     65c:	9a810113          	addi	sp,sp,-1624 # 20008000 <_eusrstack>
C:\Users\USER\repos\aixt_ccgg\ports\WCH\CH573F-mini-BLE\projects\uart0_cadena_CH573F\obj/../Startup/startup_CH573.S:121

/* Load highcode code  section from flash to RAM */
2:
    la a0, _highcode_lma
     660:	00400513          	li	a0,4
C:\Users\USER\repos\aixt_ccgg\ports\WCH\CH573F-mini-BLE\projects\uart0_cadena_CH573F\obj/../Startup/startup_CH573.S:122
    la a1, _highcode_vma_start
     664:	20003597          	auipc	a1,0x20003
     668:	19c58593          	addi	a1,a1,412 # 20003800 <_highcode_vma_start>
C:\Users\USER\repos\aixt_ccgg\ports\WCH\CH573F-mini-BLE\projects\uart0_cadena_CH573F\obj/../Startup/startup_CH573.S:123
    la a2, _highcode_vma_end
     66c:	20003617          	auipc	a2,0x20003
     670:	7e060613          	addi	a2,a2,2016 # 20003e4c <_highcode_vma_end>
C:\Users\USER\repos\aixt_ccgg\ports\WCH\CH573F-mini-BLE\projects\uart0_cadena_CH573F\obj/../Startup/startup_CH573.S:124
    bgeu a1, a2, 2f
     674:	00c5fa63          	bgeu	a1,a2,688 <handle_reset+0x38>
C:\Users\USER\repos\aixt_ccgg\ports\WCH\CH573F-mini-BLE\projects\uart0_cadena_CH573F\obj/../Startup/startup_CH573.S:126
1:
    lw t0, (a0)
     678:	00052283          	lw	t0,0(a0)
C:\Users\USER\repos\aixt_ccgg\ports\WCH\CH573F-mini-BLE\projects\uart0_cadena_CH573F\obj/../Startup/startup_CH573.S:127
    sw t0, (a1)
     67c:	0055a023          	sw	t0,0(a1)
C:\Users\USER\repos\aixt_ccgg\ports\WCH\CH573F-mini-BLE\projects\uart0_cadena_CH573F\obj/../Startup/startup_CH573.S:128
    addi a0, a0, 4
     680:	0511                	addi	a0,a0,4
C:\Users\USER\repos\aixt_ccgg\ports\WCH\CH573F-mini-BLE\projects\uart0_cadena_CH573F\obj/../Startup/startup_CH573.S:129
    addi a1, a1, 4
     682:	0591                	addi	a1,a1,4
C:\Users\USER\repos\aixt_ccgg\ports\WCH\CH573F-mini-BLE\projects\uart0_cadena_CH573F\obj/../Startup/startup_CH573.S:130
    bltu a1, a2, 1b
     684:	fec5eae3          	bltu	a1,a2,678 <handle_reset+0x28>
C:\Users\USER\repos\aixt_ccgg\ports\WCH\CH573F-mini-BLE\projects\uart0_cadena_CH573F\obj/../Startup/startup_CH573.S:134

/* Load data section from flash to RAM */
2:
	la a0, _data_lma
     688:	00001517          	auipc	a0,0x1
     68c:	d4450513          	addi	a0,a0,-700 # 13cc <_data_lma>
C:\Users\USER\repos\aixt_ccgg\ports\WCH\CH573F-mini-BLE\projects\uart0_cadena_CH573F\obj/../Startup/startup_CH573.S:135
	la a1, _data_vma
     690:	20004597          	auipc	a1,0x20004
     694:	97058593          	addi	a1,a1,-1680 # 20004000 <_data_vma>
C:\Users\USER\repos\aixt_ccgg\ports\WCH\CH573F-mini-BLE\projects\uart0_cadena_CH573F\obj/../Startup/startup_CH573.S:136
	la a2, _edata
     698:	80818613          	addi	a2,gp,-2040 # 20004068 <_edata>
C:\Users\USER\repos\aixt_ccgg\ports\WCH\CH573F-mini-BLE\projects\uart0_cadena_CH573F\obj/../Startup/startup_CH573.S:137
	bgeu a1, a2, 2f
     69c:	00c5fa63          	bgeu	a1,a2,6b0 <handle_reset+0x60>
C:\Users\USER\repos\aixt_ccgg\ports\WCH\CH573F-mini-BLE\projects\uart0_cadena_CH573F\obj/../Startup/startup_CH573.S:139
1:
	lw t0, (a0)
     6a0:	00052283          	lw	t0,0(a0)
C:\Users\USER\repos\aixt_ccgg\ports\WCH\CH573F-mini-BLE\projects\uart0_cadena_CH573F\obj/../Startup/startup_CH573.S:140
	sw t0, (a1)
     6a4:	0055a023          	sw	t0,0(a1)
C:\Users\USER\repos\aixt_ccgg\ports\WCH\CH573F-mini-BLE\projects\uart0_cadena_CH573F\obj/../Startup/startup_CH573.S:141
	addi a0, a0, 4
     6a8:	0511                	addi	a0,a0,4
C:\Users\USER\repos\aixt_ccgg\ports\WCH\CH573F-mini-BLE\projects\uart0_cadena_CH573F\obj/../Startup/startup_CH573.S:142
	addi a1, a1, 4
     6aa:	0591                	addi	a1,a1,4
C:\Users\USER\repos\aixt_ccgg\ports\WCH\CH573F-mini-BLE\projects\uart0_cadena_CH573F\obj/../Startup/startup_CH573.S:143
	bltu a1, a2, 1b
     6ac:	fec5eae3          	bltu	a1,a2,6a0 <handle_reset+0x50>
C:\Users\USER\repos\aixt_ccgg\ports\WCH\CH573F-mini-BLE\projects\uart0_cadena_CH573F\obj/../Startup/startup_CH573.S:146
2:
	/* clear bss section */
	la a0, _sbss
     6b0:	80818513          	addi	a0,gp,-2040 # 20004068 <_edata>
C:\Users\USER\repos\aixt_ccgg\ports\WCH\CH573F-mini-BLE\projects\uart0_cadena_CH573F\obj/../Startup/startup_CH573.S:147
	la a1, _ebss
     6b4:	86818593          	addi	a1,gp,-1944 # 200040c8 <_ebss>
C:\Users\USER\repos\aixt_ccgg\ports\WCH\CH573F-mini-BLE\projects\uart0_cadena_CH573F\obj/../Startup/startup_CH573.S:148
	bgeu a0, a1, 2f
     6b8:	00b57763          	bgeu	a0,a1,6c6 <handle_reset+0x76>
C:\Users\USER\repos\aixt_ccgg\ports\WCH\CH573F-mini-BLE\projects\uart0_cadena_CH573F\obj/../Startup/startup_CH573.S:150
1:
	sw zero, (a0)
     6bc:	00052023          	sw	zero,0(a0)
C:\Users\USER\repos\aixt_ccgg\ports\WCH\CH573F-mini-BLE\projects\uart0_cadena_CH573F\obj/../Startup/startup_CH573.S:151
	addi a0, a0, 4
     6c0:	0511                	addi	a0,a0,4
C:\Users\USER\repos\aixt_ccgg\ports\WCH\CH573F-mini-BLE\projects\uart0_cadena_CH573F\obj/../Startup/startup_CH573.S:152
	bltu a0, a1, 1b
     6c2:	feb56de3          	bltu	a0,a1,6bc <handle_reset+0x6c>
C:\Users\USER\repos\aixt_ccgg\ports\WCH\CH573F-mini-BLE\projects\uart0_cadena_CH573F\obj/../Startup/startup_CH573.S:154
2:
    li t0, 0x88
     6c6:	08800293          	li	t0,136
C:\Users\USER\repos\aixt_ccgg\ports\WCH\CH573F-mini-BLE\projects\uart0_cadena_CH573F\obj/../Startup/startup_CH573.S:155
    csrs mstatus, t0
     6ca:	3002a073          	csrs	mstatus,t0
C:\Users\USER\repos\aixt_ccgg\ports\WCH\CH573F-mini-BLE\projects\uart0_cadena_CH573F\obj/../Startup/startup_CH573.S:156
	la t0, _vector_base
     6ce:	20003297          	auipc	t0,0x20003
     6d2:	13228293          	addi	t0,t0,306 # 20003800 <_highcode_vma_start>
C:\Users\USER\repos\aixt_ccgg\ports\WCH\CH573F-mini-BLE\projects\uart0_cadena_CH573F\obj/../Startup/startup_CH573.S:157
    ori t0, t0, 1
     6d6:	0012e293          	ori	t0,t0,1
C:\Users\USER\repos\aixt_ccgg\ports\WCH\CH573F-mini-BLE\projects\uart0_cadena_CH573F\obj/../Startup/startup_CH573.S:158
	csrw mtvec, t0
     6da:	30529073          	csrw	mtvec,t0
C:\Users\USER\repos\aixt_ccgg\ports\WCH\CH573F-mini-BLE\projects\uart0_cadena_CH573F\obj/../Startup/startup_CH573.S:159
	la t0, main
     6de:	00000297          	auipc	t0,0x0
     6e2:	07028293          	addi	t0,t0,112 # 74e <main>
C:\Users\USER\repos\aixt_ccgg\ports\WCH\CH573F-mini-BLE\projects\uart0_cadena_CH573F\obj/../Startup/startup_CH573.S:160
	csrw mepc, t0
     6e6:	34129073          	csrw	mepc,t0
C:\Users\USER\repos\aixt_ccgg\ports\WCH\CH573F-mini-BLE\projects\uart0_cadena_CH573F\obj/../Startup/startup_CH573.S:167
	/* enable vector relocation
	li t0, 0xE000ED14
	li t1, 1
	sw t1, 0(t0)*/
	
	mret
     6ea:	30200073          	mret

000006ee <uart.print>:
uart.print():
C:\Users\USER\repos\aixt_ccgg\ports\WCH\CH573F-mini-BLE\projects\uart0_cadena_CH573F\obj/../src/Main.c:27
}


void uart.print(char* msg){
    while(*msg != '\0'){
        uart.write(*msg);
     6ee:	40003737          	lui	a4,0x40003
C:\Users\USER\repos\aixt_ccgg\ports\WCH\CH573F-mini-BLE\projects\uart0_cadena_CH573F\obj/../src/Main.c:26
    while(*msg != '\0'){
     6f2:	00050783          	lb	a5,0(a0)
     6f6:	e391                	bnez	a5,6fa <uart.print+0xc>
C:\Users\USER\repos\aixt_ccgg\ports\WCH\CH573F-mini-BLE\projects\uart0_cadena_CH573F\obj/../src/Main.c:30
        msg++;
    }
}
     6f8:	8082                	ret
C:\Users\USER\repos\aixt_ccgg\ports\WCH\CH573F-mini-BLE\projects\uart0_cadena_CH573F\obj/../src/Main.c:27
        uart.write(*msg);
     6fa:	0ff7f793          	andi	a5,a5,255
     6fe:	00f70423          	sb	a5,8(a4) # 40003008 <_eusrstack+0x1fffb008>
C:\Users\USER\repos\aixt_ccgg\ports\WCH\CH573F-mini-BLE\projects\uart0_cadena_CH573F\obj/../src/Main.c:28
        msg++;
     702:	0505                	addi	a0,a0,1
     704:	b7fd                	j	6f2 <uart.print+0x4>

00000706 <uart.setup>:
uart.setup():
C:\Users\USER\repos\aixt_ccgg\ports\WCH\CH573F-mini-BLE\projects\uart0_cadena_CH573F\obj/../src/Main.c:39
    while(!(R8_UART0_RFC == 1)){}
    return R8_UART0_RBR; 
}


void uart.setup(uint32_t baud_rate){
     706:	1141                	addi	sp,sp,-16
     708:	c606                	sw	ra,12(sp)
C:\Users\USER\repos\aixt_ccgg\ports\WCH\CH573F-mini-BLE\projects\uart0_cadena_CH573F\obj/../src/Main.c:40
    UART0_BaudRateCfg(baud_rate);
     70a:	2a41                	jal	89a <UART0_BaudRateCfg>
C:\Users\USER\repos\aixt_ccgg\ports\WCH\CH573F-mini-BLE\projects\uart0_cadena_CH573F\obj/../src/Main.c:41
    R8_UART0_FCR = (2 << 6) | RB_FCR_TX_FIFO_CLR | RB_FCR_RX_FIFO_CLR | RB_FCR_FIFO_EN;
     70c:	400037b7          	lui	a5,0x40003
     710:	f8700713          	li	a4,-121
     714:	00e78123          	sb	a4,2(a5) # 40003002 <_eusrstack+0x1fffb002>
C:\Users\USER\repos\aixt_ccgg\ports\WCH\CH573F-mini-BLE\projects\uart0_cadena_CH573F\obj/../src/Main.c:42
    R8_UART0_LCR = RB_LCR_WORD_SZ;
     718:	470d                	li	a4,3
     71a:	00e781a3          	sb	a4,3(a5)
C:\Users\USER\repos\aixt_ccgg\ports\WCH\CH573F-mini-BLE\projects\uart0_cadena_CH573F\obj/../src/Main.c:43
    R8_UART0_IER = RB_IER_TXD_EN;
     71e:	04000713          	li	a4,64
     722:	00e780a3          	sb	a4,1(a5)
C:\Users\USER\repos\aixt_ccgg\ports\WCH\CH573F-mini-BLE\projects\uart0_cadena_CH573F\obj/../src/Main.c:44
    R8_UART0_DIV = 1;
     726:	4705                	li	a4,1
     728:	00e78723          	sb	a4,14(a5)
C:\Users\USER\repos\aixt_ccgg\ports\WCH\CH573F-mini-BLE\projects\uart0_cadena_CH573F\obj/../src/Main.c:46

    GPIOB_SetBits(GPIO_Pin_7);
     72c:	40001737          	lui	a4,0x40001
     730:	0c872783          	lw	a5,200(a4) # 400010c8 <_eusrstack+0x1fff90c8>
C:\Users\USER\repos\aixt_ccgg\ports\WCH\CH573F-mini-BLE\projects\uart0_cadena_CH573F\obj/../src/Main.c:47
    GPIOB_ModeCfg(GPIO_Pin_4, GPIO_ModeIN_PU);   //RX
     734:	4585                	li	a1,1
     736:	4541                	li	a0,16
C:\Users\USER\repos\aixt_ccgg\ports\WCH\CH573F-mini-BLE\projects\uart0_cadena_CH573F\obj/../src/Main.c:46
    GPIOB_SetBits(GPIO_Pin_7);
     738:	0807e793          	ori	a5,a5,128
     73c:	0cf72423          	sw	a5,200(a4)
C:\Users\USER\repos\aixt_ccgg\ports\WCH\CH573F-mini-BLE\projects\uart0_cadena_CH573F\obj/../src/Main.c:47
    GPIOB_ModeCfg(GPIO_Pin_4, GPIO_ModeIN_PU);   //RX
     740:	288d                	jal	7b2 <GPIOB_ModeCfg>
C:\Users\USER\repos\aixt_ccgg\ports\WCH\CH573F-mini-BLE\projects\uart0_cadena_CH573F\obj/../src/Main.c:49
    GPIOB_ModeCfg(GPIO_Pin_7, GPIO_ModeOut_PP_5mA);  //TX
}
     742:	40b2                	lw	ra,12(sp)
C:\Users\USER\repos\aixt_ccgg\ports\WCH\CH573F-mini-BLE\projects\uart0_cadena_CH573F\obj/../src/Main.c:48
    GPIOB_ModeCfg(GPIO_Pin_7, GPIO_ModeOut_PP_5mA);  //TX
     744:	458d                	li	a1,3
     746:	08000513          	li	a0,128
C:\Users\USER\repos\aixt_ccgg\ports\WCH\CH573F-mini-BLE\projects\uart0_cadena_CH573F\obj/../src/Main.c:49
}
     74a:	0141                	addi	sp,sp,16
C:\Users\USER\repos\aixt_ccgg\ports\WCH\CH573F-mini-BLE\projects\uart0_cadena_CH573F\obj/../src/Main.c:48
    GPIOB_ModeCfg(GPIO_Pin_7, GPIO_ModeOut_PP_5mA);  //TX
     74c:	a09d                	j	7b2 <GPIOB_ModeCfg>

0000074e <main>:
main():
C:\Users\USER\repos\aixt_ccgg\ports\WCH\CH573F-mini-BLE\projects\uart0_cadena_CH573F\obj/../src/Main.c:54


int main(void) {
main__init();
uart.setup(115200);
     74e:	6571                	lui	a0,0x1c
C:\Users\USER\repos\aixt_ccgg\ports\WCH\CH573F-mini-BLE\projects\uart0_cadena_CH573F\obj/../src/Main.c:52
int main(void) {
     750:	1101                	addi	sp,sp,-32
C:\Users\USER\repos\aixt_ccgg\ports\WCH\CH573F-mini-BLE\projects\uart0_cadena_CH573F\obj/../src/Main.c:54
uart.setup(115200);
     752:	20050513          	addi	a0,a0,512 # 1c200 <_data_lma+0x1ae34>
C:\Users\USER\repos\aixt_ccgg\ports\WCH\CH573F-mini-BLE\projects\uart0_cadena_CH573F\obj/../src/Main.c:52
int main(void) {
     756:	cc22                	sw	s0,24(sp)
     758:	ca26                	sw	s1,20(sp)
     75a:	c84a                	sw	s2,16(sp)
     75c:	c64e                	sw	s3,12(sp)
     75e:	c452                	sw	s4,8(sp)
     760:	c256                	sw	s5,4(sp)
     762:	c05a                	sw	s6,0(sp)
     764:	ce06                	sw	ra,28(sp)
C:\Users\USER\repos\aixt_ccgg\ports\WCH\CH573F-mini-BLE\projects\uart0_cadena_CH573F\obj/../src/Main.c:55
uint8_t count = 0;
     766:	4401                	li	s0,0
C:\Users\USER\repos\aixt_ccgg\ports\WCH\CH573F-mini-BLE\projects\uart0_cadena_CH573F\obj/../src/Main.c:54
uart.setup(115200);
     768:	3f79                	jal	706 <uart.setup>
C:\Users\USER\repos\aixt_ccgg\ports\WCH\CH573F-mini-BLE\projects\uart0_cadena_CH573F\obj/../src/Main.c:57
while(true) {
uart.print("counter");
     76a:	00001b17          	auipc	s6,0x1
     76e:	bfeb0b13          	addi	s6,s6,-1026 # 1368 <_sbrk+0x22>
C:\Users\USER\repos\aixt_ccgg\ports\WCH\CH573F-mini-BLE\projects\uart0_cadena_CH573F\obj/../src/Main.c:58
sprintf(__temp_str, " = %u...", (unsigned int)count);
     772:	00001a97          	auipc	s5,0x1
     776:	bfea8a93          	addi	s5,s5,-1026 # 1370 <_sbrk+0x2a>
     77a:	81418913          	addi	s2,gp,-2028 # 20004074 <__temp_str>
C:\Users\USER\repos\aixt_ccgg\ports\WCH\CH573F-mini-BLE\projects\uart0_cadena_CH573F\obj/../src/Main.c:59
uart.println(__temp_str);
     77e:	400034b7          	lui	s1,0x40003
     782:	4a29                	li	s4,10
     784:	49b5                	li	s3,13
C:\Users\USER\repos\aixt_ccgg\ports\WCH\CH573F-mini-BLE\projects\uart0_cadena_CH573F\obj/../src/Main.c:57 (discriminator 1)
uart.print("counter");
     786:	855a                	mv	a0,s6
     788:	379d                	jal	6ee <uart.print>
C:\Users\USER\repos\aixt_ccgg\ports\WCH\CH573F-mini-BLE\projects\uart0_cadena_CH573F\obj/../src/Main.c:58 (discriminator 1)
sprintf(__temp_str, " = %u...", (unsigned int)count);
     78a:	8622                	mv	a2,s0
     78c:	85d6                	mv	a1,s5
     78e:	854a                	mv	a0,s2
     790:	2a2d                	jal	8ca <siprintf>
C:\Users\USER\repos\aixt_ccgg\ports\WCH\CH573F-mini-BLE\projects\uart0_cadena_CH573F\obj/../src/Main.c:59 (discriminator 1)
uart.println(__temp_str);
     792:	854a                	mv	a0,s2
     794:	3fa9                	jal	6ee <uart.print>
     796:	01448423          	sb	s4,8(s1) # 40003008 <_eusrstack+0x1fffb008>
     79a:	01348423          	sb	s3,8(s1)
C:\Users\USER\repos\aixt_ccgg\ports\WCH\CH573F-mini-BLE\projects\uart0_cadena_CH573F\obj/../src/Main.c:60 (discriminator 1)
count++;
     79e:	0405                	addi	s0,s0,1
C:\Users\USER\repos\aixt_ccgg\ports\WCH\CH573F-mini-BLE\projects\uart0_cadena_CH573F\obj/../src/Main.c:61 (discriminator 1)
time.sleep_ms(500);
     7a0:	1f400513          	li	a0,500
C:\Users\USER\repos\aixt_ccgg\ports\WCH\CH573F-mini-BLE\projects\uart0_cadena_CH573F\obj/../src/Main.c:60 (discriminator 1)
count++;
     7a4:	0ff47413          	andi	s0,s0,255
C:\Users\USER\repos\aixt_ccgg\ports\WCH\CH573F-mini-BLE\projects\uart0_cadena_CH573F\obj/../src/Main.c:61 (discriminator 1)
time.sleep_ms(500);
     7a8:	20003097          	auipc	ra,0x20003
     7ac:	28c080e7          	jalr	652(ra) # 20003a34 <mDelaymS>
     7b0:	bfd9                	j	786 <main+0x38>

000007b2 <GPIOB_ModeCfg>:
GPIOB_ModeCfg():
C:\Users\USER\repos\aixt_ccgg\ports\WCH\CH573F-mini-BLE\projects\uart0_cadena_CH573F\obj/../StdPeriphDriver/CH57x_gpio.c:72
 *
 * @return  none
 */
void GPIOB_ModeCfg(uint32_t pin, GPIOModeTypeDef mode)
{
    switch(mode)
     7b2:	4791                	li	a5,4
     7b4:	02b7ee63          	bltu	a5,a1,7f0 <GPIOB_ModeCfg+0x3e>
     7b8:	00001717          	auipc	a4,0x1
     7bc:	bc470713          	addi	a4,a4,-1084 # 137c <_sbrk+0x36>
     7c0:	058a                	slli	a1,a1,0x2
     7c2:	95ba                	add	a1,a1,a4
     7c4:	419c                	lw	a5,0(a1)
     7c6:	97ba                	add	a5,a5,a4
     7c8:	8782                	jr	a5
C:\Users\USER\repos\aixt_ccgg\ports\WCH\CH573F-mini-BLE\projects\uart0_cadena_CH573F\obj/../StdPeriphDriver/CH57x_gpio.c:75
    {
        case GPIO_ModeIN_Floating:
            R32_PB_PD_DRV &= ~pin;
     7ca:	400017b7          	lui	a5,0x40001
     7ce:	0d47a703          	lw	a4,212(a5) # 400010d4 <_eusrstack+0x1fff90d4>
     7d2:	fff54513          	not	a0,a0
     7d6:	8f69                	and	a4,a4,a0
     7d8:	0ce7aa23          	sw	a4,212(a5)
C:\Users\USER\repos\aixt_ccgg\ports\WCH\CH573F-mini-BLE\projects\uart0_cadena_CH573F\obj/../StdPeriphDriver/CH57x_gpio.c:76
            R32_PB_PU &= ~pin;
     7dc:	0d07a703          	lw	a4,208(a5)
C:\Users\USER\repos\aixt_ccgg\ports\WCH\CH573F-mini-BLE\projects\uart0_cadena_CH573F\obj/../StdPeriphDriver/CH57x_gpio.c:88
            R32_PB_DIR &= ~pin;
            break;

        case GPIO_ModeIN_PD:
            R32_PB_PD_DRV |= pin;
            R32_PB_PU &= ~pin;
     7e0:	8f69                	and	a4,a4,a0
     7e2:	0ce7a823          	sw	a4,208(a5)
C:\Users\USER\repos\aixt_ccgg\ports\WCH\CH573F-mini-BLE\projects\uart0_cadena_CH573F\obj/../StdPeriphDriver/CH57x_gpio.c:89
            R32_PB_DIR &= ~pin;
     7e6:	0c07a703          	lw	a4,192(a5)
     7ea:	8d79                	and	a0,a0,a4
C:\Users\USER\repos\aixt_ccgg\ports\WCH\CH573F-mini-BLE\projects\uart0_cadena_CH573F\obj/../StdPeriphDriver/CH57x_gpio.c:99
            R32_PB_DIR |= pin;
            break;

        case GPIO_ModeOut_PP_20mA:
            R32_PB_PD_DRV |= pin;
            R32_PB_DIR |= pin;
     7ec:	0ca7a023          	sw	a0,192(a5)
C:\Users\USER\repos\aixt_ccgg\ports\WCH\CH573F-mini-BLE\projects\uart0_cadena_CH573F\obj/../StdPeriphDriver/CH57x_gpio.c:105
            break;

        default:
            break;
    }
}
     7f0:	8082                	ret
C:\Users\USER\repos\aixt_ccgg\ports\WCH\CH573F-mini-BLE\projects\uart0_cadena_CH573F\obj/../StdPeriphDriver/CH57x_gpio.c:81
            R32_PB_PD_DRV &= ~pin;
     7f2:	400017b7          	lui	a5,0x40001
     7f6:	0d47a683          	lw	a3,212(a5) # 400010d4 <_eusrstack+0x1fff90d4>
     7fa:	fff54713          	not	a4,a0
     7fe:	8ef9                	and	a3,a3,a4
     800:	0cd7aa23          	sw	a3,212(a5)
C:\Users\USER\repos\aixt_ccgg\ports\WCH\CH573F-mini-BLE\projects\uart0_cadena_CH573F\obj/../StdPeriphDriver/CH57x_gpio.c:82
            R32_PB_PU |= pin;
     804:	0d07a683          	lw	a3,208(a5)
     808:	8d55                	or	a0,a0,a3
     80a:	0ca7a823          	sw	a0,208(a5)
C:\Users\USER\repos\aixt_ccgg\ports\WCH\CH573F-mini-BLE\projects\uart0_cadena_CH573F\obj/../StdPeriphDriver/CH57x_gpio.c:83
            R32_PB_DIR &= ~pin;
     80e:	0c07a683          	lw	a3,192(a5)
     812:	8f75                	and	a4,a4,a3
     814:	0ce7a023          	sw	a4,192(a5)
C:\Users\USER\repos\aixt_ccgg\ports\WCH\CH573F-mini-BLE\projects\uart0_cadena_CH573F\obj/../StdPeriphDriver/CH57x_gpio.c:84
            break;
     818:	8082                	ret
C:\Users\USER\repos\aixt_ccgg\ports\WCH\CH573F-mini-BLE\projects\uart0_cadena_CH573F\obj/../StdPeriphDriver/CH57x_gpio.c:87
            R32_PB_PD_DRV |= pin;
     81a:	400017b7          	lui	a5,0x40001
     81e:	0d47a703          	lw	a4,212(a5) # 400010d4 <_eusrstack+0x1fff90d4>
     822:	8f49                	or	a4,a4,a0
     824:	0ce7aa23          	sw	a4,212(a5)
C:\Users\USER\repos\aixt_ccgg\ports\WCH\CH573F-mini-BLE\projects\uart0_cadena_CH573F\obj/../StdPeriphDriver/CH57x_gpio.c:88
            R32_PB_PU &= ~pin;
     828:	0d07a703          	lw	a4,208(a5)
     82c:	fff54513          	not	a0,a0
     830:	bf45                	j	7e0 <GPIOB_ModeCfg+0x2e>
C:\Users\USER\repos\aixt_ccgg\ports\WCH\CH573F-mini-BLE\projects\uart0_cadena_CH573F\obj/../StdPeriphDriver/CH57x_gpio.c:93
            R32_PB_PD_DRV &= ~pin;
     832:	400017b7          	lui	a5,0x40001
     836:	0d47a683          	lw	a3,212(a5) # 400010d4 <_eusrstack+0x1fff90d4>
     83a:	fff54713          	not	a4,a0
     83e:	8f75                	and	a4,a4,a3
C:\Users\USER\repos\aixt_ccgg\ports\WCH\CH573F-mini-BLE\projects\uart0_cadena_CH573F\obj/../StdPeriphDriver/CH57x_gpio.c:98
            R32_PB_PD_DRV |= pin;
     840:	0ce7aa23          	sw	a4,212(a5)
C:\Users\USER\repos\aixt_ccgg\ports\WCH\CH573F-mini-BLE\projects\uart0_cadena_CH573F\obj/../StdPeriphDriver/CH57x_gpio.c:99
            R32_PB_DIR |= pin;
     844:	0c07a703          	lw	a4,192(a5)
     848:	8d59                	or	a0,a0,a4
     84a:	b74d                	j	7ec <GPIOB_ModeCfg+0x3a>
C:\Users\USER\repos\aixt_ccgg\ports\WCH\CH573F-mini-BLE\projects\uart0_cadena_CH573F\obj/../StdPeriphDriver/CH57x_gpio.c:98
            R32_PB_PD_DRV |= pin;
     84c:	400017b7          	lui	a5,0x40001
     850:	0d47a703          	lw	a4,212(a5) # 400010d4 <_eusrstack+0x1fff90d4>
     854:	8f49                	or	a4,a4,a0
     856:	b7ed                	j	840 <GPIOB_ModeCfg+0x8e>

00000858 <GetSysClock>:
GetSysClock():
C:\Users\USER\repos\aixt_ccgg\ports\WCH\CH573F-mini-BLE\projects\uart0_cadena_CH573F\obj/../StdPeriphDriver/CH57x_sys.c:99
    rev = R16_CLK_SYS_CFG & 0xff;
     858:	400017b7          	lui	a5,0x40001
     85c:	0087d503          	lhu	a0,8(a5) # 40001008 <_eusrstack+0x1fff9008>
     860:	0542                	slli	a0,a0,0x10
     862:	8141                	srli	a0,a0,0x10
C:\Users\USER\repos\aixt_ccgg\ports\WCH\CH573F-mini-BLE\projects\uart0_cadena_CH573F\obj/../StdPeriphDriver/CH57x_sys.c:100
    if((rev & 0x40) == (0 << 6))
     864:	04057793          	andi	a5,a0,64
     868:	eb91                	bnez	a5,87c <GetSysClock+0x24>
C:\Users\USER\repos\aixt_ccgg\ports\WCH\CH573F-mini-BLE\projects\uart0_cadena_CH573F\obj/../StdPeriphDriver/CH57x_sys.c:102
        return (32000000 / (rev & 0x1f));
     86a:	01f57793          	andi	a5,a0,31
     86e:	01e85537          	lui	a0,0x1e85
C:\Users\USER\repos\aixt_ccgg\ports\WCH\CH573F-mini-BLE\projects\uart0_cadena_CH573F\obj/../StdPeriphDriver/CH57x_sys.c:106
        return (480000000 / (rev & 0x1f));
     872:	80050513          	addi	a0,a0,-2048 # 1e84800 <_data_lma+0x1e83434>
     876:	02f54533          	div	a0,a0,a5
     87a:	8082                	ret
C:\Users\USER\repos\aixt_ccgg\ports\WCH\CH573F-mini-BLE\projects\uart0_cadena_CH573F\obj/../StdPeriphDriver/CH57x_sys.c:104
    else if((rev & RB_CLK_SYS_MOD) == (1 << 6))
     87c:	0c057793          	andi	a5,a0,192
     880:	04000713          	li	a4,64
     884:	00e79763          	bne	a5,a4,892 <GetSysClock+0x3a>
C:\Users\USER\repos\aixt_ccgg\ports\WCH\CH573F-mini-BLE\projects\uart0_cadena_CH573F\obj/../StdPeriphDriver/CH57x_sys.c:106
        return (480000000 / (rev & 0x1f));
     888:	01f57793          	andi	a5,a0,31
     88c:	1c9c4537          	lui	a0,0x1c9c4
     890:	b7cd                	j	872 <GetSysClock+0x1a>
C:\Users\USER\repos\aixt_ccgg\ports\WCH\CH573F-mini-BLE\projects\uart0_cadena_CH573F\obj/../StdPeriphDriver/CH57x_sys.c:110
        return (32000);
     892:	6521                	lui	a0,0x8
     894:	d0050513          	addi	a0,a0,-768 # 7d00 <_data_lma+0x6934>
C:\Users\USER\repos\aixt_ccgg\ports\WCH\CH573F-mini-BLE\projects\uart0_cadena_CH573F\obj/../StdPeriphDriver/CH57x_sys.c:112
}
     898:	8082                	ret

0000089a <UART0_BaudRateCfg>:
UART0_BaudRateCfg():
C:\Users\USER\repos\aixt_ccgg\ports\WCH\CH573F-mini-BLE\projects\uart0_cadena_CH573F\obj/../StdPeriphDriver/CH57x_uart0.c:41
 * @param   baudrate    - 
 *
 * @return  none
 */
void UART0_BaudRateCfg(uint32_t baudrate)
{
     89a:	1141                	addi	sp,sp,-16
     89c:	c422                	sw	s0,8(sp)
     89e:	c606                	sw	ra,12(sp)
     8a0:	842a                	mv	s0,a0
C:\Users\USER\repos\aixt_ccgg\ports\WCH\CH573F-mini-BLE\projects\uart0_cadena_CH573F\obj/../StdPeriphDriver/CH57x_uart0.c:44
    uint32_t x;

    x = 10 * GetSysClock() / 8 / baudrate;
     8a2:	3f5d                	jal	858 <GetSysClock>
     8a4:	4729                	li	a4,10
     8a6:	02e507b3          	mul	a5,a0,a4
C:\Users\USER\repos\aixt_ccgg\ports\WCH\CH573F-mini-BLE\projects\uart0_cadena_CH573F\obj/../StdPeriphDriver/CH57x_uart0.c:47
    x = (x + 5) / 10;
    R16_UART0_DL = (uint16_t)x;
}
     8aa:	40b2                	lw	ra,12(sp)
C:\Users\USER\repos\aixt_ccgg\ports\WCH\CH573F-mini-BLE\projects\uart0_cadena_CH573F\obj/../StdPeriphDriver/CH57x_uart0.c:44
    x = 10 * GetSysClock() / 8 / baudrate;
     8ac:	838d                	srli	a5,a5,0x3
     8ae:	0287d7b3          	divu	a5,a5,s0
C:\Users\USER\repos\aixt_ccgg\ports\WCH\CH573F-mini-BLE\projects\uart0_cadena_CH573F\obj/../StdPeriphDriver/CH57x_uart0.c:47
}
     8b2:	4422                	lw	s0,8(sp)
C:\Users\USER\repos\aixt_ccgg\ports\WCH\CH573F-mini-BLE\projects\uart0_cadena_CH573F\obj/../StdPeriphDriver/CH57x_uart0.c:45
    x = (x + 5) / 10;
     8b4:	0795                	addi	a5,a5,5
     8b6:	02e7d7b3          	divu	a5,a5,a4
C:\Users\USER\repos\aixt_ccgg\ports\WCH\CH573F-mini-BLE\projects\uart0_cadena_CH573F\obj/../StdPeriphDriver/CH57x_uart0.c:46
    R16_UART0_DL = (uint16_t)x;
     8ba:	40003737          	lui	a4,0x40003
     8be:	07c2                	slli	a5,a5,0x10
     8c0:	83c1                	srli	a5,a5,0x10
     8c2:	00f71623          	sh	a5,12(a4) # 4000300c <_eusrstack+0x1fffb00c>
C:\Users\USER\repos\aixt_ccgg\ports\WCH\CH573F-mini-BLE\projects\uart0_cadena_CH573F\obj/../StdPeriphDriver/CH57x_uart0.c:47
}
     8c6:	0141                	addi	sp,sp,16
     8c8:	8082                	ret

000008ca <siprintf>:
sprintf():
     8ca:	7135                	addi	sp,sp,-160
     8cc:	cb3e                	sw	a5,148(sp)
     8ce:	800007b7          	lui	a5,0x80000
     8d2:	fff7c793          	not	a5,a5
     8d6:	ce3e                	sw	a5,28(sp)
     8d8:	c83e                	sw	a5,16(sp)
     8da:	77c1                	lui	a5,0xffff0
     8dc:	20878793          	addi	a5,a5,520 # ffff0208 <_eusrstack+0xdffe8208>
     8e0:	c532                	sw	a2,136(sp)
     8e2:	c736                	sw	a3,140(sp)
     8e4:	c93a                	sw	a4,144(sp)
     8e6:	cd42                	sw	a6,152(sp)
     8e8:	cf46                	sw	a7,156(sp)
     8ea:	ca3e                	sw	a5,20(sp)
     8ec:	20003797          	auipc	a5,0x20003
     8f0:	77478793          	addi	a5,a5,1908 # 20004060 <_impure_ptr>
     8f4:	c42a                	sw	a0,8(sp)
     8f6:	cc2a                	sw	a0,24(sp)
     8f8:	4388                	lw	a0,0(a5)
     8fa:	0134                	addi	a3,sp,136
     8fc:	862e                	mv	a2,a1
     8fe:	002c                	addi	a1,sp,8
     900:	de86                	sw	ra,124(sp)
     902:	c236                	sw	a3,4(sp)
     904:	28dd                	jal	9fa <_svfiprintf_r>
     906:	47a2                	lw	a5,8(sp)
     908:	00078023          	sb	zero,0(a5)
     90c:	50f6                	lw	ra,124(sp)
     90e:	610d                	addi	sp,sp,160
     910:	8082                	ret

00000912 <__ssputs_r>:
__ssputs_r():
     912:	1101                	addi	sp,sp,-32
     914:	c84a                	sw	s2,16(sp)
     916:	0085a903          	lw	s2,8(a1)
     91a:	cc22                	sw	s0,24(sp)
     91c:	c452                	sw	s4,8(sp)
     91e:	c05a                	sw	s6,0(sp)
     920:	ce06                	sw	ra,28(sp)
     922:	ca26                	sw	s1,20(sp)
     924:	c64e                	sw	s3,12(sp)
     926:	c256                	sw	s5,4(sp)
     928:	842e                	mv	s0,a1
     92a:	8b32                	mv	s6,a2
     92c:	8a36                	mv	s4,a3
     92e:	0926ed63          	bltu	a3,s2,9c8 <__ssputs_r+0xb6>
     932:	00c5d783          	lhu	a5,12(a1)
     936:	4807f713          	andi	a4,a5,1152
     93a:	c749                	beqz	a4,9c4 <__ssputs_r+0xb2>
     93c:	4004                	lw	s1,0(s0)
     93e:	498c                	lw	a1,16(a1)
     940:	4858                	lw	a4,20(s0)
     942:	8aaa                	mv	s5,a0
     944:	40b489b3          	sub	s3,s1,a1
     948:	448d                	li	s1,3
     94a:	02e484b3          	mul	s1,s1,a4
     94e:	4709                	li	a4,2
     950:	02e4c4b3          	div	s1,s1,a4
     954:	00168713          	addi	a4,a3,1
     958:	974e                	add	a4,a4,s3
     95a:	00e4f363          	bgeu	s1,a4,960 <__ssputs_r+0x4e>
     95e:	84ba                	mv	s1,a4
     960:	4007f793          	andi	a5,a5,1024
     964:	c3c9                	beqz	a5,9e6 <__ssputs_r+0xd4>
     966:	85a6                	mv	a1,s1
     968:	8556                	mv	a0,s5
     96a:	081000ef          	jal	ra,11ea <_malloc_r>
     96e:	892a                	mv	s2,a0
     970:	e50d                	bnez	a0,99a <__ssputs_r+0x88>
     972:	47b1                	li	a5,12
     974:	00faa023          	sw	a5,0(s5)
     978:	00c45783          	lhu	a5,12(s0)
     97c:	557d                	li	a0,-1
     97e:	0407e793          	ori	a5,a5,64
     982:	00f41623          	sh	a5,12(s0)
     986:	40f2                	lw	ra,28(sp)
     988:	4462                	lw	s0,24(sp)
     98a:	44d2                	lw	s1,20(sp)
     98c:	4942                	lw	s2,16(sp)
     98e:	49b2                	lw	s3,12(sp)
     990:	4a22                	lw	s4,8(sp)
     992:	4a92                	lw	s5,4(sp)
     994:	4b02                	lw	s6,0(sp)
     996:	6105                	addi	sp,sp,32
     998:	8082                	ret
     99a:	480c                	lw	a1,16(s0)
     99c:	864e                	mv	a2,s3
     99e:	2545                	jal	103e <memcpy>
     9a0:	00c45783          	lhu	a5,12(s0)
     9a4:	b7f7f793          	andi	a5,a5,-1153
     9a8:	0807e793          	ori	a5,a5,128
     9ac:	00f41623          	sh	a5,12(s0)
     9b0:	01242823          	sw	s2,16(s0)
     9b4:	c844                	sw	s1,20(s0)
     9b6:	994e                	add	s2,s2,s3
     9b8:	413484b3          	sub	s1,s1,s3
     9bc:	01242023          	sw	s2,0(s0)
     9c0:	c404                	sw	s1,8(s0)
     9c2:	8952                	mv	s2,s4
     9c4:	012a7363          	bgeu	s4,s2,9ca <__ssputs_r+0xb8>
     9c8:	8952                	mv	s2,s4
     9ca:	4008                	lw	a0,0(s0)
     9cc:	864a                	mv	a2,s2
     9ce:	85da                	mv	a1,s6
     9d0:	2715                	jal	10f4 <memmove>
     9d2:	441c                	lw	a5,8(s0)
     9d4:	4501                	li	a0,0
     9d6:	412787b3          	sub	a5,a5,s2
     9da:	c41c                	sw	a5,8(s0)
     9dc:	401c                	lw	a5,0(s0)
     9de:	993e                	add	s2,s2,a5
     9e0:	01242023          	sw	s2,0(s0)
     9e4:	b74d                	j	986 <__ssputs_r+0x74>
     9e6:	8626                	mv	a2,s1
     9e8:	8556                	mv	a0,s5
     9ea:	0cf000ef          	jal	ra,12b8 <_realloc_r>
     9ee:	892a                	mv	s2,a0
     9f0:	f161                	bnez	a0,9b0 <__ssputs_r+0x9e>
     9f2:	480c                	lw	a1,16(s0)
     9f4:	8556                	mv	a0,s5
     9f6:	27a1                	jal	113e <_free_r>
     9f8:	bfad                	j	972 <__ssputs_r+0x60>

000009fa <_svfiprintf_r>:
_svfprintf_r():
     9fa:	00c5d783          	lhu	a5,12(a1)
     9fe:	7171                	addi	sp,sp,-176
     a00:	d326                	sw	s1,164(sp)
     a02:	d14a                	sw	s2,160(sp)
     a04:	cf4e                	sw	s3,156(sp)
     a06:	d706                	sw	ra,172(sp)
     a08:	d522                	sw	s0,168(sp)
     a0a:	cd52                	sw	s4,152(sp)
     a0c:	cb56                	sw	s5,148(sp)
     a0e:	c95a                	sw	s6,144(sp)
     a10:	c75e                	sw	s7,140(sp)
     a12:	c562                	sw	s8,136(sp)
     a14:	c366                	sw	s9,132(sp)
     a16:	0807f793          	andi	a5,a5,128
     a1a:	89aa                	mv	s3,a0
     a1c:	892e                	mv	s2,a1
     a1e:	84b2                	mv	s1,a2
     a20:	c3b1                	beqz	a5,a64 <_svfiprintf_r+0x6a>
     a22:	499c                	lw	a5,16(a1)
     a24:	e3a1                	bnez	a5,a64 <_svfiprintf_r+0x6a>
     a26:	04000593          	li	a1,64
     a2a:	c636                	sw	a3,12(sp)
     a2c:	2f7d                	jal	11ea <_malloc_r>
     a2e:	00a92023          	sw	a0,0(s2)
     a32:	00a92823          	sw	a0,16(s2)
     a36:	46b2                	lw	a3,12(sp)
     a38:	e115                	bnez	a0,a5c <_svfiprintf_r+0x62>
     a3a:	47b1                	li	a5,12
     a3c:	00f9a023          	sw	a5,0(s3)
     a40:	557d                	li	a0,-1
     a42:	50ba                	lw	ra,172(sp)
     a44:	542a                	lw	s0,168(sp)
     a46:	549a                	lw	s1,164(sp)
     a48:	590a                	lw	s2,160(sp)
     a4a:	49fa                	lw	s3,156(sp)
     a4c:	4a6a                	lw	s4,152(sp)
     a4e:	4ada                	lw	s5,148(sp)
     a50:	4b4a                	lw	s6,144(sp)
     a52:	4bba                	lw	s7,140(sp)
     a54:	4c2a                	lw	s8,136(sp)
     a56:	4c9a                	lw	s9,132(sp)
     a58:	614d                	addi	sp,sp,176
     a5a:	8082                	ret
     a5c:	04000793          	li	a5,64
     a60:	00f92a23          	sw	a5,20(s2)
     a64:	02000793          	li	a5,32
     a68:	02f10ca3          	sb	a5,57(sp)
     a6c:	03000793          	li	a5,48
     a70:	da02                	sw	zero,52(sp)
     a72:	02f10d23          	sb	a5,58(sp)
     a76:	ce36                	sw	a3,28(sp)
     a78:	02500b93          	li	s7,37
     a7c:	00001a97          	auipc	s5,0x1
     a80:	914a8a93          	addi	s5,s5,-1772 # 1390 <_sbrk+0x4a>
     a84:	4c05                	li	s8,1
     a86:	4b29                	li	s6,10
     a88:	8426                	mv	s0,s1
     a8a:	00044783          	lbu	a5,0(s0)
     a8e:	c399                	beqz	a5,a94 <_svfiprintf_r+0x9a>
     a90:	09779b63          	bne	a5,s7,b26 <_svfiprintf_r+0x12c>
     a94:	40940cb3          	sub	s9,s0,s1
     a98:	000c8d63          	beqz	s9,ab2 <_svfiprintf_r+0xb8>
     a9c:	86e6                	mv	a3,s9
     a9e:	8626                	mv	a2,s1
     aa0:	85ca                	mv	a1,s2
     aa2:	854e                	mv	a0,s3
     aa4:	35bd                	jal	912 <__ssputs_r>
     aa6:	57fd                	li	a5,-1
     aa8:	1af50163          	beq	a0,a5,c4a <_svfiprintf_r+0x250>
     aac:	56d2                	lw	a3,52(sp)
     aae:	96e6                	add	a3,a3,s9
     ab0:	da36                	sw	a3,52(sp)
     ab2:	00044783          	lbu	a5,0(s0)
     ab6:	18078a63          	beqz	a5,c4a <_svfiprintf_r+0x250>
     aba:	57fd                	li	a5,-1
     abc:	00140493          	addi	s1,s0,1
     ac0:	d002                	sw	zero,32(sp)
     ac2:	d602                	sw	zero,44(sp)
     ac4:	d23e                	sw	a5,36(sp)
     ac6:	d402                	sw	zero,40(sp)
     ac8:	060101a3          	sb	zero,99(sp)
     acc:	dc82                	sw	zero,120(sp)
     ace:	0004c583          	lbu	a1,0(s1)
     ad2:	4615                	li	a2,5
     ad4:	8556                	mv	a0,s5
     ad6:	23b9                	jal	1024 <memchr>
     ad8:	00148413          	addi	s0,s1,1
     adc:	5782                	lw	a5,32(sp)
     ade:	e531                	bnez	a0,b2a <_svfiprintf_r+0x130>
     ae0:	0107f713          	andi	a4,a5,16
     ae4:	c709                	beqz	a4,aee <_svfiprintf_r+0xf4>
     ae6:	02000713          	li	a4,32
     aea:	06e101a3          	sb	a4,99(sp)
     aee:	0087f713          	andi	a4,a5,8
     af2:	c709                	beqz	a4,afc <_svfiprintf_r+0x102>
     af4:	02b00713          	li	a4,43
     af8:	06e101a3          	sb	a4,99(sp)
     afc:	0004c683          	lbu	a3,0(s1)
     b00:	02a00713          	li	a4,42
     b04:	02e68b63          	beq	a3,a4,b3a <_svfiprintf_r+0x140>
     b08:	57b2                	lw	a5,44(sp)
     b0a:	8426                	mv	s0,s1
     b0c:	4681                	li	a3,0
     b0e:	4625                	li	a2,9
     b10:	00044703          	lbu	a4,0(s0)
     b14:	00140593          	addi	a1,s0,1
     b18:	fd070713          	addi	a4,a4,-48
     b1c:	06e67463          	bgeu	a2,a4,b84 <_svfiprintf_r+0x18a>
     b20:	c68d                	beqz	a3,b4a <_svfiprintf_r+0x150>
     b22:	d63e                	sw	a5,44(sp)
     b24:	a01d                	j	b4a <_svfiprintf_r+0x150>
     b26:	0405                	addi	s0,s0,1
     b28:	b78d                	j	a8a <_svfiprintf_r+0x90>
     b2a:	41550533          	sub	a0,a0,s5
     b2e:	00ac1533          	sll	a0,s8,a0
     b32:	8fc9                	or	a5,a5,a0
     b34:	d03e                	sw	a5,32(sp)
     b36:	84a2                	mv	s1,s0
     b38:	bf59                	j	ace <_svfiprintf_r+0xd4>
     b3a:	4772                	lw	a4,28(sp)
     b3c:	00470693          	addi	a3,a4,4
     b40:	4318                	lw	a4,0(a4)
     b42:	ce36                	sw	a3,28(sp)
     b44:	02074963          	bltz	a4,b76 <_svfiprintf_r+0x17c>
     b48:	d63a                	sw	a4,44(sp)
     b4a:	00044703          	lbu	a4,0(s0)
     b4e:	02e00793          	li	a5,46
     b52:	04f71f63          	bne	a4,a5,bb0 <_svfiprintf_r+0x1b6>
     b56:	00144703          	lbu	a4,1(s0)
     b5a:	02a00793          	li	a5,42
     b5e:	02f71b63          	bne	a4,a5,b94 <_svfiprintf_r+0x19a>
     b62:	47f2                	lw	a5,28(sp)
     b64:	0409                	addi	s0,s0,2
     b66:	00478713          	addi	a4,a5,4
     b6a:	439c                	lw	a5,0(a5)
     b6c:	ce3a                	sw	a4,28(sp)
     b6e:	0207c163          	bltz	a5,b90 <_svfiprintf_r+0x196>
     b72:	d23e                	sw	a5,36(sp)
     b74:	a835                	j	bb0 <_svfiprintf_r+0x1b6>
     b76:	40e00733          	neg	a4,a4
     b7a:	0027e793          	ori	a5,a5,2
     b7e:	d63a                	sw	a4,44(sp)
     b80:	d03e                	sw	a5,32(sp)
     b82:	b7e1                	j	b4a <_svfiprintf_r+0x150>
     b84:	036787b3          	mul	a5,a5,s6
     b88:	4685                	li	a3,1
     b8a:	842e                	mv	s0,a1
     b8c:	97ba                	add	a5,a5,a4
     b8e:	b749                	j	b10 <_svfiprintf_r+0x116>
     b90:	57fd                	li	a5,-1
     b92:	b7c5                	j	b72 <_svfiprintf_r+0x178>
     b94:	0405                	addi	s0,s0,1
     b96:	d202                	sw	zero,36(sp)
     b98:	4681                	li	a3,0
     b9a:	4781                	li	a5,0
     b9c:	4625                	li	a2,9
     b9e:	00044703          	lbu	a4,0(s0)
     ba2:	00140593          	addi	a1,s0,1
     ba6:	fd070713          	addi	a4,a4,-48
     baa:	06e67663          	bgeu	a2,a4,c16 <_svfiprintf_r+0x21c>
     bae:	f2f1                	bnez	a3,b72 <_svfiprintf_r+0x178>
     bb0:	00044583          	lbu	a1,0(s0)
     bb4:	460d                	li	a2,3
     bb6:	00000517          	auipc	a0,0x0
     bba:	7e250513          	addi	a0,a0,2018 # 1398 <_sbrk+0x52>
     bbe:	219d                	jal	1024 <memchr>
     bc0:	cd11                	beqz	a0,bdc <_svfiprintf_r+0x1e2>
     bc2:	00000797          	auipc	a5,0x0
     bc6:	7d678793          	addi	a5,a5,2006 # 1398 <_sbrk+0x52>
     bca:	8d1d                	sub	a0,a0,a5
     bcc:	04000793          	li	a5,64
     bd0:	00a797b3          	sll	a5,a5,a0
     bd4:	5502                	lw	a0,32(sp)
     bd6:	0405                	addi	s0,s0,1
     bd8:	8d5d                	or	a0,a0,a5
     bda:	d02a                	sw	a0,32(sp)
     bdc:	00044583          	lbu	a1,0(s0)
     be0:	4619                	li	a2,6
     be2:	00000517          	auipc	a0,0x0
     be6:	7ba50513          	addi	a0,a0,1978 # 139c <_sbrk+0x56>
     bea:	00140493          	addi	s1,s0,1
     bee:	02b10c23          	sb	a1,56(sp)
     bf2:	290d                	jal	1024 <memchr>
     bf4:	c525                	beqz	a0,c5c <_svfiprintf_r+0x262>
     bf6:	fffff797          	auipc	a5,0xfffff
     bfa:	40a78793          	addi	a5,a5,1034 # 0 <_sinit>
     bfe:	e795                	bnez	a5,c2a <_svfiprintf_r+0x230>
     c00:	5702                	lw	a4,32(sp)
     c02:	47f2                	lw	a5,28(sp)
     c04:	10077713          	andi	a4,a4,256
     c08:	cf09                	beqz	a4,c22 <_svfiprintf_r+0x228>
     c0a:	0791                	addi	a5,a5,4
     c0c:	ce3e                	sw	a5,28(sp)
     c0e:	57d2                	lw	a5,52(sp)
     c10:	97d2                	add	a5,a5,s4
     c12:	da3e                	sw	a5,52(sp)
     c14:	bd95                	j	a88 <_svfiprintf_r+0x8e>
     c16:	036787b3          	mul	a5,a5,s6
     c1a:	4685                	li	a3,1
     c1c:	842e                	mv	s0,a1
     c1e:	97ba                	add	a5,a5,a4
     c20:	bfbd                	j	b9e <_svfiprintf_r+0x1a4>
     c22:	079d                	addi	a5,a5,7
     c24:	9be1                	andi	a5,a5,-8
     c26:	07a1                	addi	a5,a5,8
     c28:	b7d5                	j	c0c <_svfiprintf_r+0x212>
     c2a:	0878                	addi	a4,sp,28
     c2c:	00000697          	auipc	a3,0x0
     c30:	ce668693          	addi	a3,a3,-794 # 912 <__ssputs_r>
     c34:	864a                	mv	a2,s2
     c36:	100c                	addi	a1,sp,32
     c38:	854e                	mv	a0,s3
     c3a:	00000097          	auipc	ra,0x0
     c3e:	000000e7          	jalr	zero # 0 <_sinit>
     c42:	57fd                	li	a5,-1
     c44:	8a2a                	mv	s4,a0
     c46:	fcf514e3          	bne	a0,a5,c0e <_svfiprintf_r+0x214>
     c4a:	00c95783          	lhu	a5,12(s2)
     c4e:	557d                	li	a0,-1
     c50:	0407f793          	andi	a5,a5,64
     c54:	de0797e3          	bnez	a5,a42 <_svfiprintf_r+0x48>
     c58:	5552                	lw	a0,52(sp)
     c5a:	b3e5                	j	a42 <_svfiprintf_r+0x48>
     c5c:	0878                	addi	a4,sp,28
     c5e:	00000697          	auipc	a3,0x0
     c62:	cb468693          	addi	a3,a3,-844 # 912 <__ssputs_r>
     c66:	864a                	mv	a2,s2
     c68:	100c                	addi	a1,sp,32
     c6a:	854e                	mv	a0,s3
     c6c:	2a01                	jal	d7c <_printf_i>
     c6e:	bfd1                	j	c42 <_svfiprintf_r+0x248>

00000c70 <_printf_common>:
_printf_common():
     c70:	7179                	addi	sp,sp,-48
     c72:	ca56                	sw	s5,20(sp)
     c74:	499c                	lw	a5,16(a1)
     c76:	8aba                	mv	s5,a4
     c78:	4598                	lw	a4,8(a1)
     c7a:	d422                	sw	s0,40(sp)
     c7c:	d226                	sw	s1,36(sp)
     c7e:	ce4e                	sw	s3,28(sp)
     c80:	cc52                	sw	s4,24(sp)
     c82:	d606                	sw	ra,44(sp)
     c84:	d04a                	sw	s2,32(sp)
     c86:	c85a                	sw	s6,16(sp)
     c88:	c65e                	sw	s7,12(sp)
     c8a:	89aa                	mv	s3,a0
     c8c:	842e                	mv	s0,a1
     c8e:	84b2                	mv	s1,a2
     c90:	8a36                	mv	s4,a3
     c92:	00e7d363          	bge	a5,a4,c98 <_printf_common+0x28>
     c96:	87ba                	mv	a5,a4
     c98:	c09c                	sw	a5,0(s1)
     c9a:	04344703          	lbu	a4,67(s0)
     c9e:	c319                	beqz	a4,ca4 <_printf_common+0x34>
     ca0:	0785                	addi	a5,a5,1
     ca2:	c09c                	sw	a5,0(s1)
     ca4:	401c                	lw	a5,0(s0)
     ca6:	0207f793          	andi	a5,a5,32
     caa:	c781                	beqz	a5,cb2 <_printf_common+0x42>
     cac:	409c                	lw	a5,0(s1)
     cae:	0789                	addi	a5,a5,2
     cb0:	c09c                	sw	a5,0(s1)
     cb2:	00042903          	lw	s2,0(s0)
     cb6:	00697913          	andi	s2,s2,6
     cba:	00091a63          	bnez	s2,cce <_printf_common+0x5e>
     cbe:	01940b13          	addi	s6,s0,25
     cc2:	5bfd                	li	s7,-1
     cc4:	445c                	lw	a5,12(s0)
     cc6:	4098                	lw	a4,0(s1)
     cc8:	8f99                	sub	a5,a5,a4
     cca:	04f94c63          	blt	s2,a5,d22 <_printf_common+0xb2>
     cce:	401c                	lw	a5,0(s0)
     cd0:	04344683          	lbu	a3,67(s0)
     cd4:	0207f793          	andi	a5,a5,32
     cd8:	00d036b3          	snez	a3,a3
     cdc:	eba5                	bnez	a5,d4c <_printf_common+0xdc>
     cde:	04340613          	addi	a2,s0,67
     ce2:	85d2                	mv	a1,s4
     ce4:	854e                	mv	a0,s3
     ce6:	9a82                	jalr	s5
     ce8:	57fd                	li	a5,-1
     cea:	04f50363          	beq	a0,a5,d30 <_printf_common+0xc0>
     cee:	401c                	lw	a5,0(s0)
     cf0:	4611                	li	a2,4
     cf2:	4098                	lw	a4,0(s1)
     cf4:	8b99                	andi	a5,a5,6
     cf6:	4454                	lw	a3,12(s0)
     cf8:	4481                	li	s1,0
     cfa:	00c79763          	bne	a5,a2,d08 <_printf_common+0x98>
     cfe:	40e684b3          	sub	s1,a3,a4
     d02:	0004d363          	bgez	s1,d08 <_printf_common+0x98>
     d06:	4481                	li	s1,0
     d08:	441c                	lw	a5,8(s0)
     d0a:	4818                	lw	a4,16(s0)
     d0c:	00f75463          	bge	a4,a5,d14 <_printf_common+0xa4>
     d10:	8f99                	sub	a5,a5,a4
     d12:	94be                	add	s1,s1,a5
     d14:	4901                	li	s2,0
     d16:	0469                	addi	s0,s0,26
     d18:	5b7d                	li	s6,-1
     d1a:	05249863          	bne	s1,s2,d6a <_printf_common+0xfa>
     d1e:	4501                	li	a0,0
     d20:	a809                	j	d32 <_printf_common+0xc2>
     d22:	4685                	li	a3,1
     d24:	865a                	mv	a2,s6
     d26:	85d2                	mv	a1,s4
     d28:	854e                	mv	a0,s3
     d2a:	9a82                	jalr	s5
     d2c:	01751e63          	bne	a0,s7,d48 <_printf_common+0xd8>
     d30:	557d                	li	a0,-1
     d32:	50b2                	lw	ra,44(sp)
     d34:	5422                	lw	s0,40(sp)
     d36:	5492                	lw	s1,36(sp)
     d38:	5902                	lw	s2,32(sp)
     d3a:	49f2                	lw	s3,28(sp)
     d3c:	4a62                	lw	s4,24(sp)
     d3e:	4ad2                	lw	s5,20(sp)
     d40:	4b42                	lw	s6,16(sp)
     d42:	4bb2                	lw	s7,12(sp)
     d44:	6145                	addi	sp,sp,48
     d46:	8082                	ret
     d48:	0905                	addi	s2,s2,1
     d4a:	bfad                	j	cc4 <_printf_common+0x54>
     d4c:	00d40733          	add	a4,s0,a3
     d50:	03000613          	li	a2,48
     d54:	04c701a3          	sb	a2,67(a4)
     d58:	04544703          	lbu	a4,69(s0)
     d5c:	00168793          	addi	a5,a3,1
     d60:	97a2                	add	a5,a5,s0
     d62:	0689                	addi	a3,a3,2
     d64:	04e781a3          	sb	a4,67(a5)
     d68:	bf9d                	j	cde <_printf_common+0x6e>
     d6a:	4685                	li	a3,1
     d6c:	8622                	mv	a2,s0
     d6e:	85d2                	mv	a1,s4
     d70:	854e                	mv	a0,s3
     d72:	9a82                	jalr	s5
     d74:	fb650ee3          	beq	a0,s6,d30 <_printf_common+0xc0>
     d78:	0905                	addi	s2,s2,1
     d7a:	b745                	j	d1a <_printf_common+0xaa>

00000d7c <_printf_i>:
_printf_i():
     d7c:	7179                	addi	sp,sp,-48
     d7e:	d422                	sw	s0,40(sp)
     d80:	d226                	sw	s1,36(sp)
     d82:	d04a                	sw	s2,32(sp)
     d84:	ce4e                	sw	s3,28(sp)
     d86:	d606                	sw	ra,44(sp)
     d88:	cc52                	sw	s4,24(sp)
     d8a:	ca56                	sw	s5,20(sp)
     d8c:	c85a                	sw	s6,16(sp)
     d8e:	89b6                	mv	s3,a3
     d90:	0185c683          	lbu	a3,24(a1)
     d94:	06900793          	li	a5,105
     d98:	8932                	mv	s2,a2
     d9a:	84aa                	mv	s1,a0
     d9c:	842e                	mv	s0,a1
     d9e:	04358613          	addi	a2,a1,67
     da2:	02f68d63          	beq	a3,a5,ddc <_printf_i+0x60>
     da6:	06d7e263          	bltu	a5,a3,e0a <_printf_i+0x8e>
     daa:	05800793          	li	a5,88
     dae:	18f68763          	beq	a3,a5,f3c <_printf_i+0x1c0>
     db2:	00d7ed63          	bltu	a5,a3,dcc <_printf_i+0x50>
     db6:	22068063          	beqz	a3,fd6 <_printf_i+0x25a>
     dba:	04300793          	li	a5,67
     dbe:	0af68e63          	beq	a3,a5,e7a <_printf_i+0xfe>
     dc2:	04240a93          	addi	s5,s0,66
     dc6:	04d40123          	sb	a3,66(s0)
     dca:	a0c9                	j	e8c <_printf_i+0x110>
     dcc:	06300793          	li	a5,99
     dd0:	0af68563          	beq	a3,a5,e7a <_printf_i+0xfe>
     dd4:	06400793          	li	a5,100
     dd8:	fef695e3          	bne	a3,a5,dc2 <_printf_i+0x46>
     ddc:	401c                	lw	a5,0(s0)
     dde:	4308                	lw	a0,0(a4)
     de0:	0807f693          	andi	a3,a5,128
     de4:	00450593          	addi	a1,a0,4
     de8:	c6c5                	beqz	a3,e90 <_printf_i+0x114>
     dea:	411c                	lw	a5,0(a0)
     dec:	c30c                	sw	a1,0(a4)
     dee:	0007d863          	bgez	a5,dfe <_printf_i+0x82>
     df2:	02d00713          	li	a4,45
     df6:	40f007b3          	neg	a5,a5
     dfa:	04e401a3          	sb	a4,67(s0)
     dfe:	00000697          	auipc	a3,0x0
     e02:	5a668693          	addi	a3,a3,1446 # 13a4 <_sbrk+0x5e>
     e06:	4729                	li	a4,10
     e08:	a86d                	j	ec2 <_printf_i+0x146>
     e0a:	07000793          	li	a5,112
     e0e:	16f68363          	beq	a3,a5,f74 <_printf_i+0x1f8>
     e12:	02d7e563          	bltu	a5,a3,e3c <_printf_i+0xc0>
     e16:	06e00793          	li	a5,110
     e1a:	18f68a63          	beq	a3,a5,fae <_printf_i+0x232>
     e1e:	06f00793          	li	a5,111
     e22:	faf690e3          	bne	a3,a5,dc2 <_printf_i+0x46>
     e26:	400c                	lw	a1,0(s0)
     e28:	431c                	lw	a5,0(a4)
     e2a:	0805f813          	andi	a6,a1,128
     e2e:	00478513          	addi	a0,a5,4
     e32:	06080763          	beqz	a6,ea0 <_printf_i+0x124>
     e36:	c308                	sw	a0,0(a4)
     e38:	439c                	lw	a5,0(a5)
     e3a:	a88d                	j	eac <_printf_i+0x130>
     e3c:	07500793          	li	a5,117
     e40:	fef683e3          	beq	a3,a5,e26 <_printf_i+0xaa>
     e44:	07800793          	li	a5,120
     e48:	12f68a63          	beq	a3,a5,f7c <_printf_i+0x200>
     e4c:	07300793          	li	a5,115
     e50:	f6f699e3          	bne	a3,a5,dc2 <_printf_i+0x46>
     e54:	431c                	lw	a5,0(a4)
     e56:	41d0                	lw	a2,4(a1)
     e58:	4581                	li	a1,0
     e5a:	00478693          	addi	a3,a5,4
     e5e:	c314                	sw	a3,0(a4)
     e60:	0007aa83          	lw	s5,0(a5)
     e64:	8556                	mv	a0,s5
     e66:	2a7d                	jal	1024 <memchr>
     e68:	c501                	beqz	a0,e70 <_printf_i+0xf4>
     e6a:	41550533          	sub	a0,a0,s5
     e6e:	c048                	sw	a0,4(s0)
     e70:	405c                	lw	a5,4(s0)
     e72:	c81c                	sw	a5,16(s0)
     e74:	040401a3          	sb	zero,67(s0)
     e78:	a871                	j	f14 <_printf_i+0x198>
     e7a:	431c                	lw	a5,0(a4)
     e7c:	04240a93          	addi	s5,s0,66
     e80:	00478693          	addi	a3,a5,4
     e84:	439c                	lw	a5,0(a5)
     e86:	c314                	sw	a3,0(a4)
     e88:	04f40123          	sb	a5,66(s0)
     e8c:	4785                	li	a5,1
     e8e:	b7d5                	j	e72 <_printf_i+0xf6>
     e90:	0407f693          	andi	a3,a5,64
     e94:	411c                	lw	a5,0(a0)
     e96:	c30c                	sw	a1,0(a4)
     e98:	dab9                	beqz	a3,dee <_printf_i+0x72>
     e9a:	07c2                	slli	a5,a5,0x10
     e9c:	87c1                	srai	a5,a5,0x10
     e9e:	bf81                	j	dee <_printf_i+0x72>
     ea0:	0405f593          	andi	a1,a1,64
     ea4:	c308                	sw	a0,0(a4)
     ea6:	d9c9                	beqz	a1,e38 <_printf_i+0xbc>
     ea8:	0007d783          	lhu	a5,0(a5)
     eac:	06f00713          	li	a4,111
     eb0:	0ee68763          	beq	a3,a4,f9e <_printf_i+0x222>
     eb4:	00000697          	auipc	a3,0x0
     eb8:	4f068693          	addi	a3,a3,1264 # 13a4 <_sbrk+0x5e>
     ebc:	4729                	li	a4,10
     ebe:	040401a3          	sb	zero,67(s0)
     ec2:	404c                	lw	a1,4(s0)
     ec4:	c40c                	sw	a1,8(s0)
     ec6:	0005c563          	bltz	a1,ed0 <_printf_i+0x154>
     eca:	4008                	lw	a0,0(s0)
     ecc:	996d                	andi	a0,a0,-5
     ece:	c008                	sw	a0,0(s0)
     ed0:	e399                	bnez	a5,ed6 <_printf_i+0x15a>
     ed2:	8ab2                	mv	s5,a2
     ed4:	cd91                	beqz	a1,ef0 <_printf_i+0x174>
     ed6:	8ab2                	mv	s5,a2
     ed8:	02e7f5b3          	remu	a1,a5,a4
     edc:	1afd                	addi	s5,s5,-1
     ede:	95b6                	add	a1,a1,a3
     ee0:	0005c583          	lbu	a1,0(a1)
     ee4:	00ba8023          	sb	a1,0(s5)
     ee8:	02e7d5b3          	divu	a1,a5,a4
     eec:	0ae7ff63          	bgeu	a5,a4,faa <_printf_i+0x22e>
     ef0:	47a1                	li	a5,8
     ef2:	00f71e63          	bne	a4,a5,f0e <_printf_i+0x192>
     ef6:	401c                	lw	a5,0(s0)
     ef8:	8b85                	andi	a5,a5,1
     efa:	cb91                	beqz	a5,f0e <_printf_i+0x192>
     efc:	4058                	lw	a4,4(s0)
     efe:	481c                	lw	a5,16(s0)
     f00:	00e7c763          	blt	a5,a4,f0e <_printf_i+0x192>
     f04:	03000793          	li	a5,48
     f08:	fefa8fa3          	sb	a5,-1(s5)
     f0c:	1afd                	addi	s5,s5,-1
     f0e:	41560633          	sub	a2,a2,s5
     f12:	c810                	sw	a2,16(s0)
     f14:	874e                	mv	a4,s3
     f16:	86ca                	mv	a3,s2
     f18:	0070                	addi	a2,sp,12
     f1a:	85a2                	mv	a1,s0
     f1c:	8526                	mv	a0,s1
     f1e:	3b89                	jal	c70 <_printf_common>
     f20:	5a7d                	li	s4,-1
     f22:	0b451e63          	bne	a0,s4,fde <_printf_i+0x262>
     f26:	557d                	li	a0,-1
     f28:	50b2                	lw	ra,44(sp)
     f2a:	5422                	lw	s0,40(sp)
     f2c:	5492                	lw	s1,36(sp)
     f2e:	5902                	lw	s2,32(sp)
     f30:	49f2                	lw	s3,28(sp)
     f32:	4a62                	lw	s4,24(sp)
     f34:	4ad2                	lw	s5,20(sp)
     f36:	4b42                	lw	s6,16(sp)
     f38:	6145                	addi	sp,sp,48
     f3a:	8082                	ret
     f3c:	04d582a3          	sb	a3,69(a1)
     f40:	00000697          	auipc	a3,0x0
     f44:	46468693          	addi	a3,a3,1124 # 13a4 <_sbrk+0x5e>
     f48:	400c                	lw	a1,0(s0)
     f4a:	4308                	lw	a0,0(a4)
     f4c:	0805f813          	andi	a6,a1,128
     f50:	411c                	lw	a5,0(a0)
     f52:	0511                	addi	a0,a0,4
     f54:	02080d63          	beqz	a6,f8e <_printf_i+0x212>
     f58:	c308                	sw	a0,0(a4)
     f5a:	0015f713          	andi	a4,a1,1
     f5e:	c701                	beqz	a4,f66 <_printf_i+0x1ea>
     f60:	0205e593          	ori	a1,a1,32
     f64:	c00c                	sw	a1,0(s0)
     f66:	4741                	li	a4,16
     f68:	fbb9                	bnez	a5,ebe <_printf_i+0x142>
     f6a:	400c                	lw	a1,0(s0)
     f6c:	fdf5f593          	andi	a1,a1,-33
     f70:	c00c                	sw	a1,0(s0)
     f72:	b7b1                	j	ebe <_printf_i+0x142>
     f74:	419c                	lw	a5,0(a1)
     f76:	0207e793          	ori	a5,a5,32
     f7a:	c19c                	sw	a5,0(a1)
     f7c:	07800793          	li	a5,120
     f80:	04f402a3          	sb	a5,69(s0)
     f84:	00000697          	auipc	a3,0x0
     f88:	43468693          	addi	a3,a3,1076 # 13b8 <_sbrk+0x72>
     f8c:	bf75                	j	f48 <_printf_i+0x1cc>
     f8e:	0405f813          	andi	a6,a1,64
     f92:	c308                	sw	a0,0(a4)
     f94:	fc0803e3          	beqz	a6,f5a <_printf_i+0x1de>
     f98:	07c2                	slli	a5,a5,0x10
     f9a:	83c1                	srli	a5,a5,0x10
     f9c:	bf7d                	j	f5a <_printf_i+0x1de>
     f9e:	00000697          	auipc	a3,0x0
     fa2:	40668693          	addi	a3,a3,1030 # 13a4 <_sbrk+0x5e>
     fa6:	4721                	li	a4,8
     fa8:	bf19                	j	ebe <_printf_i+0x142>
     faa:	87ae                	mv	a5,a1
     fac:	b735                	j	ed8 <_printf_i+0x15c>
     fae:	4194                	lw	a3,0(a1)
     fb0:	431c                	lw	a5,0(a4)
     fb2:	49cc                	lw	a1,20(a1)
     fb4:	0806f813          	andi	a6,a3,128
     fb8:	00478513          	addi	a0,a5,4
     fbc:	00080663          	beqz	a6,fc8 <_printf_i+0x24c>
     fc0:	c308                	sw	a0,0(a4)
     fc2:	439c                	lw	a5,0(a5)
     fc4:	c38c                	sw	a1,0(a5)
     fc6:	a801                	j	fd6 <_printf_i+0x25a>
     fc8:	c308                	sw	a0,0(a4)
     fca:	0406f693          	andi	a3,a3,64
     fce:	439c                	lw	a5,0(a5)
     fd0:	daf5                	beqz	a3,fc4 <_printf_i+0x248>
     fd2:	00b79023          	sh	a1,0(a5)
     fd6:	00042823          	sw	zero,16(s0)
     fda:	8ab2                	mv	s5,a2
     fdc:	bf25                	j	f14 <_printf_i+0x198>
     fde:	4814                	lw	a3,16(s0)
     fe0:	8656                	mv	a2,s5
     fe2:	85ca                	mv	a1,s2
     fe4:	8526                	mv	a0,s1
     fe6:	9982                	jalr	s3
     fe8:	f3450fe3          	beq	a0,s4,f26 <_printf_i+0x1aa>
     fec:	401c                	lw	a5,0(s0)
     fee:	8b89                	andi	a5,a5,2
     ff0:	e78d                	bnez	a5,101a <_printf_i+0x29e>
     ff2:	47b2                	lw	a5,12(sp)
     ff4:	4448                	lw	a0,12(s0)
     ff6:	f2f559e3          	bge	a0,a5,f28 <_printf_i+0x1ac>
     ffa:	853e                	mv	a0,a5
     ffc:	b735                	j	f28 <_printf_i+0x1ac>
     ffe:	4685                	li	a3,1
    1000:	8656                	mv	a2,s5
    1002:	85ca                	mv	a1,s2
    1004:	8526                	mv	a0,s1
    1006:	9982                	jalr	s3
    1008:	f1650fe3          	beq	a0,s6,f26 <_printf_i+0x1aa>
    100c:	0a05                	addi	s4,s4,1
    100e:	445c                	lw	a5,12(s0)
    1010:	4732                	lw	a4,12(sp)
    1012:	8f99                	sub	a5,a5,a4
    1014:	fefa45e3          	blt	s4,a5,ffe <_printf_i+0x282>
    1018:	bfe9                	j	ff2 <_printf_i+0x276>
    101a:	4a01                	li	s4,0
    101c:	01940a93          	addi	s5,s0,25
    1020:	5b7d                	li	s6,-1
    1022:	b7f5                	j	100e <_printf_i+0x292>

00001024 <memchr>:
memchr():
    1024:	0ff5f593          	andi	a1,a1,255
    1028:	962a                	add	a2,a2,a0
    102a:	00c51463          	bne	a0,a2,1032 <memchr+0xe>
    102e:	4501                	li	a0,0
    1030:	8082                	ret
    1032:	00054783          	lbu	a5,0(a0)
    1036:	feb78de3          	beq	a5,a1,1030 <memchr+0xc>
    103a:	0505                	addi	a0,a0,1
    103c:	b7fd                	j	102a <memchr+0x6>

0000103e <memcpy>:
memcpy():
    103e:	00a5c7b3          	xor	a5,a1,a0
    1042:	8b8d                	andi	a5,a5,3
    1044:	00c50733          	add	a4,a0,a2
    1048:	e781                	bnez	a5,1050 <memcpy+0x12>
    104a:	478d                	li	a5,3
    104c:	00c7ee63          	bltu	a5,a2,1068 <memcpy+0x2a>
    1050:	87aa                	mv	a5,a0
    1052:	0ae57063          	bgeu	a0,a4,10f2 <memcpy+0xb4>
    1056:	0005c683          	lbu	a3,0(a1)
    105a:	0785                	addi	a5,a5,1
    105c:	0585                	addi	a1,a1,1
    105e:	fed78fa3          	sb	a3,-1(a5)
    1062:	fee7eae3          	bltu	a5,a4,1056 <memcpy+0x18>
    1066:	8082                	ret
    1068:	00357693          	andi	a3,a0,3
    106c:	87aa                	mv	a5,a0
    106e:	ca91                	beqz	a3,1082 <memcpy+0x44>
    1070:	0005c683          	lbu	a3,0(a1)
    1074:	0785                	addi	a5,a5,1
    1076:	0585                	addi	a1,a1,1
    1078:	fed78fa3          	sb	a3,-1(a5)
    107c:	0037f693          	andi	a3,a5,3
    1080:	b7fd                	j	106e <memcpy+0x30>
    1082:	ffc77693          	andi	a3,a4,-4
    1086:	fe068613          	addi	a2,a3,-32
    108a:	06c7f063          	bgeu	a5,a2,10ea <memcpy+0xac>
    108e:	0005a383          	lw	t2,0(a1)
    1092:	0045a283          	lw	t0,4(a1)
    1096:	0085af83          	lw	t6,8(a1)
    109a:	00c5af03          	lw	t5,12(a1)
    109e:	0105ae83          	lw	t4,16(a1)
    10a2:	0145ae03          	lw	t3,20(a1)
    10a6:	0185a303          	lw	t1,24(a1)
    10aa:	01c5a883          	lw	a7,28(a1)
    10ae:	02458593          	addi	a1,a1,36
    10b2:	0077a023          	sw	t2,0(a5)
    10b6:	ffc5a803          	lw	a6,-4(a1)
    10ba:	0057a223          	sw	t0,4(a5)
    10be:	01f7a423          	sw	t6,8(a5)
    10c2:	01e7a623          	sw	t5,12(a5)
    10c6:	01d7a823          	sw	t4,16(a5)
    10ca:	01c7aa23          	sw	t3,20(a5)
    10ce:	0067ac23          	sw	t1,24(a5)
    10d2:	0117ae23          	sw	a7,28(a5)
    10d6:	02478793          	addi	a5,a5,36
    10da:	ff07ae23          	sw	a6,-4(a5)
    10de:	b775                	j	108a <memcpy+0x4c>
    10e0:	4190                	lw	a2,0(a1)
    10e2:	0791                	addi	a5,a5,4
    10e4:	0591                	addi	a1,a1,4
    10e6:	fec7ae23          	sw	a2,-4(a5)
    10ea:	fed7ebe3          	bltu	a5,a3,10e0 <memcpy+0xa2>
    10ee:	f6e7e4e3          	bltu	a5,a4,1056 <memcpy+0x18>
    10f2:	8082                	ret

000010f4 <memmove>:
memmove():
    10f4:	04a5f363          	bgeu	a1,a0,113a <memmove+0x46>
    10f8:	00c586b3          	add	a3,a1,a2
    10fc:	02d57f63          	bgeu	a0,a3,113a <memmove+0x46>
    1100:	fff64593          	not	a1,a2
    1104:	4781                	li	a5,0
    1106:	17fd                	addi	a5,a5,-1
    1108:	00f59363          	bne	a1,a5,110e <memmove+0x1a>
    110c:	8082                	ret
    110e:	00f68733          	add	a4,a3,a5
    1112:	00074803          	lbu	a6,0(a4)
    1116:	00c78733          	add	a4,a5,a2
    111a:	972a                	add	a4,a4,a0
    111c:	01070023          	sb	a6,0(a4)
    1120:	b7dd                	j	1106 <memmove+0x12>
    1122:	00f58733          	add	a4,a1,a5
    1126:	00074683          	lbu	a3,0(a4)
    112a:	00f50733          	add	a4,a0,a5
    112e:	0785                	addi	a5,a5,1
    1130:	00d70023          	sb	a3,0(a4)
    1134:	fef617e3          	bne	a2,a5,1122 <memmove+0x2e>
    1138:	8082                	ret
    113a:	4781                	li	a5,0
    113c:	bfe5                	j	1134 <memmove+0x40>

0000113e <_free_r>:
_free_r():
    113e:	c5cd                	beqz	a1,11e8 <_free_r+0xaa>
    1140:	ffc5a783          	lw	a5,-4(a1)
    1144:	1141                	addi	sp,sp,-16
    1146:	c422                	sw	s0,8(sp)
    1148:	c606                	sw	ra,12(sp)
    114a:	c226                	sw	s1,4(sp)
    114c:	ffc58413          	addi	s0,a1,-4
    1150:	0007d363          	bgez	a5,1156 <_free_r+0x18>
    1154:	943e                	add	s0,s0,a5
    1156:	84aa                	mv	s1,a0
    1158:	2ad9                	jal	132e <__malloc_lock>
    115a:	20003797          	auipc	a5,0x20003
    115e:	f0e78793          	addi	a5,a5,-242 # 20004068 <_edata>
    1162:	439c                	lw	a5,0(a5)
    1164:	ef89                	bnez	a5,117e <_free_r+0x40>
    1166:	00042223          	sw	zero,4(s0)
    116a:	20003797          	auipc	a5,0x20003
    116e:	ee87af23          	sw	s0,-258(a5) # 20004068 <_edata>
    1172:	4422                	lw	s0,8(sp)
    1174:	40b2                	lw	ra,12(sp)
    1176:	8526                	mv	a0,s1
    1178:	4492                	lw	s1,4(sp)
    117a:	0141                	addi	sp,sp,16
    117c:	aa55                	j	1330 <__malloc_unlock>
    117e:	00f47e63          	bgeu	s0,a5,119a <_free_r+0x5c>
    1182:	4014                	lw	a3,0(s0)
    1184:	00d40733          	add	a4,s0,a3
    1188:	00e79663          	bne	a5,a4,1194 <_free_r+0x56>
    118c:	4398                	lw	a4,0(a5)
    118e:	43dc                	lw	a5,4(a5)
    1190:	9736                	add	a4,a4,a3
    1192:	c018                	sw	a4,0(s0)
    1194:	c05c                	sw	a5,4(s0)
    1196:	bfd1                	j	116a <_free_r+0x2c>
    1198:	87ba                	mv	a5,a4
    119a:	43d8                	lw	a4,4(a5)
    119c:	c319                	beqz	a4,11a2 <_free_r+0x64>
    119e:	fee47de3          	bgeu	s0,a4,1198 <_free_r+0x5a>
    11a2:	4394                	lw	a3,0(a5)
    11a4:	00d78633          	add	a2,a5,a3
    11a8:	00861f63          	bne	a2,s0,11c6 <_free_r+0x88>
    11ac:	4010                	lw	a2,0(s0)
    11ae:	96b2                	add	a3,a3,a2
    11b0:	c394                	sw	a3,0(a5)
    11b2:	00d78633          	add	a2,a5,a3
    11b6:	fac71ee3          	bne	a4,a2,1172 <_free_r+0x34>
    11ba:	4310                	lw	a2,0(a4)
    11bc:	4358                	lw	a4,4(a4)
    11be:	96b2                	add	a3,a3,a2
    11c0:	c394                	sw	a3,0(a5)
    11c2:	c3d8                	sw	a4,4(a5)
    11c4:	b77d                	j	1172 <_free_r+0x34>
    11c6:	00c47563          	bgeu	s0,a2,11d0 <_free_r+0x92>
    11ca:	47b1                	li	a5,12
    11cc:	c09c                	sw	a5,0(s1)
    11ce:	b755                	j	1172 <_free_r+0x34>
    11d0:	4010                	lw	a2,0(s0)
    11d2:	00c406b3          	add	a3,s0,a2
    11d6:	00d71663          	bne	a4,a3,11e2 <_free_r+0xa4>
    11da:	4314                	lw	a3,0(a4)
    11dc:	4358                	lw	a4,4(a4)
    11de:	96b2                	add	a3,a3,a2
    11e0:	c014                	sw	a3,0(s0)
    11e2:	c058                	sw	a4,4(s0)
    11e4:	c3c0                	sw	s0,4(a5)
    11e6:	b771                	j	1172 <_free_r+0x34>
    11e8:	8082                	ret

000011ea <_malloc_r>:
_malloc_r():
    11ea:	1101                	addi	sp,sp,-32
    11ec:	ca26                	sw	s1,20(sp)
    11ee:	00358493          	addi	s1,a1,3
    11f2:	98f1                	andi	s1,s1,-4
    11f4:	ce06                	sw	ra,28(sp)
    11f6:	cc22                	sw	s0,24(sp)
    11f8:	c84a                	sw	s2,16(sp)
    11fa:	c64e                	sw	s3,12(sp)
    11fc:	04a1                	addi	s1,s1,8
    11fe:	47b1                	li	a5,12
    1200:	04f4f163          	bgeu	s1,a5,1242 <_malloc_r+0x58>
    1204:	44b1                	li	s1,12
    1206:	04b4e063          	bltu	s1,a1,1246 <_malloc_r+0x5c>
    120a:	892a                	mv	s2,a0
    120c:	220d                	jal	132e <__malloc_lock>
    120e:	80818793          	addi	a5,gp,-2040 # 20004068 <_edata>
    1212:	4398                	lw	a4,0(a5)
    1214:	843a                	mv	s0,a4
    1216:	e031                	bnez	s0,125a <_malloc_r+0x70>
    1218:	80c18793          	addi	a5,gp,-2036 # 2000406c <__malloc_sbrk_start>
    121c:	439c                	lw	a5,0(a5)
    121e:	e791                	bnez	a5,122a <_malloc_r+0x40>
    1220:	4581                	li	a1,0
    1222:	854a                	mv	a0,s2
    1224:	20cd                	jal	1306 <_sbrk_r>
    1226:	80a1a623          	sw	a0,-2036(gp) # 2000406c <__malloc_sbrk_start>
    122a:	85a6                	mv	a1,s1
    122c:	854a                	mv	a0,s2
    122e:	28e1                	jal	1306 <_sbrk_r>
    1230:	59fd                	li	s3,-1
    1232:	07351763          	bne	a0,s3,12a0 <_malloc_r+0xb6>
    1236:	47b1                	li	a5,12
    1238:	00f92023          	sw	a5,0(s2)
    123c:	854a                	mv	a0,s2
    123e:	28cd                	jal	1330 <__malloc_unlock>
    1240:	a029                	j	124a <_malloc_r+0x60>
    1242:	fc04d2e3          	bgez	s1,1206 <_malloc_r+0x1c>
    1246:	47b1                	li	a5,12
    1248:	c11c                	sw	a5,0(a0)
    124a:	4501                	li	a0,0
    124c:	40f2                	lw	ra,28(sp)
    124e:	4462                	lw	s0,24(sp)
    1250:	44d2                	lw	s1,20(sp)
    1252:	4942                	lw	s2,16(sp)
    1254:	49b2                	lw	s3,12(sp)
    1256:	6105                	addi	sp,sp,32
    1258:	8082                	ret
    125a:	401c                	lw	a5,0(s0)
    125c:	8f85                	sub	a5,a5,s1
    125e:	0207ce63          	bltz	a5,129a <_malloc_r+0xb0>
    1262:	46ad                	li	a3,11
    1264:	00f6f663          	bgeu	a3,a5,1270 <_malloc_r+0x86>
    1268:	c01c                	sw	a5,0(s0)
    126a:	943e                	add	s0,s0,a5
    126c:	c004                	sw	s1,0(s0)
    126e:	a031                	j	127a <_malloc_r+0x90>
    1270:	405c                	lw	a5,4(s0)
    1272:	02871263          	bne	a4,s0,1296 <_malloc_r+0xac>
    1276:	80f1a423          	sw	a5,-2040(gp) # 20004068 <_edata>
    127a:	854a                	mv	a0,s2
    127c:	2855                	jal	1330 <__malloc_unlock>
    127e:	00b40513          	addi	a0,s0,11
    1282:	00440793          	addi	a5,s0,4
    1286:	9961                	andi	a0,a0,-8
    1288:	40f50733          	sub	a4,a0,a5
    128c:	d361                	beqz	a4,124c <_malloc_r+0x62>
    128e:	943a                	add	s0,s0,a4
    1290:	8f89                	sub	a5,a5,a0
    1292:	c01c                	sw	a5,0(s0)
    1294:	bf65                	j	124c <_malloc_r+0x62>
    1296:	c35c                	sw	a5,4(a4)
    1298:	b7cd                	j	127a <_malloc_r+0x90>
    129a:	8722                	mv	a4,s0
    129c:	4040                	lw	s0,4(s0)
    129e:	bfa5                	j	1216 <_malloc_r+0x2c>
    12a0:	00350413          	addi	s0,a0,3
    12a4:	9871                	andi	s0,s0,-4
    12a6:	fc8503e3          	beq	a0,s0,126c <_malloc_r+0x82>
    12aa:	40a405b3          	sub	a1,s0,a0
    12ae:	854a                	mv	a0,s2
    12b0:	2899                	jal	1306 <_sbrk_r>
    12b2:	fb351de3          	bne	a0,s3,126c <_malloc_r+0x82>
    12b6:	b741                	j	1236 <_malloc_r+0x4c>

000012b8 <_realloc_r>:
_realloc_r():
    12b8:	e199                	bnez	a1,12be <_realloc_r+0x6>
    12ba:	85b2                	mv	a1,a2
    12bc:	b73d                	j	11ea <_malloc_r>
    12be:	1101                	addi	sp,sp,-32
    12c0:	cc22                	sw	s0,24(sp)
    12c2:	ce06                	sw	ra,28(sp)
    12c4:	ca26                	sw	s1,20(sp)
    12c6:	c84a                	sw	s2,16(sp)
    12c8:	c64e                	sw	s3,12(sp)
    12ca:	8432                	mv	s0,a2
    12cc:	ea19                	bnez	a2,12e2 <_realloc_r+0x2a>
    12ce:	3d85                	jal	113e <_free_r>
    12d0:	4901                	li	s2,0
    12d2:	40f2                	lw	ra,28(sp)
    12d4:	4462                	lw	s0,24(sp)
    12d6:	854a                	mv	a0,s2
    12d8:	44d2                	lw	s1,20(sp)
    12da:	4942                	lw	s2,16(sp)
    12dc:	49b2                	lw	s3,12(sp)
    12de:	6105                	addi	sp,sp,32
    12e0:	8082                	ret
    12e2:	84ae                	mv	s1,a1
    12e4:	89aa                	mv	s3,a0
    12e6:	20b1                	jal	1332 <_malloc_usable_size_r>
    12e8:	8926                	mv	s2,s1
    12ea:	fe8574e3          	bgeu	a0,s0,12d2 <_realloc_r+0x1a>
    12ee:	85a2                	mv	a1,s0
    12f0:	854e                	mv	a0,s3
    12f2:	3de5                	jal	11ea <_malloc_r>
    12f4:	892a                	mv	s2,a0
    12f6:	dd71                	beqz	a0,12d2 <_realloc_r+0x1a>
    12f8:	85a6                	mv	a1,s1
    12fa:	8622                	mv	a2,s0
    12fc:	3389                	jal	103e <memcpy>
    12fe:	85a6                	mv	a1,s1
    1300:	854e                	mv	a0,s3
    1302:	3d35                	jal	113e <_free_r>
    1304:	b7f9                	j	12d2 <_realloc_r+0x1a>

00001306 <_sbrk_r>:
_sbrk_r():
    1306:	1141                	addi	sp,sp,-16
    1308:	c422                	sw	s0,8(sp)
    130a:	842a                	mv	s0,a0
    130c:	852e                	mv	a0,a1
    130e:	8601a223          	sw	zero,-1948(gp) # 200040c4 <errno>
    1312:	c606                	sw	ra,12(sp)
    1314:	280d                	jal	1346 <_sbrk>
    1316:	57fd                	li	a5,-1
    1318:	00f51763          	bne	a0,a5,1326 <_sbrk_r+0x20>
    131c:	86418793          	addi	a5,gp,-1948 # 200040c4 <errno>
    1320:	439c                	lw	a5,0(a5)
    1322:	c391                	beqz	a5,1326 <_sbrk_r+0x20>
    1324:	c01c                	sw	a5,0(s0)
    1326:	40b2                	lw	ra,12(sp)
    1328:	4422                	lw	s0,8(sp)
    132a:	0141                	addi	sp,sp,16
    132c:	8082                	ret

0000132e <__malloc_lock>:
__malloc_lock():
    132e:	8082                	ret

00001330 <__malloc_unlock>:
__malloc_unlock():
    1330:	8082                	ret

00001332 <_malloc_usable_size_r>:
_malloc_usable_size_r():
    1332:	ffc5a783          	lw	a5,-4(a1)
    1336:	ffc78513          	addi	a0,a5,-4
    133a:	0007d563          	bgez	a5,1344 <_malloc_usable_size_r+0x12>
    133e:	95aa                	add	a1,a1,a0
    1340:	419c                	lw	a5,0(a1)
    1342:	953e                	add	a0,a0,a5
    1344:	8082                	ret

00001346 <_sbrk>:
_sbrk():
    1346:	81018793          	addi	a5,gp,-2032 # 20004070 <heap_end.1518>
    134a:	439c                	lw	a5,0(a5)
    134c:	c791                	beqz	a5,1358 <_sbrk+0x12>
    134e:	953e                	add	a0,a0,a5
    1350:	80a1a823          	sw	a0,-2032(gp) # 20004070 <heap_end.1518>
    1354:	853e                	mv	a0,a5
    1356:	8082                	ret
    1358:	86818793          	addi	a5,gp,-1944 # 200040c8 <_ebss>
    135c:	953e                	add	a0,a0,a5
    135e:	80a1a823          	sw	a0,-2032(gp) # 20004070 <heap_end.1518>
    1362:	853e                	mv	a0,a5
    1364:	8082                	ret
    1366:	0000                	unimp
    1368:	6e756f63          	bltu	a0,t2,1a66 <_data_lma+0x69a>
    136c:	6574                	flw	fa3,76(a0)
    136e:	0072                	c.slli	zero,0x1c
    1370:	3d20                	fld	fs0,120(a0)
    1372:	2520                	fld	fs0,72(a0)
    1374:	2e75                	jal	1730 <_data_lma+0x364>
    1376:	2e2e                	fld	ft8,200(sp)
    1378:	0000                	unimp
    137a:	0000                	unimp
    137c:	f44e                	fsw	fs3,40(sp)
    137e:	ffff                	0xffff
    1380:	f476                	fsw	ft9,40(sp)
    1382:	ffff                	0xffff
    1384:	f49e                	fsw	ft7,104(sp)
    1386:	ffff                	0xffff
    1388:	f4b6                	fsw	fa3,104(sp)
    138a:	ffff                	0xffff
    138c:	f4d0                	fsw	fa2,44(s1)
    138e:	ffff                	0xffff
    1390:	2b302d23          	sw	s3,698(zero) # 2ba <_einit+0x2b6>
    1394:	0020                	addi	s0,sp,8
    1396:	0000                	unimp
    1398:	6c68                	flw	fa0,92(s0)
    139a:	004c                	addi	a1,sp,4
    139c:	6665                	lui	a2,0x19
    139e:	47464567          	0x47464567
    13a2:	0000                	unimp
    13a4:	3130                	fld	fa2,96(a0)
    13a6:	3332                	fld	ft6,296(sp)
    13a8:	3534                	fld	fa3,104(a0)
    13aa:	3736                	fld	fa4,360(sp)
    13ac:	3938                	fld	fa4,112(a0)
    13ae:	4241                	li	tp,16
    13b0:	46454443          	fmadd.q	fs0,fa0,ft4,fs0,rmm
    13b4:	0000                	unimp
    13b6:	0000                	unimp
    13b8:	3130                	fld	fa2,96(a0)
    13ba:	3332                	fld	ft6,296(sp)
    13bc:	3534                	fld	fa3,104(a0)
    13be:	3736                	fld	fa4,360(sp)
    13c0:	3938                	fld	fa4,112(a0)
    13c2:	6261                	lui	tp,0x18
    13c4:	66656463          	bltu	a0,t1,1a2c <_data_lma+0x660>
    13c8:	0000                	unimp
	...
