ARM GAS  C:\Users\ASUS\AppData\Local\Temp\ccHVMMPS.s 			page 1


   1              		.syntax unified
   2              		.cpu cortex-m0plus
   3              		.fpu softvfp
   4              		.eabi_attribute 20, 1
   5              		.eabi_attribute 21, 1
   6              		.eabi_attribute 23, 3
   7              		.eabi_attribute 24, 1
   8              		.eabi_attribute 25, 1
   9              		.eabi_attribute 26, 1
  10              		.eabi_attribute 30, 1
  11              		.eabi_attribute 34, 0
  12              		.eabi_attribute 18, 4
  13              		.thumb
  14              		.syntax unified
  15              		.file	"capsense_ADC_Adc_INT.c"
  16              		.text
  17              	.Ltext0:
  18              		.cfi_sections	.debug_frame
  19              		.global	__aeabi_uidiv
  20              		.global	__aeabi_idiv
  21              		.section	.text.capsense_ADC_AdcIntrHandler,"ax",%progbits
  22              		.align	2
  23              		.global	capsense_ADC_AdcIntrHandler
  24              		.code	16
  25              		.thumb_func
  26              		.type	capsense_ADC_AdcIntrHandler, %function
  27              	capsense_ADC_AdcIntrHandler:
  28              	.LFB1:
  29              		.file 1 "Generated_Source\\PSoC4\\capsense_ADC_Adc_INT.c"
   1:Generated_Source\PSoC4/capsense_ADC_Adc_INT.c **** /***************************************************************************//**
   2:Generated_Source\PSoC4/capsense_ADC_Adc_INT.c **** * \file capsense_ADC_Adc_INT.c
   3:Generated_Source\PSoC4/capsense_ADC_Adc_INT.c **** * \version 7.10
   4:Generated_Source\PSoC4/capsense_ADC_Adc_INT.c **** *
   5:Generated_Source\PSoC4/capsense_ADC_Adc_INT.c **** * \brief
   6:Generated_Source\PSoC4/capsense_ADC_Adc_INT.c **** *   This file contains the source code for implementation of the capsense_ADC
   7:Generated_Source\PSoC4/capsense_ADC_Adc_INT.c **** *   Component ADC functionality Interrupt Service Routine (ISR).
   8:Generated_Source\PSoC4/capsense_ADC_Adc_INT.c **** *
   9:Generated_Source\PSoC4/capsense_ADC_Adc_INT.c **** * \see capsense_ADC v7.10 Datasheet
  10:Generated_Source\PSoC4/capsense_ADC_Adc_INT.c **** *
  11:Generated_Source\PSoC4/capsense_ADC_Adc_INT.c **** *//*****************************************************************************
  12:Generated_Source\PSoC4/capsense_ADC_Adc_INT.c **** * Copyright (2016-2019), Cypress Semiconductor Corporation.
  13:Generated_Source\PSoC4/capsense_ADC_Adc_INT.c **** ********************************************************************************
  14:Generated_Source\PSoC4/capsense_ADC_Adc_INT.c **** * This software is owned by Cypress Semiconductor Corporation (Cypress) and is
  15:Generated_Source\PSoC4/capsense_ADC_Adc_INT.c **** * protected by and subject to worldwide patent protection (United States and
  16:Generated_Source\PSoC4/capsense_ADC_Adc_INT.c **** * foreign), United States copyright laws and international treaty provisions.
  17:Generated_Source\PSoC4/capsense_ADC_Adc_INT.c **** * Cypress hereby grants to licensee a personal, non-exclusive, non-transferable
  18:Generated_Source\PSoC4/capsense_ADC_Adc_INT.c **** * license to copy, use, modify, create derivative works of, and compile the
  19:Generated_Source\PSoC4/capsense_ADC_Adc_INT.c **** * Cypress Source Code and derivative works for the sole purpose of creating
  20:Generated_Source\PSoC4/capsense_ADC_Adc_INT.c **** * custom software in support of licensee product to be used only in conjunction
  21:Generated_Source\PSoC4/capsense_ADC_Adc_INT.c **** * with a Cypress integrated circuit as specified in the applicable agreement.
  22:Generated_Source\PSoC4/capsense_ADC_Adc_INT.c **** * Any reproduction, modification, translation, compilation, or representation of
  23:Generated_Source\PSoC4/capsense_ADC_Adc_INT.c **** * this software except as specified above is prohibited without the express
  24:Generated_Source\PSoC4/capsense_ADC_Adc_INT.c **** * written permission of Cypress.
  25:Generated_Source\PSoC4/capsense_ADC_Adc_INT.c **** *
  26:Generated_Source\PSoC4/capsense_ADC_Adc_INT.c **** * Disclaimer: CYPRESS MAKES NO WARRANTY OF ANY KIND, EXPRESS OR IMPLIED, WITH
  27:Generated_Source\PSoC4/capsense_ADC_Adc_INT.c **** * REGARD TO THIS MATERIAL, INCLUDING, BUT NOT LIMITED TO, THE IMPLIED
  28:Generated_Source\PSoC4/capsense_ADC_Adc_INT.c **** * WARRANTIES OF MERCHANTABILITY AND FITNESS FOR A PARTICULAR PURPOSE.
ARM GAS  C:\Users\ASUS\AppData\Local\Temp\ccHVMMPS.s 			page 2


  29:Generated_Source\PSoC4/capsense_ADC_Adc_INT.c **** * Cypress reserves the right to make changes without further notice to the
  30:Generated_Source\PSoC4/capsense_ADC_Adc_INT.c **** * materials described herein. Cypress does not assume any liability arising out
  31:Generated_Source\PSoC4/capsense_ADC_Adc_INT.c **** * of the application or use of any product or circuit described herein. Cypress
  32:Generated_Source\PSoC4/capsense_ADC_Adc_INT.c **** * does not authorize its products for use as critical components in life-support
  33:Generated_Source\PSoC4/capsense_ADC_Adc_INT.c **** * systems where a malfunction or failure may reasonably be expected to result in
  34:Generated_Source\PSoC4/capsense_ADC_Adc_INT.c **** * significant injury to the user. The inclusion of Cypress' product in a life-
  35:Generated_Source\PSoC4/capsense_ADC_Adc_INT.c **** * support systems application implies that the manufacturer assumes all risk of
  36:Generated_Source\PSoC4/capsense_ADC_Adc_INT.c **** * such use and in doing so indemnifies Cypress against all charges. Use may be
  37:Generated_Source\PSoC4/capsense_ADC_Adc_INT.c **** * limited by and subject to the applicable Cypress software license agreement.
  38:Generated_Source\PSoC4/capsense_ADC_Adc_INT.c **** *******************************************************************************/
  39:Generated_Source\PSoC4/capsense_ADC_Adc_INT.c **** #include "CyLib.h"
  40:Generated_Source\PSoC4/capsense_ADC_Adc_INT.c **** #include "cytypes.h"
  41:Generated_Source\PSoC4/capsense_ADC_Adc_INT.c **** #include "cyfitter.h"
  42:Generated_Source\PSoC4/capsense_ADC_Adc_INT.c **** #include "capsense_ADC_Adc.h"
  43:Generated_Source\PSoC4/capsense_ADC_Adc_INT.c **** #include "capsense_ADC_Sensing.h"
  44:Generated_Source\PSoC4/capsense_ADC_Adc_INT.c **** #include "capsense_ADC_Configuration.h"
  45:Generated_Source\PSoC4/capsense_ADC_Adc_INT.c **** #include "cyapicallbacks.h"
  46:Generated_Source\PSoC4/capsense_ADC_Adc_INT.c **** 
  47:Generated_Source\PSoC4/capsense_ADC_Adc_INT.c **** /**
  48:Generated_Source\PSoC4/capsense_ADC_Adc_INT.c **** * \cond SECTION_ADC_INTERRUPT
  49:Generated_Source\PSoC4/capsense_ADC_Adc_INT.c **** * \addtogroup group_c_interrupt
  50:Generated_Source\PSoC4/capsense_ADC_Adc_INT.c **** * \{
  51:Generated_Source\PSoC4/capsense_ADC_Adc_INT.c **** */
  52:Generated_Source\PSoC4/capsense_ADC_Adc_INT.c **** 
  53:Generated_Source\PSoC4/capsense_ADC_Adc_INT.c **** #if (capsense_ADC_ADC_EN)
  54:Generated_Source\PSoC4/capsense_ADC_Adc_INT.c **** 
  55:Generated_Source\PSoC4/capsense_ADC_Adc_INT.c **** 
  56:Generated_Source\PSoC4/capsense_ADC_Adc_INT.c **** /*******************************************************************************
  57:Generated_Source\PSoC4/capsense_ADC_Adc_INT.c **** * Function Name: capsense_ADC_AdcIntrHandler
  58:Generated_Source\PSoC4/capsense_ADC_Adc_INT.c **** ****************************************************************************//**
  59:Generated_Source\PSoC4/capsense_ADC_Adc_INT.c **** *
  60:Generated_Source\PSoC4/capsense_ADC_Adc_INT.c **** * \brief
  61:Generated_Source\PSoC4/capsense_ADC_Adc_INT.c **** *   This is an internal ISR function for the ADC implementation.
  62:Generated_Source\PSoC4/capsense_ADC_Adc_INT.c **** *
  63:Generated_Source\PSoC4/capsense_ADC_Adc_INT.c **** * \details
  64:Generated_Source\PSoC4/capsense_ADC_Adc_INT.c **** *   This ISR is triggered after a measurement completes or during the calibration
  65:Generated_Source\PSoC4/capsense_ADC_Adc_INT.c **** *   phases.
  66:Generated_Source\PSoC4/capsense_ADC_Adc_INT.c **** *
  67:Generated_Source\PSoC4/capsense_ADC_Adc_INT.c **** *   To use the entry or exit callbacks, define
  68:Generated_Source\PSoC4/capsense_ADC_Adc_INT.c **** *   capsense_ADC_ADC_[ENTRY|EXIT]_CALLBACK
  69:Generated_Source\PSoC4/capsense_ADC_Adc_INT.c **** *   and define the corresponding function,
  70:Generated_Source\PSoC4/capsense_ADC_Adc_INT.c **** *   capsense_ADC_Adc[Entry|Exit]Callback().
  71:Generated_Source\PSoC4/capsense_ADC_Adc_INT.c **** *
  72:Generated_Source\PSoC4/capsense_ADC_Adc_INT.c **** *******************************************************************************/
  73:Generated_Source\PSoC4/capsense_ADC_Adc_INT.c **** CY_ISR(capsense_ADC_AdcIntrHandler)
  74:Generated_Source\PSoC4/capsense_ADC_Adc_INT.c **** {
  30              		.loc 1 74 0
  31              		.cfi_startproc
  32              		@ args = 0, pretend = 0, frame = 0
  33              		@ frame_needed = 0, uses_anonymous_args = 0
  34 0000 F0B5     		push	{r4, r5, r6, r7, lr}
  35              		.cfi_def_cfa_offset 20
  36              		.cfi_offset 4, -20
  37              		.cfi_offset 5, -16
  38              		.cfi_offset 6, -12
  39              		.cfi_offset 7, -8
  40              		.cfi_offset 14, -4
ARM GAS  C:\Users\ASUS\AppData\Local\Temp\ccHVMMPS.s 			page 3


  41 0002 4746     		mov	r7, r8
  42 0004 80B4     		push	{r7}
  43              		.cfi_def_cfa_offset 24
  44              		.cfi_offset 8, -24
  75:Generated_Source\PSoC4/capsense_ADC_Adc_INT.c ****     static uint16 tVssa2Vref;
  76:Generated_Source\PSoC4/capsense_ADC_Adc_INT.c ****     static uint16 tFull;
  77:Generated_Source\PSoC4/capsense_ADC_Adc_INT.c ****     static uint16 vMaxMv;
  78:Generated_Source\PSoC4/capsense_ADC_Adc_INT.c **** 
  79:Generated_Source\PSoC4/capsense_ADC_Adc_INT.c ****     uint32 tmpResult;
  80:Generated_Source\PSoC4/capsense_ADC_Adc_INT.c ****     uint32 polarity;
  81:Generated_Source\PSoC4/capsense_ADC_Adc_INT.c ****     uint8 adcFsmStatus;
  82:Generated_Source\PSoC4/capsense_ADC_Adc_INT.c ****     uint8 tmpChId;
  83:Generated_Source\PSoC4/capsense_ADC_Adc_INT.c **** 
  84:Generated_Source\PSoC4/capsense_ADC_Adc_INT.c ****     #if (capsense_ADC_ADC_FULLRANGE_MODE == capsense_ADC_ADC_MEASURE_MODE)
  85:Generated_Source\PSoC4/capsense_ADC_Adc_INT.c ****         uint8  interruptState;
  86:Generated_Source\PSoC4/capsense_ADC_Adc_INT.c ****         uint32 newRegValue;
  87:Generated_Source\PSoC4/capsense_ADC_Adc_INT.c **** 
  88:Generated_Source\PSoC4/capsense_ADC_Adc_INT.c ****         static uint16 tVdda2Vref;
  89:Generated_Source\PSoC4/capsense_ADC_Adc_INT.c ****         static uint16 tRecover;
  90:Generated_Source\PSoC4/capsense_ADC_Adc_INT.c ****     #endif /* (capsense_ADC_ADC_FULLRANGE_MODE == capsense_ADC_ADC_MEASURE_MODE) */
  91:Generated_Source\PSoC4/capsense_ADC_Adc_INT.c **** 
  92:Generated_Source\PSoC4/capsense_ADC_Adc_INT.c ****     #ifdef capsense_ADC_ADC_ENTRY_CALLBACK
  93:Generated_Source\PSoC4/capsense_ADC_Adc_INT.c ****         capsense_ADC_AdcEntryCallback();
  94:Generated_Source\PSoC4/capsense_ADC_Adc_INT.c ****     #endif /* capsense_ADC_ADC_ENTRY_CALLBACK */
  95:Generated_Source\PSoC4/capsense_ADC_Adc_INT.c **** 
  96:Generated_Source\PSoC4/capsense_ADC_Adc_INT.c ****     /* Mask all CSD block interrupts (disable all interrupts) */
  97:Generated_Source\PSoC4/capsense_ADC_Adc_INT.c ****     CY_SET_REG32(capsense_ADC_INTR_MASK_PTR, capsense_ADC_INTR_MASK_CLEAR_MASK);
  45              		.loc 1 97 0
  46 0006 0022     		movs	r2, #0
  47 0008 594B     		ldr	r3, .L14
  48 000a 1A60     		str	r2, [r3]
  98:Generated_Source\PSoC4/capsense_ADC_Adc_INT.c **** 
  99:Generated_Source\PSoC4/capsense_ADC_Adc_INT.c ****     /* Clear all pending interrupts of CSD block */
 100:Generated_Source\PSoC4/capsense_ADC_Adc_INT.c ****     CY_SET_REG32(capsense_ADC_INTR_PTR, capsense_ADC_INTR_ALL_MASK);
  49              		.loc 1 100 0
  50 000c 0732     		adds	r2, r2, #7
  51 000e FF32     		adds	r2, r2, #255
  52 0010 584B     		ldr	r3, .L14+4
  53 0012 1A60     		str	r2, [r3]
 101:Generated_Source\PSoC4/capsense_ADC_Adc_INT.c **** 
 102:Generated_Source\PSoC4/capsense_ADC_Adc_INT.c ****     /* Read ADC result and check for ADC_ABORT or ADC_OVERFLOW flags */
 103:Generated_Source\PSoC4/capsense_ADC_Adc_INT.c ****     tmpResult = CY_GET_REG32(capsense_ADC_ADC_RES_PTR);
  54              		.loc 1 103 0
  55 0014 584B     		ldr	r3, .L14+8
  56 0016 1C68     		ldr	r4, [r3]
  57              	.LVL0:
 104:Generated_Source\PSoC4/capsense_ADC_Adc_INT.c ****     if (0uL == (tmpResult & capsense_ADC_AdcADC_RES_ABORT_MASK))
  58              		.loc 1 104 0
  59 0018 002C     		cmp	r4, #0
  60 001a 00DA     		bge	.LCB26
  61 001c A2E0     		b	.L2	@long jump
  62              	.LCB26:
 105:Generated_Source\PSoC4/capsense_ADC_Adc_INT.c ****     {
 106:Generated_Source\PSoC4/capsense_ADC_Adc_INT.c ****         if (0uL == (tmpResult & capsense_ADC_AdcADC_RES_OVERFLOW_MASK))
  63              		.loc 1 106 0
  64 001e 6300     		lsls	r3, r4, #1
  65 0020 00D5     		bpl	.LCB30
ARM GAS  C:\Users\ASUS\AppData\Local\Temp\ccHVMMPS.s 			page 4


  66 0022 9BE0     		b	.L3	@long jump
  67              	.LCB30:
 107:Generated_Source\PSoC4/capsense_ADC_Adc_INT.c ****         {
 108:Generated_Source\PSoC4/capsense_ADC_Adc_INT.c ****             /* Read ADC status, define polarity, value and ChId */
 109:Generated_Source\PSoC4/capsense_ADC_Adc_INT.c ****             adcFsmStatus = (uint8)(capsense_ADC_dsRam.adcStatus & capsense_ADC_AdcSTATUS_FSM_MASK);
  68              		.loc 1 109 0
  69 0024 5549     		ldr	r1, .L14+12
  70 0026 0B79     		ldrb	r3, [r1, #4]
  71 0028 F73A     		subs	r2, r2, #247
  72 002a 9343     		bics	r3, r2
  73              	.LVL1:
 110:Generated_Source\PSoC4/capsense_ADC_Adc_INT.c ****             /* Select the polarity bit */
 111:Generated_Source\PSoC4/capsense_ADC_Adc_INT.c ****             polarity = tmpResult & capsense_ADC_AdcADC_RES_HSCMPPOL_MASK;
  74              		.loc 1 111 0
  75 002c 8022     		movs	r2, #128
  76 002e 5202     		lsls	r2, r2, #9
  77 0030 2240     		ands	r2, r4
  78              	.LVL2:
 112:Generated_Source\PSoC4/capsense_ADC_Adc_INT.c ****             /* Select the result value */
 113:Generated_Source\PSoC4/capsense_ADC_Adc_INT.c ****             tmpResult &= capsense_ADC_AdcADC_RES_VALUE_MASK;
  79              		.loc 1 113 0
  80 0032 2004     		lsls	r0, r4, #16
  81 0034 000C     		lsrs	r0, r0, #16
  82              	.LVL3:
 114:Generated_Source\PSoC4/capsense_ADC_Adc_INT.c ****             tmpChId = capsense_ADC_dsRam.adcStatus & (uint8)(capsense_ADC_AdcSTATUS_LASTCHAN_MASK);
  83              		.loc 1 114 0
  84 0036 0D79     		ldrb	r5, [r1, #4]
  85 0038 0F21     		movs	r1, #15
  86 003a 0D40     		ands	r5, r1
  87              	.LVL4:
 115:Generated_Source\PSoC4/capsense_ADC_Adc_INT.c **** 
 116:Generated_Source\PSoC4/capsense_ADC_Adc_INT.c ****             /* ADC could have been converting or calibrating; handle each differently. */
 117:Generated_Source\PSoC4/capsense_ADC_Adc_INT.c ****             switch (adcFsmStatus)
  88              		.loc 1 117 0
  89 003c 202B     		cmp	r3, #32
  90 003e 4BD0     		beq	.L5
  91 0040 02D8     		bhi	.L6
  92 0042 102B     		cmp	r3, #16
  93 0044 3BD0     		beq	.L7
  94 0046 90E0     		b	.L1
  95              	.L6:
  96 0048 302B     		cmp	r3, #48
  97 004a 5ED0     		beq	.L8
  98 004c 402B     		cmp	r3, #64
  99 004e 00D0     		beq	.LCB64
 100 0050 8BE0     		b	.L1	@long jump
 101              	.LCB64:
 118:Generated_Source\PSoC4/capsense_ADC_Adc_INT.c ****             {
 119:Generated_Source\PSoC4/capsense_ADC_Adc_INT.c ****             case capsense_ADC_AdcSTATUS_CONVERTING:
 120:Generated_Source\PSoC4/capsense_ADC_Adc_INT.c ****                 /*
 121:Generated_Source\PSoC4/capsense_ADC_Adc_INT.c ****                 * After the converting will calculate an ADC result in mV depending on
 122:Generated_Source\PSoC4/capsense_ADC_Adc_INT.c ****                 * sourcing or sinking mode. Checks for a saturation in all modes.
 123:Generated_Source\PSoC4/capsense_ADC_Adc_INT.c ****                 */
 124:Generated_Source\PSoC4/capsense_ADC_Adc_INT.c ****                 /* HSCMP polarity is 0:sink, 1:source */
 125:Generated_Source\PSoC4/capsense_ADC_Adc_INT.c ****                 if(0uL != polarity) /* Sourcing */
 102              		.loc 1 125 0
 103 0052 002A     		cmp	r2, #0
ARM GAS  C:\Users\ASUS\AppData\Local\Temp\ccHVMMPS.s 			page 5


 104 0054 0ED0     		beq	.L10
 126:Generated_Source\PSoC4/capsense_ADC_Adc_INT.c ****                 {
 127:Generated_Source\PSoC4/capsense_ADC_Adc_INT.c ****                     /* Saturate result at tVssa2Vref */
 128:Generated_Source\PSoC4/capsense_ADC_Adc_INT.c ****                     tmpResult = (tmpResult > (uint32)tVssa2Vref) ? (uint32)tVssa2Vref : tmpResult;
 105              		.loc 1 128 0
 106 0056 4A4B     		ldr	r3, .L14+16
 107              	.LVL5:
 108 0058 1B88     		ldrh	r3, [r3]
 109 005a 9842     		cmp	r0, r3
 110 005c 00D9     		bls	.L11
 111 005e 1800     		movs	r0, r3
 112              	.LVL6:
 113              	.L11:
 129:Generated_Source\PSoC4/capsense_ADC_Adc_INT.c ****                     /* Scale result to Resolution range with rounding*/
 130:Generated_Source\PSoC4/capsense_ADC_Adc_INT.c ****                     tmpResult = ((((uint32)tVssa2Vref - tmpResult) * capsense_ADC_AdcRES_MAX) +
 114              		.loc 1 130 0
 115 0060 181A     		subs	r0, r3, r0
 116              	.LVL7:
 117 0062 8302     		lsls	r3, r0, #10
 118 0064 181A     		subs	r0, r3, r0
 131:Generated_Source\PSoC4/capsense_ADC_Adc_INT.c ****                                  ((uint32)tFull >> 1uL)) / (uint32)tFull;
 119              		.loc 1 131 0
 120 0066 464B     		ldr	r3, .L14+16
 121 0068 5988     		ldrh	r1, [r3, #2]
 122 006a 4A08     		lsrs	r2, r1, #1
 123              	.LVL8:
 130:Generated_Source\PSoC4/capsense_ADC_Adc_INT.c ****                                  ((uint32)tFull >> 1uL)) / (uint32)tFull;
 124              		.loc 1 130 0
 125 006c 8018     		adds	r0, r0, r2
 126 006e FFF7FEFF 		bl	__aeabi_uidiv
 127              	.LVL9:
 128 0072 16E0     		b	.L12
 129              	.LVL10:
 130              	.L10:
 132:Generated_Source\PSoC4/capsense_ADC_Adc_INT.c ****                 }
 133:Generated_Source\PSoC4/capsense_ADC_Adc_INT.c ****                 else /* Sinking */
 134:Generated_Source\PSoC4/capsense_ADC_Adc_INT.c ****                 {
 135:Generated_Source\PSoC4/capsense_ADC_Adc_INT.c ****                     #if (capsense_ADC_ADC_FULLRANGE_MODE == capsense_ADC_ADC_MEASURE_MODE)
 136:Generated_Source\PSoC4/capsense_ADC_Adc_INT.c ****                         /* Scale result with sink/source mismatch with rounding */
 137:Generated_Source\PSoC4/capsense_ADC_Adc_INT.c ****                         tmpResult = (((uint32)((uint32)tRecover << 1u) * tmpResult) + ((uint32)tVss
 131              		.loc 1 137 0
 132 0074 424E     		ldr	r6, .L14+16
 133 0076 B388     		ldrh	r3, [r6, #4]
 134              	.LVL11:
 135 0078 5B00     		lsls	r3, r3, #1
 136 007a 5843     		muls	r0, r3
 137              	.LVL12:
 138 007c 3488     		ldrh	r4, [r6]
 139              	.LVL13:
 140 007e 6308     		lsrs	r3, r4, #1
 141 0080 C018     		adds	r0, r0, r3
 142 0082 2100     		movs	r1, r4
 143 0084 FFF7FEFF 		bl	__aeabi_uidiv
 144              	.LVL14:
 138:Generated_Source\PSoC4/capsense_ADC_Adc_INT.c ****                         /* Saturate result at t_Vdda2Vref*/
 139:Generated_Source\PSoC4/capsense_ADC_Adc_INT.c ****                         tmpResult = (tmpResult > (uint32)tVdda2Vref) ? (uint32)tVdda2Vref : tmpResu
 145              		.loc 1 139 0
ARM GAS  C:\Users\ASUS\AppData\Local\Temp\ccHVMMPS.s 			page 6


 146 0088 F388     		ldrh	r3, [r6, #6]
 147 008a 9842     		cmp	r0, r3
 148 008c 00D9     		bls	.L13
 149 008e 1800     		movs	r0, r3
 150              	.LVL15:
 151              	.L13:
 140:Generated_Source\PSoC4/capsense_ADC_Adc_INT.c ****                         /* Scale result to Resolution range with rounding */
 141:Generated_Source\PSoC4/capsense_ADC_Adc_INT.c ****                         tmpResult = ((((uint32)tVssa2Vref + tmpResult) * capsense_ADC_AdcRES_MAX)  
 152              		.loc 1 141 0
 153 0090 2018     		adds	r0, r4, r0
 154              	.LVL16:
 155 0092 8302     		lsls	r3, r0, #10
 156 0094 181A     		subs	r0, r3, r0
 142:Generated_Source\PSoC4/capsense_ADC_Adc_INT.c ****                                      ((uint32)tFull >> 1uL)) / (uint32)tFull;
 157              		.loc 1 142 0
 158 0096 3A4B     		ldr	r3, .L14+16
 159 0098 5988     		ldrh	r1, [r3, #2]
 160 009a 4B08     		lsrs	r3, r1, #1
 141:Generated_Source\PSoC4/capsense_ADC_Adc_INT.c ****                                      ((uint32)tFull >> 1uL)) / (uint32)tFull;
 161              		.loc 1 141 0
 162 009c C018     		adds	r0, r0, r3
 163 009e FFF7FEFF 		bl	__aeabi_uidiv
 164              	.LVL17:
 165              	.L12:
 143:Generated_Source\PSoC4/capsense_ADC_Adc_INT.c ****                     #else /* (capsense_ADC_ADC_FULLRANGE_MODE == capsense_ADC_ADC_MEASURE_MODE) */
 144:Generated_Source\PSoC4/capsense_ADC_Adc_INT.c ****                         /* In vref mode, we are not supposed to be sinking. Saturate */
 145:Generated_Source\PSoC4/capsense_ADC_Adc_INT.c ****                         tmpResult = ((uint32)tVssa2Vref * capsense_ADC_AdcRES_MAX) / (uint32)tFull;
 146:Generated_Source\PSoC4/capsense_ADC_Adc_INT.c ****                     #endif /* (capsense_ADC_ADC_FULLRANGE_MODE == capsense_ADC_ADC_MEASURE_MODE) */
 147:Generated_Source\PSoC4/capsense_ADC_Adc_INT.c ****                 }
 148:Generated_Source\PSoC4/capsense_ADC_Adc_INT.c ****                 /* Store ADC result code */
 149:Generated_Source\PSoC4/capsense_ADC_Adc_INT.c ****                 capsense_ADC_dsRam.adcCode [tmpChId] = (uint16)(tmpResult);
 166              		.loc 1 149 0
 167 00a2 364C     		ldr	r4, .L14+12
 168 00a4 6D00     		lsls	r5, r5, #1
 169              	.LVL18:
 170 00a6 6319     		adds	r3, r4, r5
 171 00a8 5880     		strh	r0, [r3, #2]
 150:Generated_Source\PSoC4/capsense_ADC_Adc_INT.c ****                 /* Scale result to mV with rounding and store it */
 151:Generated_Source\PSoC4/capsense_ADC_Adc_INT.c ****                 tmpResult = ((uint32)vMaxMv * tmpResult) / capsense_ADC_AdcRES_MAX;
 172              		.loc 1 151 0
 173 00aa 354B     		ldr	r3, .L14+16
 174 00ac 1B89     		ldrh	r3, [r3, #8]
 175 00ae 5843     		muls	r0, r3
 176              	.LVL19:
 177 00b0 3449     		ldr	r1, .L14+20
 178 00b2 FFF7FEFF 		bl	__aeabi_uidiv
 179              	.LVL20:
 152:Generated_Source\PSoC4/capsense_ADC_Adc_INT.c ****                 capsense_ADC_dsRam.adcResult[tmpChId] = (uint16)(tmpResult);
 180              		.loc 1 152 0
 181 00b6 6053     		strh	r0, [r4, r5]
 153:Generated_Source\PSoC4/capsense_ADC_Adc_INT.c ****                 capsense_ADC_dsRam.adcStatus = capsense_ADC_AdcSTATUS_IDLE;
 182              		.loc 1 153 0
 183 00b8 0023     		movs	r3, #0
 184 00ba 2371     		strb	r3, [r4, #4]
 154:Generated_Source\PSoC4/capsense_ADC_Adc_INT.c ****                 break;
 185              		.loc 1 154 0
 186 00bc 55E0     		b	.L1
ARM GAS  C:\Users\ASUS\AppData\Local\Temp\ccHVMMPS.s 			page 7


 187              	.LVL21:
 188              	.L7:
 155:Generated_Source\PSoC4/capsense_ADC_Adc_INT.c **** 
 156:Generated_Source\PSoC4/capsense_ADC_Adc_INT.c ****             case capsense_ADC_AdcSTATUS_CALIBPH1:
 157:Generated_Source\PSoC4/capsense_ADC_Adc_INT.c ****                 /*
 158:Generated_Source\PSoC4/capsense_ADC_Adc_INT.c ****                 * After the calibration phase 1 will define a time to charge Cref1 and Cref2 from V
 159:Generated_Source\PSoC4/capsense_ADC_Adc_INT.c ****                 * clock cycles. In the full-range mode starts the next calibration phase 2. In the 
 160:Generated_Source\PSoC4/capsense_ADC_Adc_INT.c ****                 * and recalibrate Idac if necessary.
 161:Generated_Source\PSoC4/capsense_ADC_Adc_INT.c ****                 */
 162:Generated_Source\PSoC4/capsense_ADC_Adc_INT.c ****                 tVssa2Vref = (uint16)tmpResult;
 189              		.loc 1 162 0
 190 00be 304B     		ldr	r3, .L14+16
 191              	.LVL22:
 192 00c0 1C80     		strh	r4, [r3]
 163:Generated_Source\PSoC4/capsense_ADC_Adc_INT.c **** 
 164:Generated_Source\PSoC4/capsense_ADC_Adc_INT.c ****                 #if (capsense_ADC_ADC_FULLRANGE_MODE == capsense_ADC_ADC_MEASURE_MODE)
 165:Generated_Source\PSoC4/capsense_ADC_Adc_INT.c ****                     /* Full range mode */
 166:Generated_Source\PSoC4/capsense_ADC_Adc_INT.c ****                     capsense_ADC_dsRam.adcStatus = capsense_ADC_AdcSTATUS_CALIBPH2;
 193              		.loc 1 166 0
 194 00c2 2022     		movs	r2, #32
 195              	.LVL23:
 196 00c4 2D4B     		ldr	r3, .L14+12
 197 00c6 1A71     		strb	r2, [r3, #4]
 167:Generated_Source\PSoC4/capsense_ADC_Adc_INT.c ****                     /* Un-mask ADC_RES interrupt (enable interrupt) */
 168:Generated_Source\PSoC4/capsense_ADC_Adc_INT.c ****                     CY_SET_REG32(capsense_ADC_INTR_MASK_PTR, capsense_ADC_INTR_MASK_ADC_RES_MASK);
 198              		.loc 1 168 0
 199 00c8 E032     		adds	r2, r2, #224
 200 00ca 294B     		ldr	r3, .L14
 201 00cc 1A60     		str	r2, [r3]
 169:Generated_Source\PSoC4/capsense_ADC_Adc_INT.c ****                     capsense_ADC_StartAdcFSM(capsense_ADC_AdcMEASMODE_VREFBY2);
 202              		.loc 1 169 0
 203 00ce 8020     		movs	r0, #128
 204              	.LVL24:
 205 00d0 8002     		lsls	r0, r0, #10
 206              	.LVL25:
 207 00d2 FFF7FEFF 		bl	capsense_ADC_StartAdcFSM
 208              	.LVL26:
 170:Generated_Source\PSoC4/capsense_ADC_Adc_INT.c **** 
 171:Generated_Source\PSoC4/capsense_ADC_Adc_INT.c ****                 #else /* (capsense_ADC_ADC_FULLRANGE_MODE == capsense_ADC_ADC_MEASURE_MODE) */
 172:Generated_Source\PSoC4/capsense_ADC_Adc_INT.c ****                     /* Vref range mode */
 173:Generated_Source\PSoC4/capsense_ADC_Adc_INT.c ****                     vMaxMv = capsense_ADC_adcVrefMv;
 174:Generated_Source\PSoC4/capsense_ADC_Adc_INT.c ****                     tFull = tVssa2Vref;
 175:Generated_Source\PSoC4/capsense_ADC_Adc_INT.c ****                     capsense_ADC_dsRam.adcStatus = capsense_ADC_AdcSTATUS_IDLE;
 176:Generated_Source\PSoC4/capsense_ADC_Adc_INT.c **** 
 177:Generated_Source\PSoC4/capsense_ADC_Adc_INT.c ****                 #endif /* (capsense_ADC_ADC_FULLRANGE_MODE == capsense_ADC_ADC_MEASURE_MODE) */
 178:Generated_Source\PSoC4/capsense_ADC_Adc_INT.c **** 
 179:Generated_Source\PSoC4/capsense_ADC_Adc_INT.c ****                 break;
 209              		.loc 1 179 0
 210 00d6 48E0     		b	.L1
 211              	.LVL27:
 212              	.L5:
 180:Generated_Source\PSoC4/capsense_ADC_Adc_INT.c **** 
 181:Generated_Source\PSoC4/capsense_ADC_Adc_INT.c ****             /* In vref mode not need further calibration */
 182:Generated_Source\PSoC4/capsense_ADC_Adc_INT.c ****             #if (capsense_ADC_ADC_FULLRANGE_MODE == capsense_ADC_ADC_MEASURE_MODE)
 183:Generated_Source\PSoC4/capsense_ADC_Adc_INT.c **** 
 184:Generated_Source\PSoC4/capsense_ADC_Adc_INT.c ****                 case capsense_ADC_AdcSTATUS_CALIBPH2:
 185:Generated_Source\PSoC4/capsense_ADC_Adc_INT.c ****                     /*
ARM GAS  C:\Users\ASUS\AppData\Local\Temp\ccHVMMPS.s 			page 8


 186:Generated_Source\PSoC4/capsense_ADC_Adc_INT.c ****                     * After the calibration phase 2 will define a time to charge Cref1 and Cref2 to
 187:Generated_Source\PSoC4/capsense_ADC_Adc_INT.c ****                     * a discharging them by a sinking from Vref during tVssa2Vref/2 time. This rech
 188:Generated_Source\PSoC4/capsense_ADC_Adc_INT.c ****                     * and is proporional to an Idac_sourcing/Idac_sinking mismatch. Then charges ca
 189:Generated_Source\PSoC4/capsense_ADC_Adc_INT.c ****                     * the next calibration phase 3.
 190:Generated_Source\PSoC4/capsense_ADC_Adc_INT.c ****                     */
 191:Generated_Source\PSoC4/capsense_ADC_Adc_INT.c ****                     tRecover = (uint16)tmpResult;
 213              		.loc 1 191 0
 214 00d8 294B     		ldr	r3, .L14+16
 215              	.LVL28:
 216 00da 9C80     		strh	r4, [r3, #4]
 192:Generated_Source\PSoC4/capsense_ADC_Adc_INT.c **** 
 193:Generated_Source\PSoC4/capsense_ADC_Adc_INT.c ****                     /* Disconnect amuxbusB, Connect VDDA to csdbusB */
 194:Generated_Source\PSoC4/capsense_ADC_Adc_INT.c ****                     interruptState = CyEnterCriticalSection();
 217              		.loc 1 194 0
 218 00dc FFF7FEFF 		bl	CyEnterCriticalSection
 219              	.LVL29:
 195:Generated_Source\PSoC4/capsense_ADC_Adc_INT.c ****                     newRegValue = CY_GET_REG32(capsense_ADC_SW_BYP_SEL_PTR);
 220              		.loc 1 195 0
 221 00e0 294A     		ldr	r2, .L14+24
 222 00e2 1168     		ldr	r1, [r2]
 223              	.LVL30:
 196:Generated_Source\PSoC4/capsense_ADC_Adc_INT.c ****                     newRegValue &= (uint32)(~capsense_ADC_AdcSW_BYP_DEFAULT);
 224              		.loc 1 196 0
 225 00e4 294B     		ldr	r3, .L14+28
 226 00e6 0B40     		ands	r3, r1
 227              	.LVL31:
 197:Generated_Source\PSoC4/capsense_ADC_Adc_INT.c ****                     CY_SET_REG32(capsense_ADC_SW_BYP_SEL_PTR, newRegValue);
 228              		.loc 1 197 0
 229 00e8 1360     		str	r3, [r2]
 198:Generated_Source\PSoC4/capsense_ADC_Adc_INT.c ****                     CyExitCriticalSection(interruptState);
 230              		.loc 1 198 0
 231 00ea FFF7FEFF 		bl	CyExitCriticalSection
 232              	.LVL32:
 199:Generated_Source\PSoC4/capsense_ADC_Adc_INT.c ****                     CY_SET_REG32(capsense_ADC_SW_SHIELD_SEL_PTR, capsense_ADC_AdcSW_SHIELD_VDDA2CSD
 233              		.loc 1 199 0
 234 00ee 8023     		movs	r3, #128
 235              	.LVL33:
 236 00f0 5B00     		lsls	r3, r3, #1
 237              	.LVL34:
 238 00f2 274A     		ldr	r2, .L14+32
 239 00f4 1360     		str	r3, [r2]
 200:Generated_Source\PSoC4/capsense_ADC_Adc_INT.c **** 
 201:Generated_Source\PSoC4/capsense_ADC_Adc_INT.c ****                     capsense_ADC_dsRam.adcStatus = capsense_ADC_AdcSTATUS_CALIBPH3;
 240              		.loc 1 201 0
 241 00f6 3021     		movs	r1, #48
 242 00f8 204A     		ldr	r2, .L14+12
 243 00fa 1171     		strb	r1, [r2, #4]
 202:Generated_Source\PSoC4/capsense_ADC_Adc_INT.c **** 
 203:Generated_Source\PSoC4/capsense_ADC_Adc_INT.c ****                     /* Un-mask ADC_RES interrupt (enable interrupt) */
 204:Generated_Source\PSoC4/capsense_ADC_Adc_INT.c ****                     CY_SET_REG32(capsense_ADC_INTR_MASK_PTR, capsense_ADC_INTR_MASK_ADC_RES_MASK);
 244              		.loc 1 204 0
 245 00fc 1C4A     		ldr	r2, .L14
 246 00fe 1360     		str	r3, [r2]
 205:Generated_Source\PSoC4/capsense_ADC_Adc_INT.c ****                     capsense_ADC_StartAdcFSM(capsense_ADC_AdcMEASMODE_VIN);
 247              		.loc 1 205 0
 248 0100 C020     		movs	r0, #192
 249 0102 8002     		lsls	r0, r0, #10
ARM GAS  C:\Users\ASUS\AppData\Local\Temp\ccHVMMPS.s 			page 9


 250 0104 FFF7FEFF 		bl	capsense_ADC_StartAdcFSM
 251              	.LVL35:
 206:Generated_Source\PSoC4/capsense_ADC_Adc_INT.c ****                     break;
 252              		.loc 1 206 0
 253 0108 2FE0     		b	.L1
 254              	.LVL36:
 255              	.L8:
 207:Generated_Source\PSoC4/capsense_ADC_Adc_INT.c **** 
 208:Generated_Source\PSoC4/capsense_ADC_Adc_INT.c ****                 case capsense_ADC_AdcSTATUS_CALIBPH3:
 209:Generated_Source\PSoC4/capsense_ADC_Adc_INT.c ****                     /*
 210:Generated_Source\PSoC4/capsense_ADC_Adc_INT.c ****                     * After the calibration phase 3 will define a time to discharge Cref1 and Cref2
 211:Generated_Source\PSoC4/capsense_ADC_Adc_INT.c ****                     * a sinking. This time must be corrected to an Idac_sourcing/Idac_sinking misma
 212:Generated_Source\PSoC4/capsense_ADC_Adc_INT.c ****                     * Calculates t_full, checks it for a target and recalibrate Idac if necessary. 
 213:Generated_Source\PSoC4/capsense_ADC_Adc_INT.c ****                     */
 214:Generated_Source\PSoC4/capsense_ADC_Adc_INT.c ****                     /* Reconnect amuxbusB, disconnect VDDA */
 215:Generated_Source\PSoC4/capsense_ADC_Adc_INT.c ****                     CY_SET_REG32(capsense_ADC_SW_SHIELD_SEL_PTR, capsense_ADC_AdcSW_SHIELD_DEFAULT)
 256              		.loc 1 215 0
 257 010a 0025     		movs	r5, #0
 258              	.LVL37:
 259 010c 204B     		ldr	r3, .L14+32
 260              	.LVL38:
 261 010e 1D60     		str	r5, [r3]
 216:Generated_Source\PSoC4/capsense_ADC_Adc_INT.c ****                     interruptState = CyEnterCriticalSection();
 262              		.loc 1 216 0
 263 0110 FFF7FEFF 		bl	CyEnterCriticalSection
 264              	.LVL39:
 217:Generated_Source\PSoC4/capsense_ADC_Adc_INT.c ****                     newRegValue = CY_GET_REG32(capsense_ADC_SW_BYP_SEL_PTR);
 265              		.loc 1 217 0
 266 0114 1C4A     		ldr	r2, .L14+24
 267 0116 1368     		ldr	r3, [r2]
 268              	.LVL40:
 218:Generated_Source\PSoC4/capsense_ADC_Adc_INT.c ****                     newRegValue |= capsense_ADC_AdcSW_BYP_DEFAULT;
 269              		.loc 1 218 0
 270 0118 8821     		movs	r1, #136
 271 011a 4903     		lsls	r1, r1, #13
 272 011c 0B43     		orrs	r3, r1
 273              	.LVL41:
 219:Generated_Source\PSoC4/capsense_ADC_Adc_INT.c ****                     CY_SET_REG32(capsense_ADC_SW_BYP_SEL_PTR, newRegValue);
 274              		.loc 1 219 0
 275 011e 1360     		str	r3, [r2]
 220:Generated_Source\PSoC4/capsense_ADC_Adc_INT.c ****                     CyExitCriticalSection(interruptState);
 276              		.loc 1 220 0
 277 0120 FFF7FEFF 		bl	CyExitCriticalSection
 278              	.LVL42:
 221:Generated_Source\PSoC4/capsense_ADC_Adc_INT.c **** 
 222:Generated_Source\PSoC4/capsense_ADC_Adc_INT.c ****                     tVdda2Vref = (uint16)tmpResult;
 279              		.loc 1 222 0
 280 0124 A0B2     		uxth	r0, r4
 281 0126 164E     		ldr	r6, .L14+16
 223:Generated_Source\PSoC4/capsense_ADC_Adc_INT.c ****                     /* Calibrate tVdda2Vref with Sink/Source mismatch with rounding */
 224:Generated_Source\PSoC4/capsense_ADC_Adc_INT.c ****                     tVdda2Vref = (uint16)(((((uint32)tVdda2Vref << 1u) * tRecover) + ((uint32)tVssa
 282              		.loc 1 224 0
 283 0128 4400     		lsls	r4, r0, #1
 284              	.LVL43:
 285 012a B088     		ldrh	r0, [r6, #4]
 286 012c 6043     		muls	r0, r4
 287 012e 3788     		ldrh	r7, [r6]
ARM GAS  C:\Users\ASUS\AppData\Local\Temp\ccHVMMPS.s 			page 10


 288 0130 7C08     		lsrs	r4, r7, #1
 289 0132 0019     		adds	r0, r0, r4
 290 0134 3900     		movs	r1, r7
 291 0136 FFF7FEFF 		bl	__aeabi_uidiv
 292              	.LVL44:
 293 013a 83B2     		uxth	r3, r0
 294 013c F380     		strh	r3, [r6, #6]
 225:Generated_Source\PSoC4/capsense_ADC_Adc_INT.c ****                     /* Test whether the full range is 2-bits higher than adc resolution */
 226:Generated_Source\PSoC4/capsense_ADC_Adc_INT.c ****                     tFull = (tVssa2Vref + tVdda2Vref);
 295              		.loc 1 226 0
 296 013e FA18     		adds	r2, r7, r3
 297 0140 7280     		strh	r2, [r6, #2]
 227:Generated_Source\PSoC4/capsense_ADC_Adc_INT.c ****                     vMaxMv = capsense_ADC_adcVrefMv +
 228:Generated_Source\PSoC4/capsense_ADC_Adc_INT.c ****                             (((capsense_ADC_adcVrefMv * tVdda2Vref) + (tVssa2Vref >> 1uL)) / tVssa2
 298              		.loc 1 228 0
 299 0142 144A     		ldr	r2, .L14+36
 300 0144 1288     		ldrh	r2, [r2]
 301 0146 9046     		mov	r8, r2
 302 0148 5343     		muls	r3, r2
 303 014a 1819     		adds	r0, r3, r4
 304 014c 3900     		movs	r1, r7
 305 014e FFF7FEFF 		bl	__aeabi_idiv
 306              	.LVL45:
 227:Generated_Source\PSoC4/capsense_ADC_Adc_INT.c ****                     vMaxMv = capsense_ADC_adcVrefMv +
 307              		.loc 1 227 0
 308 0152 4044     		add	r0, r0, r8
 309 0154 3081     		strh	r0, [r6, #8]
 229:Generated_Source\PSoC4/capsense_ADC_Adc_INT.c **** 
 230:Generated_Source\PSoC4/capsense_ADC_Adc_INT.c ****                     capsense_ADC_dsRam.adcStatus = capsense_ADC_AdcSTATUS_IDLE;
 310              		.loc 1 230 0
 311 0156 094B     		ldr	r3, .L14+12
 312 0158 1D71     		strb	r5, [r3, #4]
 231:Generated_Source\PSoC4/capsense_ADC_Adc_INT.c **** 
 232:Generated_Source\PSoC4/capsense_ADC_Adc_INT.c ****                     break;
 313              		.loc 1 232 0
 314 015a 06E0     		b	.L1
 315              	.LVL46:
 316              	.L3:
 233:Generated_Source\PSoC4/capsense_ADC_Adc_INT.c **** 
 234:Generated_Source\PSoC4/capsense_ADC_Adc_INT.c ****             #endif /* (capsense_ADC_ADC_FULLRANGE_MODE == capsense_ADC_ADC_MEASURE_MODE) */
 235:Generated_Source\PSoC4/capsense_ADC_Adc_INT.c **** 
 236:Generated_Source\PSoC4/capsense_ADC_Adc_INT.c ****             default:
 237:Generated_Source\PSoC4/capsense_ADC_Adc_INT.c ****                 /* If interrupt is called without defined ADC state, do nothing. */
 238:Generated_Source\PSoC4/capsense_ADC_Adc_INT.c ****                 break;
 239:Generated_Source\PSoC4/capsense_ADC_Adc_INT.c ****             }
 240:Generated_Source\PSoC4/capsense_ADC_Adc_INT.c ****         }
 241:Generated_Source\PSoC4/capsense_ADC_Adc_INT.c ****         else
 242:Generated_Source\PSoC4/capsense_ADC_Adc_INT.c ****         {
 243:Generated_Source\PSoC4/capsense_ADC_Adc_INT.c ****             capsense_ADC_dsRam.adcStatus = capsense_ADC_AdcSTATUS_OVERFLOW;
 317              		.loc 1 243 0
 318 015c 8022     		movs	r2, #128
 319 015e 074B     		ldr	r3, .L14+12
 320 0160 1A71     		strb	r2, [r3, #4]
 321 0162 02E0     		b	.L1
 322              	.L2:
 244:Generated_Source\PSoC4/capsense_ADC_Adc_INT.c ****         }
 245:Generated_Source\PSoC4/capsense_ADC_Adc_INT.c ****     }
ARM GAS  C:\Users\ASUS\AppData\Local\Temp\ccHVMMPS.s 			page 11


 246:Generated_Source\PSoC4/capsense_ADC_Adc_INT.c ****     else
 247:Generated_Source\PSoC4/capsense_ADC_Adc_INT.c ****     {
 248:Generated_Source\PSoC4/capsense_ADC_Adc_INT.c ****         capsense_ADC_dsRam.adcStatus = capsense_ADC_AdcSTATUS_IDLE;
 323              		.loc 1 248 0
 324 0164 0022     		movs	r2, #0
 325 0166 054B     		ldr	r3, .L14+12
 326 0168 1A71     		strb	r2, [r3, #4]
 327              	.LVL47:
 328              	.L1:
 249:Generated_Source\PSoC4/capsense_ADC_Adc_INT.c ****     }
 250:Generated_Source\PSoC4/capsense_ADC_Adc_INT.c ****     #ifdef capsense_ADC_ADC_EXIT_CALLBACK
 251:Generated_Source\PSoC4/capsense_ADC_Adc_INT.c ****         capsense_ADC_AdcExitCallback();
 252:Generated_Source\PSoC4/capsense_ADC_Adc_INT.c ****     #endif /* capsense_ADC_ADC_EXIT_CALLBACK */
 253:Generated_Source\PSoC4/capsense_ADC_Adc_INT.c **** }
 329              		.loc 1 253 0
 330              		@ sp needed
 331 016a 04BC     		pop	{r2}
 332 016c 9046     		mov	r8, r2
 333 016e F0BD     		pop	{r4, r5, r6, r7, pc}
 334              	.L15:
 335              		.align	2
 336              	.L14:
 337 0170 F8000B40 		.word	1074462968
 338 0174 F0000B40 		.word	1074462960
 339 0178 E0000B40 		.word	1074462944
 340 017c 00000000 		.word	capsense_ADC_dsRam
 341 0180 00000000 		.word	.LANCHOR0
 342 0184 FF030000 		.word	1023
 343 0188 94020B40 		.word	1074463380
 344 018c FFFFEEFF 		.word	-1114113
 345 0190 88020B40 		.word	1074463368
 346 0194 00000000 		.word	capsense_ADC_adcVrefMv
 347              		.cfi_endproc
 348              	.LFE1:
 349              		.size	capsense_ADC_AdcIntrHandler, .-capsense_ADC_AdcIntrHandler
 350              		.bss
 351              		.align	1
 352              		.set	.LANCHOR0,. + 0
 353              		.type	tVssa2Vref.4888, %object
 354              		.size	tVssa2Vref.4888, 2
 355              	tVssa2Vref.4888:
 356 0000 0000     		.space	2
 357              		.type	tFull.4889, %object
 358              		.size	tFull.4889, 2
 359              	tFull.4889:
 360 0002 0000     		.space	2
 361              		.type	tRecover.4898, %object
 362              		.size	tRecover.4898, 2
 363              	tRecover.4898:
 364 0004 0000     		.space	2
 365              		.type	tVdda2Vref.4897, %object
 366              		.size	tVdda2Vref.4897, 2
 367              	tVdda2Vref.4897:
 368 0006 0000     		.space	2
 369              		.type	vMaxMv.4890, %object
 370              		.size	vMaxMv.4890, 2
 371              	vMaxMv.4890:
ARM GAS  C:\Users\ASUS\AppData\Local\Temp\ccHVMMPS.s 			page 12


 372 0008 0000     		.space	2
 373              		.text
 374              	.Letext0:
 375              		.file 2 "Generated_Source\\PSoC4\\cytypes.h"
 376              		.file 3 "Generated_Source\\PSoC4\\capsense_ADC_Structure.h"
 377              		.file 4 "Generated_Source\\PSoC4\\capsense_ADC_Adc.h"
 378              		.file 5 "Generated_Source\\PSoC4\\CyLib.h"