ARM GAS  C:\Users\ASUS\AppData\Local\Temp\cc446yNh.s 			page 1


   1              		.syntax unified
   2              		.cpu cortex-m0plus
   3              		.fpu softvfp
   4              		.eabi_attribute 20, 1
   5              		.eabi_attribute 21, 1
   6              		.eabi_attribute 23, 3
   7              		.eabi_attribute 24, 1
   8              		.eabi_attribute 25, 1
   9              		.eabi_attribute 26, 1
  10              		.eabi_attribute 30, 1
  11              		.eabi_attribute 34, 0
  12              		.eabi_attribute 18, 4
  13              		.thumb
  14              		.syntax unified
  15              		.file	"main.c"
  16              		.text
  17              	.Ltext0:
  18              		.cfi_sections	.debug_frame
  19              		.section	.text.main,"ax",%progbits
  20              		.align	2
  21              		.global	main
  22              		.code	16
  23              		.thumb_func
  24              		.type	main, %function
  25              	main:
  26              	.LFB33:
  27              		.file 1 "main.c"
   1:main.c        **** /* ========================================
   2:main.c        ****  *
   3:main.c        ****  * Copyright YOUR COMPANY, THE YEAR
   4:main.c        ****  * All Rights Reserved
   5:main.c        ****  * UNPUBLISHED, LICENSED SOFTWARE.
   6:main.c        ****  *
   7:main.c        ****  * CONFIDENTIAL AND PROPRIETARY INFORMATION
   8:main.c        ****  * WHICH IS THE PROPERTY OF your company.
   9:main.c        ****  *
  10:main.c        ****  * ========================================
  11:main.c        **** */
  12:main.c        **** #include "project.h"
  13:main.c        **** 
  14:main.c        **** #define STEP_SIZE (capsense_LINEARSLIDER_X_RESOLUTION/capsense_LINEARSLIDER_NUM_SENSORS)
  15:main.c        **** 
  16:main.c        **** 
  17:main.c        **** 
  18:main.c        **** 
  19:main.c        **** int main(void)
  20:main.c        **** {   
  28              		.loc 1 20 0
  29              		.cfi_startproc
  30              		@ Volatile: function does not return.
  31              		@ args = 0, pretend = 0, frame = 0
  32              		@ frame_needed = 0, uses_anonymous_args = 0
  33 0000 70B5     		push	{r4, r5, r6, lr}
  34              		.cfi_def_cfa_offset 16
  35              		.cfi_offset 4, -16
  36              		.cfi_offset 5, -12
  37              		.cfi_offset 6, -8
ARM GAS  C:\Users\ASUS\AppData\Local\Temp\cc446yNh.s 			page 2


  38              		.cfi_offset 14, -4
  21:main.c        ****     CyGlobalIntEnable; /* Enable global interrupts. */
  39              		.loc 1 21 0
  40              		.syntax divided
  41              	@ 21 "main.c" 1
  42 0002 62B6     		CPSIE   i
  43              	@ 0 "" 2
  22:main.c        ****     uart_Start();    /* Configuracion General*/
  44              		.loc 1 22 0
  45              		.thumb
  46              		.syntax unified
  47 0004 FFF7FEFF 		bl	uart_Start
  48              	.LVL0:
  23:main.c        ****     pwm1_Start();
  49              		.loc 1 23 0
  50 0008 FFF7FEFF 		bl	pwm1_Start
  51              	.LVL1:
  24:main.c        ****     pwm2_Start();
  52              		.loc 1 24 0
  53 000c FFF7FEFF 		bl	pwm2_Start
  54              	.LVL2:
  25:main.c        ****     pwm3_Start();
  55              		.loc 1 25 0
  56 0010 FFF7FEFF 		bl	pwm3_Start
  57              	.LVL3:
  26:main.c        ****     clock_Start();
  58              		.loc 1 26 0
  59 0014 FF20     		movs	r0, #255
  60 0016 FFF7FEFF 		bl	clock_StartEx
  61              	.LVL4:
  27:main.c        ****     capsense_Start();
  62              		.loc 1 27 0
  63 001a FFF7FEFF 		bl	capsense_Start
  64              	.LVL5:
  28:main.c        ****     capsense_InitializeAllBaselines();
  65              		.loc 1 28 0
  66 001e FFF7FEFF 		bl	capsense_InitializeAllBaselines
  67              	.LVL6:
  29:main.c        ****     capsense_ScanAllWidgets();
  68              		.loc 1 29 0
  69 0022 FFF7FEFF 		bl	capsense_ScanAllWidgets
  70              	.LVL7:
  71              	.L2:
  30:main.c        ****  
  31:main.c        ****             
  32:main.c        ****     for(;;)
  33:main.c        ****     {
  34:main.c        ****         
  35:main.c        ****         pwm1_WriteCompare(10000);
  72              		.loc 1 35 0 discriminator 1
  73 0026 1548     		ldr	r0, .L3
  74 0028 FFF7FEFF 		bl	pwm1_WriteCompare
  75              	.LVL8:
  36:main.c        ****        CyDelay(1000);
  76              		.loc 1 36 0 discriminator 1
  77 002c FA24     		movs	r4, #250
  78 002e A400     		lsls	r4, r4, #2
ARM GAS  C:\Users\ASUS\AppData\Local\Temp\cc446yNh.s 			page 3


  79 0030 2000     		movs	r0, r4
  80 0032 FFF7FEFF 		bl	CyDelay
  81              	.LVL9:
  37:main.c        ****     
  38:main.c        ****      pwm1_WriteCompare(8000);
  82              		.loc 1 38 0 discriminator 1
  83 0036 FA20     		movs	r0, #250
  84 0038 4001     		lsls	r0, r0, #5
  85 003a FFF7FEFF 		bl	pwm1_WriteCompare
  86              	.LVL10:
  39:main.c        ****        CyDelay(1000);
  87              		.loc 1 39 0 discriminator 1
  88 003e 2000     		movs	r0, r4
  89 0040 FFF7FEFF 		bl	CyDelay
  90              	.LVL11:
  40:main.c        ****     
  41:main.c        ****      pwm1_WriteCompare(6000);
  91              		.loc 1 41 0 discriminator 1
  92 0044 0E48     		ldr	r0, .L3+4
  93 0046 FFF7FEFF 		bl	pwm1_WriteCompare
  94              	.LVL12:
  42:main.c        ****        CyDelay(1000);
  95              		.loc 1 42 0 discriminator 1
  96 004a 2000     		movs	r0, r4
  97 004c FFF7FEFF 		bl	CyDelay
  98              	.LVL13:
  43:main.c        ****     
  44:main.c        ****      pwm1_WriteCompare(4000);
  99              		.loc 1 44 0 discriminator 1
 100 0050 FA20     		movs	r0, #250
 101 0052 0001     		lsls	r0, r0, #4
 102 0054 FFF7FEFF 		bl	pwm1_WriteCompare
 103              	.LVL14:
  45:main.c        ****        CyDelay(1000);
 104              		.loc 1 45 0 discriminator 1
 105 0058 2000     		movs	r0, r4
 106 005a FFF7FEFF 		bl	CyDelay
 107              	.LVL15:
  46:main.c        ****     
  47:main.c        ****      pwm1_WriteCompare(2000);
 108              		.loc 1 47 0 discriminator 1
 109 005e FA25     		movs	r5, #250
 110 0060 ED00     		lsls	r5, r5, #3
 111 0062 2800     		movs	r0, r5
 112 0064 FFF7FEFF 		bl	pwm1_WriteCompare
 113              	.LVL16:
  48:main.c        ****        CyDelay(1000);
 114              		.loc 1 48 0 discriminator 1
 115 0068 2000     		movs	r0, r4
 116 006a FFF7FEFF 		bl	CyDelay
 117              	.LVL17:
  49:main.c        ****    
  50:main.c        ****   
  51:main.c        ****        pwm1_WriteCompare(0);
 118              		.loc 1 51 0 discriminator 1
 119 006e 0020     		movs	r0, #0
 120 0070 FFF7FEFF 		bl	pwm1_WriteCompare
ARM GAS  C:\Users\ASUS\AppData\Local\Temp\cc446yNh.s 			page 4


 121              	.LVL18:
  52:main.c        ****        CyDelay(2000);
 122              		.loc 1 52 0 discriminator 1
 123 0074 2800     		movs	r0, r5
 124 0076 FFF7FEFF 		bl	CyDelay
 125              	.LVL19:
 126 007a D4E7     		b	.L2
 127              	.L4:
 128              		.align	2
 129              	.L3:
 130 007c 10270000 		.word	10000
 131 0080 70170000 		.word	6000
 132              		.cfi_endproc
 133              	.LFE33:
 134              		.size	main, .-main
 135              		.section	.text.CAPSENSE0,"ax",%progbits
 136              		.align	2
 137              		.global	CAPSENSE0
 138              		.code	16
 139              		.thumb_func
 140              		.type	CAPSENSE0, %function
 141              	CAPSENSE0:
 142              	.LFB34:
  53:main.c        ****      //pin.high(led1);
  54:main.c        ****       // sleep_ms(1000);
  55:main.c        ****        // pin.low(led1);
  56:main.c        ****        // sleep_ms(1000);
  57:main.c        ****         
  58:main.c        ****        // pwm_duty(1, 0);
  59:main.c        ****         //sleep_ms(2000);
  60:main.c        ****         //pwm_duty(1, 10);
  61:main.c        ****         //sleep_ms(2000);
  62:main.c        ****         //pwm_duty(1, 20);
  63:main.c        ****         //sleep_ms(2000);
  64:main.c        ****         //pwm_duty(1, 30);
  65:main.c        ****         //sleep_ms(2000);
  66:main.c        ****         //pwm_duty(1, 40);
  67:main.c        ****         //sleep_ms(2000);
  68:main.c        ****         //pwm_duty(1, 50);
  69:main.c        ****         //sleep_ms(2000);
  70:main.c        ****         //pwm_duty(1, 60);
  71:main.c        ****         //sleep_ms(2000);
  72:main.c        ****         //pwm_duty(1, 70);
  73:main.c        ****         //sleep_ms(2000);
  74:main.c        ****         //pwm_duty(1, 80);
  75:main.c        ****        // sleep_ms(2000);
  76:main.c        ****         //pwm_duty(1, 90);
  77:main.c        ****         //sleep_ms(2000);
  78:main.c        ****         //pwm_duty(1, 100);
  79:main.c        ****         //sleep_ms(2000);
  80:main.c        ****     }
  81:main.c        **** }
  82:main.c        ****     
  83:main.c        **** void CAPSENSE0()
  84:main.c        ****     {
 143              		.loc 1 84 0
 144              		.cfi_startproc
ARM GAS  C:\Users\ASUS\AppData\Local\Temp\cc446yNh.s 			page 5


 145              		@ args = 0, pretend = 0, frame = 0
 146              		@ frame_needed = 0, uses_anonymous_args = 0
 147 0000 10B5     		push	{r4, lr}
 148              		.cfi_def_cfa_offset 8
 149              		.cfi_offset 4, -8
 150              		.cfi_offset 14, -4
 151              	.L6:
  85:main.c        ****         for(;;)
  86:main.c        ****         {
  87:main.c        ****             if (!capsense_IsBusy())
 152              		.loc 1 87 0
 153 0002 FFF7FEFF 		bl	capsense_IsBusy
 154              	.LVL20:
 155 0006 0028     		cmp	r0, #0
 156 0008 FBD1     		bne	.L6
  88:main.c        ****             {capsense_ProcessAllWidgets();
 157              		.loc 1 88 0
 158 000a FFF7FEFF 		bl	capsense_ProcessAllWidgets
 159              	.LVL21:
  89:main.c        ****             break;}
  90:main.c        ****         }
  91:main.c        ****     }
 160              		.loc 1 91 0
 161              		@ sp needed
 162 000e 10BD     		pop	{r4, pc}
 163              		.cfi_endproc
 164              	.LFE34:
 165              		.size	CAPSENSE0, .-CAPSENSE0
 166              		.section	.text.CAPSENSE1,"ax",%progbits
 167              		.align	2
 168              		.global	CAPSENSE1
 169              		.code	16
 170              		.thumb_func
 171              		.type	CAPSENSE1, %function
 172              	CAPSENSE1:
 173              	.LFB35:
  92:main.c        ****     
  93:main.c        **** void CAPSENSE1()
  94:main.c        ****     {
 174              		.loc 1 94 0
 175              		.cfi_startproc
 176              		@ args = 0, pretend = 0, frame = 0
 177              		@ frame_needed = 0, uses_anonymous_args = 0
 178 0000 10B5     		push	{r4, lr}
 179              		.cfi_def_cfa_offset 8
 180              		.cfi_offset 4, -8
 181              		.cfi_offset 14, -4
  95:main.c        ****         capsense_UpdateAllBaselines();
 182              		.loc 1 95 0
 183 0002 FFF7FEFF 		bl	capsense_UpdateAllBaselines
 184              	.LVL22:
  96:main.c        ****         capsense_ScanAllWidgets();
 185              		.loc 1 96 0
 186 0006 FFF7FEFF 		bl	capsense_ScanAllWidgets
 187              	.LVL23:
  97:main.c        ****     }
 188              		.loc 1 97 0
ARM GAS  C:\Users\ASUS\AppData\Local\Temp\cc446yNh.s 			page 6


 189              		@ sp needed
 190 000a 10BD     		pop	{r4, pc}
 191              		.cfi_endproc
 192              	.LFE35:
 193              		.size	CAPSENSE1, .-CAPSENSE1
 194              		.text
 195              	.Letext0:
 196              		.file 2 "Generated_Source\\PSoC4/uart.h"
 197              		.file 3 "Generated_Source\\PSoC4/pwm1.h"
 198              		.file 4 "Generated_Source\\PSoC4/pwm2.h"
 199              		.file 5 "Generated_Source\\PSoC4/pwm3.h"
 200              		.file 6 "Generated_Source\\PSoC4/clock.h"
 201              		.file 7 "Generated_Source\\PSoC4/capsense_Control.h"
 202              		.file 8 "Generated_Source\\PSoC4/capsense_Filter.h"
 203              		.file 9 "Generated_Source\\PSoC4/capsense_Sensing.h"
 204              		.file 10 "Generated_Source\\PSoC4/CyLib.h"