ARM GAS  C:\Users\ASUS\AppData\Local\Temp\ccqnpBjk.s 			page 1


   1              		.syntax unified
   2              		.cpu cortex-m0plus
   3              		.fpu softvfp
   4              		.eabi_attribute 20, 1
   5              		.eabi_attribute 21, 1
   6              		.eabi_attribute 23, 3
   7              		.eabi_attribute 24, 1
   8              		.eabi_attribute 25, 1
   9              		.eabi_attribute 26, 1
  10              		.eabi_attribute 30, 1
  11              		.eabi_attribute 34, 0
  12              		.eabi_attribute 18, 4
  13              		.thumb
  14              		.syntax unified
  15              		.file	"capsense_Centroid_LL.c"
  16              		.text
  17              	.Ltext0:
  18              		.cfi_sections	.debug_frame
  19              		.section	.text.capsense_DpFindLocalMaxSd,"ax",%progbits
  20              		.align	2
  21              		.global	capsense_DpFindLocalMaxSd
  22              		.code	16
  23              		.thumb_func
  24              		.type	capsense_DpFindLocalMaxSd, %function
  25              	capsense_DpFindLocalMaxSd:
  26              	.LFB1:
  27              		.file 1 "Generated_Source\\PSoC4\\capsense_Centroid_LL.c"
   1:Generated_Source\PSoC4/capsense_Centroid_LL.c **** /***************************************************************************//**
   2:Generated_Source\PSoC4/capsense_Centroid_LL.c **** * \file capsense_Centroid_LL.c
   3:Generated_Source\PSoC4/capsense_Centroid_LL.c **** * \version 7.10
   4:Generated_Source\PSoC4/capsense_Centroid_LL.c **** *
   5:Generated_Source\PSoC4/capsense_Centroid_LL.c **** * \brief
   6:Generated_Source\PSoC4/capsense_Centroid_LL.c **** *   This file provides the source code for the centroid calculation methods
   7:Generated_Source\PSoC4/capsense_Centroid_LL.c **** *   of the Component.
   8:Generated_Source\PSoC4/capsense_Centroid_LL.c **** *
   9:Generated_Source\PSoC4/capsense_Centroid_LL.c **** * \see capsense v7.10 Datasheet
  10:Generated_Source\PSoC4/capsense_Centroid_LL.c **** *
  11:Generated_Source\PSoC4/capsense_Centroid_LL.c **** *//*****************************************************************************
  12:Generated_Source\PSoC4/capsense_Centroid_LL.c **** * Copyright (2016-2019), Cypress Semiconductor Corporation.
  13:Generated_Source\PSoC4/capsense_Centroid_LL.c **** ********************************************************************************
  14:Generated_Source\PSoC4/capsense_Centroid_LL.c **** * This software is owned by Cypress Semiconductor Corporation (Cypress) and is
  15:Generated_Source\PSoC4/capsense_Centroid_LL.c **** * protected by and subject to worldwide patent protection (United States and
  16:Generated_Source\PSoC4/capsense_Centroid_LL.c **** * foreign), United States copyright laws and international treaty provisions.
  17:Generated_Source\PSoC4/capsense_Centroid_LL.c **** * Cypress hereby grants to licensee a personal, non-exclusive, non-transferable
  18:Generated_Source\PSoC4/capsense_Centroid_LL.c **** * license to copy, use, modify, create derivative works of, and compile the
  19:Generated_Source\PSoC4/capsense_Centroid_LL.c **** * Cypress Source Code and derivative works for the sole purpose of creating
  20:Generated_Source\PSoC4/capsense_Centroid_LL.c **** * custom software in support of licensee product to be used only in conjunction
  21:Generated_Source\PSoC4/capsense_Centroid_LL.c **** * with a Cypress integrated circuit as specified in the applicable agreement.
  22:Generated_Source\PSoC4/capsense_Centroid_LL.c **** * Any reproduction, modification, translation, compilation, or representation of
  23:Generated_Source\PSoC4/capsense_Centroid_LL.c **** * this software except as specified above is prohibited without the express
  24:Generated_Source\PSoC4/capsense_Centroid_LL.c **** * written permission of Cypress.
  25:Generated_Source\PSoC4/capsense_Centroid_LL.c **** *
  26:Generated_Source\PSoC4/capsense_Centroid_LL.c **** * Disclaimer: CYPRESS MAKES NO WARRANTY OF ANY KIND, EXPRESS OR IMPLIED, WITH
  27:Generated_Source\PSoC4/capsense_Centroid_LL.c **** * REGARD TO THIS MATERIAL, INCLUDING, BUT NOT LIMITED TO, THE IMPLIED
  28:Generated_Source\PSoC4/capsense_Centroid_LL.c **** * WARRANTIES OF MERCHANTABILITY AND FITNESS FOR A PARTICULAR PURPOSE.
  29:Generated_Source\PSoC4/capsense_Centroid_LL.c **** * Cypress reserves the right to make changes without further notice to the
  30:Generated_Source\PSoC4/capsense_Centroid_LL.c **** * materials described herein. Cypress does not assume any liability arising out
ARM GAS  C:\Users\ASUS\AppData\Local\Temp\ccqnpBjk.s 			page 2


  31:Generated_Source\PSoC4/capsense_Centroid_LL.c **** * of the application or use of any product or circuit described herein. Cypress
  32:Generated_Source\PSoC4/capsense_Centroid_LL.c **** * does not authorize its products for use as critical components in life-support
  33:Generated_Source\PSoC4/capsense_Centroid_LL.c **** * systems where a malfunction or failure may reasonably be expected to result in
  34:Generated_Source\PSoC4/capsense_Centroid_LL.c **** * significant injury to the user. The inclusion of Cypress' product in a life-
  35:Generated_Source\PSoC4/capsense_Centroid_LL.c **** * support systems application implies that the manufacturer assumes all risk of
  36:Generated_Source\PSoC4/capsense_Centroid_LL.c **** * such use and in doing so indemnifies Cypress against all charges. Use may be
  37:Generated_Source\PSoC4/capsense_Centroid_LL.c **** * limited by and subject to the applicable Cypress software license agreement.
  38:Generated_Source\PSoC4/capsense_Centroid_LL.c **** *******************************************************************************/
  39:Generated_Source\PSoC4/capsense_Centroid_LL.c **** 
  40:Generated_Source\PSoC4/capsense_Centroid_LL.c **** #include "cytypes.h"
  41:Generated_Source\PSoC4/capsense_Centroid_LL.c **** #include "CyLib.h"
  42:Generated_Source\PSoC4/capsense_Centroid_LL.c **** #include "capsense_Centroid_LL.h"
  43:Generated_Source\PSoC4/capsense_Centroid_LL.c **** #include "capsense_Configuration.h"
  44:Generated_Source\PSoC4/capsense_Centroid_LL.c **** #include "capsense_Structure.h"
  45:Generated_Source\PSoC4/capsense_Centroid_LL.c **** #include "capsense_Filter.h"
  46:Generated_Source\PSoC4/capsense_Centroid_LL.c **** 
  47:Generated_Source\PSoC4/capsense_Centroid_LL.c **** /*******************************************************************************
  48:Generated_Source\PSoC4/capsense_Centroid_LL.c **** * Local definition
  49:Generated_Source\PSoC4/capsense_Centroid_LL.c **** *******************************************************************************/
  50:Generated_Source\PSoC4/capsense_Centroid_LL.c **** #if capsense_CSX_TOUCHPAD_WIDGET_EN
  51:Generated_Source\PSoC4/capsense_Centroid_LL.c ****     #define capsense_CSX_TOUCHPAD_BUFFER_SIZE \
  52:Generated_Source\PSoC4/capsense_Centroid_LL.c ****             (((capsense_CSX_MAX_LOCAL_PEAKS + 3u) * sizeof(int8)) +                                
  53:Generated_Source\PSoC4/capsense_Centroid_LL.c ****             (capsense_CSX_MAX_LOCAL_PEAKS * capsense_CSX_MAX_LOCAL_PEAKS * sizeof(int32)) + /* dist
  54:Generated_Source\PSoC4/capsense_Centroid_LL.c ****             (capsense_CSX_MAX_LOCAL_PEAKS * sizeof(int32)) +                                       
  55:Generated_Source\PSoC4/capsense_Centroid_LL.c ****             (capsense_CSX_MAX_LOCAL_PEAKS * sizeof(int8)) +                                        
  56:Generated_Source\PSoC4/capsense_Centroid_LL.c ****             (capsense_CSX_MAX_LOCAL_PEAKS * sizeof(int8)) +                                        
  57:Generated_Source\PSoC4/capsense_Centroid_LL.c ****             (capsense_CSX_MAX_LOCAL_PEAKS * sizeof(int8)))                                         
  58:Generated_Source\PSoC4/capsense_Centroid_LL.c **** 
  59:Generated_Source\PSoC4/capsense_Centroid_LL.c ****     #define capsense_CSX_TOUCHPAD_FT_ON_FAIL                (0x81u)
  60:Generated_Source\PSoC4/capsense_Centroid_LL.c ****     #define capsense_CSX_TOUCHPAD_TOUCH_ABSENT_ID           (0x82u)
  61:Generated_Source\PSoC4/capsense_Centroid_LL.c ****     #define capsense_CSX_TOUCHPAD_DEBOUNCE_ENABLE           (0u)
  62:Generated_Source\PSoC4/capsense_Centroid_LL.c ****     #define capsense_CSX_TOUCHPAD_TOUCH_MIN_ID              (0u)
  63:Generated_Source\PSoC4/capsense_Centroid_LL.c ****     #define capsense_CSX_TOUCHPAD_TOUCH_MAX_ID              (capsense_CSX_MAX_LOCAL_PEAKS - 1u)
  64:Generated_Source\PSoC4/capsense_Centroid_LL.c ****     #define capsense_CSX_TOUCHPAD_INT32                     (0x7FFFFFFFu)
  65:Generated_Source\PSoC4/capsense_Centroid_LL.c ****     #define capsense_CSX_TOUCHPAD_TOUCH_DOWN                (0x80u)
  66:Generated_Source\PSoC4/capsense_Centroid_LL.c ****     #define capsense_CSX_TOUCHPAD_LIFT_OFF                  (0x40u)
  67:Generated_Source\PSoC4/capsense_Centroid_LL.c ****     #define capsense_CSX_TOUCHPAD_DEBOUNCE_MASK             (0x3Fu)
  68:Generated_Source\PSoC4/capsense_Centroid_LL.c ****     #define capsense_CSX_TOUCHPAD_POSITION_NONE             (0xFFFFu)
  69:Generated_Source\PSoC4/capsense_Centroid_LL.c ****     #define capsense_CSX_TOUCHPAD_Z_SHIFT                   (0x04u)
  70:Generated_Source\PSoC4/capsense_Centroid_LL.c ****     #define capsense_CSX_TOUCHPAD_PADDING                   (3Lu)
  71:Generated_Source\PSoC4/capsense_Centroid_LL.c ****     #define capsense_CSX_TOUCHPAD_CENTROID_LENGTH           (3u)
  72:Generated_Source\PSoC4/capsense_Centroid_LL.c ****     #define capsense_CSX_TOUCHPAD_CENTROID_PREVIOUS         (0u)
  73:Generated_Source\PSoC4/capsense_Centroid_LL.c ****     #define capsense_CSX_TOUCHPAD_CENTROID_CENTER           (1u)
  74:Generated_Source\PSoC4/capsense_Centroid_LL.c ****     #define capsense_CSX_TOUCHPAD_CENTROID_NEXT             (2u)
  75:Generated_Source\PSoC4/capsense_Centroid_LL.c **** 
  76:Generated_Source\PSoC4/capsense_Centroid_LL.c **** #endif /* capsense_CSX_TOUCHPAD_WIDGET_EN */
  77:Generated_Source\PSoC4/capsense_Centroid_LL.c **** 
  78:Generated_Source\PSoC4/capsense_Centroid_LL.c **** /*******************************************************************************
  79:Generated_Source\PSoC4/capsense_Centroid_LL.c **** * Static variables definition
  80:Generated_Source\PSoC4/capsense_Centroid_LL.c **** *******************************************************************************/
  81:Generated_Source\PSoC4/capsense_Centroid_LL.c **** #if ((capsense_ENABLE == capsense_CENTROID_3X3_CSD_EN) || \
  82:Generated_Source\PSoC4/capsense_Centroid_LL.c ****      (capsense_ENABLE  == capsense_SLIDER_WIDGET_EN))
  83:Generated_Source\PSoC4/capsense_Centroid_LL.c ****     static uint8 localMax[capsense_NUM_CENTROIDS];
  84:Generated_Source\PSoC4/capsense_Centroid_LL.c ****     static capsense_THRESHOLD_TYPE localDiffArray[capsense_NUM_CENTROIDS][3u];
  85:Generated_Source\PSoC4/capsense_Centroid_LL.c ****     static uint8 localMaxIndex;
  86:Generated_Source\PSoC4/capsense_Centroid_LL.c **** #endif
  87:Generated_Source\PSoC4/capsense_Centroid_LL.c **** 
ARM GAS  C:\Users\ASUS\AppData\Local\Temp\ccqnpBjk.s 			page 3


  88:Generated_Source\PSoC4/capsense_Centroid_LL.c **** #if ( 0u !=capsense_CSX_TOUCHPAD_WIDGET_EN)
  89:Generated_Source\PSoC4/capsense_Centroid_LL.c ****     static capsense_CSX_TOUCHPAD_DATA_STRUCT newTouches;
  90:Generated_Source\PSoC4/capsense_Centroid_LL.c ****     static capsense_CSX_TOUCHPAD_DATA_STRUCT *ptrNewTouches = &newTouches;
  91:Generated_Source\PSoC4/capsense_Centroid_LL.c ****     static uint8 newActiveIDs = 0u;
  92:Generated_Source\PSoC4/capsense_Centroid_LL.c ****     static uint8 oldActiveIDs = 0u;
  93:Generated_Source\PSoC4/capsense_Centroid_LL.c **** 
  94:Generated_Source\PSoC4/capsense_Centroid_LL.c ****     typedef int32 capsense_CSX_TOUCHPAD_DISTANCE_MAP[capsense_CSX_MAX_LOCAL_PEAKS];
  95:Generated_Source\PSoC4/capsense_Centroid_LL.c **** #endif /* ( 0u !=capsense_CSX_TOUCHPAD_WIDGET_EN) */
  96:Generated_Source\PSoC4/capsense_Centroid_LL.c **** 
  97:Generated_Source\PSoC4/capsense_Centroid_LL.c **** /*******************************************************************************
  98:Generated_Source\PSoC4/capsense_Centroid_LL.c **** * API Prototypes
  99:Generated_Source\PSoC4/capsense_Centroid_LL.c **** *******************************************************************************/
 100:Generated_Source\PSoC4/capsense_Centroid_LL.c **** #if (((capsense_ENABLE == capsense_CENTROID_3X3_CSD_EN) || \
 101:Generated_Source\PSoC4/capsense_Centroid_LL.c ****       (capsense_ENABLE  == capsense_SLIDER_WIDGET_EN)) && \
 102:Generated_Source\PSoC4/capsense_Centroid_LL.c ****       (capsense_ENABLE == capsense_4PTS_LOCAL_MAX_EN))
 103:Generated_Source\PSoC4/capsense_Centroid_LL.c **** static void capsense_SaveLocalMax(capsense_RAM_SNS_STRUCT ptrSns[],
 104:Generated_Source\PSoC4/capsense_Centroid_LL.c ****                                                   uint32 snsCount, uint32 fingerThreshold, uint32 s
 105:Generated_Source\PSoC4/capsense_Centroid_LL.c **** #endif
 106:Generated_Source\PSoC4/capsense_Centroid_LL.c **** 
 107:Generated_Source\PSoC4/capsense_Centroid_LL.c **** #if (0u !=capsense_CSX_TOUCHPAD_WIDGET_EN)
 108:Generated_Source\PSoC4/capsense_Centroid_LL.c ****     static void capsense_TransferTouch(uint32 newIndex, uint32 oldIndex, capsense_CSX_TOUCHPAD_DATA
 109:Generated_Source\PSoC4/capsense_Centroid_LL.c ****     static void capsense_NewTouch(uint32 newIndex, uint8 onDebounce, uint16 fingerOnThreshold);
 110:Generated_Source\PSoC4/capsense_Centroid_LL.c ****     CY_INLINE static uint8 capsense_GetLowestId(uint16 idMask);
 111:Generated_Source\PSoC4/capsense_Centroid_LL.c ****     static uint32 capsense_CalcDistance(uint32 newIndex, uint32 oldIndex, capsense_CSX_TOUCHPAD_DAT
 112:Generated_Source\PSoC4/capsense_Centroid_LL.c ****     static void capsense_Hungarian(uint8 rowCount, uint8 colCount, int8 *fingerPosIndex,
 113:Generated_Source\PSoC4/capsense_Centroid_LL.c ****                                            capsense_CSX_TOUCHPAD_DISTANCE_MAP *distanceMap);
 114:Generated_Source\PSoC4/capsense_Centroid_LL.c ****     static void capsense_FillDistanceMap(capsense_CSX_TOUCHPAD_DISTANCE_MAP *distanceMap,
 115:Generated_Source\PSoC4/capsense_Centroid_LL.c ****                                                  capsense_CSX_TOUCHPAD_DATA_STRUCT *ptrOldTouches);
 116:Generated_Source\PSoC4/capsense_Centroid_LL.c ****     CY_INLINE static void capsense_TouchDownDebounce(void);
 117:Generated_Source\PSoC4/capsense_Centroid_LL.c ****     CY_INLINE static void capsense_SortByAge(void);
 118:Generated_Source\PSoC4/capsense_Centroid_LL.c ****     static void capsense_CopyTouchRecord(capsense_CSX_TOUCHPAD_PEAK_STRUCT *destination,
 119:Generated_Source\PSoC4/capsense_Centroid_LL.c ****                                                            capsense_CSX_TOUCHPAD_PEAK_STRUCT *sourc
 120:Generated_Source\PSoC4/capsense_Centroid_LL.c ****     #if (0u != capsense_OFF_DEBOUNCE_EN)
 121:Generated_Source\PSoC4/capsense_Centroid_LL.c ****     CY_INLINE static void capsense_LiftOffDebounce(uint8 offDebounce,
 122:Generated_Source\PSoC4/capsense_Centroid_LL.c ****                                                            capsense_CSX_TOUCHPAD_DATA_STRUCT *ptrOl
 123:Generated_Source\PSoC4/capsense_Centroid_LL.c ****     #endif /* (0u != capsense_OFF_DEBOUNCE_EN) */
 124:Generated_Source\PSoC4/capsense_Centroid_LL.c **** #endif /* (0u !=capsense_CSX_TOUCHPAD_WIDGET_EN) */
 125:Generated_Source\PSoC4/capsense_Centroid_LL.c **** 
 126:Generated_Source\PSoC4/capsense_Centroid_LL.c **** #if ((capsense_ENABLE == capsense_CENTROID_3X3_CSD_EN) || \
 127:Generated_Source\PSoC4/capsense_Centroid_LL.c ****      (capsense_ENABLE  == capsense_SLIDER_WIDGET_EN))
 128:Generated_Source\PSoC4/capsense_Centroid_LL.c **** #if (capsense_ENABLE == capsense_4PTS_LOCAL_MAX_EN)
 129:Generated_Source\PSoC4/capsense_Centroid_LL.c **** /*******************************************************************************
 130:Generated_Source\PSoC4/capsense_Centroid_LL.c **** * Function Name: capsense_DpFindLocalMaxSd4pts
 131:Generated_Source\PSoC4/capsense_Centroid_LL.c **** ****************************************************************************//**
 132:Generated_Source\PSoC4/capsense_Centroid_LL.c **** *
 133:Generated_Source\PSoC4/capsense_Centroid_LL.c **** * \brief
 134:Generated_Source\PSoC4/capsense_Centroid_LL.c **** *   Finds the maximum in the widget differences and prepares array with maximum difference
 135:Generated_Source\PSoC4/capsense_Centroid_LL.c **** *   and it's neighbour differences in Legacy mode (only one touch can be found).
 136:Generated_Source\PSoC4/capsense_Centroid_LL.c **** *   Finds the maxima in the widget differences and prepares arrays with maxima difference
 137:Generated_Source\PSoC4/capsense_Centroid_LL.c **** *   and theirs neighbour differences in Multi-Touch mode (maximum three touches can be found).
 138:Generated_Source\PSoC4/capsense_Centroid_LL.c **** *   This API is used in conjunction with capsense_DpCalcLinearCentroid or
 139:Generated_Source\PSoC4/capsense_Centroid_LL.c **** *   capsense__DpCalcRadialCentroid, because they use shared static data: localMax[],
 140:Generated_Source\PSoC4/capsense_Centroid_LL.c **** *   localDiffArray[][3u], localMaxIndex.
 141:Generated_Source\PSoC4/capsense_Centroid_LL.c **** *
 142:Generated_Source\PSoC4/capsense_Centroid_LL.c **** * \details
 143:Generated_Source\PSoC4/capsense_Centroid_LL.c **** *   The localMax[] is used to store the index of the maximum/maxima.
 144:Generated_Source\PSoC4/capsense_Centroid_LL.c **** *   The localDiffArray[][] is used to store values of the maximum/maxima and neighbour differences.
ARM GAS  C:\Users\ASUS\AppData\Local\Temp\ccqnpBjk.s 			page 4


 145:Generated_Source\PSoC4/capsense_Centroid_LL.c **** *   The localMaxIndex is used to store the number of maxima have been actually found.
 146:Generated_Source\PSoC4/capsense_Centroid_LL.c **** *   The used finding method checks for 4 points : current, next, previous and before previous
 147:Generated_Source\PSoC4/capsense_Centroid_LL.c **** *   sensor's position. Depends on these points differences it chooses the previous or before
 148:Generated_Source\PSoC4/capsense_Centroid_LL.c **** *   previous position. For radial sliders an closed character of a widget is taken into the account
 149:Generated_Source\PSoC4/capsense_Centroid_LL.c **** *
 150:Generated_Source\PSoC4/capsense_Centroid_LL.c **** * \param ptrFlashWdgt
 151:Generated_Source\PSoC4/capsense_Centroid_LL.c **** *   The pointer to the the widget flash structure.
 152:Generated_Source\PSoC4/capsense_Centroid_LL.c **** *
 153:Generated_Source\PSoC4/capsense_Centroid_LL.c **** * \param ptrSns
 154:Generated_Source\PSoC4/capsense_Centroid_LL.c **** *   The pointer to the the first sensor.
 155:Generated_Source\PSoC4/capsense_Centroid_LL.c **** *
 156:Generated_Source\PSoC4/capsense_Centroid_LL.c **** * \param snsCount
 157:Generated_Source\PSoC4/capsense_Centroid_LL.c **** *   The total sensor number in the widget.
 158:Generated_Source\PSoC4/capsense_Centroid_LL.c **** *
 159:Generated_Source\PSoC4/capsense_Centroid_LL.c **** * \param fingerThreshold
 160:Generated_Source\PSoC4/capsense_Centroid_LL.c **** *   The finger threshold in the widget.
 161:Generated_Source\PSoC4/capsense_Centroid_LL.c **** *
 162:Generated_Source\PSoC4/capsense_Centroid_LL.c **** * \return Returns the number of maxima found.
 163:Generated_Source\PSoC4/capsense_Centroid_LL.c **** *
 164:Generated_Source\PSoC4/capsense_Centroid_LL.c **** *******************************************************************************/
 165:Generated_Source\PSoC4/capsense_Centroid_LL.c **** uint32 capsense_DpFindLocalMaxSd4pts(capsense_FLASH_WD_STRUCT const *ptrFlashWdgt,
 166:Generated_Source\PSoC4/capsense_Centroid_LL.c ****                                               capsense_RAM_SNS_STRUCT ptrSns[],
 167:Generated_Source\PSoC4/capsense_Centroid_LL.c ****                                               uint32 snsCount, uint32 fingerThreshold)
 168:Generated_Source\PSoC4/capsense_Centroid_LL.c **** {
 169:Generated_Source\PSoC4/capsense_Centroid_LL.c ****     uint32 i;
 170:Generated_Source\PSoC4/capsense_Centroid_LL.c ****     capsense_RAM_SNS_STRUCT *localPtrSns = ptrSns;
 171:Generated_Source\PSoC4/capsense_Centroid_LL.c ****     localMaxIndex = 0u;
 172:Generated_Source\PSoC4/capsense_Centroid_LL.c ****     int32 slope0 = 0;
 173:Generated_Source\PSoC4/capsense_Centroid_LL.c ****     int32 slope1 = (int32)localPtrSns[0].diff;
 174:Generated_Source\PSoC4/capsense_Centroid_LL.c ****     int32 slope2 = 0;
 175:Generated_Source\PSoC4/capsense_Centroid_LL.c ****     int32 slopeLast = -(int32)localPtrSns[snsCount - 1u].diff;
 176:Generated_Source\PSoC4/capsense_Centroid_LL.c **** 
 177:Generated_Source\PSoC4/capsense_Centroid_LL.c ****     #if (0u != capsense_TOTAL_RADIAL_SLIDERS)
 178:Generated_Source\PSoC4/capsense_Centroid_LL.c ****         if ((capsense_WD_TYPE_ENUM)ptrFlashWdgt->wdgtType == capsense_WD_RADIAL_SLIDER_E)
 179:Generated_Source\PSoC4/capsense_Centroid_LL.c ****         {
 180:Generated_Source\PSoC4/capsense_Centroid_LL.c ****             slope1 = (int32)localPtrSns[0].diff - (int32)localPtrSns[snsCount - 1u].diff;
 181:Generated_Source\PSoC4/capsense_Centroid_LL.c ****             slope2 = (int32)localPtrSns[snsCount - 1u].diff - (int32)localPtrSns[snsCount - 2u].dif
 182:Generated_Source\PSoC4/capsense_Centroid_LL.c ****             slopeLast = slope1;
 183:Generated_Source\PSoC4/capsense_Centroid_LL.c ****         }
 184:Generated_Source\PSoC4/capsense_Centroid_LL.c ****     #else
 185:Generated_Source\PSoC4/capsense_Centroid_LL.c ****         /* Typecast the parameter to avoid a compiler warning */
 186:Generated_Source\PSoC4/capsense_Centroid_LL.c ****         (void) ptrFlashWdgt;
 187:Generated_Source\PSoC4/capsense_Centroid_LL.c ****     #endif
 188:Generated_Source\PSoC4/capsense_Centroid_LL.c **** 
 189:Generated_Source\PSoC4/capsense_Centroid_LL.c ****     /* Search local maxima for sensorId from 0 to snsCount - 1 */
 190:Generated_Source\PSoC4/capsense_Centroid_LL.c ****     for (i = 0uL; i < snsCount; i++ )
 191:Generated_Source\PSoC4/capsense_Centroid_LL.c ****     {
 192:Generated_Source\PSoC4/capsense_Centroid_LL.c ****         /* Check for the last sensor */
 193:Generated_Source\PSoC4/capsense_Centroid_LL.c ****         if ((snsCount - 1uL) == i)
 194:Generated_Source\PSoC4/capsense_Centroid_LL.c ****         {
 195:Generated_Source\PSoC4/capsense_Centroid_LL.c ****             slope0 = slopeLast;
 196:Generated_Source\PSoC4/capsense_Centroid_LL.c ****         }
 197:Generated_Source\PSoC4/capsense_Centroid_LL.c ****         else
 198:Generated_Source\PSoC4/capsense_Centroid_LL.c ****         {
 199:Generated_Source\PSoC4/capsense_Centroid_LL.c ****             slope0 = (int32)localPtrSns[i + 1u].diff - (int32)localPtrSns[i].diff;
 200:Generated_Source\PSoC4/capsense_Centroid_LL.c ****         }
 201:Generated_Source\PSoC4/capsense_Centroid_LL.c **** 
ARM GAS  C:\Users\ASUS\AppData\Local\Temp\ccqnpBjk.s 			page 5


 202:Generated_Source\PSoC4/capsense_Centroid_LL.c ****         if(0 > slope0)
 203:Generated_Source\PSoC4/capsense_Centroid_LL.c ****         {
 204:Generated_Source\PSoC4/capsense_Centroid_LL.c ****             if(0 < slope1)
 205:Generated_Source\PSoC4/capsense_Centroid_LL.c ****             {
 206:Generated_Source\PSoC4/capsense_Centroid_LL.c ****                 capsense_SaveLocalMax(ptrSns, snsCount, fingerThreshold, i);
 207:Generated_Source\PSoC4/capsense_Centroid_LL.c ****             }
 208:Generated_Source\PSoC4/capsense_Centroid_LL.c ****             else
 209:Generated_Source\PSoC4/capsense_Centroid_LL.c ****             {
 210:Generated_Source\PSoC4/capsense_Centroid_LL.c ****                 if(0 == slope1)
 211:Generated_Source\PSoC4/capsense_Centroid_LL.c ****                 {
 212:Generated_Source\PSoC4/capsense_Centroid_LL.c ****                     if(0 == slope2)
 213:Generated_Source\PSoC4/capsense_Centroid_LL.c ****                     {
 214:Generated_Source\PSoC4/capsense_Centroid_LL.c ****                         capsense_SaveLocalMax(ptrSns, snsCount, fingerThreshold, (i - 1uL));
 215:Generated_Source\PSoC4/capsense_Centroid_LL.c ****                     }
 216:Generated_Source\PSoC4/capsense_Centroid_LL.c ****                     else
 217:Generated_Source\PSoC4/capsense_Centroid_LL.c ****                     {
 218:Generated_Source\PSoC4/capsense_Centroid_LL.c ****                         if (0 < slope2)
 219:Generated_Source\PSoC4/capsense_Centroid_LL.c ****                         {
 220:Generated_Source\PSoC4/capsense_Centroid_LL.c ****                             if (slope2 > (-slope0))
 221:Generated_Source\PSoC4/capsense_Centroid_LL.c ****                             {
 222:Generated_Source\PSoC4/capsense_Centroid_LL.c ****                                 capsense_SaveLocalMax(ptrSns, snsCount, fingerThreshold, i);
 223:Generated_Source\PSoC4/capsense_Centroid_LL.c ****                             }
 224:Generated_Source\PSoC4/capsense_Centroid_LL.c ****                             else
 225:Generated_Source\PSoC4/capsense_Centroid_LL.c ****                             {
 226:Generated_Source\PSoC4/capsense_Centroid_LL.c ****                                 capsense_SaveLocalMax(ptrSns, snsCount, fingerThreshold, (i - 1uL))
 227:Generated_Source\PSoC4/capsense_Centroid_LL.c ****                             }
 228:Generated_Source\PSoC4/capsense_Centroid_LL.c ****                         }
 229:Generated_Source\PSoC4/capsense_Centroid_LL.c ****                     }
 230:Generated_Source\PSoC4/capsense_Centroid_LL.c ****                 }
 231:Generated_Source\PSoC4/capsense_Centroid_LL.c ****             }
 232:Generated_Source\PSoC4/capsense_Centroid_LL.c ****             if (localMaxIndex >= capsense_NUM_CENTROIDS)
 233:Generated_Source\PSoC4/capsense_Centroid_LL.c ****             {
 234:Generated_Source\PSoC4/capsense_Centroid_LL.c ****                 break;
 235:Generated_Source\PSoC4/capsense_Centroid_LL.c ****             }
 236:Generated_Source\PSoC4/capsense_Centroid_LL.c ****         }
 237:Generated_Source\PSoC4/capsense_Centroid_LL.c ****         slope2 = slope1;
 238:Generated_Source\PSoC4/capsense_Centroid_LL.c ****         slope1 = slope0;
 239:Generated_Source\PSoC4/capsense_Centroid_LL.c ****     }
 240:Generated_Source\PSoC4/capsense_Centroid_LL.c **** 
 241:Generated_Source\PSoC4/capsense_Centroid_LL.c ****     return (uint32)(localMaxIndex);
 242:Generated_Source\PSoC4/capsense_Centroid_LL.c **** }
 243:Generated_Source\PSoC4/capsense_Centroid_LL.c **** 
 244:Generated_Source\PSoC4/capsense_Centroid_LL.c **** /*******************************************************************************
 245:Generated_Source\PSoC4/capsense_Centroid_LL.c **** * Function Name: capsense_SaveLocalMax
 246:Generated_Source\PSoC4/capsense_Centroid_LL.c **** ****************************************************************************//**
 247:Generated_Source\PSoC4/capsense_Centroid_LL.c **** *
 248:Generated_Source\PSoC4/capsense_Centroid_LL.c **** * \brief
 249:Generated_Source\PSoC4/capsense_Centroid_LL.c **** *   Stores a found local maximum in the arrays.
 250:Generated_Source\PSoC4/capsense_Centroid_LL.c **** *
 251:Generated_Source\PSoC4/capsense_Centroid_LL.c **** * \details
 252:Generated_Source\PSoC4/capsense_Centroid_LL.c **** *   Stores a found local maximum in the localMax array if the difference is greater
 253:Generated_Source\PSoC4/capsense_Centroid_LL.c **** *   than a finger threshold. Prepares arrays with maximum neighbour differences for
 254:Generated_Source\PSoC4/capsense_Centroid_LL.c **** *   position calculations.
 255:Generated_Source\PSoC4/capsense_Centroid_LL.c **** *
 256:Generated_Source\PSoC4/capsense_Centroid_LL.c **** * \param *ptrSns
 257:Generated_Source\PSoC4/capsense_Centroid_LL.c **** *   A pointer to sensor RAM structure of a found local maximum.
 258:Generated_Source\PSoC4/capsense_Centroid_LL.c **** *
ARM GAS  C:\Users\ASUS\AppData\Local\Temp\ccqnpBjk.s 			page 6


 259:Generated_Source\PSoC4/capsense_Centroid_LL.c **** * \param snsCount
 260:Generated_Source\PSoC4/capsense_Centroid_LL.c **** *   The total sensor number in the widget.
 261:Generated_Source\PSoC4/capsense_Centroid_LL.c **** *
 262:Generated_Source\PSoC4/capsense_Centroid_LL.c **** * \param fingerThreshold
 263:Generated_Source\PSoC4/capsense_Centroid_LL.c **** *   A fingerThreshold to compare with a sensor difference.
 264:Generated_Source\PSoC4/capsense_Centroid_LL.c **** *
 265:Generated_Source\PSoC4/capsense_Centroid_LL.c **** * \param snsIndex
 266:Generated_Source\PSoC4/capsense_Centroid_LL.c **** *   An index of a sensor with a found local maximum.
 267:Generated_Source\PSoC4/capsense_Centroid_LL.c **** *
 268:Generated_Source\PSoC4/capsense_Centroid_LL.c **** *******************************************************************************/
 269:Generated_Source\PSoC4/capsense_Centroid_LL.c **** static void capsense_SaveLocalMax(capsense_RAM_SNS_STRUCT ptrSns[],
 270:Generated_Source\PSoC4/capsense_Centroid_LL.c ****                                                     uint32 snsCount, uint32 fingerThreshold, uint32
 271:Generated_Source\PSoC4/capsense_Centroid_LL.c **** {
 272:Generated_Source\PSoC4/capsense_Centroid_LL.c ****     capsense_THRESHOLD_TYPE currentDiff = ptrSns[snsIndex].diff;
 273:Generated_Source\PSoC4/capsense_Centroid_LL.c **** 
 274:Generated_Source\PSoC4/capsense_Centroid_LL.c ****     if (currentDiff > fingerThreshold)
 275:Generated_Source\PSoC4/capsense_Centroid_LL.c ****     {
 276:Generated_Source\PSoC4/capsense_Centroid_LL.c ****         /* Store found Peak */
 277:Generated_Source\PSoC4/capsense_Centroid_LL.c ****         localMax[localMaxIndex] = (uint8)snsIndex;
 278:Generated_Source\PSoC4/capsense_Centroid_LL.c ****         localDiffArray[localMaxIndex][capsense_CENTROID_POS] = currentDiff;
 279:Generated_Source\PSoC4/capsense_Centroid_LL.c **** 
 280:Generated_Source\PSoC4/capsense_Centroid_LL.c ****         /* Store neighbour differences */
 281:Generated_Source\PSoC4/capsense_Centroid_LL.c ****         if (snsIndex == 0u)
 282:Generated_Source\PSoC4/capsense_Centroid_LL.c ****         {
 283:Generated_Source\PSoC4/capsense_Centroid_LL.c ****             localDiffArray[localMaxIndex][capsense_CENTROID_POS_PREV] = ptrSns[snsCount - 1u].diff;
 284:Generated_Source\PSoC4/capsense_Centroid_LL.c ****             localDiffArray[localMaxIndex][capsense_CENTROID_POS_NEXT] = ptrSns[snsIndex + 1u].diff;
 285:Generated_Source\PSoC4/capsense_Centroid_LL.c ****         }
 286:Generated_Source\PSoC4/capsense_Centroid_LL.c ****         else if (snsIndex == (snsCount - 1u))
 287:Generated_Source\PSoC4/capsense_Centroid_LL.c ****         {
 288:Generated_Source\PSoC4/capsense_Centroid_LL.c ****             localDiffArray[localMaxIndex][capsense_CENTROID_POS_PREV] = ptrSns[snsIndex - 1u].diff;
 289:Generated_Source\PSoC4/capsense_Centroid_LL.c ****             localDiffArray[localMaxIndex][capsense_CENTROID_POS_NEXT] = ptrSns[0u].diff;
 290:Generated_Source\PSoC4/capsense_Centroid_LL.c ****         }
 291:Generated_Source\PSoC4/capsense_Centroid_LL.c ****         else
 292:Generated_Source\PSoC4/capsense_Centroid_LL.c ****         {
 293:Generated_Source\PSoC4/capsense_Centroid_LL.c ****             localDiffArray[localMaxIndex][capsense_CENTROID_POS_PREV] = ptrSns[snsIndex - 1u].diff;
 294:Generated_Source\PSoC4/capsense_Centroid_LL.c ****             localDiffArray[localMaxIndex][capsense_CENTROID_POS_NEXT] = ptrSns[snsIndex + 1u].diff;
 295:Generated_Source\PSoC4/capsense_Centroid_LL.c ****         }
 296:Generated_Source\PSoC4/capsense_Centroid_LL.c **** 
 297:Generated_Source\PSoC4/capsense_Centroid_LL.c ****         localMaxIndex++;
 298:Generated_Source\PSoC4/capsense_Centroid_LL.c ****     }
 299:Generated_Source\PSoC4/capsense_Centroid_LL.c **** }
 300:Generated_Source\PSoC4/capsense_Centroid_LL.c **** #else /* (capsense_ENABLE == capsense_4PTS_LOCAL_MAX_EN) */
 301:Generated_Source\PSoC4/capsense_Centroid_LL.c **** 
 302:Generated_Source\PSoC4/capsense_Centroid_LL.c **** /*******************************************************************************
 303:Generated_Source\PSoC4/capsense_Centroid_LL.c **** * Function Name: capsense_DpFindLocalMaxSd
 304:Generated_Source\PSoC4/capsense_Centroid_LL.c **** ****************************************************************************//**
 305:Generated_Source\PSoC4/capsense_Centroid_LL.c **** *
 306:Generated_Source\PSoC4/capsense_Centroid_LL.c **** * \brief
 307:Generated_Source\PSoC4/capsense_Centroid_LL.c **** *   Finds the maximum in the widget differences and prepares array with maximum difference
 308:Generated_Source\PSoC4/capsense_Centroid_LL.c **** *   and it's neighbour differences in Legacy mode (only one touch can be found).
 309:Generated_Source\PSoC4/capsense_Centroid_LL.c **** *   Finds the maxima in the widget differences and prepares arrays with maxima difference
 310:Generated_Source\PSoC4/capsense_Centroid_LL.c **** *   and theirs neighbour differences in Multi-Touch mode (maximum three touches can be found).
 311:Generated_Source\PSoC4/capsense_Centroid_LL.c **** *   This API is used in conjunction with capsense_DpCalcLinearCentroid or
 312:Generated_Source\PSoC4/capsense_Centroid_LL.c **** *   capsense__DpCalcRadialCentroid, because they use shared static data: localMax[],
 313:Generated_Source\PSoC4/capsense_Centroid_LL.c **** *   localDiffArray[][3u], localMaxIndex.
 314:Generated_Source\PSoC4/capsense_Centroid_LL.c **** *
 315:Generated_Source\PSoC4/capsense_Centroid_LL.c **** * \details
ARM GAS  C:\Users\ASUS\AppData\Local\Temp\ccqnpBjk.s 			page 7


 316:Generated_Source\PSoC4/capsense_Centroid_LL.c **** *   The localMax[] is used to store the index of the maximum/maxima.
 317:Generated_Source\PSoC4/capsense_Centroid_LL.c **** *   The localDiffArray[][] is used to store values of the maximum/maxima and neighbour differences.
 318:Generated_Source\PSoC4/capsense_Centroid_LL.c **** *   The localMaxIndex is used to store the number of maxima have been actually found.
 319:Generated_Source\PSoC4/capsense_Centroid_LL.c **** *
 320:Generated_Source\PSoC4/capsense_Centroid_LL.c **** * \param ptrSns The pointer to the first sensor.
 321:Generated_Source\PSoC4/capsense_Centroid_LL.c **** * \param snsCount The total sensor number in the widget.
 322:Generated_Source\PSoC4/capsense_Centroid_LL.c **** * \param fingerThreshold The finger threshold in the widget.
 323:Generated_Source\PSoC4/capsense_Centroid_LL.c **** *
 324:Generated_Source\PSoC4/capsense_Centroid_LL.c **** * \return Returns the number of maxima found.
 325:Generated_Source\PSoC4/capsense_Centroid_LL.c **** *
 326:Generated_Source\PSoC4/capsense_Centroid_LL.c **** *******************************************************************************/
 327:Generated_Source\PSoC4/capsense_Centroid_LL.c **** uint32 capsense_DpFindLocalMaxSd(capsense_RAM_SNS_STRUCT ptrSns[], uint32 snsCount,
 328:Generated_Source\PSoC4/capsense_Centroid_LL.c ****                                                                                    uint32 fingerThr
 329:Generated_Source\PSoC4/capsense_Centroid_LL.c **** {
  28              		.loc 1 329 0
  29              		.cfi_startproc
  30              		@ args = 0, pretend = 0, frame = 0
  31              		@ frame_needed = 0, uses_anonymous_args = 0
  32              	.LVL0:
  33 0000 F0B5     		push	{r4, r5, r6, r7, lr}
  34              		.cfi_def_cfa_offset 20
  35              		.cfi_offset 4, -20
  36              		.cfi_offset 5, -16
  37              		.cfi_offset 6, -12
  38              		.cfi_offset 7, -8
  39              		.cfi_offset 14, -4
  40              	.LVL1:
 330:Generated_Source\PSoC4/capsense_Centroid_LL.c ****     uint32 i;
 331:Generated_Source\PSoC4/capsense_Centroid_LL.c ****     uint32 sensorId;
 332:Generated_Source\PSoC4/capsense_Centroid_LL.c **** 
 333:Generated_Source\PSoC4/capsense_Centroid_LL.c ****     #if (capsense_NUM_CENTROIDS == 0x01u)
 334:Generated_Source\PSoC4/capsense_Centroid_LL.c ****         capsense_RAM_SNS_STRUCT *localPtrSns = ptrSns;
 335:Generated_Source\PSoC4/capsense_Centroid_LL.c ****         capsense_THRESHOLD_TYPE temp = 0u;
 336:Generated_Source\PSoC4/capsense_Centroid_LL.c ****     #endif
 337:Generated_Source\PSoC4/capsense_Centroid_LL.c **** 
 338:Generated_Source\PSoC4/capsense_Centroid_LL.c ****     localMaxIndex = 0u;
  41              		.loc 1 338 0
  42 0002 0024     		movs	r4, #0
  43 0004 334B     		ldr	r3, .L12
  44 0006 1C70     		strb	r4, [r3]
  45              	.LVL2:
 334:Generated_Source\PSoC4/capsense_Centroid_LL.c ****         capsense_THRESHOLD_TYPE temp = 0u;
  46              		.loc 1 334 0
  47 0008 0400     		movs	r4, r0
 335:Generated_Source\PSoC4/capsense_Centroid_LL.c ****     #endif
  48              		.loc 1 335 0
  49 000a 0026     		movs	r6, #0
 339:Generated_Source\PSoC4/capsense_Centroid_LL.c **** 
 340:Generated_Source\PSoC4/capsense_Centroid_LL.c ****     #if (capsense_NUM_CENTROIDS == 0x01u)
 341:Generated_Source\PSoC4/capsense_Centroid_LL.c ****         for (sensorId = 0u; sensorId < snsCount; sensorId++)
  50              		.loc 1 341 0
  51 000c 0023     		movs	r3, #0
  52 000e 0BE0     		b	.L2
  53              	.LVL3:
  54              	.L4:
 342:Generated_Source\PSoC4/capsense_Centroid_LL.c ****         {
 343:Generated_Source\PSoC4/capsense_Centroid_LL.c ****             if ((localPtrSns->diff > fingerThreshold) && (localPtrSns->diff > temp))
ARM GAS  C:\Users\ASUS\AppData\Local\Temp\ccqnpBjk.s 			page 8


  55              		.loc 1 343 0
  56 0010 E588     		ldrh	r5, [r4, #6]
  57 0012 9542     		cmp	r5, r2
  58 0014 06D9     		bls	.L3
  59              		.loc 1 343 0 is_stmt 0 discriminator 1
  60 0016 AE42     		cmp	r6, r5
  61 0018 04D2     		bcs	.L3
 344:Generated_Source\PSoC4/capsense_Centroid_LL.c ****             {
 345:Generated_Source\PSoC4/capsense_Centroid_LL.c ****                 localMax[0u] = LO8(sensorId);
  62              		.loc 1 345 0 is_stmt 1
  63 001a 2E4E     		ldr	r6, .L12
  64              	.LVL4:
  65 001c 3371     		strb	r3, [r6, #4]
  66              	.LVL5:
 346:Generated_Source\PSoC4/capsense_Centroid_LL.c ****                 temp = localPtrSns->diff;
 347:Generated_Source\PSoC4/capsense_Centroid_LL.c ****                 localMaxIndex = 1u;
  67              		.loc 1 347 0
  68 001e 0127     		movs	r7, #1
  69 0020 3770     		strb	r7, [r6]
 346:Generated_Source\PSoC4/capsense_Centroid_LL.c ****                 temp = localPtrSns->diff;
  70              		.loc 1 346 0
  71 0022 2E00     		movs	r6, r5
  72              	.LVL6:
  73              	.L3:
 348:Generated_Source\PSoC4/capsense_Centroid_LL.c ****             }
 349:Generated_Source\PSoC4/capsense_Centroid_LL.c ****             localPtrSns++;
  74              		.loc 1 349 0 discriminator 2
  75 0024 0A34     		adds	r4, r4, #10
  76              	.LVL7:
 341:Generated_Source\PSoC4/capsense_Centroid_LL.c ****         {
  77              		.loc 1 341 0 discriminator 2
  78 0026 0133     		adds	r3, r3, #1
  79              	.LVL8:
  80              	.L2:
 341:Generated_Source\PSoC4/capsense_Centroid_LL.c ****         {
  81              		.loc 1 341 0 is_stmt 0 discriminator 1
  82 0028 8B42     		cmp	r3, r1
  83 002a F1D3     		bcc	.L4
 350:Generated_Source\PSoC4/capsense_Centroid_LL.c ****         }
 351:Generated_Source\PSoC4/capsense_Centroid_LL.c ****     #else /* (capsense_NUM_CENTROIDS == 0x01u) */
 352:Generated_Source\PSoC4/capsense_Centroid_LL.c **** 
 353:Generated_Source\PSoC4/capsense_Centroid_LL.c ****         if ((ptrSns[0u].diff > fingerThreshold) && (ptrSns[0u].diff >= ptrSns[1u].diff))
 354:Generated_Source\PSoC4/capsense_Centroid_LL.c ****         {
 355:Generated_Source\PSoC4/capsense_Centroid_LL.c ****             localMax[localMaxIndex] = 0u;
 356:Generated_Source\PSoC4/capsense_Centroid_LL.c ****             localMaxIndex = 1u;
 357:Generated_Source\PSoC4/capsense_Centroid_LL.c ****         }
 358:Generated_Source\PSoC4/capsense_Centroid_LL.c **** 
 359:Generated_Source\PSoC4/capsense_Centroid_LL.c ****         if ((ptrSns[snsCount - 1u].diff > fingerThreshold) && (ptrSns[snsCount - 1u].diff > ptrSns[
 360:Generated_Source\PSoC4/capsense_Centroid_LL.c ****         {
 361:Generated_Source\PSoC4/capsense_Centroid_LL.c ****             localMax[localMaxIndex] = (uint8)(snsCount - 1u);
 362:Generated_Source\PSoC4/capsense_Centroid_LL.c ****             localMaxIndex++;
 363:Generated_Source\PSoC4/capsense_Centroid_LL.c ****         }
 364:Generated_Source\PSoC4/capsense_Centroid_LL.c **** 
 365:Generated_Source\PSoC4/capsense_Centroid_LL.c ****         #if (capsense_NUM_CENTROIDS == 0x02u)
 366:Generated_Source\PSoC4/capsense_Centroid_LL.c ****             if (localMaxIndex < capsense_NUM_CENTROIDS)
 367:Generated_Source\PSoC4/capsense_Centroid_LL.c ****             {
 368:Generated_Source\PSoC4/capsense_Centroid_LL.c ****         #endif /* (capsense_NUM_CENTROIDS == 0x02u) */
ARM GAS  C:\Users\ASUS\AppData\Local\Temp\ccqnpBjk.s 			page 9


 369:Generated_Source\PSoC4/capsense_Centroid_LL.c ****                 for (sensorId = 1u; sensorId < (snsCount - 1u); sensorId++)
 370:Generated_Source\PSoC4/capsense_Centroid_LL.c ****                 {
 371:Generated_Source\PSoC4/capsense_Centroid_LL.c ****                     if ((ptrSns[sensorId].diff > fingerThreshold) && (ptrSns[sensorId].diff >= ptrS
 372:Generated_Source\PSoC4/capsense_Centroid_LL.c ****                     {
 373:Generated_Source\PSoC4/capsense_Centroid_LL.c ****                         if (ptrSns[sensorId].diff > ptrSns[sensorId - 1u].diff)
 374:Generated_Source\PSoC4/capsense_Centroid_LL.c ****                         {
 375:Generated_Source\PSoC4/capsense_Centroid_LL.c ****                             localMax[localMaxIndex] = (uint8)sensorId;
 376:Generated_Source\PSoC4/capsense_Centroid_LL.c ****                             localMaxIndex++;
 377:Generated_Source\PSoC4/capsense_Centroid_LL.c **** 
 378:Generated_Source\PSoC4/capsense_Centroid_LL.c ****                             if (localMaxIndex >= capsense_NUM_CENTROIDS)
 379:Generated_Source\PSoC4/capsense_Centroid_LL.c ****                             {
 380:Generated_Source\PSoC4/capsense_Centroid_LL.c ****                                 break;
 381:Generated_Source\PSoC4/capsense_Centroid_LL.c ****                             }
 382:Generated_Source\PSoC4/capsense_Centroid_LL.c ****                         }
 383:Generated_Source\PSoC4/capsense_Centroid_LL.c ****                     }
 384:Generated_Source\PSoC4/capsense_Centroid_LL.c ****                 }
 385:Generated_Source\PSoC4/capsense_Centroid_LL.c ****         #if (capsense_NUM_CENTROIDS == 0x02u)
 386:Generated_Source\PSoC4/capsense_Centroid_LL.c ****             }
 387:Generated_Source\PSoC4/capsense_Centroid_LL.c ****         #endif /* (capsense_NUM_CENTROIDS == 0x02u) */
 388:Generated_Source\PSoC4/capsense_Centroid_LL.c ****     #endif /* #if (capsense_NUM_CENTROIDS == 0x01u) */
 389:Generated_Source\PSoC4/capsense_Centroid_LL.c **** 
 390:Generated_Source\PSoC4/capsense_Centroid_LL.c ****     if (localMaxIndex != 0u)
  84              		.loc 1 390 0 is_stmt 1
  85 002c 294B     		ldr	r3, .L12
  86              	.LVL9:
  87 002e 1B78     		ldrb	r3, [r3]
  88 0030 002B     		cmp	r3, #0
  89 0032 46D1     		bne	.L11
  90 0034 4AE0     		b	.L6
  91              	.LVL10:
  92              	.L10:
 391:Generated_Source\PSoC4/capsense_Centroid_LL.c ****     {
 392:Generated_Source\PSoC4/capsense_Centroid_LL.c ****         /* Prepare single-dimension centroid calculation array */
 393:Generated_Source\PSoC4/capsense_Centroid_LL.c ****         for (i = 0u; i < localMaxIndex; i++)
 394:Generated_Source\PSoC4/capsense_Centroid_LL.c ****         {
 395:Generated_Source\PSoC4/capsense_Centroid_LL.c ****              localDiffArray[i][capsense_CENTROID_POS] = ptrSns[localMax[i]].diff;
  93              		.loc 1 395 0
  94 0036 274F     		ldr	r7, .L12
  95 0038 BB18     		adds	r3, r7, r2
  96 003a 1B79     		ldrb	r3, [r3, #4]
  97 003c 9E00     		lsls	r6, r3, #2
  98 003e F618     		adds	r6, r6, r3
  99 0040 7400     		lsls	r4, r6, #1
 100 0042 0519     		adds	r5, r0, r4
 101 0044 ED88     		ldrh	r5, [r5, #6]
 102 0046 AC46     		mov	ip, r5
 103 0048 5600     		lsls	r6, r2, #1
 104 004a B618     		adds	r6, r6, r2
 105 004c 7500     		lsls	r5, r6, #1
 106 004e 7D19     		adds	r5, r7, r5
 107 0050 6646     		mov	r6, ip
 108 0052 6E81     		strh	r6, [r5, #10]
 396:Generated_Source\PSoC4/capsense_Centroid_LL.c **** 
 397:Generated_Source\PSoC4/capsense_Centroid_LL.c ****             if (localMax[i] == 0u)
 109              		.loc 1 397 0
 110 0054 002B     		cmp	r3, #0
 111 0056 12D1     		bne	.L7
ARM GAS  C:\Users\ASUS\AppData\Local\Temp\ccqnpBjk.s 			page 10


 398:Generated_Source\PSoC4/capsense_Centroid_LL.c ****             {
 399:Generated_Source\PSoC4/capsense_Centroid_LL.c ****                 localDiffArray[i][capsense_CENTROID_POS_PREV] = ptrSns[snsCount - 1u].diff;
 112              		.loc 1 399 0
 113 0058 8D00     		lsls	r5, r1, #2
 114 005a 6D18     		adds	r5, r5, r1
 115 005c 6C00     		lsls	r4, r5, #1
 116 005e 0A3C     		subs	r4, r4, #10
 117 0060 0419     		adds	r4, r0, r4
 118 0062 E688     		ldrh	r6, [r4, #6]
 119 0064 5500     		lsls	r5, r2, #1
 120 0066 AD18     		adds	r5, r5, r2
 121 0068 6C00     		lsls	r4, r5, #1
 122 006a 3C19     		adds	r4, r7, r4
 123 006c 2681     		strh	r6, [r4, #8]
 400:Generated_Source\PSoC4/capsense_Centroid_LL.c ****                 localDiffArray[i][capsense_CENTROID_POS_NEXT] = ptrSns[localMax[i] + 1u].diff;
 124              		.loc 1 400 0
 125 006e 0133     		adds	r3, r3, #1
 126 0070 9D00     		lsls	r5, r3, #2
 127 0072 EB18     		adds	r3, r5, r3
 128 0074 5D00     		lsls	r5, r3, #1
 129 0076 4519     		adds	r5, r0, r5
 130 0078 EB88     		ldrh	r3, [r5, #6]
 131 007a A381     		strh	r3, [r4, #12]
 132 007c 1FE0     		b	.L8
 133              	.L7:
 401:Generated_Source\PSoC4/capsense_Centroid_LL.c ****             }
 402:Generated_Source\PSoC4/capsense_Centroid_LL.c ****             else if (localMax[i] == ((uint8)(snsCount - 1u)))
 134              		.loc 1 402 0
 135 007e 4D1E     		subs	r5, r1, #1
 136 0080 EDB2     		uxtb	r5, r5
 137 0082 AB42     		cmp	r3, r5
 138 0084 0BD1     		bne	.L9
 403:Generated_Source\PSoC4/capsense_Centroid_LL.c ****             {
 404:Generated_Source\PSoC4/capsense_Centroid_LL.c ****                 localDiffArray[i][capsense_CENTROID_POS_PREV] = ptrSns[localMax[i] - 1u].diff;
 139              		.loc 1 404 0
 140 0086 0A3C     		subs	r4, r4, #10
 141 0088 0419     		adds	r4, r0, r4
 142 008a E588     		ldrh	r5, [r4, #6]
 143 008c 5400     		lsls	r4, r2, #1
 144 008e A418     		adds	r4, r4, r2
 145 0090 6300     		lsls	r3, r4, #1
 146 0092 104C     		ldr	r4, .L12
 147 0094 E318     		adds	r3, r4, r3
 148 0096 1D81     		strh	r5, [r3, #8]
 405:Generated_Source\PSoC4/capsense_Centroid_LL.c ****                 localDiffArray[i][capsense_CENTROID_POS_NEXT] = ptrSns[0u].diff;
 149              		.loc 1 405 0
 150 0098 C488     		ldrh	r4, [r0, #6]
 151 009a 9C81     		strh	r4, [r3, #12]
 152 009c 0FE0     		b	.L8
 153              	.L9:
 406:Generated_Source\PSoC4/capsense_Centroid_LL.c ****             }
 407:Generated_Source\PSoC4/capsense_Centroid_LL.c ****             else
 408:Generated_Source\PSoC4/capsense_Centroid_LL.c ****             {
 409:Generated_Source\PSoC4/capsense_Centroid_LL.c ****                 localDiffArray[i][capsense_CENTROID_POS_PREV] = ptrSns[localMax[i] - 1u].diff;
 154              		.loc 1 409 0
 155 009e 0A3C     		subs	r4, r4, #10
 156 00a0 0419     		adds	r4, r0, r4
ARM GAS  C:\Users\ASUS\AppData\Local\Temp\ccqnpBjk.s 			page 11


 157 00a2 E688     		ldrh	r6, [r4, #6]
 158 00a4 5500     		lsls	r5, r2, #1
 159 00a6 AD18     		adds	r5, r5, r2
 160 00a8 6C00     		lsls	r4, r5, #1
 161 00aa 0A4D     		ldr	r5, .L12
 162 00ac 2C19     		adds	r4, r5, r4
 163 00ae 2681     		strh	r6, [r4, #8]
 410:Generated_Source\PSoC4/capsense_Centroid_LL.c ****                 localDiffArray[i][capsense_CENTROID_POS_NEXT] = ptrSns[localMax[i] + 1u].diff;
 164              		.loc 1 410 0
 165 00b0 0133     		adds	r3, r3, #1
 166 00b2 9D00     		lsls	r5, r3, #2
 167 00b4 EB18     		adds	r3, r5, r3
 168 00b6 5D00     		lsls	r5, r3, #1
 169 00b8 4519     		adds	r5, r0, r5
 170 00ba EB88     		ldrh	r3, [r5, #6]
 171 00bc A381     		strh	r3, [r4, #12]
 172              	.L8:
 393:Generated_Source\PSoC4/capsense_Centroid_LL.c ****         {
 173              		.loc 1 393 0 discriminator 2
 174 00be 0132     		adds	r2, r2, #1
 175              	.LVL11:
 176 00c0 00E0     		b	.L5
 177              	.LVL12:
 178              	.L11:
 179 00c2 0022     		movs	r2, #0
 180              	.LVL13:
 181              	.L5:
 393:Generated_Source\PSoC4/capsense_Centroid_LL.c ****         {
 182              		.loc 1 393 0 is_stmt 0 discriminator 1
 183 00c4 034B     		ldr	r3, .L12
 184 00c6 1B78     		ldrb	r3, [r3]
 185 00c8 9A42     		cmp	r2, r3
 186 00ca B4D3     		bcc	.L10
 187              	.LVL14:
 188              	.L6:
 411:Generated_Source\PSoC4/capsense_Centroid_LL.c ****             }
 412:Generated_Source\PSoC4/capsense_Centroid_LL.c ****         }
 413:Generated_Source\PSoC4/capsense_Centroid_LL.c ****     }
 414:Generated_Source\PSoC4/capsense_Centroid_LL.c ****     /* Return status to check if at least one maximum has been found */
 415:Generated_Source\PSoC4/capsense_Centroid_LL.c ****     return (uint32)(localMaxIndex);
 189              		.loc 1 415 0 is_stmt 1
 190 00cc 014B     		ldr	r3, .L12
 191 00ce 1878     		ldrb	r0, [r3]
 192              	.LVL15:
 416:Generated_Source\PSoC4/capsense_Centroid_LL.c **** }
 193              		.loc 1 416 0
 194              		@ sp needed
 195 00d0 F0BD     		pop	{r4, r5, r6, r7, pc}
 196              	.L13:
 197 00d2 C046     		.align	2
 198              	.L12:
 199 00d4 00000000 		.word	.LANCHOR0
 200              		.cfi_endproc
 201              	.LFE1:
 202              		.size	capsense_DpFindLocalMaxSd, .-capsense_DpFindLocalMaxSd
 203              		.global	__aeabi_idiv
 204              		.section	.text.capsense_DpCalcLinearCentroid,"ax",%progbits
ARM GAS  C:\Users\ASUS\AppData\Local\Temp\ccqnpBjk.s 			page 12


 205              		.align	2
 206              		.global	capsense_DpCalcLinearCentroid
 207              		.code	16
 208              		.thumb_func
 209              		.type	capsense_DpCalcLinearCentroid, %function
 210              	capsense_DpCalcLinearCentroid:
 211              	.LFB2:
 417:Generated_Source\PSoC4/capsense_Centroid_LL.c **** #endif /* (capsense_ENABLE == capsense_4PTS_LOCAL_MAX_EN) */
 418:Generated_Source\PSoC4/capsense_Centroid_LL.c **** #endif /* ((capsense_ENABLE == capsense_CENTROID_3X3_CSD_EN) || \
 419:Generated_Source\PSoC4/capsense_Centroid_LL.c ****           (capsense_ENABLE  == capsense_SLIDER_WIDGET_EN)) */
 420:Generated_Source\PSoC4/capsense_Centroid_LL.c **** 
 421:Generated_Source\PSoC4/capsense_Centroid_LL.c **** #if capsense_TOTAL_DIPLEXED_SLIDERS
 422:Generated_Source\PSoC4/capsense_Centroid_LL.c **** /*******************************************************************************
 423:Generated_Source\PSoC4/capsense_Centroid_LL.c **** * Function Name: capsense_DpFindLocalMaxDiplex
 424:Generated_Source\PSoC4/capsense_Centroid_LL.c **** ****************************************************************************//**
 425:Generated_Source\PSoC4/capsense_Centroid_LL.c **** *
 426:Generated_Source\PSoC4/capsense_Centroid_LL.c **** * \brief
 427:Generated_Source\PSoC4/capsense_Centroid_LL.c **** *   Finds the maximum in the widget differences. Used only for diplexed linear slider.
 428:Generated_Source\PSoC4/capsense_Centroid_LL.c **** *
 429:Generated_Source\PSoC4/capsense_Centroid_LL.c **** * \details
 430:Generated_Source\PSoC4/capsense_Centroid_LL.c **** *   The localMax[] is used to store the index of the maximum/maxima.
 431:Generated_Source\PSoC4/capsense_Centroid_LL.c **** *   The localDiffArray[][] is used to store values of the maximum/maxima and neighbour differences.
 432:Generated_Source\PSoC4/capsense_Centroid_LL.c **** *   The localMaxIndex is used to store the number of maxima have been actually found.
 433:Generated_Source\PSoC4/capsense_Centroid_LL.c **** *
 434:Generated_Source\PSoC4/capsense_Centroid_LL.c **** * \param ptrSns The pointer to the first sensor.
 435:Generated_Source\PSoC4/capsense_Centroid_LL.c **** * \param snsCount The total sensor number in the widget.
 436:Generated_Source\PSoC4/capsense_Centroid_LL.c **** * \param diplexTable The pointer to the diplex table.
 437:Generated_Source\PSoC4/capsense_Centroid_LL.c **** * \param fingerThreshold The finger threshold in the widget.
 438:Generated_Source\PSoC4/capsense_Centroid_LL.c **** *
 439:Generated_Source\PSoC4/capsense_Centroid_LL.c **** * \return Returns the number of maxima found.
 440:Generated_Source\PSoC4/capsense_Centroid_LL.c **** *
 441:Generated_Source\PSoC4/capsense_Centroid_LL.c **** *******************************************************************************/
 442:Generated_Source\PSoC4/capsense_Centroid_LL.c **** uint32 capsense_DpFindLocalMaxDiplex(
 443:Generated_Source\PSoC4/capsense_Centroid_LL.c ****                         capsense_RAM_SNS_STRUCT ptrSns[],
 444:Generated_Source\PSoC4/capsense_Centroid_LL.c ****                         uint32 snsCount,
 445:Generated_Source\PSoC4/capsense_Centroid_LL.c ****                         uint8 const diplexTable[],
 446:Generated_Source\PSoC4/capsense_Centroid_LL.c ****                         uint32 fingerThreshold)
 447:Generated_Source\PSoC4/capsense_Centroid_LL.c **** {
 448:Generated_Source\PSoC4/capsense_Centroid_LL.c ****     uint32 sensorId;
 449:Generated_Source\PSoC4/capsense_Centroid_LL.c ****     uint32 diplexSensorId;
 450:Generated_Source\PSoC4/capsense_Centroid_LL.c **** 
 451:Generated_Source\PSoC4/capsense_Centroid_LL.c ****     uint32 biggestStartPos = 0u;
 452:Generated_Source\PSoC4/capsense_Centroid_LL.c ****     uint32 biggestSize = 0u;
 453:Generated_Source\PSoC4/capsense_Centroid_LL.c ****     uint32 curStartPos = 0u;
 454:Generated_Source\PSoC4/capsense_Centroid_LL.c ****     uint32 curSize = 0u;
 455:Generated_Source\PSoC4/capsense_Centroid_LL.c ****     capsense_THRESHOLD_TYPE temp = 0u;
 456:Generated_Source\PSoC4/capsense_Centroid_LL.c **** 
 457:Generated_Source\PSoC4/capsense_Centroid_LL.c ****     localMaxIndex = 0u;
 458:Generated_Source\PSoC4/capsense_Centroid_LL.c **** 
 459:Generated_Source\PSoC4/capsense_Centroid_LL.c ****     for (sensorId = 0u; sensorId < (snsCount << 1u); sensorId++)
 460:Generated_Source\PSoC4/capsense_Centroid_LL.c ****     {
 461:Generated_Source\PSoC4/capsense_Centroid_LL.c ****         diplexSensorId = diplexTable[sensorId];
 462:Generated_Source\PSoC4/capsense_Centroid_LL.c **** 
 463:Generated_Source\PSoC4/capsense_Centroid_LL.c ****         if (ptrSns[diplexSensorId].diff > fingerThreshold)
 464:Generated_Source\PSoC4/capsense_Centroid_LL.c ****         {
 465:Generated_Source\PSoC4/capsense_Centroid_LL.c ****             if (0u == curSize)
 466:Generated_Source\PSoC4/capsense_Centroid_LL.c ****             {
ARM GAS  C:\Users\ASUS\AppData\Local\Temp\ccqnpBjk.s 			page 13


 467:Generated_Source\PSoC4/capsense_Centroid_LL.c ****                 curStartPos = sensorId;
 468:Generated_Source\PSoC4/capsense_Centroid_LL.c ****             }
 469:Generated_Source\PSoC4/capsense_Centroid_LL.c **** 
 470:Generated_Source\PSoC4/capsense_Centroid_LL.c ****             curSize++;
 471:Generated_Source\PSoC4/capsense_Centroid_LL.c ****         }
 472:Generated_Source\PSoC4/capsense_Centroid_LL.c ****         else
 473:Generated_Source\PSoC4/capsense_Centroid_LL.c ****         {
 474:Generated_Source\PSoC4/capsense_Centroid_LL.c ****             if (curSize > biggestSize)
 475:Generated_Source\PSoC4/capsense_Centroid_LL.c ****             {
 476:Generated_Source\PSoC4/capsense_Centroid_LL.c ****                 biggestSize = curSize;
 477:Generated_Source\PSoC4/capsense_Centroid_LL.c ****                 biggestStartPos = curStartPos;
 478:Generated_Source\PSoC4/capsense_Centroid_LL.c ****             }
 479:Generated_Source\PSoC4/capsense_Centroid_LL.c ****             curSize = 0u;
 480:Generated_Source\PSoC4/capsense_Centroid_LL.c ****         }
 481:Generated_Source\PSoC4/capsense_Centroid_LL.c ****     }
 482:Generated_Source\PSoC4/capsense_Centroid_LL.c **** 
 483:Generated_Source\PSoC4/capsense_Centroid_LL.c ****     if (curSize > biggestSize)
 484:Generated_Source\PSoC4/capsense_Centroid_LL.c ****     {
 485:Generated_Source\PSoC4/capsense_Centroid_LL.c ****         biggestSize = curSize;
 486:Generated_Source\PSoC4/capsense_Centroid_LL.c ****         biggestStartPos = curStartPos;
 487:Generated_Source\PSoC4/capsense_Centroid_LL.c ****     }
 488:Generated_Source\PSoC4/capsense_Centroid_LL.c **** 
 489:Generated_Source\PSoC4/capsense_Centroid_LL.c ****     if (biggestSize >= capsense_CENTROID_DIPLEX_SECTION_LENGTH)
 490:Generated_Source\PSoC4/capsense_Centroid_LL.c ****     {
 491:Generated_Source\PSoC4/capsense_Centroid_LL.c ****         for (sensorId = biggestStartPos; sensorId < (biggestStartPos + biggestSize); sensorId++)
 492:Generated_Source\PSoC4/capsense_Centroid_LL.c ****         {
 493:Generated_Source\PSoC4/capsense_Centroid_LL.c ****             diplexSensorId = diplexTable[sensorId];
 494:Generated_Source\PSoC4/capsense_Centroid_LL.c **** 
 495:Generated_Source\PSoC4/capsense_Centroid_LL.c ****             if (ptrSns[diplexSensorId].diff > temp)
 496:Generated_Source\PSoC4/capsense_Centroid_LL.c ****             {
 497:Generated_Source\PSoC4/capsense_Centroid_LL.c ****                 localMax[0u] = LO8(sensorId);
 498:Generated_Source\PSoC4/capsense_Centroid_LL.c ****                 temp = ptrSns[diplexSensorId].diff;
 499:Generated_Source\PSoC4/capsense_Centroid_LL.c ****                 localMaxIndex = 1u;
 500:Generated_Source\PSoC4/capsense_Centroid_LL.c ****             }
 501:Generated_Source\PSoC4/capsense_Centroid_LL.c ****         }
 502:Generated_Source\PSoC4/capsense_Centroid_LL.c **** 
 503:Generated_Source\PSoC4/capsense_Centroid_LL.c ****         /* Prepare single-dimension centroid calculation array */
 504:Generated_Source\PSoC4/capsense_Centroid_LL.c ****         if (localMax[0u] == 0u)
 505:Generated_Source\PSoC4/capsense_Centroid_LL.c ****         {
 506:Generated_Source\PSoC4/capsense_Centroid_LL.c ****             localDiffArray[0u][capsense_CENTROID_POS_PREV] = 0u;
 507:Generated_Source\PSoC4/capsense_Centroid_LL.c ****             localDiffArray[0u][capsense_CENTROID_POS] = ptrSns[localMax[0u]].diff;
 508:Generated_Source\PSoC4/capsense_Centroid_LL.c ****             localDiffArray[0u][capsense_CENTROID_POS_NEXT] = ptrSns[localMax[0u] + 1u].diff;
 509:Generated_Source\PSoC4/capsense_Centroid_LL.c **** 
 510:Generated_Source\PSoC4/capsense_Centroid_LL.c ****         }
 511:Generated_Source\PSoC4/capsense_Centroid_LL.c ****         else if (localMax[0u] == ((snsCount << 1u) - 1u))
 512:Generated_Source\PSoC4/capsense_Centroid_LL.c ****         {
 513:Generated_Source\PSoC4/capsense_Centroid_LL.c ****             diplexSensorId = diplexTable[localMax[0u] - 1u];
 514:Generated_Source\PSoC4/capsense_Centroid_LL.c ****             localDiffArray[0u][capsense_CENTROID_POS_PREV] = ptrSns[diplexSensorId].diff;
 515:Generated_Source\PSoC4/capsense_Centroid_LL.c ****             diplexSensorId = diplexTable[localMax[0u]];
 516:Generated_Source\PSoC4/capsense_Centroid_LL.c ****             localDiffArray[0u][capsense_CENTROID_POS] = ptrSns[diplexSensorId].diff;
 517:Generated_Source\PSoC4/capsense_Centroid_LL.c ****             localDiffArray[0u][capsense_CENTROID_POS_NEXT] = 0u;
 518:Generated_Source\PSoC4/capsense_Centroid_LL.c ****         }
 519:Generated_Source\PSoC4/capsense_Centroid_LL.c ****         else
 520:Generated_Source\PSoC4/capsense_Centroid_LL.c ****         {
 521:Generated_Source\PSoC4/capsense_Centroid_LL.c ****             diplexSensorId = diplexTable[localMax[0u] - 1u];
 522:Generated_Source\PSoC4/capsense_Centroid_LL.c ****             localDiffArray[0u][capsense_CENTROID_POS_PREV] = ptrSns[diplexSensorId].diff;
 523:Generated_Source\PSoC4/capsense_Centroid_LL.c ****             diplexSensorId = diplexTable[localMax[0u]];
ARM GAS  C:\Users\ASUS\AppData\Local\Temp\ccqnpBjk.s 			page 14


 524:Generated_Source\PSoC4/capsense_Centroid_LL.c ****             localDiffArray[0u][capsense_CENTROID_POS] = ptrSns[diplexSensorId].diff;
 525:Generated_Source\PSoC4/capsense_Centroid_LL.c ****             diplexSensorId = diplexTable[localMax[0u] + 1u];
 526:Generated_Source\PSoC4/capsense_Centroid_LL.c ****             localDiffArray[0u][capsense_CENTROID_POS_NEXT] = ptrSns[diplexSensorId].diff;
 527:Generated_Source\PSoC4/capsense_Centroid_LL.c ****         }
 528:Generated_Source\PSoC4/capsense_Centroid_LL.c ****     }
 529:Generated_Source\PSoC4/capsense_Centroid_LL.c **** 
 530:Generated_Source\PSoC4/capsense_Centroid_LL.c ****     return (uint32)(localMaxIndex);
 531:Generated_Source\PSoC4/capsense_Centroid_LL.c **** }
 532:Generated_Source\PSoC4/capsense_Centroid_LL.c **** #endif /* #if capsense_TOTAL_DIPLEXED_SLIDERS */
 533:Generated_Source\PSoC4/capsense_Centroid_LL.c **** 
 534:Generated_Source\PSoC4/capsense_Centroid_LL.c **** 
 535:Generated_Source\PSoC4/capsense_Centroid_LL.c **** #if ((0u != capsense_TOTAL_LINEAR_SLIDERS) || \
 536:Generated_Source\PSoC4/capsense_Centroid_LL.c ****      (capsense_ENABLE == capsense_CENTROID_3X3_CSD_EN))
 537:Generated_Source\PSoC4/capsense_Centroid_LL.c **** /*******************************************************************************
 538:Generated_Source\PSoC4/capsense_Centroid_LL.c **** * Function Name: capsense_DpCalcLinearCentroid
 539:Generated_Source\PSoC4/capsense_Centroid_LL.c **** ****************************************************************************//**
 540:Generated_Source\PSoC4/capsense_Centroid_LL.c **** *
 541:Generated_Source\PSoC4/capsense_Centroid_LL.c **** * \brief
 542:Generated_Source\PSoC4/capsense_Centroid_LL.c **** *   Calculates the position of the linear slider.
 543:Generated_Source\PSoC4/capsense_Centroid_LL.c **** *
 544:Generated_Source\PSoC4/capsense_Centroid_LL.c **** * \details
 545:Generated_Source\PSoC4/capsense_Centroid_LL.c **** *   The localMax[] is used to store the index of the maximum/maxima.
 546:Generated_Source\PSoC4/capsense_Centroid_LL.c **** *   The localDiffArray[][] is used to store values of the maximum/maxima and neighbour differences.
 547:Generated_Source\PSoC4/capsense_Centroid_LL.c **** *   The localMaxIndex is used to store the number of maxima have been actually found.
 548:Generated_Source\PSoC4/capsense_Centroid_LL.c **** *
 549:Generated_Source\PSoC4/capsense_Centroid_LL.c **** * \param position
 550:Generated_Source\PSoC4/capsense_Centroid_LL.c **** *  The pointer to the position array for temporary position storage.
 551:Generated_Source\PSoC4/capsense_Centroid_LL.c **** *
 552:Generated_Source\PSoC4/capsense_Centroid_LL.c **** * \param multiplier
 553:Generated_Source\PSoC4/capsense_Centroid_LL.c **** *  The multiplier used for position calculation. Contains the widget resolution and total sensor
 554:Generated_Source\PSoC4/capsense_Centroid_LL.c **** *  information. It is generated by customizer.
 555:Generated_Source\PSoC4/capsense_Centroid_LL.c **** *
 556:Generated_Source\PSoC4/capsense_Centroid_LL.c **** * \param snsCount
 557:Generated_Source\PSoC4/capsense_Centroid_LL.c **** *  The number of sensors in the linear slider. The doubled snsCount has to be passed
 558:Generated_Source\PSoC4/capsense_Centroid_LL.c **** *  if this API is called for diplexed slider.
 559:Generated_Source\PSoC4/capsense_Centroid_LL.c **** *
 560:Generated_Source\PSoC4/capsense_Centroid_LL.c **** * \param offset
 561:Generated_Source\PSoC4/capsense_Centroid_LL.c **** *  The additional position offset as half of the multiplier.
 562:Generated_Source\PSoC4/capsense_Centroid_LL.c **** *
 563:Generated_Source\PSoC4/capsense_Centroid_LL.c **** * \return Returns the number of positions calculated.
 564:Generated_Source\PSoC4/capsense_Centroid_LL.c **** *
 565:Generated_Source\PSoC4/capsense_Centroid_LL.c **** *******************************************************************************/
 566:Generated_Source\PSoC4/capsense_Centroid_LL.c **** uint32 capsense_DpCalcLinearCentroid(uint16 position[], uint32 multiplier, uint32 snsCount, uint32 
 567:Generated_Source\PSoC4/capsense_Centroid_LL.c **** {
 212              		.loc 1 567 0
 213              		.cfi_startproc
 214              		@ args = 0, pretend = 0, frame = 8
 215              		@ frame_needed = 0, uses_anonymous_args = 0
 216              	.LVL16:
 217 0000 F0B5     		push	{r4, r5, r6, r7, lr}
 218              		.cfi_def_cfa_offset 20
 219              		.cfi_offset 4, -20
 220              		.cfi_offset 5, -16
 221              		.cfi_offset 6, -12
 222              		.cfi_offset 7, -8
 223              		.cfi_offset 14, -4
 224 0002 5746     		mov	r7, r10
ARM GAS  C:\Users\ASUS\AppData\Local\Temp\ccqnpBjk.s 			page 15


 225 0004 4646     		mov	r6, r8
 226 0006 C0B4     		push	{r6, r7}
 227              		.cfi_def_cfa_offset 28
 228              		.cfi_offset 8, -28
 229              		.cfi_offset 10, -24
 230 0008 83B0     		sub	sp, sp, #12
 231              		.cfi_def_cfa_offset 40
 232 000a 8246     		mov	r10, r0
 233 000c 0F00     		movs	r7, r1
 234 000e 0192     		str	r2, [sp, #4]
 235 0010 9846     		mov	r8, r3
 236              	.LVL17:
 568:Generated_Source\PSoC4/capsense_Centroid_LL.c ****     int32 numerator;
 569:Generated_Source\PSoC4/capsense_Centroid_LL.c ****     int32 denominator;
 570:Generated_Source\PSoC4/capsense_Centroid_LL.c ****     uint32 i;
 571:Generated_Source\PSoC4/capsense_Centroid_LL.c **** 
 572:Generated_Source\PSoC4/capsense_Centroid_LL.c ****     for (i = 0u; i < localMaxIndex; i++)
 237              		.loc 1 572 0
 238 0012 0025     		movs	r5, #0
 239 0014 2DE0     		b	.L15
 240              	.LVL18:
 241              	.L18:
 573:Generated_Source\PSoC4/capsense_Centroid_LL.c ****     {
 574:Generated_Source\PSoC4/capsense_Centroid_LL.c ****         /*
 575:Generated_Source\PSoC4/capsense_Centroid_LL.c ****          * The capsense_DpFindLocalMaxSd API prepares the unified localDiffArray[][] for linear and
 576:Generated_Source\PSoC4/capsense_Centroid_LL.c ****          *  Therefore, the difference of the first and the last elements of linear slider are clear
 577:Generated_Source\PSoC4/capsense_Centroid_LL.c ****          */
 578:Generated_Source\PSoC4/capsense_Centroid_LL.c **** 
 579:Generated_Source\PSoC4/capsense_Centroid_LL.c ****         if (localMax[i] == 0u)
 242              		.loc 1 579 0
 243 0016 1B4B     		ldr	r3, .L19
 244 0018 5B19     		adds	r3, r3, r5
 245 001a 1C79     		ldrb	r4, [r3, #4]
 246 001c 002C     		cmp	r4, #0
 247 001e 07D1     		bne	.L16
 580:Generated_Source\PSoC4/capsense_Centroid_LL.c ****         {
 581:Generated_Source\PSoC4/capsense_Centroid_LL.c ****             localDiffArray[i][capsense_CENTROID_POS_PREV] = 0u;
 248              		.loc 1 581 0
 249 0020 6A00     		lsls	r2, r5, #1
 250 0022 5219     		adds	r2, r2, r5
 251 0024 5300     		lsls	r3, r2, #1
 252 0026 174A     		ldr	r2, .L19
 253 0028 D318     		adds	r3, r2, r3
 254 002a 0022     		movs	r2, #0
 255 002c 1A81     		strh	r2, [r3, #8]
 256 002e 0AE0     		b	.L17
 257              	.L16:
 582:Generated_Source\PSoC4/capsense_Centroid_LL.c ****         }
 583:Generated_Source\PSoC4/capsense_Centroid_LL.c ****         else
 584:Generated_Source\PSoC4/capsense_Centroid_LL.c ****         {
 585:Generated_Source\PSoC4/capsense_Centroid_LL.c ****             if (localMax[i] == (snsCount - 1u))
 258              		.loc 1 585 0
 259 0030 019B     		ldr	r3, [sp, #4]
 260 0032 013B     		subs	r3, r3, #1
 261 0034 9C42     		cmp	r4, r3
 262 0036 06D1     		bne	.L17
 586:Generated_Source\PSoC4/capsense_Centroid_LL.c ****             {
ARM GAS  C:\Users\ASUS\AppData\Local\Temp\ccqnpBjk.s 			page 16


 587:Generated_Source\PSoC4/capsense_Centroid_LL.c ****                 localDiffArray[i][capsense_CENTROID_POS_NEXT] = 0u;
 263              		.loc 1 587 0
 264 0038 6A00     		lsls	r2, r5, #1
 265 003a 5219     		adds	r2, r2, r5
 266 003c 5300     		lsls	r3, r2, #1
 267 003e 114A     		ldr	r2, .L19
 268 0040 D318     		adds	r3, r2, r3
 269 0042 0022     		movs	r2, #0
 270 0044 9A81     		strh	r2, [r3, #12]
 271              	.L17:
 588:Generated_Source\PSoC4/capsense_Centroid_LL.c ****             }
 589:Generated_Source\PSoC4/capsense_Centroid_LL.c ****         }
 590:Generated_Source\PSoC4/capsense_Centroid_LL.c **** 
 591:Generated_Source\PSoC4/capsense_Centroid_LL.c ****         /* Si+1 - Si-1 */
 592:Generated_Source\PSoC4/capsense_Centroid_LL.c ****         numerator = (int32) localDiffArray[i][capsense_CENTROID_POS_NEXT] -
 272              		.loc 1 592 0 discriminator 2
 273 0046 6E00     		lsls	r6, r5, #1
 274 0048 7219     		adds	r2, r6, r5
 275 004a 5300     		lsls	r3, r2, #1
 276 004c 0D4A     		ldr	r2, .L19
 277 004e D318     		adds	r3, r2, r3
 278 0050 9A89     		ldrh	r2, [r3, #12]
 593:Generated_Source\PSoC4/capsense_Centroid_LL.c ****                     (int32) localDiffArray[i][capsense_CENTROID_POS_PREV];
 279              		.loc 1 593 0 discriminator 2
 280 0052 1989     		ldrh	r1, [r3, #8]
 592:Generated_Source\PSoC4/capsense_Centroid_LL.c ****                     (int32) localDiffArray[i][capsense_CENTROID_POS_PREV];
 281              		.loc 1 592 0 discriminator 2
 282 0054 501A     		subs	r0, r2, r1
 283              	.LVL19:
 594:Generated_Source\PSoC4/capsense_Centroid_LL.c **** 
 595:Generated_Source\PSoC4/capsense_Centroid_LL.c ****         /* Si+1 + Si + Si-1 */
 596:Generated_Source\PSoC4/capsense_Centroid_LL.c ****         denominator = (int32) localDiffArray[i][capsense_CENTROID_POS_PREV] +
 597:Generated_Source\PSoC4/capsense_Centroid_LL.c ****                       (int32) localDiffArray[i][capsense_CENTROID_POS] +
 284              		.loc 1 597 0 discriminator 2
 285 0056 5B89     		ldrh	r3, [r3, #10]
 596:Generated_Source\PSoC4/capsense_Centroid_LL.c ****                       (int32) localDiffArray[i][capsense_CENTROID_POS] +
 286              		.loc 1 596 0 discriminator 2
 287 0058 C918     		adds	r1, r1, r3
 288 005a 5118     		adds	r1, r2, r1
 289              	.LVL20:
 598:Generated_Source\PSoC4/capsense_Centroid_LL.c ****                       (int32) localDiffArray[i][capsense_CENTROID_POS_NEXT];
 599:Generated_Source\PSoC4/capsense_Centroid_LL.c **** 
 600:Generated_Source\PSoC4/capsense_Centroid_LL.c ****         denominator = ((numerator * (int32)multiplier) / denominator) +
 290              		.loc 1 600 0 discriminator 2
 291 005c 7843     		muls	r0, r7
 292              	.LVL21:
 293 005e FFF7FEFF 		bl	__aeabi_idiv
 294              	.LVL22:
 601:Generated_Source\PSoC4/capsense_Centroid_LL.c ****                       (((int32)localMax[i] * (int32)multiplier) + (int32)offset);
 295              		.loc 1 601 0 discriminator 2
 296 0062 7C43     		muls	r4, r7
 297 0064 4444     		add	r4, r4, r8
 600:Generated_Source\PSoC4/capsense_Centroid_LL.c ****                       (((int32)localMax[i] * (int32)multiplier) + (int32)offset);
 298              		.loc 1 600 0 discriminator 2
 299 0066 0019     		adds	r0, r0, r4
 300              	.LVL23:
 602:Generated_Source\PSoC4/capsense_Centroid_LL.c **** 
ARM GAS  C:\Users\ASUS\AppData\Local\Temp\ccqnpBjk.s 			page 17


 603:Generated_Source\PSoC4/capsense_Centroid_LL.c ****         /* Round result and shift 8 bits left */
 604:Generated_Source\PSoC4/capsense_Centroid_LL.c ****         position[i] = LO16(((uint32)denominator + capsense_CENTROID_ROUND_VALUE) >> 8u);
 301              		.loc 1 604 0 discriminator 2
 302 0068 7F30     		adds	r0, r0, #127
 303              	.LVL24:
 304 006a 000A     		lsrs	r0, r0, #8
 305              	.LVL25:
 306 006c 5346     		mov	r3, r10
 307 006e 9853     		strh	r0, [r3, r6]
 572:Generated_Source\PSoC4/capsense_Centroid_LL.c ****     {
 308              		.loc 1 572 0 discriminator 2
 309 0070 0135     		adds	r5, r5, #1
 310              	.LVL26:
 311              	.L15:
 572:Generated_Source\PSoC4/capsense_Centroid_LL.c ****     {
 312              		.loc 1 572 0 is_stmt 0 discriminator 1
 313 0072 044B     		ldr	r3, .L19
 314 0074 1878     		ldrb	r0, [r3]
 315 0076 8542     		cmp	r5, r0
 316 0078 CDD3     		bcc	.L18
 605:Generated_Source\PSoC4/capsense_Centroid_LL.c ****     }
 606:Generated_Source\PSoC4/capsense_Centroid_LL.c ****     return (uint32)(localMaxIndex);
 607:Generated_Source\PSoC4/capsense_Centroid_LL.c **** }
 317              		.loc 1 607 0 is_stmt 1
 318 007a 03B0     		add	sp, sp, #12
 319              		@ sp needed
 320              	.LVL27:
 321              	.LVL28:
 322              	.LVL29:
 323              	.LVL30:
 324 007c 0CBC     		pop	{r2, r3}
 325 007e 9046     		mov	r8, r2
 326 0080 9A46     		mov	r10, r3
 327 0082 F0BD     		pop	{r4, r5, r6, r7, pc}
 328              	.L20:
 329              		.align	2
 330              	.L19:
 331 0084 00000000 		.word	.LANCHOR0
 332              		.cfi_endproc
 333              	.LFE2:
 334              		.size	capsense_DpCalcLinearCentroid, .-capsense_DpCalcLinearCentroid
 335              		.bss
 336              		.align	2
 337              		.set	.LANCHOR0,. + 0
 338              		.type	localMaxIndex, %object
 339              		.size	localMaxIndex, 1
 340              	localMaxIndex:
 341 0000 00       		.space	1
 342 0001 000000   		.space	3
 343              		.type	localMax, %object
 344              		.size	localMax, 1
 345              	localMax:
 346 0004 00       		.space	1
 347 0005 000000   		.space	3
 348              		.type	localDiffArray, %object
 349              		.size	localDiffArray, 6
 350              	localDiffArray:
ARM GAS  C:\Users\ASUS\AppData\Local\Temp\ccqnpBjk.s 			page 18


 351 0008 00000000 		.space	6
 351      0000
 352              		.text
 353              	.Letext0:
 354              		.file 2 "Generated_Source\\PSoC4\\cytypes.h"
 355              		.file 3 "Generated_Source\\PSoC4\\capsense_Configuration.h"
 356              		.file 4 "Generated_Source\\PSoC4\\capsense_Structure.h"