ARM GAS  C:\Users\ASUS\AppData\Local\Temp\ccuOUgOD.s 			page 1


   1              		.syntax unified
   2              		.cpu cortex-m0plus
   3              		.fpu softvfp
   4              		.eabi_attribute 20, 1
   5              		.eabi_attribute 21, 1
   6              		.eabi_attribute 23, 3
   7              		.eabi_attribute 24, 1
   8              		.eabi_attribute 25, 1
   9              		.eabi_attribute 26, 1
  10              		.eabi_attribute 30, 1
  11              		.eabi_attribute 34, 0
  12              		.eabi_attribute 18, 4
  13              		.thumb
  14              		.syntax unified
  15              		.file	"capsense_Processing.c"
  16              		.text
  17              	.Ltext0:
  18              		.cfi_sections	.debug_frame
  19              		.section	.text.capsense_DpInitialize,"ax",%progbits
  20              		.align	2
  21              		.global	capsense_DpInitialize
  22              		.code	16
  23              		.thumb_func
  24              		.type	capsense_DpInitialize, %function
  25              	capsense_DpInitialize:
  26              	.LFB2:
  27              		.file 1 "Generated_Source\\PSoC4\\capsense_Processing.c"
   1:Generated_Source\PSoC4/capsense_Processing.c **** /***************************************************************************//**
   2:Generated_Source\PSoC4/capsense_Processing.c **** * \file capsense_Processing.c
   3:Generated_Source\PSoC4/capsense_Processing.c **** * \version 7.10
   4:Generated_Source\PSoC4/capsense_Processing.c **** *
   5:Generated_Source\PSoC4/capsense_Processing.c **** * \brief
   6:Generated_Source\PSoC4/capsense_Processing.c **** *   This file provides the source code for the Data Processing module APIs
   7:Generated_Source\PSoC4/capsense_Processing.c **** *   of the Component. The Data Processing module is responsible for the
   8:Generated_Source\PSoC4/capsense_Processing.c **** *   low level raw counts processing provided by the sensing module, maintaining
   9:Generated_Source\PSoC4/capsense_Processing.c **** *   baseline and difference values and performing high-level widget processing
  10:Generated_Source\PSoC4/capsense_Processing.c **** *   like updating button status or calculating slider position.
  11:Generated_Source\PSoC4/capsense_Processing.c **** *
  12:Generated_Source\PSoC4/capsense_Processing.c **** * \see capsense v7.10 Datasheet
  13:Generated_Source\PSoC4/capsense_Processing.c **** *
  14:Generated_Source\PSoC4/capsense_Processing.c **** *//*****************************************************************************
  15:Generated_Source\PSoC4/capsense_Processing.c **** * Copyright (2016-2019), Cypress Semiconductor Corporation.
  16:Generated_Source\PSoC4/capsense_Processing.c **** ********************************************************************************
  17:Generated_Source\PSoC4/capsense_Processing.c **** * This software is owned by Cypress Semiconductor Corporation (Cypress) and is
  18:Generated_Source\PSoC4/capsense_Processing.c **** * protected by and subject to worldwide patent protection (United States and
  19:Generated_Source\PSoC4/capsense_Processing.c **** * foreign), United States copyright laws and international treaty provisions.
  20:Generated_Source\PSoC4/capsense_Processing.c **** * Cypress hereby grants to licensee a personal, non-exclusive, non-transferable
  21:Generated_Source\PSoC4/capsense_Processing.c **** * license to copy, use, modify, create derivative works of, and compile the
  22:Generated_Source\PSoC4/capsense_Processing.c **** * Cypress Source Code and derivative works for the sole purpose of creating
  23:Generated_Source\PSoC4/capsense_Processing.c **** * custom software in support of licensee product to be used only in conjunction
  24:Generated_Source\PSoC4/capsense_Processing.c **** * with a Cypress integrated circuit as specified in the applicable agreement.
  25:Generated_Source\PSoC4/capsense_Processing.c **** * Any reproduction, modification, translation, compilation, or representation of
  26:Generated_Source\PSoC4/capsense_Processing.c **** * this software except as specified above is prohibited without the express
  27:Generated_Source\PSoC4/capsense_Processing.c **** * written permission of Cypress.
  28:Generated_Source\PSoC4/capsense_Processing.c **** *
  29:Generated_Source\PSoC4/capsense_Processing.c **** * Disclaimer: CYPRESS MAKES NO WARRANTY OF ANY KIND, EXPRESS OR IMPLIED, WITH
  30:Generated_Source\PSoC4/capsense_Processing.c **** * REGARD TO THIS MATERIAL, INCLUDING, BUT NOT LIMITED TO, THE IMPLIED
ARM GAS  C:\Users\ASUS\AppData\Local\Temp\ccuOUgOD.s 			page 2


  31:Generated_Source\PSoC4/capsense_Processing.c **** * WARRANTIES OF MERCHANTABILITY AND FITNESS FOR A PARTICULAR PURPOSE.
  32:Generated_Source\PSoC4/capsense_Processing.c **** * Cypress reserves the right to make changes without further notice to the
  33:Generated_Source\PSoC4/capsense_Processing.c **** * materials described herein. Cypress does not assume any liability arising out
  34:Generated_Source\PSoC4/capsense_Processing.c **** * of the application or use of any product or circuit described herein. Cypress
  35:Generated_Source\PSoC4/capsense_Processing.c **** * does not authorize its products for use as critical components in life-support
  36:Generated_Source\PSoC4/capsense_Processing.c **** * systems where a malfunction or failure may reasonably be expected to result in
  37:Generated_Source\PSoC4/capsense_Processing.c **** * significant injury to the user. The inclusion of Cypress' product in a life-
  38:Generated_Source\PSoC4/capsense_Processing.c **** * support systems application implies that the manufacturer assumes all risk of
  39:Generated_Source\PSoC4/capsense_Processing.c **** * such use and in doing so indemnifies Cypress against all charges. Use may be
  40:Generated_Source\PSoC4/capsense_Processing.c **** * limited by and subject to the applicable Cypress software license agreement.
  41:Generated_Source\PSoC4/capsense_Processing.c **** *******************************************************************************/
  42:Generated_Source\PSoC4/capsense_Processing.c **** 
  43:Generated_Source\PSoC4/capsense_Processing.c **** #include "CyLib.h"
  44:Generated_Source\PSoC4/capsense_Processing.c **** #include "cytypes.h"
  45:Generated_Source\PSoC4/capsense_Processing.c **** #include "capsense_Configuration.h"
  46:Generated_Source\PSoC4/capsense_Processing.c **** #include "capsense_Processing.h"
  47:Generated_Source\PSoC4/capsense_Processing.c **** #include "capsense_Filter.h"
  48:Generated_Source\PSoC4/capsense_Processing.c **** 
  49:Generated_Source\PSoC4/capsense_Processing.c **** #if (0u != capsense_CENTROID_EN)
  50:Generated_Source\PSoC4/capsense_Processing.c ****     #include "capsense_Centroid_LL.h"
  51:Generated_Source\PSoC4/capsense_Processing.c **** #endif /* (0 != capsense_CENTROID_EN) */
  52:Generated_Source\PSoC4/capsense_Processing.c **** 
  53:Generated_Source\PSoC4/capsense_Processing.c **** #if (0 != (capsense_CSD_AUTOTUNE & capsense_CSD_SS_TH_EN))
  54:Generated_Source\PSoC4/capsense_Processing.c ****     #include "capsense_SmartSense_LL.h"
  55:Generated_Source\PSoC4/capsense_Processing.c **** #endif /* (0 != (capsense_CSD_AUTOTUNE & capsense_CSD_SS_TH_EN)) */
  56:Generated_Source\PSoC4/capsense_Processing.c **** 
  57:Generated_Source\PSoC4/capsense_Processing.c **** #if (capsense_ENABLE == capsense_SELF_TEST_EN)
  58:Generated_Source\PSoC4/capsense_Processing.c ****     #include "capsense_SelfTest.h"
  59:Generated_Source\PSoC4/capsense_Processing.c **** #endif
  60:Generated_Source\PSoC4/capsense_Processing.c **** 
  61:Generated_Source\PSoC4/capsense_Processing.c **** #if (capsense_ENABLE == capsense_CENTROID_5X5_CSD_EN)
  62:Generated_Source\PSoC4/capsense_Processing.c ****     #include "capsense_AdvancedCentroid_LL.h"
  63:Generated_Source\PSoC4/capsense_Processing.c **** #endif
  64:Generated_Source\PSoC4/capsense_Processing.c **** 
  65:Generated_Source\PSoC4/capsense_Processing.c **** #if (capsense_ENABLE == capsense_POS_ADAPTIVE_IIR_FILTER_EN)
  66:Generated_Source\PSoC4/capsense_Processing.c ****     #include "capsense_AdaptiveFilter_LL.h"
  67:Generated_Source\PSoC4/capsense_Processing.c **** #endif
  68:Generated_Source\PSoC4/capsense_Processing.c **** 
  69:Generated_Source\PSoC4/capsense_Processing.c **** #if(capsense_ENABLE == capsense_BALLISTIC_MULTIPLIER_EN)
  70:Generated_Source\PSoC4/capsense_Processing.c ****     #include "capsense_Gesture.h"
  71:Generated_Source\PSoC4/capsense_Processing.c **** #endif
  72:Generated_Source\PSoC4/capsense_Processing.c **** 
  73:Generated_Source\PSoC4/capsense_Processing.c **** /**************************************************************************************************
  74:Generated_Source\PSoC4/capsense_Processing.c **** * Local definition
  75:Generated_Source\PSoC4/capsense_Processing.c **** ***************************************************************************************************
  76:Generated_Source\PSoC4/capsense_Processing.c **** 
  77:Generated_Source\PSoC4/capsense_Processing.c **** /* UINT32 constant with all odd bits set. It is used by the processing function of the Proximity wi
  78:Generated_Source\PSoC4/capsense_Processing.c **** *  determine type of the status bit: odd bits report proximity status; even bits report touch statu
  79:Generated_Source\PSoC4/capsense_Processing.c **** */
  80:Generated_Source\PSoC4/capsense_Processing.c **** #define UINT32_ODD_BITS_CONST       (0x55555555u)
  81:Generated_Source\PSoC4/capsense_Processing.c **** 
  82:Generated_Source\PSoC4/capsense_Processing.c **** /* Default value for the Off Debounce counter when the Off Debounce is disabled */
  83:Generated_Source\PSoC4/capsense_Processing.c **** #define DEFAULT_OFF_DEBOUNCE_VALUE  (1u)
  84:Generated_Source\PSoC4/capsense_Processing.c **** #define PERCENTAGE_100              (100u)
  85:Generated_Source\PSoC4/capsense_Processing.c **** #define TEMP_BUFFER_MSB_SHIFT       (16)
  86:Generated_Source\PSoC4/capsense_Processing.c **** 
  87:Generated_Source\PSoC4/capsense_Processing.c **** /**************************************************************************************************
ARM GAS  C:\Users\ASUS\AppData\Local\Temp\ccuOUgOD.s 			page 3


  88:Generated_Source\PSoC4/capsense_Processing.c **** * Local variables
  89:Generated_Source\PSoC4/capsense_Processing.c **** ***************************************************************************************************
  90:Generated_Source\PSoC4/capsense_Processing.c **** #if (0u != capsense_CSX_MULTIPHASE_TX_EN)
  91:Generated_Source\PSoC4/capsense_Processing.c ****     static uint16 deconvRowData[capsense_CSX_MAX_TX_PHASE_LENGTH];
  92:Generated_Source\PSoC4/capsense_Processing.c **** #endif
  93:Generated_Source\PSoC4/capsense_Processing.c **** 
  94:Generated_Source\PSoC4/capsense_Processing.c **** 
  95:Generated_Source\PSoC4/capsense_Processing.c **** /**************************************************************************************************
  96:Generated_Source\PSoC4/capsense_Processing.c **** * Static Function Prototypes
  97:Generated_Source\PSoC4/capsense_Processing.c **** ***************************************************************************************************
  98:Generated_Source\PSoC4/capsense_Processing.c **** /**
  99:Generated_Source\PSoC4/capsense_Processing.c **** * \cond SECTION_C_INTERNAL
 100:Generated_Source\PSoC4/capsense_Processing.c **** * \addtogroup group_c_internal
 101:Generated_Source\PSoC4/capsense_Processing.c **** * \{
 102:Generated_Source\PSoC4/capsense_Processing.c **** */
 103:Generated_Source\PSoC4/capsense_Processing.c **** #if (0u != capsense_TOTAL_LINEAR_SLIDERS)
 104:Generated_Source\PSoC4/capsense_Processing.c ****     static CY_INLINE void DpUpdateLinSlider(
 105:Generated_Source\PSoC4/capsense_Processing.c ****                         const uint16 newPos[], uint32 numTouches,
 106:Generated_Source\PSoC4/capsense_Processing.c ****                         capsense_FLASH_WD_STRUCT const *ptrFlashWdgt,
 107:Generated_Source\PSoC4/capsense_Processing.c ****                         capsense_RAM_WD_SLIDER_STRUCT *ptrRamWdgt);
 108:Generated_Source\PSoC4/capsense_Processing.c **** #endif /* #if (0u != capsense_TOTAL_LINEAR_SLIDERS) */
 109:Generated_Source\PSoC4/capsense_Processing.c **** 
 110:Generated_Source\PSoC4/capsense_Processing.c **** #if (0u != capsense_TOTAL_RADIAL_SLIDERS)
 111:Generated_Source\PSoC4/capsense_Processing.c ****     static CY_INLINE void DpUpdateRadSlider(
 112:Generated_Source\PSoC4/capsense_Processing.c ****                         const uint16 newPos[], uint32 numTouches,
 113:Generated_Source\PSoC4/capsense_Processing.c ****                         capsense_FLASH_WD_STRUCT const * ptrFlashWdgt,
 114:Generated_Source\PSoC4/capsense_Processing.c ****                         capsense_RAM_WD_SLIDER_STRUCT *ptrRamWdgt);
 115:Generated_Source\PSoC4/capsense_Processing.c **** #endif /* #if (0u != capsense_TOTAL_RADIAL_SLIDERS) */
 116:Generated_Source\PSoC4/capsense_Processing.c **** 
 117:Generated_Source\PSoC4/capsense_Processing.c **** #if (0u != capsense_CSD_TOUCHPAD_WIDGET_EN)
 118:Generated_Source\PSoC4/capsense_Processing.c ****     static CY_INLINE void capsense_DpInitCsdTouchpad(capsense_FLASH_WD_STRUCT const * ptrFlashWdgt)
 119:Generated_Source\PSoC4/capsense_Processing.c **** #endif /* #if (0u != capsense_CSD_TOUCHPAD_WIDGET_EN) */
 120:Generated_Source\PSoC4/capsense_Processing.c **** 
 121:Generated_Source\PSoC4/capsense_Processing.c **** #if (0u != capsense_CSX_TOUCHPAD_WIDGET_EN)
 122:Generated_Source\PSoC4/capsense_Processing.c ****     static CY_INLINE void capsense_DpInitCsxTouchpad(capsense_FLASH_WD_STRUCT const * ptrFlashWdgt)
 123:Generated_Source\PSoC4/capsense_Processing.c **** #endif /* #if (0u != capsense_CSX_TOUCHPAD_WIDGET_EN) */
 124:Generated_Source\PSoC4/capsense_Processing.c **** 
 125:Generated_Source\PSoC4/capsense_Processing.c **** #if (0u != capsense_SLIDER_WIDGET_EN)
 126:Generated_Source\PSoC4/capsense_Processing.c ****     static CY_INLINE void capsense_DpInitSlider(capsense_FLASH_WD_STRUCT const * ptrFlashWdgt);
 127:Generated_Source\PSoC4/capsense_Processing.c **** #endif /* #if (0u != capsense_SLIDER_WIDGET_EN) */
 128:Generated_Source\PSoC4/capsense_Processing.c **** 
 129:Generated_Source\PSoC4/capsense_Processing.c **** #if (0u != capsense_CSD_MATRIX_WIDGET_EN)
 130:Generated_Source\PSoC4/capsense_Processing.c ****     static CY_INLINE void capsense_DpInitCsdMatrix(capsense_FLASH_WD_STRUCT const * ptrFlashWdgt);
 131:Generated_Source\PSoC4/capsense_Processing.c **** #endif /* #if (0u != capsense_CSD_MATRIX_WIDGET_EN) */
 132:Generated_Source\PSoC4/capsense_Processing.c **** 
 133:Generated_Source\PSoC4/capsense_Processing.c **** /** \}
 134:Generated_Source\PSoC4/capsense_Processing.c **** * \endcond */
 135:Generated_Source\PSoC4/capsense_Processing.c **** 
 136:Generated_Source\PSoC4/capsense_Processing.c **** #if (0u != capsense_CSD_TOUCHPAD_WIDGET_EN)
 137:Generated_Source\PSoC4/capsense_Processing.c **** /*******************************************************************************
 138:Generated_Source\PSoC4/capsense_Processing.c **** * Function Name: capsense_DpInitCsdTouchpad
 139:Generated_Source\PSoC4/capsense_Processing.c **** ****************************************************************************//**
 140:Generated_Source\PSoC4/capsense_Processing.c **** *
 141:Generated_Source\PSoC4/capsense_Processing.c **** * \brief
 142:Generated_Source\PSoC4/capsense_Processing.c **** *  Performs initialization of the CSD touchpad widget.
 143:Generated_Source\PSoC4/capsense_Processing.c **** *   - Resets the position data to NONE
 144:Generated_Source\PSoC4/capsense_Processing.c **** *   - Initializes the position filter history if enabled.
ARM GAS  C:\Users\ASUS\AppData\Local\Temp\ccuOUgOD.s 			page 4


 145:Generated_Source\PSoC4/capsense_Processing.c **** *
 146:Generated_Source\PSoC4/capsense_Processing.c **** * \details
 147:Generated_Source\PSoC4/capsense_Processing.c **** *  The position data is always reset to the capsense_TOUCHPAD_POS_NONE value.
 148:Generated_Source\PSoC4/capsense_Processing.c **** *  The same happens to the position filter history data if enabled.
 149:Generated_Source\PSoC4/capsense_Processing.c **** *
 150:Generated_Source\PSoC4/capsense_Processing.c **** *******************************************************************************/
 151:Generated_Source\PSoC4/capsense_Processing.c **** static CY_INLINE void capsense_DpInitCsdTouchpad(capsense_FLASH_WD_STRUCT const * ptrFlashWdgt)
 152:Generated_Source\PSoC4/capsense_Processing.c **** {
 153:Generated_Source\PSoC4/capsense_Processing.c ****     #if (capsense_ENABLE == capsense_CENTROID_5X5_CSD_EN)
 154:Generated_Source\PSoC4/capsense_Processing.c ****         uint32 touchIndex;
 155:Generated_Source\PSoC4/capsense_Processing.c ****     #endif
 156:Generated_Source\PSoC4/capsense_Processing.c **** 
 157:Generated_Source\PSoC4/capsense_Processing.c ****     capsense_RAM_WD_CSD_TOUCHPAD_STRUCT *ptrWdTouchpad;
 158:Generated_Source\PSoC4/capsense_Processing.c **** 
 159:Generated_Source\PSoC4/capsense_Processing.c ****     #if (0u != capsense_POSITION_FILTER_EN)
 160:Generated_Source\PSoC4/capsense_Processing.c ****         capsense_TOUCHPAD_POS_HISTORY_STRUCT *ptrHistory;
 161:Generated_Source\PSoC4/capsense_Processing.c ****     #endif  /* #if (0u != capsense_POSITION_FILTER_EN) */
 162:Generated_Source\PSoC4/capsense_Processing.c **** 
 163:Generated_Source\PSoC4/capsense_Processing.c ****     #if (0u != capsense_POS_ADAPTIVE_IIR_FILTER_EN)
 164:Generated_Source\PSoC4/capsense_Processing.c ****         ADAPTIVE_FILTER_CONTEXT_STRUCT adpContext;
 165:Generated_Source\PSoC4/capsense_Processing.c ****     #endif /* (0u != capsense_POS_ADAPTIVE_IIR_FILTER_EN) */
 166:Generated_Source\PSoC4/capsense_Processing.c **** 
 167:Generated_Source\PSoC4/capsense_Processing.c ****     ptrWdTouchpad = ptrFlashWdgt->ptr2WdgtRam;
 168:Generated_Source\PSoC4/capsense_Processing.c **** 
 169:Generated_Source\PSoC4/capsense_Processing.c ****     /* Reset position data */
 170:Generated_Source\PSoC4/capsense_Processing.c ****     #if (capsense_ENABLE == capsense_CENTROID_5X5_CSD_EN)
 171:Generated_Source\PSoC4/capsense_Processing.c ****         #if (capsense_ENABLE == capsense_CENTROID_3X3_CSD_EN)
 172:Generated_Source\PSoC4/capsense_Processing.c ****             if (0u != (ptrFlashWdgt->staticConfig & capsense_CENTROID_5X5_MASK))
 173:Generated_Source\PSoC4/capsense_Processing.c ****             {
 174:Generated_Source\PSoC4/capsense_Processing.c ****         #endif
 175:Generated_Source\PSoC4/capsense_Processing.c **** 
 176:Generated_Source\PSoC4/capsense_Processing.c ****         ptrWdTouchpad->position.touchNum = 0u;
 177:Generated_Source\PSoC4/capsense_Processing.c **** 
 178:Generated_Source\PSoC4/capsense_Processing.c ****         #if (0u != capsense_POSITION_FILTER_EN)
 179:Generated_Source\PSoC4/capsense_Processing.c ****             ptrHistory = ptrFlashWdgt->ptr2PosHistory;
 180:Generated_Source\PSoC4/capsense_Processing.c ****         #endif /* (0u != capsense_POSITION_FILTER_EN) */
 181:Generated_Source\PSoC4/capsense_Processing.c **** 
 182:Generated_Source\PSoC4/capsense_Processing.c ****         for (touchIndex = 0u; touchIndex < ADVANCED_CENTROID_MAX_TOUCHES; touchIndex++)
 183:Generated_Source\PSoC4/capsense_Processing.c ****         {
 184:Generated_Source\PSoC4/capsense_Processing.c ****             ptrWdTouchpad->position.pos[touchIndex].x = ADVANCED_CENTROID_POSITION_NONE;
 185:Generated_Source\PSoC4/capsense_Processing.c ****             ptrWdTouchpad->position.pos[touchIndex].y = ADVANCED_CENTROID_POSITION_NONE;
 186:Generated_Source\PSoC4/capsense_Processing.c ****             ptrWdTouchpad->position.pos[touchIndex].zX = ADVANCED_CENTROID_POSITION_NONE;
 187:Generated_Source\PSoC4/capsense_Processing.c ****             ptrWdTouchpad->position.pos[touchIndex].zY = ADVANCED_CENTROID_POSITION_NONE;
 188:Generated_Source\PSoC4/capsense_Processing.c **** 
 189:Generated_Source\PSoC4/capsense_Processing.c ****             /* Clear position filter history data if available */
 190:Generated_Source\PSoC4/capsense_Processing.c ****             #if (0u != capsense_POSITION_FILTER_EN)
 191:Generated_Source\PSoC4/capsense_Processing.c ****                 if (NULL != ptrHistory)
 192:Generated_Source\PSoC4/capsense_Processing.c ****                 {
 193:Generated_Source\PSoC4/capsense_Processing.c ****                     capsense_InitPosFiltersDd(&ptrHistory[touchIndex], capsense_TOUCHPAD_POS_NONE, 
 194:Generated_Source\PSoC4/capsense_Processing.c ****                     #if (0u != capsense_POS_ADAPTIVE_IIR_FILTER_EN)
 195:Generated_Source\PSoC4/capsense_Processing.c ****                         AdaptiveFilter_Initialize(&ptrWdTouchpad->aiirConfig, &adpContext);
 196:Generated_Source\PSoC4/capsense_Processing.c ****                         ptrHistory[touchIndex].xPos.posAIIRCoeff = adpContext.coefficient;
 197:Generated_Source\PSoC4/capsense_Processing.c ****                         ptrHistory[touchIndex].yPos.posAIIRCoeff = adpContext.coefficient;
 198:Generated_Source\PSoC4/capsense_Processing.c ****                     #endif /* (0u != capsense_POS_ADAPTIVE_IIR_FILTER_EN) */
 199:Generated_Source\PSoC4/capsense_Processing.c ****                 }
 200:Generated_Source\PSoC4/capsense_Processing.c ****             #endif /* (0u != capsense_POSITION_FILTER_EN) */
 201:Generated_Source\PSoC4/capsense_Processing.c ****         }
ARM GAS  C:\Users\ASUS\AppData\Local\Temp\ccuOUgOD.s 			page 5


 202:Generated_Source\PSoC4/capsense_Processing.c **** 
 203:Generated_Source\PSoC4/capsense_Processing.c ****         #if (capsense_ENABLE == capsense_CENTROID_3X3_CSD_EN)
 204:Generated_Source\PSoC4/capsense_Processing.c ****             }
 205:Generated_Source\PSoC4/capsense_Processing.c ****         #endif
 206:Generated_Source\PSoC4/capsense_Processing.c ****     #endif
 207:Generated_Source\PSoC4/capsense_Processing.c **** 
 208:Generated_Source\PSoC4/capsense_Processing.c ****     #if (capsense_ENABLE == capsense_CENTROID_3X3_CSD_EN)
 209:Generated_Source\PSoC4/capsense_Processing.c ****         if (0u != (ptrFlashWdgt->staticConfig & capsense_CENTROID_3X3_MASK))
 210:Generated_Source\PSoC4/capsense_Processing.c ****         {
 211:Generated_Source\PSoC4/capsense_Processing.c ****             ptrWdTouchpad->posX = capsense_TOUCHPAD_POS_NONE;
 212:Generated_Source\PSoC4/capsense_Processing.c ****             ptrWdTouchpad->posY = capsense_TOUCHPAD_POS_NONE;
 213:Generated_Source\PSoC4/capsense_Processing.c **** 
 214:Generated_Source\PSoC4/capsense_Processing.c ****             /* Clear position filter history data if available */
 215:Generated_Source\PSoC4/capsense_Processing.c ****             #if (0u != capsense_POSITION_FILTER_EN)
 216:Generated_Source\PSoC4/capsense_Processing.c ****                 ptrHistory = ptrFlashWdgt->ptr2PosHistory;
 217:Generated_Source\PSoC4/capsense_Processing.c ****                 capsense_InitPosFiltersDd(ptrHistory, capsense_TOUCHPAD_POS_NONE, capsense_TOUCHPAD
 218:Generated_Source\PSoC4/capsense_Processing.c **** 
 219:Generated_Source\PSoC4/capsense_Processing.c ****                 #if (0u != capsense_POS_ADAPTIVE_IIR_FILTER_EN)
 220:Generated_Source\PSoC4/capsense_Processing.c ****                     if (NULL != ptrHistory)
 221:Generated_Source\PSoC4/capsense_Processing.c ****                     {
 222:Generated_Source\PSoC4/capsense_Processing.c ****                         AdaptiveFilter_Initialize(&ptrWdTouchpad->aiirConfig, &adpContext);
 223:Generated_Source\PSoC4/capsense_Processing.c ****                         ptrHistory->xPos.posAIIRCoeff = adpContext.coefficient;
 224:Generated_Source\PSoC4/capsense_Processing.c ****                         ptrHistory->yPos.posAIIRCoeff = adpContext.coefficient;
 225:Generated_Source\PSoC4/capsense_Processing.c ****                     }
 226:Generated_Source\PSoC4/capsense_Processing.c ****                 #endif /* (0u != capsense_POS_ADAPTIVE_IIR_FILTER_EN) */
 227:Generated_Source\PSoC4/capsense_Processing.c ****             #endif /* (0u != capsense_POSITION_FILTER_EN) */
 228:Generated_Source\PSoC4/capsense_Processing.c ****         }
 229:Generated_Source\PSoC4/capsense_Processing.c ****     #endif
 230:Generated_Source\PSoC4/capsense_Processing.c **** }
 231:Generated_Source\PSoC4/capsense_Processing.c **** #endif /* #if (0u != capsense_CSD_TOUCHPAD_WIDGET_EN) */
 232:Generated_Source\PSoC4/capsense_Processing.c **** 
 233:Generated_Source\PSoC4/capsense_Processing.c **** #if (0u != capsense_CSX_TOUCHPAD_WIDGET_EN)
 234:Generated_Source\PSoC4/capsense_Processing.c **** /*******************************************************************************
 235:Generated_Source\PSoC4/capsense_Processing.c **** * Function Name: capsense_DpInitCsxTouchpad
 236:Generated_Source\PSoC4/capsense_Processing.c **** ****************************************************************************//**
 237:Generated_Source\PSoC4/capsense_Processing.c **** *
 238:Generated_Source\PSoC4/capsense_Processing.c **** * \brief
 239:Generated_Source\PSoC4/capsense_Processing.c **** *  Performs initialization of the CSX touchpad widget i.e. Resets the position data to NONE.
 240:Generated_Source\PSoC4/capsense_Processing.c **** *
 241:Generated_Source\PSoC4/capsense_Processing.c **** * \details
 242:Generated_Source\PSoC4/capsense_Processing.c **** *  The position data is always reset to the capsense_TOUCHPAD_POS_NONE value.
 243:Generated_Source\PSoC4/capsense_Processing.c **** *
 244:Generated_Source\PSoC4/capsense_Processing.c **** *******************************************************************************/
 245:Generated_Source\PSoC4/capsense_Processing.c **** static CY_INLINE void capsense_DpInitCsxTouchpad(capsense_FLASH_WD_STRUCT const * ptrFlashWdgt)
 246:Generated_Source\PSoC4/capsense_Processing.c **** {
 247:Generated_Source\PSoC4/capsense_Processing.c ****     capsense_RAM_WD_CSX_TOUCHPAD_STRUCT *ptrWdTouchpad;
 248:Generated_Source\PSoC4/capsense_Processing.c **** 
 249:Generated_Source\PSoC4/capsense_Processing.c ****     #if (0u != capsense_POSITION_FILTER_EN)
 250:Generated_Source\PSoC4/capsense_Processing.c ****         uint32 touchIndex;
 251:Generated_Source\PSoC4/capsense_Processing.c ****         capsense_TOUCHPAD_POS_HISTORY_STRUCT *ptrHistory;
 252:Generated_Source\PSoC4/capsense_Processing.c ****     #endif  /* #if (0u != capsense_POSITION_FILTER_EN) */
 253:Generated_Source\PSoC4/capsense_Processing.c **** 
 254:Generated_Source\PSoC4/capsense_Processing.c ****     #if (0u != capsense_POS_ADAPTIVE_IIR_FILTER_EN)
 255:Generated_Source\PSoC4/capsense_Processing.c ****         ADAPTIVE_FILTER_CONTEXT_STRUCT adpContext;
 256:Generated_Source\PSoC4/capsense_Processing.c ****     #endif /* (0u != capsense_POS_ADAPTIVE_IIR_FILTER_EN) */
 257:Generated_Source\PSoC4/capsense_Processing.c **** 
 258:Generated_Source\PSoC4/capsense_Processing.c ****     ptrWdTouchpad = ptrFlashWdgt->ptr2WdgtRam;
ARM GAS  C:\Users\ASUS\AppData\Local\Temp\ccuOUgOD.s 			page 6


 259:Generated_Source\PSoC4/capsense_Processing.c **** 
 260:Generated_Source\PSoC4/capsense_Processing.c ****     #if (0u != capsense_POSITION_FILTER_EN)
 261:Generated_Source\PSoC4/capsense_Processing.c ****         ptrHistory = ptrFlashWdgt->ptr2PosHistory;
 262:Generated_Source\PSoC4/capsense_Processing.c ****     #endif /* (0u != capsense_POSITION_FILTER_EN) */
 263:Generated_Source\PSoC4/capsense_Processing.c **** 
 264:Generated_Source\PSoC4/capsense_Processing.c ****     /* Reset position data for finger */
 265:Generated_Source\PSoC4/capsense_Processing.c ****     ptrWdTouchpad->touch[0u].x = capsense_TOUCHPAD_POS_NONE;
 266:Generated_Source\PSoC4/capsense_Processing.c ****     ptrWdTouchpad->touch[0u].y = capsense_TOUCHPAD_POS_NONE;
 267:Generated_Source\PSoC4/capsense_Processing.c ****     ptrWdTouchpad->touch[0u].z = LO8(capsense_TOUCHPAD_POS_NONE);
 268:Generated_Source\PSoC4/capsense_Processing.c **** 
 269:Generated_Source\PSoC4/capsense_Processing.c ****     #if (capsense_CSX_MAX_FINGERS > 1u)
 270:Generated_Source\PSoC4/capsense_Processing.c ****         ptrWdTouchpad->touch[1u].x = capsense_TOUCHPAD_POS_NONE;
 271:Generated_Source\PSoC4/capsense_Processing.c ****         ptrWdTouchpad->touch[1u].y = capsense_TOUCHPAD_POS_NONE;
 272:Generated_Source\PSoC4/capsense_Processing.c ****         ptrWdTouchpad->touch[1u].z = LO8(capsense_TOUCHPAD_POS_NONE);
 273:Generated_Source\PSoC4/capsense_Processing.c ****     #endif /* #if (capsense_CSX_MAX_FINGERS > 1u) */
 274:Generated_Source\PSoC4/capsense_Processing.c **** 
 275:Generated_Source\PSoC4/capsense_Processing.c ****     #if (capsense_CSX_MAX_FINGERS > 2u)
 276:Generated_Source\PSoC4/capsense_Processing.c ****         ptrWdTouchpad->touch[2u].x = capsense_TOUCHPAD_POS_NONE;
 277:Generated_Source\PSoC4/capsense_Processing.c ****         ptrWdTouchpad->touch[2u].y = capsense_TOUCHPAD_POS_NONE;
 278:Generated_Source\PSoC4/capsense_Processing.c ****         ptrWdTouchpad->touch[2u].z = LO8(capsense_TOUCHPAD_POS_NONE);
 279:Generated_Source\PSoC4/capsense_Processing.c ****     #endif /* #if (capsense_CSX_MAX_FINGERS > 2u) */
 280:Generated_Source\PSoC4/capsense_Processing.c **** 
 281:Generated_Source\PSoC4/capsense_Processing.c ****     #if (0u != capsense_POSITION_FILTER_EN)
 282:Generated_Source\PSoC4/capsense_Processing.c ****         for (touchIndex = 0u; touchIndex < capsense_CSX_MAX_FINGERS; touchIndex++)
 283:Generated_Source\PSoC4/capsense_Processing.c ****         {
 284:Generated_Source\PSoC4/capsense_Processing.c ****             if (NULL != ptrHistory)
 285:Generated_Source\PSoC4/capsense_Processing.c ****             {
 286:Generated_Source\PSoC4/capsense_Processing.c ****                 /* Clear position filter history data if available */
 287:Generated_Source\PSoC4/capsense_Processing.c ****                 capsense_InitPosFiltersDd(&ptrHistory[touchIndex], capsense_TOUCHPAD_POS_NONE, caps
 288:Generated_Source\PSoC4/capsense_Processing.c ****                 #if (0u != capsense_POS_ADAPTIVE_IIR_FILTER_EN)
 289:Generated_Source\PSoC4/capsense_Processing.c ****                     AdaptiveFilter_Initialize(&ptrWdTouchpad->aiirConfig, &adpContext);
 290:Generated_Source\PSoC4/capsense_Processing.c ****                     ptrHistory[touchIndex].xPos.posAIIRCoeff = adpContext.coefficient;
 291:Generated_Source\PSoC4/capsense_Processing.c ****                     ptrHistory[touchIndex].yPos.posAIIRCoeff = adpContext.coefficient;
 292:Generated_Source\PSoC4/capsense_Processing.c ****                 #endif /* (0u != capsense_POS_ADAPTIVE_IIR_FILTER_EN) */
 293:Generated_Source\PSoC4/capsense_Processing.c ****             }
 294:Generated_Source\PSoC4/capsense_Processing.c ****         }
 295:Generated_Source\PSoC4/capsense_Processing.c ****     #endif /* (0u != capsense_POSITION_FILTER_EN) */
 296:Generated_Source\PSoC4/capsense_Processing.c **** }
 297:Generated_Source\PSoC4/capsense_Processing.c **** #endif /* #if (0u != capsense_CSX_TOUCHPAD_WIDGET_EN) */
 298:Generated_Source\PSoC4/capsense_Processing.c **** 
 299:Generated_Source\PSoC4/capsense_Processing.c **** #if (0u != capsense_SLIDER_WIDGET_EN)
 300:Generated_Source\PSoC4/capsense_Processing.c **** /*******************************************************************************
 301:Generated_Source\PSoC4/capsense_Processing.c **** * Function Name: capsense_DpInitSlider
 302:Generated_Source\PSoC4/capsense_Processing.c **** ****************************************************************************//**
 303:Generated_Source\PSoC4/capsense_Processing.c **** *
 304:Generated_Source\PSoC4/capsense_Processing.c **** * \brief
 305:Generated_Source\PSoC4/capsense_Processing.c **** *  Performs initialization of the Radial and Linear Slider widget.
 306:Generated_Source\PSoC4/capsense_Processing.c **** *   - Resets the position data to NONE
 307:Generated_Source\PSoC4/capsense_Processing.c **** *   - Initializes the position filter history to NONE if enabled.
 308:Generated_Source\PSoC4/capsense_Processing.c **** *
 309:Generated_Source\PSoC4/capsense_Processing.c **** * \details
 310:Generated_Source\PSoC4/capsense_Processing.c **** *  Position data is always reset to the capsense_SLIDER_POS_NONE value.
 311:Generated_Source\PSoC4/capsense_Processing.c **** *  The same happens to the position filter history data if enabled.
 312:Generated_Source\PSoC4/capsense_Processing.c **** *
 313:Generated_Source\PSoC4/capsense_Processing.c **** *******************************************************************************/
 314:Generated_Source\PSoC4/capsense_Processing.c **** static CY_INLINE void capsense_DpInitSlider(capsense_FLASH_WD_STRUCT const * ptrFlashWdgt)
 315:Generated_Source\PSoC4/capsense_Processing.c **** {
ARM GAS  C:\Users\ASUS\AppData\Local\Temp\ccuOUgOD.s 			page 7


 316:Generated_Source\PSoC4/capsense_Processing.c ****     uint32 idx;
 317:Generated_Source\PSoC4/capsense_Processing.c ****     capsense_RAM_WD_SLIDER_STRUCT *ptrWdSlider;
 318:Generated_Source\PSoC4/capsense_Processing.c **** 
 319:Generated_Source\PSoC4/capsense_Processing.c ****     #if (0u != capsense_POSITION_FILTER_EN)
 320:Generated_Source\PSoC4/capsense_Processing.c ****         capsense_SLIDER_POS_HISTORY_STRUCT *ptrHistory;
 321:Generated_Source\PSoC4/capsense_Processing.c ****     #endif /* #if (0u != capsense_POSITION_FILTER_EN) */
 322:Generated_Source\PSoC4/capsense_Processing.c **** 
 323:Generated_Source\PSoC4/capsense_Processing.c ****     #if (0u != capsense_POS_ADAPTIVE_IIR_FILTER_EN)
 324:Generated_Source\PSoC4/capsense_Processing.c ****         ADAPTIVE_FILTER_CONTEXT_STRUCT context;
 325:Generated_Source\PSoC4/capsense_Processing.c ****     #endif /* (0u != capsense_POS_ADAPTIVE_IIR_FILTER_EN) */
 326:Generated_Source\PSoC4/capsense_Processing.c **** 
 327:Generated_Source\PSoC4/capsense_Processing.c ****     ptrWdSlider = ptrFlashWdgt->ptr2WdgtRam;
 328:Generated_Source\PSoC4/capsense_Processing.c **** 
 329:Generated_Source\PSoC4/capsense_Processing.c ****     /* Reset slider position data to NONE */
 330:Generated_Source\PSoC4/capsense_Processing.c ****     for (idx = 0u; idx < capsense_NUM_CENTROIDS; idx++)
 331:Generated_Source\PSoC4/capsense_Processing.c ****     {
 332:Generated_Source\PSoC4/capsense_Processing.c ****         ptrWdSlider->position[idx] = capsense_SLIDER_POS_NONE;
 333:Generated_Source\PSoC4/capsense_Processing.c **** 
 334:Generated_Source\PSoC4/capsense_Processing.c ****         #if (0u != capsense_POSITION_FILTER_EN)
 335:Generated_Source\PSoC4/capsense_Processing.c ****             ptrHistory = ptrFlashWdgt->ptr2PosHistory;
 336:Generated_Source\PSoC4/capsense_Processing.c ****             if (NULL != ptrHistory)
 337:Generated_Source\PSoC4/capsense_Processing.c ****             {
 338:Generated_Source\PSoC4/capsense_Processing.c ****                 capsense_InitPosFiltersSd(&ptrHistory[idx], capsense_SLIDER_POS_NONE);
 339:Generated_Source\PSoC4/capsense_Processing.c ****                 #if (0u != capsense_POS_ADAPTIVE_IIR_FILTER_EN)
 340:Generated_Source\PSoC4/capsense_Processing.c ****                     AdaptiveFilter_Initialize(&ptrWdSlider->aiirConfig, &context);
 341:Generated_Source\PSoC4/capsense_Processing.c ****                     ptrHistory->posAIIRCoeff = context.coefficient;
 342:Generated_Source\PSoC4/capsense_Processing.c ****                 #endif /* (0u != capsense_POS_ADAPTIVE_IIR_FILTER_EN) */
 343:Generated_Source\PSoC4/capsense_Processing.c ****             }
 344:Generated_Source\PSoC4/capsense_Processing.c **** 
 345:Generated_Source\PSoC4/capsense_Processing.c ****         #endif /* #if (0u != capsense_POSITION_FILTER_EN) */
 346:Generated_Source\PSoC4/capsense_Processing.c ****     }
 347:Generated_Source\PSoC4/capsense_Processing.c **** }
 348:Generated_Source\PSoC4/capsense_Processing.c **** #endif /* #if (0u != capsense_SLIDER_WIDGET_EN) */
 349:Generated_Source\PSoC4/capsense_Processing.c **** 
 350:Generated_Source\PSoC4/capsense_Processing.c **** #if (0u != capsense_CSD_MATRIX_WIDGET_EN)
 351:Generated_Source\PSoC4/capsense_Processing.c **** /*******************************************************************************
 352:Generated_Source\PSoC4/capsense_Processing.c **** * Function Name: capsense_DpInitCsdMatrix
 353:Generated_Source\PSoC4/capsense_Processing.c **** ****************************************************************************//**
 354:Generated_Source\PSoC4/capsense_Processing.c **** *
 355:Generated_Source\PSoC4/capsense_Processing.c **** * \brief
 356:Generated_Source\PSoC4/capsense_Processing.c **** *  Performs initialization of the CSD Matrix Buttons widget.
 357:Generated_Source\PSoC4/capsense_Processing.c **** *   - Resets the active button position data to NONE.
 358:Generated_Source\PSoC4/capsense_Processing.c **** *
 359:Generated_Source\PSoC4/capsense_Processing.c **** * \details
 360:Generated_Source\PSoC4/capsense_Processing.c **** *  Position data is always reset to the capsense_MATRIX_POS_NONE value.
 361:Generated_Source\PSoC4/capsense_Processing.c **** *
 362:Generated_Source\PSoC4/capsense_Processing.c **** *******************************************************************************/
 363:Generated_Source\PSoC4/capsense_Processing.c **** static CY_INLINE void capsense_DpInitCsdMatrix(capsense_FLASH_WD_STRUCT const * ptrFlashWdgt)
 364:Generated_Source\PSoC4/capsense_Processing.c **** {
 365:Generated_Source\PSoC4/capsense_Processing.c ****     capsense_RAM_WD_CSD_MATRIX_STRUCT *ptrRamWdgt;
 366:Generated_Source\PSoC4/capsense_Processing.c **** 
 367:Generated_Source\PSoC4/capsense_Processing.c ****     ptrRamWdgt = (capsense_RAM_WD_CSD_MATRIX_STRUCT *)ptrFlashWdgt->ptr2WdgtRam;
 368:Generated_Source\PSoC4/capsense_Processing.c **** 
 369:Generated_Source\PSoC4/capsense_Processing.c ****     /* Reset sensor id, row and col registers in data structure */
 370:Generated_Source\PSoC4/capsense_Processing.c ****     ptrRamWdgt->posRow   = capsense_MATRIX_POS_NONE;
 371:Generated_Source\PSoC4/capsense_Processing.c ****     ptrRamWdgt->posCol   = capsense_MATRIX_POS_NONE;
 372:Generated_Source\PSoC4/capsense_Processing.c ****     ptrRamWdgt->posSnsId = capsense_MATRIX_POS_NONE;
ARM GAS  C:\Users\ASUS\AppData\Local\Temp\ccuOUgOD.s 			page 8


 373:Generated_Source\PSoC4/capsense_Processing.c **** }
 374:Generated_Source\PSoC4/capsense_Processing.c **** #endif /* #if (0u != capsense_CSD_MATRIX_WIDGET_EN) */
 375:Generated_Source\PSoC4/capsense_Processing.c **** 
 376:Generated_Source\PSoC4/capsense_Processing.c **** /*******************************************************************************
 377:Generated_Source\PSoC4/capsense_Processing.c **** * Function Name: capsense_DpInitialize
 378:Generated_Source\PSoC4/capsense_Processing.c **** ****************************************************************************//**
 379:Generated_Source\PSoC4/capsense_Processing.c **** *
 380:Generated_Source\PSoC4/capsense_Processing.c **** * \brief
 381:Generated_Source\PSoC4/capsense_Processing.c **** *  Performs initialization of the data processing FW module:
 382:Generated_Source\PSoC4/capsense_Processing.c **** *   - Resets the de-bounce counters of all the widgets
 383:Generated_Source\PSoC4/capsense_Processing.c **** *   - Resets the position filter history for slider and touchpad widgets
 384:Generated_Source\PSoC4/capsense_Processing.c **** *   - Clears widget and sensor statuses
 385:Generated_Source\PSoC4/capsense_Processing.c **** *   - Enables all the widgets.
 386:Generated_Source\PSoC4/capsense_Processing.c **** *
 387:Generated_Source\PSoC4/capsense_Processing.c **** * \details
 388:Generated_Source\PSoC4/capsense_Processing.c **** *  The Button and Matrix Button widgets have individual de-bounce counter per
 389:Generated_Source\PSoC4/capsense_Processing.c **** *  sensor for the CSD widgets and per node for the CSX widgets.
 390:Generated_Source\PSoC4/capsense_Processing.c **** *
 391:Generated_Source\PSoC4/capsense_Processing.c **** *  The Slider and Touchpad widgets have a single de-bounce counter per widget.
 392:Generated_Source\PSoC4/capsense_Processing.c **** *
 393:Generated_Source\PSoC4/capsense_Processing.c **** *  The Proximity widget has two de-bounce counters per sensor. One for the
 394:Generated_Source\PSoC4/capsense_Processing.c **** *  proximity event and second for the touch event.
 395:Generated_Source\PSoC4/capsense_Processing.c **** *
 396:Generated_Source\PSoC4/capsense_Processing.c **** *  All debounce counters during initialization are set to the value of the
 397:Generated_Source\PSoC4/capsense_Processing.c **** *  onDebounce widget parameter.
 398:Generated_Source\PSoC4/capsense_Processing.c **** *
 399:Generated_Source\PSoC4/capsense_Processing.c **** *******************************************************************************/
 400:Generated_Source\PSoC4/capsense_Processing.c **** void capsense_DpInitialize(void)
 401:Generated_Source\PSoC4/capsense_Processing.c **** {
  28              		.loc 1 401 0
  29              		.cfi_startproc
  30              		@ args = 0, pretend = 0, frame = 0
  31              		@ frame_needed = 0, uses_anonymous_args = 0
  32 0000 70B5     		push	{r4, r5, r6, lr}
  33              		.cfi_def_cfa_offset 16
  34              		.cfi_offset 4, -16
  35              		.cfi_offset 5, -12
  36              		.cfi_offset 6, -8
  37              		.cfi_offset 14, -4
  38              	.LVL0:
 402:Generated_Source\PSoC4/capsense_Processing.c ****     uint32 wdgtId;
 403:Generated_Source\PSoC4/capsense_Processing.c ****     capsense_WD_TYPE_ENUM widgetType;
 404:Generated_Source\PSoC4/capsense_Processing.c ****     capsense_RAM_WD_BASE_STRUCT * ptrRamWdgt;
 405:Generated_Source\PSoC4/capsense_Processing.c ****     capsense_FLASH_WD_STRUCT const * ptrFlashWdgt;
 406:Generated_Source\PSoC4/capsense_Processing.c **** 
 407:Generated_Source\PSoC4/capsense_Processing.c ****     for (wdgtId = 0u; wdgtId < capsense_WDGT_STATUS_WORDS; wdgtId++)
  39              		.loc 1 407 0
  40 0002 0023     		movs	r3, #0
  41 0004 09E0     		b	.L2
  42              	.LVL1:
  43              	.L3:
 408:Generated_Source\PSoC4/capsense_Processing.c ****     {
 409:Generated_Source\PSoC4/capsense_Processing.c ****         /* Clear widget status */
 410:Generated_Source\PSoC4/capsense_Processing.c ****         capsense_dsRam.wdgtStatus[wdgtId] = 0u;
  44              		.loc 1 410 0 discriminator 3
  45 0006 1D49     		ldr	r1, .L13
  46 0008 1A1D     		adds	r2, r3, #4
ARM GAS  C:\Users\ASUS\AppData\Local\Temp\ccuOUgOD.s 			page 9


  47 000a 9200     		lsls	r2, r2, #2
  48 000c 8818     		adds	r0, r1, r2
  49 000e 0024     		movs	r4, #0
  50 0010 4460     		str	r4, [r0, #4]
 411:Generated_Source\PSoC4/capsense_Processing.c **** 
 412:Generated_Source\PSoC4/capsense_Processing.c ****         /* Enable all the widgets */
 413:Generated_Source\PSoC4/capsense_Processing.c ****         capsense_dsRam.wdgtEnable[wdgtId] = 0xFFFFFFFFLu;
  51              		.loc 1 413 0 discriminator 3
  52 0012 0120     		movs	r0, #1
  53 0014 4042     		rsbs	r0, r0, #0
  54 0016 5050     		str	r0, [r2, r1]
 407:Generated_Source\PSoC4/capsense_Processing.c ****     {
  55              		.loc 1 407 0 discriminator 3
  56 0018 0133     		adds	r3, r3, #1
  57              	.LVL2:
  58              	.L2:
 407:Generated_Source\PSoC4/capsense_Processing.c ****     {
  59              		.loc 1 407 0 is_stmt 0 discriminator 1
  60 001a 002B     		cmp	r3, #0
  61 001c F3D0     		beq	.L3
  62 001e 184C     		ldr	r4, .L13+4
  63 0020 0423     		movs	r3, #4
  64              	.LVL3:
  65 0022 27E0     		b	.L4
  66              	.LVL4:
  67              	.L11:
 414:Generated_Source\PSoC4/capsense_Processing.c **** 
 415:Generated_Source\PSoC4/capsense_Processing.c ****         /* Set all the widgets to working state if the Self-Test is not enabled */
 416:Generated_Source\PSoC4/capsense_Processing.c ****         #if (0u != capsense_SELF_TEST_EN)
 417:Generated_Source\PSoC4/capsense_Processing.c ****             capsense_dsRam.wdgtWorking[wdgtId] = 0xFFFFFFFFLu;
 418:Generated_Source\PSoC4/capsense_Processing.c ****         #endif /* #if (0u == capsense_SELF_TEST_EN) */
 419:Generated_Source\PSoC4/capsense_Processing.c ****     }
 420:Generated_Source\PSoC4/capsense_Processing.c **** 
 421:Generated_Source\PSoC4/capsense_Processing.c ****     ptrFlashWdgt = capsense_dsFlash.wdgtArray;
 422:Generated_Source\PSoC4/capsense_Processing.c **** 
 423:Generated_Source\PSoC4/capsense_Processing.c ****     for (wdgtId = capsense_TOTAL_WIDGETS; wdgtId-- > 0u; )
 424:Generated_Source\PSoC4/capsense_Processing.c ****     {
 425:Generated_Source\PSoC4/capsense_Processing.c ****         ptrRamWdgt = (capsense_RAM_WD_BASE_STRUCT *)ptrFlashWdgt->ptr2WdgtRam;
  68              		.loc 1 425 0 is_stmt 1
  69 0024 6668     		ldr	r6, [r4, #4]
  70              	.LVL5:
 426:Generated_Source\PSoC4/capsense_Processing.c ****         widgetType = (capsense_WD_TYPE_ENUM)ptrFlashWdgt->wdgtType;
  71              		.loc 1 426 0
  72 0026 A27E     		ldrb	r2, [r4, #26]
  73              	.LVL6:
 427:Generated_Source\PSoC4/capsense_Processing.c **** 
 428:Generated_Source\PSoC4/capsense_Processing.c ****         /* Clear all sensor statuses */
 429:Generated_Source\PSoC4/capsense_Processing.c ****         capsense_dsRam.snsStatus[wdgtId] = 0u;
  74              		.loc 1 429 0
  75 0028 144B     		ldr	r3, .L13
  76 002a 5B19     		adds	r3, r3, r5
  77 002c 0021     		movs	r1, #0
  78 002e 1976     		strb	r1, [r3, #24]
 430:Generated_Source\PSoC4/capsense_Processing.c **** 
 431:Generated_Source\PSoC4/capsense_Processing.c ****         /* Reset de-bounce counters */
 432:Generated_Source\PSoC4/capsense_Processing.c ****         switch (widgetType)
  79              		.loc 1 432 0
ARM GAS  C:\Users\ASUS\AppData\Local\Temp\ccuOUgOD.s 			page 10


  80 0030 012A     		cmp	r2, #1
  81 0032 04D0     		beq	.L6
  82 0034 002A     		cmp	r2, #0
  83 0036 1BD0     		beq	.L5
  84 0038 032A     		cmp	r2, #3
  85 003a 08D9     		bls	.L12
  86 003c 18E0     		b	.L5
  87              	.L6:
 433:Generated_Source\PSoC4/capsense_Processing.c ****         {
 434:Generated_Source\PSoC4/capsense_Processing.c ****         #if (0u != capsense_MATRIX_WIDGET_EN)
 435:Generated_Source\PSoC4/capsense_Processing.c ****             case capsense_WD_MATRIX_BUTTON_E:
 436:Generated_Source\PSoC4/capsense_Processing.c ****                 #if (0u != capsense_CSD_MATRIX_WIDGET_EN)
 437:Generated_Source\PSoC4/capsense_Processing.c ****                     if (capsense_SENSE_METHOD_CSD_E == capsense_GET_SENSE_METHOD(ptrFlashWdgt))
 438:Generated_Source\PSoC4/capsense_Processing.c ****                     {
 439:Generated_Source\PSoC4/capsense_Processing.c ****                         capsense_DpInitCsdMatrix(ptrFlashWdgt);
 440:Generated_Source\PSoC4/capsense_Processing.c ****                     }
 441:Generated_Source\PSoC4/capsense_Processing.c ****                 #endif /* #if (0u != capsense_CSD_MATRIX_WIDGET_EN) */
 442:Generated_Source\PSoC4/capsense_Processing.c **** 
 443:Generated_Source\PSoC4/capsense_Processing.c ****                 if (NULL != ptrFlashWdgt->ptr2DebounceArr)
 444:Generated_Source\PSoC4/capsense_Processing.c ****                 {
 445:Generated_Source\PSoC4/capsense_Processing.c ****                     /* Initialize array of debounce counters */
 446:Generated_Source\PSoC4/capsense_Processing.c ****                     (void)memset(ptrFlashWdgt->ptr2DebounceArr,
 447:Generated_Source\PSoC4/capsense_Processing.c ****                                  (int32)ptrRamWdgt->onDebounce,
 448:Generated_Source\PSoC4/capsense_Processing.c ****                                  (size_t)ptrFlashWdgt->totalNumSns);
 449:Generated_Source\PSoC4/capsense_Processing.c ****                 }
 450:Generated_Source\PSoC4/capsense_Processing.c ****                 break;
 451:Generated_Source\PSoC4/capsense_Processing.c ****         #endif /* #if (0u != capsense_MATRIX_WIDGET_EN) */
 452:Generated_Source\PSoC4/capsense_Processing.c **** 
 453:Generated_Source\PSoC4/capsense_Processing.c ****         #if (0u != capsense_BUTTON_WIDGET_EN)
 454:Generated_Source\PSoC4/capsense_Processing.c ****             case capsense_WD_BUTTON_E:
 455:Generated_Source\PSoC4/capsense_Processing.c ****                 if (NULL != ptrFlashWdgt->ptr2DebounceArr)
  88              		.loc 1 455 0
  89 003e 2069     		ldr	r0, [r4, #16]
  90 0040 0028     		cmp	r0, #0
  91 0042 15D0     		beq	.L5
 456:Generated_Source\PSoC4/capsense_Processing.c ****                 {
 457:Generated_Source\PSoC4/capsense_Processing.c ****                     /* Initialize array of debounce counters */
 458:Generated_Source\PSoC4/capsense_Processing.c ****                     (void)memset(ptrFlashWdgt->ptr2DebounceArr,
 459:Generated_Source\PSoC4/capsense_Processing.c ****                                  (int32)ptrRamWdgt->onDebounce,
  92              		.loc 1 459 0
  93 0044 F179     		ldrb	r1, [r6, #7]
 460:Generated_Source\PSoC4/capsense_Processing.c ****                                  (size_t)ptrFlashWdgt->totalNumSns);
  94              		.loc 1 460 0
  95 0046 228B     		ldrh	r2, [r4, #24]
  96              	.LVL7:
 458:Generated_Source\PSoC4/capsense_Processing.c ****                                  (int32)ptrRamWdgt->onDebounce,
  97              		.loc 1 458 0
  98 0048 FFF7FEFF 		bl	memset
  99              	.LVL8:
 100 004c 10E0     		b	.L5
 101              	.LVL9:
 102              	.L12:
 461:Generated_Source\PSoC4/capsense_Processing.c ****                 }
 462:Generated_Source\PSoC4/capsense_Processing.c ****                 break;
 463:Generated_Source\PSoC4/capsense_Processing.c ****         #endif /* #if (0u != capsense_BUTTON_WIDGET_EN) */
 464:Generated_Source\PSoC4/capsense_Processing.c **** 
 465:Generated_Source\PSoC4/capsense_Processing.c ****         #if (0u != capsense_SLIDER_WIDGET_EN)
ARM GAS  C:\Users\ASUS\AppData\Local\Temp\ccuOUgOD.s 			page 11


 466:Generated_Source\PSoC4/capsense_Processing.c ****             case capsense_WD_LINEAR_SLIDER_E:
 467:Generated_Source\PSoC4/capsense_Processing.c ****             case capsense_WD_RADIAL_SLIDER_E:
 468:Generated_Source\PSoC4/capsense_Processing.c ****                 if (NULL != ptrFlashWdgt->ptr2DebounceArr)
 103              		.loc 1 468 0
 104 004e 2369     		ldr	r3, [r4, #16]
 105 0050 002B     		cmp	r3, #0
 106 0052 01D0     		beq	.L8
 469:Generated_Source\PSoC4/capsense_Processing.c ****                 {
 470:Generated_Source\PSoC4/capsense_Processing.c ****                     /* Initialize single debounce counter of slider */
 471:Generated_Source\PSoC4/capsense_Processing.c ****                     *(uint8 *)(ptrFlashWdgt->ptr2DebounceArr) = ptrRamWdgt->onDebounce;
 107              		.loc 1 471 0
 108 0054 F279     		ldrb	r2, [r6, #7]
 109              	.LVL10:
 110 0056 1A70     		strb	r2, [r3]
 111              	.L8:
 112              	.LVL11:
 113              	.LBB6:
 114              	.LBB7:
 327:Generated_Source\PSoC4/capsense_Processing.c **** 
 115              		.loc 1 327 0
 116 0058 6168     		ldr	r1, [r4, #4]
 117              	.LVL12:
 330:Generated_Source\PSoC4/capsense_Processing.c ****     {
 118              		.loc 1 330 0
 119 005a 0023     		movs	r3, #0
 120 005c 06E0     		b	.L9
 121              	.LVL13:
 122              	.L10:
 332:Generated_Source\PSoC4/capsense_Processing.c **** 
 123              		.loc 1 332 0
 124 005e 1A00     		movs	r2, r3
 125 0060 0832     		adds	r2, r2, #8
 126 0062 5200     		lsls	r2, r2, #1
 127 0064 0120     		movs	r0, #1
 128 0066 4042     		rsbs	r0, r0, #0
 129 0068 5052     		strh	r0, [r2, r1]
 330:Generated_Source\PSoC4/capsense_Processing.c ****     {
 130              		.loc 1 330 0
 131 006a 0133     		adds	r3, r3, #1
 132              	.LVL14:
 133              	.L9:
 134 006c 002B     		cmp	r3, #0
 135 006e F6D0     		beq	.L10
 136              	.LVL15:
 137              	.L5:
 138              	.LBE7:
 139              	.LBE6:
 472:Generated_Source\PSoC4/capsense_Processing.c ****                 }
 473:Generated_Source\PSoC4/capsense_Processing.c **** 
 474:Generated_Source\PSoC4/capsense_Processing.c ****                 capsense_DpInitSlider(ptrFlashWdgt);
 475:Generated_Source\PSoC4/capsense_Processing.c **** 
 476:Generated_Source\PSoC4/capsense_Processing.c ****                 break;
 477:Generated_Source\PSoC4/capsense_Processing.c ****         #endif /* #if (0u != capsense_SLIDER_WIDGET_EN) */
 478:Generated_Source\PSoC4/capsense_Processing.c **** 
 479:Generated_Source\PSoC4/capsense_Processing.c ****         #if (0u != capsense_TOUCHPAD_WIDGET_EN)
 480:Generated_Source\PSoC4/capsense_Processing.c ****             case capsense_WD_TOUCHPAD_E:
 481:Generated_Source\PSoC4/capsense_Processing.c ****                 if (NULL != ptrFlashWdgt->ptr2DebounceArr)
ARM GAS  C:\Users\ASUS\AppData\Local\Temp\ccuOUgOD.s 			page 12


 482:Generated_Source\PSoC4/capsense_Processing.c ****                 {
 483:Generated_Source\PSoC4/capsense_Processing.c ****                     /* Initialize single debounce counter of touchpad */
 484:Generated_Source\PSoC4/capsense_Processing.c ****                     *(uint8 *)(ptrFlashWdgt->ptr2DebounceArr) = ptrRamWdgt->onDebounce;
 485:Generated_Source\PSoC4/capsense_Processing.c ****                 }
 486:Generated_Source\PSoC4/capsense_Processing.c **** 
 487:Generated_Source\PSoC4/capsense_Processing.c ****                 #if (0u != capsense_CSD_TOUCHPAD_WIDGET_EN)
 488:Generated_Source\PSoC4/capsense_Processing.c ****                     if (capsense_SENSE_METHOD_CSD_E == capsense_GET_SENSE_METHOD(ptrFlashWdgt))
 489:Generated_Source\PSoC4/capsense_Processing.c ****                     {
 490:Generated_Source\PSoC4/capsense_Processing.c ****                         capsense_DpInitCsdTouchpad(ptrFlashWdgt);
 491:Generated_Source\PSoC4/capsense_Processing.c ****                     }
 492:Generated_Source\PSoC4/capsense_Processing.c ****                 #endif /* #if (0u != capsense_CSD_TOUCHPAD_WIDGET_EN) */
 493:Generated_Source\PSoC4/capsense_Processing.c **** 
 494:Generated_Source\PSoC4/capsense_Processing.c ****                 #if (0u != capsense_CSX_TOUCHPAD_WIDGET_EN)
 495:Generated_Source\PSoC4/capsense_Processing.c ****                     if (capsense_SENSE_METHOD_CSX_E == capsense_GET_SENSE_METHOD(ptrFlashWdgt))
 496:Generated_Source\PSoC4/capsense_Processing.c ****                     {
 497:Generated_Source\PSoC4/capsense_Processing.c ****                         capsense_DpInitCsxTouchpad(ptrFlashWdgt);
 498:Generated_Source\PSoC4/capsense_Processing.c ****                     }
 499:Generated_Source\PSoC4/capsense_Processing.c ****                 #endif /* #if (0u != capsense_CSX_TOUCHPAD_WIDGET_EN) */
 500:Generated_Source\PSoC4/capsense_Processing.c **** 
 501:Generated_Source\PSoC4/capsense_Processing.c ****                 break;
 502:Generated_Source\PSoC4/capsense_Processing.c ****         #endif /* #if (0u != capsense_TOUCHPAD_WIDGET_EN) */
 503:Generated_Source\PSoC4/capsense_Processing.c **** 
 504:Generated_Source\PSoC4/capsense_Processing.c ****         #if (0u != capsense_PROXIMITY_WIDGET_EN)
 505:Generated_Source\PSoC4/capsense_Processing.c ****             case capsense_WD_PROXIMITY_E:
 506:Generated_Source\PSoC4/capsense_Processing.c ****                 if (NULL != ptrFlashWdgt->ptr2DebounceArr)
 507:Generated_Source\PSoC4/capsense_Processing.c ****                 {
 508:Generated_Source\PSoC4/capsense_Processing.c ****                     /* Proximity widgets have 2 de-bounce counters per sensor.
 509:Generated_Source\PSoC4/capsense_Processing.c ****                      * Therefore the number of sensors is multiplied by 2.
 510:Generated_Source\PSoC4/capsense_Processing.c ****                      */
 511:Generated_Source\PSoC4/capsense_Processing.c ****                    (void)memset(ptrFlashWdgt->ptr2DebounceArr,
 512:Generated_Source\PSoC4/capsense_Processing.c ****                                 (int32)ptrRamWdgt->onDebounce,
 513:Generated_Source\PSoC4/capsense_Processing.c ****                                 (size_t)ptrFlashWdgt->totalNumSns * 2u);
 514:Generated_Source\PSoC4/capsense_Processing.c ****                 }
 515:Generated_Source\PSoC4/capsense_Processing.c ****                 break;
 516:Generated_Source\PSoC4/capsense_Processing.c ****         #endif /* #if (0u != capsense_PROXIMITY_WIDGET_EN) */
 517:Generated_Source\PSoC4/capsense_Processing.c **** 
 518:Generated_Source\PSoC4/capsense_Processing.c ****         #if (0u != capsense_ENCODERDIAL_WIDGET_EN)
 519:Generated_Source\PSoC4/capsense_Processing.c ****             case capsense_WD_ENCODERDIAL_E:
 520:Generated_Source\PSoC4/capsense_Processing.c ****                 if (NULL != ptrFlashWdgt->ptr2DebounceArr)
 521:Generated_Source\PSoC4/capsense_Processing.c ****                 {
 522:Generated_Source\PSoC4/capsense_Processing.c ****                     /* Proximity widgets have 2 de-bounce counters per sensor.
 523:Generated_Source\PSoC4/capsense_Processing.c ****                      * Therefore the number of sensors is multiplied by 2.
 524:Generated_Source\PSoC4/capsense_Processing.c ****                      */
 525:Generated_Source\PSoC4/capsense_Processing.c ****                    (void)memset(ptrFlashWdgt->ptr2DebounceArr,
 526:Generated_Source\PSoC4/capsense_Processing.c ****                                 (int32)ptrRamWdgt->onDebounce,
 527:Generated_Source\PSoC4/capsense_Processing.c ****                                 (size_t)ptrFlashWdgt->totalNumSns);
 528:Generated_Source\PSoC4/capsense_Processing.c ****                 }
 529:Generated_Source\PSoC4/capsense_Processing.c ****                 break;
 530:Generated_Source\PSoC4/capsense_Processing.c ****         #endif /* (0u != capsense_ENCODERDIAL_WIDGET_EN) */
 531:Generated_Source\PSoC4/capsense_Processing.c ****             default:
 532:Generated_Source\PSoC4/capsense_Processing.c ****                 break;
 533:Generated_Source\PSoC4/capsense_Processing.c ****         }
 534:Generated_Source\PSoC4/capsense_Processing.c **** 
 535:Generated_Source\PSoC4/capsense_Processing.c ****         /* Move to next widget */
 536:Generated_Source\PSoC4/capsense_Processing.c ****         ptrFlashWdgt++;
 140              		.loc 1 536 0
 141 0070 2834     		adds	r4, r4, #40
ARM GAS  C:\Users\ASUS\AppData\Local\Temp\ccuOUgOD.s 			page 13


 142              	.LVL16:
 423:Generated_Source\PSoC4/capsense_Processing.c ****     {
 143              		.loc 1 423 0
 144 0072 2B00     		movs	r3, r5
 145              	.LVL17:
 146              	.L4:
 423:Generated_Source\PSoC4/capsense_Processing.c ****     {
 147              		.loc 1 423 0 is_stmt 0 discriminator 1
 148 0074 5D1E     		subs	r5, r3, #1
 149              	.LVL18:
 150 0076 002B     		cmp	r3, #0
 151 0078 D4D1     		bne	.L11
 537:Generated_Source\PSoC4/capsense_Processing.c ****     }
 538:Generated_Source\PSoC4/capsense_Processing.c **** }
 152              		.loc 1 538 0 is_stmt 1
 153              		@ sp needed
 154              	.LVL19:
 155              	.LVL20:
 156 007a 70BD     		pop	{r4, r5, r6, pc}
 157              	.L14:
 158              		.align	2
 159              	.L13:
 160 007c 00000000 		.word	capsense_dsRam
 161 0080 00000000 		.word	capsense_dsFlash
 162              		.cfi_endproc
 163              	.LFE2:
 164              		.size	capsense_DpInitialize, .-capsense_DpInitialize
 165              		.section	.text.capsense_DpUpdateDifferences,"ax",%progbits
 166              		.align	2
 167              		.global	capsense_DpUpdateDifferences
 168              		.code	16
 169              		.thumb_func
 170              		.type	capsense_DpUpdateDifferences, %function
 171              	capsense_DpUpdateDifferences:
 172              	.LFB9:
 539:Generated_Source\PSoC4/capsense_Processing.c **** 
 540:Generated_Source\PSoC4/capsense_Processing.c **** #if (0u != capsense_TOTAL_CSX_WIDGETS)
 541:Generated_Source\PSoC4/capsense_Processing.c **** /*******************************************************************************
 542:Generated_Source\PSoC4/capsense_Processing.c **** * Function Name: capsense_DpProcessCsxWidgetRawCounts
 543:Generated_Source\PSoC4/capsense_Processing.c **** ****************************************************************************//**
 544:Generated_Source\PSoC4/capsense_Processing.c **** *
 545:Generated_Source\PSoC4/capsense_Processing.c **** * \brief
 546:Generated_Source\PSoC4/capsense_Processing.c **** *  Performs default processing of the CSX raw counts.
 547:Generated_Source\PSoC4/capsense_Processing.c **** *
 548:Generated_Source\PSoC4/capsense_Processing.c **** * \details
 549:Generated_Source\PSoC4/capsense_Processing.c **** *  Performs default processing of the CSX raw counts:
 550:Generated_Source\PSoC4/capsense_Processing.c **** *   - Run Filters
 551:Generated_Source\PSoC4/capsense_Processing.c **** *   - Update Baselines
 552:Generated_Source\PSoC4/capsense_Processing.c **** *   - Update Differences
 553:Generated_Source\PSoC4/capsense_Processing.c **** *   - Update Status.
 554:Generated_Source\PSoC4/capsense_Processing.c **** *  The same process is applied to all the sensors of the specified widget.
 555:Generated_Source\PSoC4/capsense_Processing.c **** *
 556:Generated_Source\PSoC4/capsense_Processing.c **** * \param ptrFlashWdgt The pointer to the Flash widget structure.
 557:Generated_Source\PSoC4/capsense_Processing.c **** *
 558:Generated_Source\PSoC4/capsense_Processing.c **** * \return
 559:Generated_Source\PSoC4/capsense_Processing.c **** *  Returns the status of the specified widget processing operation:
 560:Generated_Source\PSoC4/capsense_Processing.c **** *  - CYRET_SUCCESS if operation was successfully completed;
ARM GAS  C:\Users\ASUS\AppData\Local\Temp\ccuOUgOD.s 			page 14


 561:Generated_Source\PSoC4/capsense_Processing.c **** *  - capsense_PROCESS_BASELINE_FAILED if baseline processing of any
 562:Generated_Source\PSoC4/capsense_Processing.c **** *    sensor of the specified widget failed. The result is concatenated with the index
 563:Generated_Source\PSoC4/capsense_Processing.c **** *    of failed sensor.
 564:Generated_Source\PSoC4/capsense_Processing.c **** *
 565:Generated_Source\PSoC4/capsense_Processing.c **** *******************************************************************************/
 566:Generated_Source\PSoC4/capsense_Processing.c **** uint32 capsense_DpProcessCsxWidgetRawCounts(capsense_FLASH_WD_STRUCT const *ptrFlashWdgt)
 567:Generated_Source\PSoC4/capsense_Processing.c **** {
 568:Generated_Source\PSoC4/capsense_Processing.c ****     uint32 result = CYRET_SUCCESS;
 569:Generated_Source\PSoC4/capsense_Processing.c ****     uint32 widgetType;
 570:Generated_Source\PSoC4/capsense_Processing.c ****     uint32 snsCount;
 571:Generated_Source\PSoC4/capsense_Processing.c ****     capsense_RAM_SNS_STRUCT *ptrSnsTmp;
 572:Generated_Source\PSoC4/capsense_Processing.c ****     capsense_RAM_WD_BASE_STRUCT *ptrRamWdgt;
 573:Generated_Source\PSoC4/capsense_Processing.c **** 
 574:Generated_Source\PSoC4/capsense_Processing.c ****     #if (capsense_ENABLE == capsense_RC_FILTER_EN)
 575:Generated_Source\PSoC4/capsense_Processing.c ****         capsense_PTR_FILTER_VARIANT fltrHistV;
 576:Generated_Source\PSoC4/capsense_Processing.c **** 
 577:Generated_Source\PSoC4/capsense_Processing.c ****         fltrHistV.ptr = ptrFlashWdgt->ptr2FltrHistory;
 578:Generated_Source\PSoC4/capsense_Processing.c ****     #endif /* #if (capsense_ENABLE == capsense_RC_FILTER_EN) */
 579:Generated_Source\PSoC4/capsense_Processing.c **** 
 580:Generated_Source\PSoC4/capsense_Processing.c ****     ptrSnsTmp = ptrFlashWdgt->ptr2SnsRam;
 581:Generated_Source\PSoC4/capsense_Processing.c ****     snsCount = ptrFlashWdgt->totalNumSns;
 582:Generated_Source\PSoC4/capsense_Processing.c ****     ptrRamWdgt = (capsense_RAM_WD_BASE_STRUCT *)ptrFlashWdgt->ptr2WdgtRam;
 583:Generated_Source\PSoC4/capsense_Processing.c ****     widgetType = ptrFlashWdgt->wdgtType;
 584:Generated_Source\PSoC4/capsense_Processing.c **** 
 585:Generated_Source\PSoC4/capsense_Processing.c ****     /* Run deconvolution algorithm for the widgets with multiphase TX support */
 586:Generated_Source\PSoC4/capsense_Processing.c ****     #if (0u != capsense_CSX_MULTIPHASE_TX_EN)
 587:Generated_Source\PSoC4/capsense_Processing.c ****         if (0u != (ptrFlashWdgt->staticConfig & capsense_MULTIPHASE_TX_MASK))
 588:Generated_Source\PSoC4/capsense_Processing.c ****         {
 589:Generated_Source\PSoC4/capsense_Processing.c ****             capsense_DpDeconvolution(ptrFlashWdgt);
 590:Generated_Source\PSoC4/capsense_Processing.c ****         }
 591:Generated_Source\PSoC4/capsense_Processing.c ****     #endif  /* #if (0u != capsense_CSX_MULTIPHASE_TX_EN) */
 592:Generated_Source\PSoC4/capsense_Processing.c **** 
 593:Generated_Source\PSoC4/capsense_Processing.c ****     for (;snsCount-- > 0u;)
 594:Generated_Source\PSoC4/capsense_Processing.c ****     {
 595:Generated_Source\PSoC4/capsense_Processing.c ****         #if (capsense_ENABLE == capsense_RC_FILTER_EN)
 596:Generated_Source\PSoC4/capsense_Processing.c ****             capsense_FtRunEnabledFiltersInternal(fltrHistV, ptrSnsTmp, widgetType);
 597:Generated_Source\PSoC4/capsense_Processing.c ****             #if (capsense_ALP_FILTER_EN)
 598:Generated_Source\PSoC4/capsense_Processing.c ****                 capsense_ConfigRunALPInternal(fltrHistV, ptrRamWdgt, ptrSnsTmp, widgetType);
 599:Generated_Source\PSoC4/capsense_Processing.c ****             #endif
 600:Generated_Source\PSoC4/capsense_Processing.c ****         #endif /* #if (capsense_ENABLE == capsense_RC_FILTER_EN) */
 601:Generated_Source\PSoC4/capsense_Processing.c **** 
 602:Generated_Source\PSoC4/capsense_Processing.c ****         result = capsense_FtUpdateBaseline(ptrRamWdgt, ptrSnsTmp, widgetType);
 603:Generated_Source\PSoC4/capsense_Processing.c **** 
 604:Generated_Source\PSoC4/capsense_Processing.c ****         #if (capsense_ENABLE == capsense_TST_BSLN_DUPLICATION_EN)
 605:Generated_Source\PSoC4/capsense_Processing.c ****             if (CYRET_SUCCESS != result)
 606:Generated_Source\PSoC4/capsense_Processing.c ****             {
 607:Generated_Source\PSoC4/capsense_Processing.c ****                 result = snsCount | capsense_PROCESS_BASELINE_FAILED;
 608:Generated_Source\PSoC4/capsense_Processing.c ****             }
 609:Generated_Source\PSoC4/capsense_Processing.c ****         #endif /* (capsense_ENABLE == capsense_TST_BSLN_DUPLICATION_EN) */
 610:Generated_Source\PSoC4/capsense_Processing.c **** 
 611:Generated_Source\PSoC4/capsense_Processing.c ****         capsense_DpUpdateDifferences(ptrRamWdgt, ptrSnsTmp);
 612:Generated_Source\PSoC4/capsense_Processing.c **** 
 613:Generated_Source\PSoC4/capsense_Processing.c ****         /* Move pointers to the next sensor and filter history objects */
 614:Generated_Source\PSoC4/capsense_Processing.c ****         ptrSnsTmp++;
 615:Generated_Source\PSoC4/capsense_Processing.c **** 
 616:Generated_Source\PSoC4/capsense_Processing.c ****         #if (capsense_ENABLE == capsense_RC_FILTER_EN)
 617:Generated_Source\PSoC4/capsense_Processing.c ****             capsense_INC_REG_FLTR_OBJ(fltrHistV);
ARM GAS  C:\Users\ASUS\AppData\Local\Temp\ccuOUgOD.s 			page 15


 618:Generated_Source\PSoC4/capsense_Processing.c ****         #endif /* #if (capsense_ENABLE == capsense_RC_FILTER_EN) */
 619:Generated_Source\PSoC4/capsense_Processing.c ****     }
 620:Generated_Source\PSoC4/capsense_Processing.c ****     return result;
 621:Generated_Source\PSoC4/capsense_Processing.c **** }
 622:Generated_Source\PSoC4/capsense_Processing.c **** 
 623:Generated_Source\PSoC4/capsense_Processing.c **** /*******************************************************************************
 624:Generated_Source\PSoC4/capsense_Processing.c **** * Function Name: capsense_DpProcessCsxSensorRawCountsExt
 625:Generated_Source\PSoC4/capsense_Processing.c **** ****************************************************************************//**
 626:Generated_Source\PSoC4/capsense_Processing.c **** *
 627:Generated_Source\PSoC4/capsense_Processing.c **** * \brief
 628:Generated_Source\PSoC4/capsense_Processing.c **** *   Performs customized processing of the CSX sensor raw counts.
 629:Generated_Source\PSoC4/capsense_Processing.c **** *
 630:Generated_Source\PSoC4/capsense_Processing.c **** * \details
 631:Generated_Source\PSoC4/capsense_Processing.c **** *   Performs customized processing of the CSX sensor raw counts.
 632:Generated_Source\PSoC4/capsense_Processing.c **** *
 633:Generated_Source\PSoC4/capsense_Processing.c **** *   If all bits are set at once the default processing order will take place.
 634:Generated_Source\PSoC4/capsense_Processing.c **** *   For the custom order this API can be called multiple times and execute one task at a time.
 635:Generated_Source\PSoC4/capsense_Processing.c **** *
 636:Generated_Source\PSoC4/capsense_Processing.c **** * \param ptrFlashWdgt The pointer to the Flash Widget Object.
 637:Generated_Source\PSoC4/capsense_Processing.c **** * \param curSnsPtr    The pointer to the specific RAM Sensor Object.
 638:Generated_Source\PSoC4/capsense_Processing.c **** * \param fltrHistV    The pointer to the Filter History Object in RAM associated with specific sens
 639:Generated_Source\PSoC4/capsense_Processing.c **** * \param mode         The bit-mask with the data processing tasks to be executed.
 640:Generated_Source\PSoC4/capsense_Processing.c **** *   The mode parameters can take the following values:
 641:Generated_Source\PSoC4/capsense_Processing.c **** *    - capsense_PROCESS_FILTER     (0x01) Run Firmware Filter
 642:Generated_Source\PSoC4/capsense_Processing.c **** *    - capsense_PROCESS_BASELINE   (0x02) Update Baselines
 643:Generated_Source\PSoC4/capsense_Processing.c **** *    - capsense_PROCESS_DIFFCOUNTS (0x04) Update Difference Counts
 644:Generated_Source\PSoC4/capsense_Processing.c **** *    - capsense_PROCESS_ALL               Execute all tasks
 645:Generated_Source\PSoC4/capsense_Processing.c **** *
 646:Generated_Source\PSoC4/capsense_Processing.c **** * \return
 647:Generated_Source\PSoC4/capsense_Processing.c **** *  Returns the status of the specified sensor processing operation:
 648:Generated_Source\PSoC4/capsense_Processing.c **** *  - CYRET_SUCCESS if operation was successfully completed;
 649:Generated_Source\PSoC4/capsense_Processing.c **** *  - capsense_PROCESS_BASELINE_FAILED if baseline processing of any
 650:Generated_Source\PSoC4/capsense_Processing.c **** *    sensor of the specified widget failed. The result is concatenated with the index
 651:Generated_Source\PSoC4/capsense_Processing.c **** *    of failed sensor.
 652:Generated_Source\PSoC4/capsense_Processing.c **** *
 653:Generated_Source\PSoC4/capsense_Processing.c **** *******************************************************************************/
 654:Generated_Source\PSoC4/capsense_Processing.c **** uint32 capsense_DpProcessCsxSensorRawCountsExt(
 655:Generated_Source\PSoC4/capsense_Processing.c ****                 capsense_FLASH_WD_STRUCT const *ptrFlashWdgt,
 656:Generated_Source\PSoC4/capsense_Processing.c ****                 capsense_RAM_SNS_STRUCT *curSnsPtr,
 657:Generated_Source\PSoC4/capsense_Processing.c ****                 capsense_PTR_FILTER_VARIANT fltrHistV,
 658:Generated_Source\PSoC4/capsense_Processing.c ****                 uint32 mode)
 659:Generated_Source\PSoC4/capsense_Processing.c **** {
 660:Generated_Source\PSoC4/capsense_Processing.c ****     uint32  result = CYRET_SUCCESS;
 661:Generated_Source\PSoC4/capsense_Processing.c ****     uint32  widgetType;
 662:Generated_Source\PSoC4/capsense_Processing.c ****     capsense_RAM_WD_BASE_STRUCT *ptrRamWdgt;
 663:Generated_Source\PSoC4/capsense_Processing.c **** 
 664:Generated_Source\PSoC4/capsense_Processing.c ****     widgetType = ptrFlashWdgt->wdgtType;
 665:Generated_Source\PSoC4/capsense_Processing.c ****     ptrRamWdgt = (capsense_RAM_WD_BASE_STRUCT *)ptrFlashWdgt->ptr2WdgtRam;
 666:Generated_Source\PSoC4/capsense_Processing.c **** 
 667:Generated_Source\PSoC4/capsense_Processing.c ****     #if (capsense_ENABLE == capsense_RC_FILTER_EN)
 668:Generated_Source\PSoC4/capsense_Processing.c ****         if (0u != (mode & capsense_PROCESS_FILTER))
 669:Generated_Source\PSoC4/capsense_Processing.c ****         {
 670:Generated_Source\PSoC4/capsense_Processing.c ****             capsense_FtRunEnabledFiltersInternal(fltrHistV, curSnsPtr, widgetType);
 671:Generated_Source\PSoC4/capsense_Processing.c ****             #if (capsense_ALP_FILTER_EN)
 672:Generated_Source\PSoC4/capsense_Processing.c ****                 capsense_ConfigRunALPInternal(fltrHistV, ptrRamWdgt, curSnsPtr, widgetType);
 673:Generated_Source\PSoC4/capsense_Processing.c ****             #endif
 674:Generated_Source\PSoC4/capsense_Processing.c ****         }
ARM GAS  C:\Users\ASUS\AppData\Local\Temp\ccuOUgOD.s 			page 16


 675:Generated_Source\PSoC4/capsense_Processing.c ****     #else
 676:Generated_Source\PSoC4/capsense_Processing.c ****         (void)fltrHistV; /* This parameter is unused in such configurations */
 677:Generated_Source\PSoC4/capsense_Processing.c ****     #endif /* #if (capsense_ENABLE == capsense_RC_FILTER_EN) */
 678:Generated_Source\PSoC4/capsense_Processing.c **** 
 679:Generated_Source\PSoC4/capsense_Processing.c ****     if (0u != (mode & capsense_PROCESS_BASELINE))
 680:Generated_Source\PSoC4/capsense_Processing.c ****     {
 681:Generated_Source\PSoC4/capsense_Processing.c ****         result = capsense_FtUpdateBaseline(ptrRamWdgt, curSnsPtr, widgetType);
 682:Generated_Source\PSoC4/capsense_Processing.c ****     }
 683:Generated_Source\PSoC4/capsense_Processing.c **** 
 684:Generated_Source\PSoC4/capsense_Processing.c ****     if (0u != (mode & capsense_PROCESS_DIFFCOUNTS))
 685:Generated_Source\PSoC4/capsense_Processing.c ****     {
 686:Generated_Source\PSoC4/capsense_Processing.c ****         capsense_DpUpdateDifferences(ptrRamWdgt, curSnsPtr);
 687:Generated_Source\PSoC4/capsense_Processing.c ****     }
 688:Generated_Source\PSoC4/capsense_Processing.c ****     return result;
 689:Generated_Source\PSoC4/capsense_Processing.c **** }
 690:Generated_Source\PSoC4/capsense_Processing.c **** 
 691:Generated_Source\PSoC4/capsense_Processing.c **** 
 692:Generated_Source\PSoC4/capsense_Processing.c **** /*******************************************************************************
 693:Generated_Source\PSoC4/capsense_Processing.c **** * Function Name: capsense_DpProcessCsxWidgetStatus
 694:Generated_Source\PSoC4/capsense_Processing.c **** ****************************************************************************//**
 695:Generated_Source\PSoC4/capsense_Processing.c **** *
 696:Generated_Source\PSoC4/capsense_Processing.c **** * \brief
 697:Generated_Source\PSoC4/capsense_Processing.c **** *   Updates the status of the CSX widget in the Data Structure.
 698:Generated_Source\PSoC4/capsense_Processing.c **** *
 699:Generated_Source\PSoC4/capsense_Processing.c **** * \details
 700:Generated_Source\PSoC4/capsense_Processing.c **** *  This API determines the type of widget and runs the appropriate function
 701:Generated_Source\PSoC4/capsense_Processing.c **** *  that implements the status update algorithm for this type of widget.
 702:Generated_Source\PSoC4/capsense_Processing.c **** *
 703:Generated_Source\PSoC4/capsense_Processing.c **** *  When the widget-specific processing completes this API updates the snsStatus
 704:Generated_Source\PSoC4/capsense_Processing.c **** *  and wdgtStatus registers in the data structure. The wdgtStatus register
 705:Generated_Source\PSoC4/capsense_Processing.c **** *  is a bitmask were each bit corresponds to the specific widget identified by
 706:Generated_Source\PSoC4/capsense_Processing.c **** *  the widget index. When the bit is set the widget is active (touched);
 707:Generated_Source\PSoC4/capsense_Processing.c **** *
 708:Generated_Source\PSoC4/capsense_Processing.c **** *  Depending on the type of widget the snsStatus register may contain either
 709:Generated_Source\PSoC4/capsense_Processing.c **** *  status of each widget node (active/non-active) or in case of the CSX Touchpad
 710:Generated_Source\PSoC4/capsense_Processing.c **** *  is contains the number of touches. In both cases 0 means that widget is not
 711:Generated_Source\PSoC4/capsense_Processing.c **** *  active.
 712:Generated_Source\PSoC4/capsense_Processing.c **** *
 713:Generated_Source\PSoC4/capsense_Processing.c **** * \param widgetId     The widget ID number.
 714:Generated_Source\PSoC4/capsense_Processing.c **** * \param ptrFlashWdgt The pointer to the Flash Widget Object.
 715:Generated_Source\PSoC4/capsense_Processing.c **** *
 716:Generated_Source\PSoC4/capsense_Processing.c **** *******************************************************************************/
 717:Generated_Source\PSoC4/capsense_Processing.c **** void capsense_DpProcessCsxWidgetStatus(uint32 widgetId, capsense_FLASH_WD_STRUCT const *ptrFlashWdg
 718:Generated_Source\PSoC4/capsense_Processing.c **** {
 719:Generated_Source\PSoC4/capsense_Processing.c ****     uint32 sensorStatus;
 720:Generated_Source\PSoC4/capsense_Processing.c ****     uint32 wdStatusIndex;
 721:Generated_Source\PSoC4/capsense_Processing.c ****     uint32 wdStatusMask;
 722:Generated_Source\PSoC4/capsense_Processing.c ****     capsense_WD_TYPE_ENUM widgetType;
 723:Generated_Source\PSoC4/capsense_Processing.c **** 
 724:Generated_Source\PSoC4/capsense_Processing.c ****     widgetType = (capsense_WD_TYPE_ENUM)ptrFlashWdgt->wdgtType;
 725:Generated_Source\PSoC4/capsense_Processing.c ****     sensorStatus = capsense_dsRam.snsStatus[widgetId];
 726:Generated_Source\PSoC4/capsense_Processing.c **** 
 727:Generated_Source\PSoC4/capsense_Processing.c ****     switch (widgetType)
 728:Generated_Source\PSoC4/capsense_Processing.c ****     {
 729:Generated_Source\PSoC4/capsense_Processing.c ****     #if (0u != capsense_BUTTON_WIDGET_EN)
 730:Generated_Source\PSoC4/capsense_Processing.c ****         case capsense_WD_BUTTON_E:
 731:Generated_Source\PSoC4/capsense_Processing.c ****             sensorStatus = capsense_DpProcessButton(sensorStatus, ptrFlashWdgt);
ARM GAS  C:\Users\ASUS\AppData\Local\Temp\ccuOUgOD.s 			page 17


 732:Generated_Source\PSoC4/capsense_Processing.c ****             break;
 733:Generated_Source\PSoC4/capsense_Processing.c ****     #endif /* #if (0u != capsense_BUTTON_WIDGET_EN) */
 734:Generated_Source\PSoC4/capsense_Processing.c **** 
 735:Generated_Source\PSoC4/capsense_Processing.c ****     #if (0u != capsense_CSX_MATRIX_WIDGET_EN)
 736:Generated_Source\PSoC4/capsense_Processing.c ****         case capsense_WD_MATRIX_BUTTON_E:
 737:Generated_Source\PSoC4/capsense_Processing.c ****             sensorStatus = capsense_DpProcessButton(sensorStatus, ptrFlashWdgt);
 738:Generated_Source\PSoC4/capsense_Processing.c ****             break;
 739:Generated_Source\PSoC4/capsense_Processing.c ****     #endif /* #if (0u != capsense_CSX_MATRIX_WIDGET_EN) */
 740:Generated_Source\PSoC4/capsense_Processing.c **** 
 741:Generated_Source\PSoC4/capsense_Processing.c ****     #if (0u != capsense_CSX_TOUCHPAD_WIDGET_EN)
 742:Generated_Source\PSoC4/capsense_Processing.c ****         case capsense_WD_TOUCHPAD_E:
 743:Generated_Source\PSoC4/capsense_Processing.c ****             sensorStatus = capsense_DpProcessCsxTouchpad(sensorStatus, ptrFlashWdgt);
 744:Generated_Source\PSoC4/capsense_Processing.c ****             break;
 745:Generated_Source\PSoC4/capsense_Processing.c ****     #endif /* #if (0u != capsense_CSX_TOUCHPAD_WIDGET_EN) */
 746:Generated_Source\PSoC4/capsense_Processing.c **** 
 747:Generated_Source\PSoC4/capsense_Processing.c ****     default:
 748:Generated_Source\PSoC4/capsense_Processing.c ****         CYASSERT(0u);
 749:Generated_Source\PSoC4/capsense_Processing.c ****         break;
 750:Generated_Source\PSoC4/capsense_Processing.c ****     }
 751:Generated_Source\PSoC4/capsense_Processing.c **** 
 752:Generated_Source\PSoC4/capsense_Processing.c ****     /* Update sensor status in the data structure */
 753:Generated_Source\PSoC4/capsense_Processing.c ****     capsense_dsRam.snsStatus[widgetId] = (capsense_SNS_STS_TYPE)sensorStatus;
 754:Generated_Source\PSoC4/capsense_Processing.c **** 
 755:Generated_Source\PSoC4/capsense_Processing.c ****     /* The next two lines calculate index and bitmask of the widget status bit in the wdgtStatus ar
 756:Generated_Source\PSoC4/capsense_Processing.c ****     wdStatusIndex = capsense_GET_WDGT_STATUS_INDEX(widgetId);
 757:Generated_Source\PSoC4/capsense_Processing.c ****     wdStatusMask = capsense_GET_WDGT_STATUS_MASK(widgetId);
 758:Generated_Source\PSoC4/capsense_Processing.c **** 
 759:Generated_Source\PSoC4/capsense_Processing.c ****     /* Check if there are active sensors and update widget status accordingly */
 760:Generated_Source\PSoC4/capsense_Processing.c ****     if (0u == sensorStatus)
 761:Generated_Source\PSoC4/capsense_Processing.c ****     {
 762:Generated_Source\PSoC4/capsense_Processing.c ****         capsense_dsRam.wdgtStatus[wdStatusIndex] &= ~wdStatusMask;
 763:Generated_Source\PSoC4/capsense_Processing.c ****     }
 764:Generated_Source\PSoC4/capsense_Processing.c ****     else
 765:Generated_Source\PSoC4/capsense_Processing.c ****     {
 766:Generated_Source\PSoC4/capsense_Processing.c ****         capsense_dsRam.wdgtStatus[wdStatusIndex] |= wdStatusMask;
 767:Generated_Source\PSoC4/capsense_Processing.c ****     }
 768:Generated_Source\PSoC4/capsense_Processing.c **** }
 769:Generated_Source\PSoC4/capsense_Processing.c **** #endif /* #if capsense_TOTAL_CSX_WIDGETS */
 770:Generated_Source\PSoC4/capsense_Processing.c **** 
 771:Generated_Source\PSoC4/capsense_Processing.c **** #if (0u != capsense_TOTAL_ISX_WIDGETS)
 772:Generated_Source\PSoC4/capsense_Processing.c **** /*******************************************************************************
 773:Generated_Source\PSoC4/capsense_Processing.c **** * Function Name: capsense_DpProcessIsxWidgetRawCounts
 774:Generated_Source\PSoC4/capsense_Processing.c **** ****************************************************************************//**
 775:Generated_Source\PSoC4/capsense_Processing.c **** *
 776:Generated_Source\PSoC4/capsense_Processing.c **** * \brief
 777:Generated_Source\PSoC4/capsense_Processing.c **** *  Performs default processing of the ISX raw counts.
 778:Generated_Source\PSoC4/capsense_Processing.c **** *
 779:Generated_Source\PSoC4/capsense_Processing.c **** * \details
 780:Generated_Source\PSoC4/capsense_Processing.c **** *  Performs default processing of the ISX raw counts:
 781:Generated_Source\PSoC4/capsense_Processing.c **** *   - Run Filters
 782:Generated_Source\PSoC4/capsense_Processing.c **** *   - Update Baselines
 783:Generated_Source\PSoC4/capsense_Processing.c **** *   - Update Differences
 784:Generated_Source\PSoC4/capsense_Processing.c **** *   - Update Status.
 785:Generated_Source\PSoC4/capsense_Processing.c **** *  The same process is applied to all the sensors of the specified widget.
 786:Generated_Source\PSoC4/capsense_Processing.c **** *
 787:Generated_Source\PSoC4/capsense_Processing.c **** * \param ptrFlashWdgt The pointer to the Flash widget structure.
 788:Generated_Source\PSoC4/capsense_Processing.c **** *
ARM GAS  C:\Users\ASUS\AppData\Local\Temp\ccuOUgOD.s 			page 18


 789:Generated_Source\PSoC4/capsense_Processing.c **** * \return
 790:Generated_Source\PSoC4/capsense_Processing.c **** *  Returns the status of the specified widget processing operation:
 791:Generated_Source\PSoC4/capsense_Processing.c **** *  - CYRET_SUCCESS if operation was successfully completed;
 792:Generated_Source\PSoC4/capsense_Processing.c **** *  - capsense_PROCESS_BASELINE_FAILED if baseline processing of any
 793:Generated_Source\PSoC4/capsense_Processing.c **** *    sensor of the specified widget failed. The result is concatenated with the index
 794:Generated_Source\PSoC4/capsense_Processing.c **** *    of failed sensor.
 795:Generated_Source\PSoC4/capsense_Processing.c **** *
 796:Generated_Source\PSoC4/capsense_Processing.c **** *******************************************************************************/
 797:Generated_Source\PSoC4/capsense_Processing.c **** uint32 capsense_DpProcessIsxWidgetRawCounts(capsense_FLASH_WD_STRUCT const *ptrFlashWdgt)
 798:Generated_Source\PSoC4/capsense_Processing.c **** {
 799:Generated_Source\PSoC4/capsense_Processing.c ****     uint32 result = CYRET_SUCCESS;
 800:Generated_Source\PSoC4/capsense_Processing.c ****     uint32 widgetType;
 801:Generated_Source\PSoC4/capsense_Processing.c ****     uint32 snsCount;
 802:Generated_Source\PSoC4/capsense_Processing.c ****     capsense_RAM_SNS_STRUCT *ptrSns;
 803:Generated_Source\PSoC4/capsense_Processing.c ****     capsense_RAM_WD_BASE_STRUCT *ptrRamWdgt;
 804:Generated_Source\PSoC4/capsense_Processing.c **** 
 805:Generated_Source\PSoC4/capsense_Processing.c ****     #if (capsense_ENABLE == capsense_RC_FILTER_EN)
 806:Generated_Source\PSoC4/capsense_Processing.c ****         capsense_PTR_FILTER_VARIANT fltrHistV;
 807:Generated_Source\PSoC4/capsense_Processing.c **** 
 808:Generated_Source\PSoC4/capsense_Processing.c ****         fltrHistV.ptr = ptrFlashWdgt->ptr2FltrHistory;
 809:Generated_Source\PSoC4/capsense_Processing.c ****     #endif /* #if (capsense_ENABLE == capsense_RC_FILTER_EN) */
 810:Generated_Source\PSoC4/capsense_Processing.c **** 
 811:Generated_Source\PSoC4/capsense_Processing.c ****     ptrSns = ptrFlashWdgt->ptr2SnsRam;
 812:Generated_Source\PSoC4/capsense_Processing.c ****     snsCount = ptrFlashWdgt->totalNumSns;
 813:Generated_Source\PSoC4/capsense_Processing.c ****     ptrRamWdgt = ptrFlashWdgt->ptr2WdgtRam;
 814:Generated_Source\PSoC4/capsense_Processing.c ****     widgetType = ptrFlashWdgt->wdgtType;
 815:Generated_Source\PSoC4/capsense_Processing.c **** 
 816:Generated_Source\PSoC4/capsense_Processing.c ****     #if (0u != capsense_ISX_SKIP_OVSMPL_SPECIFIC_NODES)
 817:Generated_Source\PSoC4/capsense_Processing.c ****         if (0u != ptrSns->resolution)
 818:Generated_Source\PSoC4/capsense_Processing.c ****     #endif
 819:Generated_Source\PSoC4/capsense_Processing.c ****     {
 820:Generated_Source\PSoC4/capsense_Processing.c ****         for(;snsCount-- > 0u;)
 821:Generated_Source\PSoC4/capsense_Processing.c ****         {
 822:Generated_Source\PSoC4/capsense_Processing.c ****             #if (capsense_ENABLE == capsense_RC_FILTER_EN)
 823:Generated_Source\PSoC4/capsense_Processing.c ****                 capsense_FtRunEnabledFiltersInternal(fltrHistV, ptrSns, widgetType);
 824:Generated_Source\PSoC4/capsense_Processing.c ****             #endif /* #if (capsense_ENABLE == capsense_RC_FILTER_EN) */
 825:Generated_Source\PSoC4/capsense_Processing.c **** 
 826:Generated_Source\PSoC4/capsense_Processing.c ****             result = capsense_FtUpdateBaseline(ptrRamWdgt, ptrSns, widgetType);
 827:Generated_Source\PSoC4/capsense_Processing.c **** 
 828:Generated_Source\PSoC4/capsense_Processing.c ****             #if (capsense_ENABLE == capsense_TST_BSLN_DUPLICATION_EN)
 829:Generated_Source\PSoC4/capsense_Processing.c ****                 if (CYRET_SUCCESS != result)
 830:Generated_Source\PSoC4/capsense_Processing.c ****                 {
 831:Generated_Source\PSoC4/capsense_Processing.c ****                     result = capsense_PROCESS_BASELINE_FAILED;
 832:Generated_Source\PSoC4/capsense_Processing.c ****                 }
 833:Generated_Source\PSoC4/capsense_Processing.c ****             #endif /* (capsense_ENABLE == capsense_TST_BSLN_DUPLICATION_EN) */
 834:Generated_Source\PSoC4/capsense_Processing.c **** 
 835:Generated_Source\PSoC4/capsense_Processing.c ****             capsense_DpUpdateDifferences(ptrRamWdgt, ptrSns);
 836:Generated_Source\PSoC4/capsense_Processing.c ****             ptrSns++;
 837:Generated_Source\PSoC4/capsense_Processing.c **** 
 838:Generated_Source\PSoC4/capsense_Processing.c ****             #if (capsense_ENABLE == capsense_RC_FILTER_EN)
 839:Generated_Source\PSoC4/capsense_Processing.c ****                 capsense_INC_FLTR_OBJ_VARIANT(0u, fltrHistV);
 840:Generated_Source\PSoC4/capsense_Processing.c ****             #endif /* #if (capsense_ENABLE == capsense_RC_FILTER_EN) */
 841:Generated_Source\PSoC4/capsense_Processing.c ****         }
 842:Generated_Source\PSoC4/capsense_Processing.c ****     }
 843:Generated_Source\PSoC4/capsense_Processing.c **** 
 844:Generated_Source\PSoC4/capsense_Processing.c ****     return result;
 845:Generated_Source\PSoC4/capsense_Processing.c **** }
ARM GAS  C:\Users\ASUS\AppData\Local\Temp\ccuOUgOD.s 			page 19


 846:Generated_Source\PSoC4/capsense_Processing.c **** 
 847:Generated_Source\PSoC4/capsense_Processing.c **** /*******************************************************************************
 848:Generated_Source\PSoC4/capsense_Processing.c **** * Function Name: capsense_DpProcessIsxSensorRawCountsExt
 849:Generated_Source\PSoC4/capsense_Processing.c **** ****************************************************************************//**
 850:Generated_Source\PSoC4/capsense_Processing.c **** *
 851:Generated_Source\PSoC4/capsense_Processing.c **** * \brief
 852:Generated_Source\PSoC4/capsense_Processing.c **** *   Performs customized processing of the ISX sensor raw counts.
 853:Generated_Source\PSoC4/capsense_Processing.c **** *
 854:Generated_Source\PSoC4/capsense_Processing.c **** * \details
 855:Generated_Source\PSoC4/capsense_Processing.c **** *   Performs customized processing of the ISX sensor raw counts.
 856:Generated_Source\PSoC4/capsense_Processing.c **** *
 857:Generated_Source\PSoC4/capsense_Processing.c **** *   If all bits are set at once the default processing order will take place.
 858:Generated_Source\PSoC4/capsense_Processing.c **** *   For the custom order this API can be called multiple times and execute one task at a time.
 859:Generated_Source\PSoC4/capsense_Processing.c **** *
 860:Generated_Source\PSoC4/capsense_Processing.c **** * \param ptrFlashWdgt The pointer to the Flash Widget Object.
 861:Generated_Source\PSoC4/capsense_Processing.c **** * \param ptrSns       The pointer to the specific RAM Sensor Object.
 862:Generated_Source\PSoC4/capsense_Processing.c **** * \param fltrHistV    The pointer to the Filter History Object in RAM associated with specific sens
 863:Generated_Source\PSoC4/capsense_Processing.c **** * \param mode         The bit-mask with the data processing tasks to be executed.
 864:Generated_Source\PSoC4/capsense_Processing.c **** *   The mode parameters can take the following values:
 865:Generated_Source\PSoC4/capsense_Processing.c **** *    - capsense_PROCESS_FILTER     (0x01) Run Firmware Filter
 866:Generated_Source\PSoC4/capsense_Processing.c **** *    - capsense_PROCESS_BASELINE   (0x02) Update Baselines
 867:Generated_Source\PSoC4/capsense_Processing.c **** *    - capsense_PROCESS_DIFFCOUNTS (0x04) Update Difference Counts
 868:Generated_Source\PSoC4/capsense_Processing.c **** *    - capsense_PROCESS_ALL               Execute all tasks
 869:Generated_Source\PSoC4/capsense_Processing.c **** *
 870:Generated_Source\PSoC4/capsense_Processing.c **** * \return
 871:Generated_Source\PSoC4/capsense_Processing.c **** *  Returns the status of the specified sensor processing operation:
 872:Generated_Source\PSoC4/capsense_Processing.c **** *  - CYRET_SUCCESS if operation was successfully completed;
 873:Generated_Source\PSoC4/capsense_Processing.c **** *  - capsense_PROCESS_BASELINE_FAILED if baseline processing of any
 874:Generated_Source\PSoC4/capsense_Processing.c **** *    sensor of the specified widget failed. The result is concatenated with the index
 875:Generated_Source\PSoC4/capsense_Processing.c **** *    of failed sensor.
 876:Generated_Source\PSoC4/capsense_Processing.c **** *
 877:Generated_Source\PSoC4/capsense_Processing.c **** *******************************************************************************/
 878:Generated_Source\PSoC4/capsense_Processing.c **** uint32 capsense_DpProcessIsxSensorRawCountsExt(
 879:Generated_Source\PSoC4/capsense_Processing.c ****                 capsense_FLASH_WD_STRUCT const *ptrFlashWdgt,
 880:Generated_Source\PSoC4/capsense_Processing.c ****                 capsense_RAM_SNS_STRUCT *ptrSns,
 881:Generated_Source\PSoC4/capsense_Processing.c ****                 capsense_PTR_FILTER_VARIANT fltrHistV,
 882:Generated_Source\PSoC4/capsense_Processing.c ****                 uint32 mode)
 883:Generated_Source\PSoC4/capsense_Processing.c **** {
 884:Generated_Source\PSoC4/capsense_Processing.c ****     uint32  result = CYRET_SUCCESS;
 885:Generated_Source\PSoC4/capsense_Processing.c ****     uint32  widgetType;
 886:Generated_Source\PSoC4/capsense_Processing.c ****     capsense_RAM_WD_BASE_STRUCT *ptrRamWdgt;
 887:Generated_Source\PSoC4/capsense_Processing.c **** 
 888:Generated_Source\PSoC4/capsense_Processing.c ****     widgetType = ptrFlashWdgt->wdgtType;
 889:Generated_Source\PSoC4/capsense_Processing.c ****     ptrRamWdgt = ptrFlashWdgt->ptr2WdgtRam;
 890:Generated_Source\PSoC4/capsense_Processing.c **** 
 891:Generated_Source\PSoC4/capsense_Processing.c ****     #if (capsense_ENABLE == capsense_RC_FILTER_EN)
 892:Generated_Source\PSoC4/capsense_Processing.c ****         if (0u != (mode & capsense_PROCESS_FILTER))
 893:Generated_Source\PSoC4/capsense_Processing.c ****         {
 894:Generated_Source\PSoC4/capsense_Processing.c ****             capsense_FtRunEnabledFiltersInternal(fltrHistV, ptrSns, widgetType);
 895:Generated_Source\PSoC4/capsense_Processing.c ****         }
 896:Generated_Source\PSoC4/capsense_Processing.c ****     #else
 897:Generated_Source\PSoC4/capsense_Processing.c ****         (void)fltrHistV; /* This parameter is unused in such configurations */
 898:Generated_Source\PSoC4/capsense_Processing.c ****     #endif /* #if (capsense_ENABLE == capsense_RC_FILTER_EN) */
 899:Generated_Source\PSoC4/capsense_Processing.c **** 
 900:Generated_Source\PSoC4/capsense_Processing.c ****     if (0u != (mode & capsense_PROCESS_BASELINE))
 901:Generated_Source\PSoC4/capsense_Processing.c ****     {
 902:Generated_Source\PSoC4/capsense_Processing.c ****         result = capsense_FtUpdateBaseline(ptrRamWdgt, ptrSns, widgetType);
ARM GAS  C:\Users\ASUS\AppData\Local\Temp\ccuOUgOD.s 			page 20


 903:Generated_Source\PSoC4/capsense_Processing.c ****     }
 904:Generated_Source\PSoC4/capsense_Processing.c **** 
 905:Generated_Source\PSoC4/capsense_Processing.c ****     if (0u != (mode & capsense_PROCESS_DIFFCOUNTS))
 906:Generated_Source\PSoC4/capsense_Processing.c ****     {
 907:Generated_Source\PSoC4/capsense_Processing.c ****         capsense_DpUpdateDifferences(ptrRamWdgt, ptrSns);
 908:Generated_Source\PSoC4/capsense_Processing.c ****     }
 909:Generated_Source\PSoC4/capsense_Processing.c ****     return result;
 910:Generated_Source\PSoC4/capsense_Processing.c **** }
 911:Generated_Source\PSoC4/capsense_Processing.c **** 
 912:Generated_Source\PSoC4/capsense_Processing.c **** 
 913:Generated_Source\PSoC4/capsense_Processing.c **** /*******************************************************************************
 914:Generated_Source\PSoC4/capsense_Processing.c **** * Function Name: capsense_DpProcessIsxWidgetStatus
 915:Generated_Source\PSoC4/capsense_Processing.c **** ****************************************************************************//**
 916:Generated_Source\PSoC4/capsense_Processing.c **** *
 917:Generated_Source\PSoC4/capsense_Processing.c **** * \brief
 918:Generated_Source\PSoC4/capsense_Processing.c **** *   Updates the status of the ISX widget in the Data Structure.
 919:Generated_Source\PSoC4/capsense_Processing.c **** *
 920:Generated_Source\PSoC4/capsense_Processing.c **** * \details
 921:Generated_Source\PSoC4/capsense_Processing.c **** *  This API determines the type of widget and runs the appropriate function
 922:Generated_Source\PSoC4/capsense_Processing.c **** *  that implements the status update algorithm for this type of widget.
 923:Generated_Source\PSoC4/capsense_Processing.c **** *
 924:Generated_Source\PSoC4/capsense_Processing.c **** *  When the widget-specific processing completes this API updates the snsStatus
 925:Generated_Source\PSoC4/capsense_Processing.c **** *  and wdgtStatus registers in the data structure. The wdgtStatus register
 926:Generated_Source\PSoC4/capsense_Processing.c **** *  is a bitmask were each bit corresponds to the specific widget identified by
 927:Generated_Source\PSoC4/capsense_Processing.c **** *  the widget index. When the bit is set the widget is active (touched);
 928:Generated_Source\PSoC4/capsense_Processing.c **** *
 929:Generated_Source\PSoC4/capsense_Processing.c **** *  Depending on the type of widget the snsStatus register may contain either
 930:Generated_Source\PSoC4/capsense_Processing.c **** *  status of each widget node (active/non-active) or in case of the ISX Touchpad
 931:Generated_Source\PSoC4/capsense_Processing.c **** *  is contains the number of touches. In both cases 0 means that widget is not
 932:Generated_Source\PSoC4/capsense_Processing.c **** *  active.
 933:Generated_Source\PSoC4/capsense_Processing.c **** *
 934:Generated_Source\PSoC4/capsense_Processing.c **** * \param wdgtId       The widget index number.
 935:Generated_Source\PSoC4/capsense_Processing.c **** * \param ptrFlashWdgt The pointer to the Flash Widget Object.
 936:Generated_Source\PSoC4/capsense_Processing.c **** *
 937:Generated_Source\PSoC4/capsense_Processing.c **** *******************************************************************************/
 938:Generated_Source\PSoC4/capsense_Processing.c **** void capsense_DpProcessIsxWidgetStatus(uint32 wdgtId, capsense_FLASH_WD_STRUCT const *ptrFlashWdgt)
 939:Generated_Source\PSoC4/capsense_Processing.c **** {
 940:Generated_Source\PSoC4/capsense_Processing.c ****     uint32 sensorStatus;
 941:Generated_Source\PSoC4/capsense_Processing.c ****     uint32 wdStatusIndex;
 942:Generated_Source\PSoC4/capsense_Processing.c ****     uint32 wdStatusMask;
 943:Generated_Source\PSoC4/capsense_Processing.c ****     capsense_WD_TYPE_ENUM widgetType;
 944:Generated_Source\PSoC4/capsense_Processing.c **** 
 945:Generated_Source\PSoC4/capsense_Processing.c ****     widgetType = (capsense_WD_TYPE_ENUM)ptrFlashWdgt->wdgtType;
 946:Generated_Source\PSoC4/capsense_Processing.c ****     sensorStatus = capsense_dsRam.snsStatus[wdgtId];
 947:Generated_Source\PSoC4/capsense_Processing.c **** 
 948:Generated_Source\PSoC4/capsense_Processing.c ****     switch (widgetType)
 949:Generated_Source\PSoC4/capsense_Processing.c ****     {
 950:Generated_Source\PSoC4/capsense_Processing.c ****     #if (0u != capsense_PROXIMITY_WIDGET_EN)
 951:Generated_Source\PSoC4/capsense_Processing.c ****         case capsense_WD_PROXIMITY_E:
 952:Generated_Source\PSoC4/capsense_Processing.c ****             sensorStatus = capsense_DpProcessProximity(sensorStatus, ptrFlashWdgt);
 953:Generated_Source\PSoC4/capsense_Processing.c ****             break;
 954:Generated_Source\PSoC4/capsense_Processing.c ****     #endif /* #if (0u != capsense_Proximity_WIDGET_EN) */
 955:Generated_Source\PSoC4/capsense_Processing.c ****     #if (0u != capsense_ENCODERDIAL_WIDGET_EN)
 956:Generated_Source\PSoC4/capsense_Processing.c ****         case capsense_WD_ENCODERDIAL_E:
 957:Generated_Source\PSoC4/capsense_Processing.c ****             sensorStatus = capsense_DpProcessEncoderDial(sensorStatus, ptrFlashWdgt);
 958:Generated_Source\PSoC4/capsense_Processing.c ****             break;
 959:Generated_Source\PSoC4/capsense_Processing.c ****     #endif /* #if (0u != capsense_Proximity_WIDGET_EN) */
ARM GAS  C:\Users\ASUS\AppData\Local\Temp\ccuOUgOD.s 			page 21


 960:Generated_Source\PSoC4/capsense_Processing.c ****     #if (0u != capsense_BUTTON_WIDGET_EN)
 961:Generated_Source\PSoC4/capsense_Processing.c ****         case capsense_WD_BUTTON_E:
 962:Generated_Source\PSoC4/capsense_Processing.c ****             sensorStatus = capsense_DpProcessButton(sensorStatus, ptrFlashWdgt);
 963:Generated_Source\PSoC4/capsense_Processing.c ****             break;
 964:Generated_Source\PSoC4/capsense_Processing.c ****     #endif /* #if (0u != capsense_Proximity_WIDGET_EN) */
 965:Generated_Source\PSoC4/capsense_Processing.c **** 
 966:Generated_Source\PSoC4/capsense_Processing.c ****     default:
 967:Generated_Source\PSoC4/capsense_Processing.c ****         CYASSERT(0u);
 968:Generated_Source\PSoC4/capsense_Processing.c ****         break;
 969:Generated_Source\PSoC4/capsense_Processing.c ****     }
 970:Generated_Source\PSoC4/capsense_Processing.c **** 
 971:Generated_Source\PSoC4/capsense_Processing.c ****     /* Update sensor status in the data structure */
 972:Generated_Source\PSoC4/capsense_Processing.c ****     capsense_dsRam.snsStatus[wdgtId] = (capsense_SNS_STS_TYPE)sensorStatus;
 973:Generated_Source\PSoC4/capsense_Processing.c **** 
 974:Generated_Source\PSoC4/capsense_Processing.c ****     /* The next two lines calculate index and bitmask of the widget status bit in the wdgtStatus ar
 975:Generated_Source\PSoC4/capsense_Processing.c ****     wdStatusIndex = capsense_GET_WDGT_STATUS_INDEX(wdgtId);
 976:Generated_Source\PSoC4/capsense_Processing.c ****     wdStatusMask = capsense_GET_WDGT_STATUS_MASK(wdgtId);
 977:Generated_Source\PSoC4/capsense_Processing.c **** 
 978:Generated_Source\PSoC4/capsense_Processing.c ****     /* Check if there are active sensors and update widget status accordingly */
 979:Generated_Source\PSoC4/capsense_Processing.c ****     if (0u == sensorStatus)
 980:Generated_Source\PSoC4/capsense_Processing.c ****     {
 981:Generated_Source\PSoC4/capsense_Processing.c ****         capsense_dsRam.wdgtStatus[wdStatusIndex] &= ~wdStatusMask;
 982:Generated_Source\PSoC4/capsense_Processing.c ****     }
 983:Generated_Source\PSoC4/capsense_Processing.c ****     else
 984:Generated_Source\PSoC4/capsense_Processing.c ****     {
 985:Generated_Source\PSoC4/capsense_Processing.c ****         capsense_dsRam.wdgtStatus[wdStatusIndex] |= wdStatusMask;
 986:Generated_Source\PSoC4/capsense_Processing.c ****     }
 987:Generated_Source\PSoC4/capsense_Processing.c **** }
 988:Generated_Source\PSoC4/capsense_Processing.c **** #endif /* #if capsense_TOTAL_ISX_WIDGETS */
 989:Generated_Source\PSoC4/capsense_Processing.c **** 
 990:Generated_Source\PSoC4/capsense_Processing.c **** #if (0u != capsense_TOTAL_CSD_WIDGETS)
 991:Generated_Source\PSoC4/capsense_Processing.c **** /*******************************************************************************
 992:Generated_Source\PSoC4/capsense_Processing.c **** * Function Name: capsense_DpProcessCsdWidgetRawCounts
 993:Generated_Source\PSoC4/capsense_Processing.c **** ****************************************************************************//**
 994:Generated_Source\PSoC4/capsense_Processing.c **** *
 995:Generated_Source\PSoC4/capsense_Processing.c **** * \brief
 996:Generated_Source\PSoC4/capsense_Processing.c **** *   Performs default processing for the CSD widget raw counts.
 997:Generated_Source\PSoC4/capsense_Processing.c **** *
 998:Generated_Source\PSoC4/capsense_Processing.c **** * \details
 999:Generated_Source\PSoC4/capsense_Processing.c **** *   Performs default processing for the CSD widget raw counts:
1000:Generated_Source\PSoC4/capsense_Processing.c **** *    - Run Filters
1001:Generated_Source\PSoC4/capsense_Processing.c **** *    - Update Thresholds (FW Auto-tuning)
1002:Generated_Source\PSoC4/capsense_Processing.c **** *    - Update Baselines
1003:Generated_Source\PSoC4/capsense_Processing.c **** *    - Update Differences.
1004:Generated_Source\PSoC4/capsense_Processing.c **** *   The process is applied to all widget's sensors.
1005:Generated_Source\PSoC4/capsense_Processing.c **** *
1006:Generated_Source\PSoC4/capsense_Processing.c **** * \param ptrFlashWdgt The pointer to the Flash Widget Object.
1007:Generated_Source\PSoC4/capsense_Processing.c **** *
1008:Generated_Source\PSoC4/capsense_Processing.c **** * \return
1009:Generated_Source\PSoC4/capsense_Processing.c **** *  Returns the status of the specified widget processing operation:
1010:Generated_Source\PSoC4/capsense_Processing.c **** *  - CYRET_SUCCESS if operation was successfully completed;
1011:Generated_Source\PSoC4/capsense_Processing.c **** *  - capsense_PROCESS_BASELINE_FAILED if baseline processing of any
1012:Generated_Source\PSoC4/capsense_Processing.c **** *    sensor of the specified widget failed. The result is concatenated with the index
1013:Generated_Source\PSoC4/capsense_Processing.c **** *    of failed sensor.
1014:Generated_Source\PSoC4/capsense_Processing.c **** *
1015:Generated_Source\PSoC4/capsense_Processing.c **** *******************************************************************************/
1016:Generated_Source\PSoC4/capsense_Processing.c **** uint32 capsense_DpProcessCsdWidgetRawCounts(capsense_FLASH_WD_STRUCT const *ptrFlashWdgt)
ARM GAS  C:\Users\ASUS\AppData\Local\Temp\ccuOUgOD.s 			page 22


1017:Generated_Source\PSoC4/capsense_Processing.c **** {
1018:Generated_Source\PSoC4/capsense_Processing.c ****     uint32  result = CYRET_SUCCESS;
1019:Generated_Source\PSoC4/capsense_Processing.c **** 
1020:Generated_Source\PSoC4/capsense_Processing.c ****     #if (capsense_ENABLE == capsense_TST_BSLN_DUPLICATION_EN)
1021:Generated_Source\PSoC4/capsense_Processing.c ****         uint32 bslnTstResult = CYRET_SUCCESS;
1022:Generated_Source\PSoC4/capsense_Processing.c ****     #endif /* (capsense_ENABLE == capsense_TST_BSLN_DUPLICATION_EN) */
1023:Generated_Source\PSoC4/capsense_Processing.c **** 
1024:Generated_Source\PSoC4/capsense_Processing.c ****     uint32  widgetType;
1025:Generated_Source\PSoC4/capsense_Processing.c ****     uint32  snsId;
1026:Generated_Source\PSoC4/capsense_Processing.c ****     capsense_RAM_SNS_STRUCT *ptrSnsTmp;
1027:Generated_Source\PSoC4/capsense_Processing.c ****     capsense_RAM_WD_BASE_STRUCT *ptrRamWdgt;
1028:Generated_Source\PSoC4/capsense_Processing.c **** 
1029:Generated_Source\PSoC4/capsense_Processing.c ****     #if (0u != (capsense_CSD_AUTOTUNE & capsense_CSD_SS_TH_EN))
1030:Generated_Source\PSoC4/capsense_Processing.c ****         /* The noise envelope data is available only when Full CSD Auto-Tuning is enabled */
1031:Generated_Source\PSoC4/capsense_Processing.c ****         SMARTSENSE_CSD_NOISE_ENVELOPE_STRUCT *ptrNoiseEnvelope;
1032:Generated_Source\PSoC4/capsense_Processing.c ****         #if (capsense_ENABLE == capsense_PROXIMITY_WIDGET_EN)
1033:Generated_Source\PSoC4/capsense_Processing.c ****             uint32  proximityThreshold;
1034:Generated_Source\PSoC4/capsense_Processing.c ****         #endif /* (0 != capsense_PROXIMITY_WIDGET_EN) */
1035:Generated_Source\PSoC4/capsense_Processing.c ****     #endif /* #if (0u != (capsense_CSD_AUTOTUNE & capsense_CSD_SS_TH_EN)) */
1036:Generated_Source\PSoC4/capsense_Processing.c **** 
1037:Generated_Source\PSoC4/capsense_Processing.c ****     #if (capsense_ENABLE == capsense_RC_FILTER_EN)
1038:Generated_Source\PSoC4/capsense_Processing.c ****         capsense_PTR_FILTER_VARIANT fltrHistV;
1039:Generated_Source\PSoC4/capsense_Processing.c **** 
1040:Generated_Source\PSoC4/capsense_Processing.c ****         /* Determine if widget type is proximity */
1041:Generated_Source\PSoC4/capsense_Processing.c ****         uint32 isProxWdgt = (capsense_GET_WIDGET_TYPE(ptrFlashWdgt) == capsense_WD_PROXIMITY_E) ? 1
1042:Generated_Source\PSoC4/capsense_Processing.c **** 
1043:Generated_Source\PSoC4/capsense_Processing.c ****         /* Get pointer to the filter history object */
1044:Generated_Source\PSoC4/capsense_Processing.c ****         fltrHistV.ptr = ptrFlashWdgt->ptr2FltrHistory;
1045:Generated_Source\PSoC4/capsense_Processing.c ****     #endif /* #if (capsense_ENABLE == capsense_RC_FILTER_EN) */
1046:Generated_Source\PSoC4/capsense_Processing.c **** 
1047:Generated_Source\PSoC4/capsense_Processing.c ****     ptrSnsTmp = ptrFlashWdgt->ptr2SnsRam;
1048:Generated_Source\PSoC4/capsense_Processing.c ****     ptrRamWdgt = (capsense_RAM_WD_BASE_STRUCT *)ptrFlashWdgt->ptr2WdgtRam;
1049:Generated_Source\PSoC4/capsense_Processing.c ****     widgetType = ptrFlashWdgt->wdgtType;
1050:Generated_Source\PSoC4/capsense_Processing.c **** 
1051:Generated_Source\PSoC4/capsense_Processing.c ****     #if (0u != (capsense_CSD_AUTOTUNE & capsense_CSD_SS_TH_EN))
1052:Generated_Source\PSoC4/capsense_Processing.c ****         ptrNoiseEnvelope = ptrFlashWdgt->ptr2NoiseEnvlp;
1053:Generated_Source\PSoC4/capsense_Processing.c ****     #endif /* #if (0u != (capsense_CSD_AUTOTUNE & capsense_CSD_SS_TH_EN)) */
1054:Generated_Source\PSoC4/capsense_Processing.c **** 
1055:Generated_Source\PSoC4/capsense_Processing.c ****     /* Iterate through all widget's sensors */
1056:Generated_Source\PSoC4/capsense_Processing.c ****     for(snsId = 0u; snsId < ptrFlashWdgt->totalNumSns; snsId++)
1057:Generated_Source\PSoC4/capsense_Processing.c ****     {
1058:Generated_Source\PSoC4/capsense_Processing.c ****         /* Run all enabled filter on specified widget's sensor */
1059:Generated_Source\PSoC4/capsense_Processing.c ****         #if (capsense_ENABLE == capsense_RC_FILTER_EN)
1060:Generated_Source\PSoC4/capsense_Processing.c ****             capsense_FtRunEnabledFiltersInternal(fltrHistV, ptrSnsTmp, widgetType);
1061:Generated_Source\PSoC4/capsense_Processing.c ****             #if (capsense_ALP_FILTER_EN)
1062:Generated_Source\PSoC4/capsense_Processing.c ****                 capsense_ConfigRunALPInternal(fltrHistV, ptrRamWdgt, ptrSnsTmp, widgetType);
1063:Generated_Source\PSoC4/capsense_Processing.c ****             #endif
1064:Generated_Source\PSoC4/capsense_Processing.c ****         #endif /* #if (capsense_ENABLE == capsense_RC_FILTER_EN) */
1065:Generated_Source\PSoC4/capsense_Processing.c **** 
1066:Generated_Source\PSoC4/capsense_Processing.c ****         /* Run auto-tuning activities */
1067:Generated_Source\PSoC4/capsense_Processing.c ****         #if (0u != (capsense_CSD_AUTOTUNE & capsense_CSD_SS_TH_EN))
1068:Generated_Source\PSoC4/capsense_Processing.c ****             SmartSense_RunNoiseEnvelope(ptrSnsTmp->raw[0u], ptrRamWdgt->sigPFC, ptrNoiseEnvelope);
1069:Generated_Source\PSoC4/capsense_Processing.c ****             capsense_DpUpdateThresholds(ptrRamWdgt, ptrNoiseEnvelope, snsId);
1070:Generated_Source\PSoC4/capsense_Processing.c **** 
1071:Generated_Source\PSoC4/capsense_Processing.c ****             /* Calculate Proximity Touch Threshold in SmartSense mode based on Finger Threshold and
1072:Generated_Source\PSoC4/capsense_Processing.c ****             #if (capsense_ENABLE == capsense_PROXIMITY_WIDGET_EN)
1073:Generated_Source\PSoC4/capsense_Processing.c ****                 if (capsense_WD_PROXIMITY_E == capsense_GET_WIDGET_TYPE(ptrFlashWdgt))
ARM GAS  C:\Users\ASUS\AppData\Local\Temp\ccuOUgOD.s 			page 23


1074:Generated_Source\PSoC4/capsense_Processing.c ****                 {
1075:Generated_Source\PSoC4/capsense_Processing.c ****                     proximityThreshold = ((uint32)ptrRamWdgt->fingerTh * capsense_PROX_TOUCH_COEFF)
1076:Generated_Source\PSoC4/capsense_Processing.c ****                     if ((((1Lu) << capsense_THRESHOLD_SIZE) - 1u) < proximityThreshold)
1077:Generated_Source\PSoC4/capsense_Processing.c ****                     {
1078:Generated_Source\PSoC4/capsense_Processing.c ****                         proximityThreshold = ((1Lu) << capsense_THRESHOLD_SIZE) - 1u;
1079:Generated_Source\PSoC4/capsense_Processing.c ****                     }
1080:Generated_Source\PSoC4/capsense_Processing.c ****                     ((capsense_RAM_WD_PROXIMITY_STRUCT *)ptrFlashWdgt->ptr2WdgtRam)->proxTouchTh =
1081:Generated_Source\PSoC4/capsense_Processing.c ****                         (capsense_THRESHOLD_TYPE)proximityThreshold;
1082:Generated_Source\PSoC4/capsense_Processing.c ****                 }
1083:Generated_Source\PSoC4/capsense_Processing.c ****             #endif /* (0 != capsense_PROXIMITY_WIDGET_EN) */
1084:Generated_Source\PSoC4/capsense_Processing.c **** 
1085:Generated_Source\PSoC4/capsense_Processing.c ****             /* Move to next noise-envelope object */
1086:Generated_Source\PSoC4/capsense_Processing.c ****             ptrNoiseEnvelope++;
1087:Generated_Source\PSoC4/capsense_Processing.c ****         #endif /* (0u != (capsense_CSD_AUTOTUNE & capsense_CSD_SS_TH_EN)) */
1088:Generated_Source\PSoC4/capsense_Processing.c **** 
1089:Generated_Source\PSoC4/capsense_Processing.c ****         #if (capsense_ENABLE == capsense_TST_BSLN_DUPLICATION_EN)
1090:Generated_Source\PSoC4/capsense_Processing.c ****             bslnTstResult = capsense_FtUpdateBaseline(ptrRamWdgt, ptrSnsTmp, widgetType);
1091:Generated_Source\PSoC4/capsense_Processing.c ****             if ((CYRET_SUCCESS != bslnTstResult) && (CYRET_SUCCESS == result))
1092:Generated_Source\PSoC4/capsense_Processing.c ****             {
1093:Generated_Source\PSoC4/capsense_Processing.c ****                 result = snsId | capsense_PROCESS_BASELINE_FAILED;
1094:Generated_Source\PSoC4/capsense_Processing.c ****             }
1095:Generated_Source\PSoC4/capsense_Processing.c ****         #else /* (capsense_ENABLE == capsense_TST_BSLN_DUPLICATION_EN) */
1096:Generated_Source\PSoC4/capsense_Processing.c ****             result = capsense_FtUpdateBaseline(ptrRamWdgt, ptrSnsTmp, widgetType);
1097:Generated_Source\PSoC4/capsense_Processing.c ****         #endif /* (capsense_ENABLE == capsense_TST_BSLN_DUPLICATION_EN) */
1098:Generated_Source\PSoC4/capsense_Processing.c **** 
1099:Generated_Source\PSoC4/capsense_Processing.c ****         capsense_DpUpdateDifferences(ptrRamWdgt, ptrSnsTmp);
1100:Generated_Source\PSoC4/capsense_Processing.c **** 
1101:Generated_Source\PSoC4/capsense_Processing.c ****         /* Move to next sensor object */
1102:Generated_Source\PSoC4/capsense_Processing.c ****         ptrSnsTmp++;
1103:Generated_Source\PSoC4/capsense_Processing.c **** 
1104:Generated_Source\PSoC4/capsense_Processing.c ****         #if (capsense_ENABLE == capsense_RC_FILTER_EN)
1105:Generated_Source\PSoC4/capsense_Processing.c ****             /* Move to the next filter history object */
1106:Generated_Source\PSoC4/capsense_Processing.c ****             capsense_INC_FLTR_OBJ_VARIANT(isProxWdgt, fltrHistV);
1107:Generated_Source\PSoC4/capsense_Processing.c ****         #endif /* #if (capsense_ENABLE == capsense_RC_FILTER_EN) */
1108:Generated_Source\PSoC4/capsense_Processing.c ****     }
1109:Generated_Source\PSoC4/capsense_Processing.c ****     return result;
1110:Generated_Source\PSoC4/capsense_Processing.c **** }
1111:Generated_Source\PSoC4/capsense_Processing.c **** 
1112:Generated_Source\PSoC4/capsense_Processing.c **** 
1113:Generated_Source\PSoC4/capsense_Processing.c **** /*******************************************************************************
1114:Generated_Source\PSoC4/capsense_Processing.c **** * Function Name: capsense_DpProcessCsdSensorRawCountsExt
1115:Generated_Source\PSoC4/capsense_Processing.c **** ****************************************************************************//**
1116:Generated_Source\PSoC4/capsense_Processing.c **** *
1117:Generated_Source\PSoC4/capsense_Processing.c **** * \brief
1118:Generated_Source\PSoC4/capsense_Processing.c **** *   Performs customized processing of the CSD sensor raw counts.
1119:Generated_Source\PSoC4/capsense_Processing.c **** *
1120:Generated_Source\PSoC4/capsense_Processing.c **** * \details
1121:Generated_Source\PSoC4/capsense_Processing.c **** *   Performs customized processing of the CSD sensor raw counts.
1122:Generated_Source\PSoC4/capsense_Processing.c **** *
1123:Generated_Source\PSoC4/capsense_Processing.c **** *   Note that this API updates data associated only with the sensor. It cannot be used to update
1124:Generated_Source\PSoC4/capsense_Processing.c **** *   widget status.
1125:Generated_Source\PSoC4/capsense_Processing.c **** *
1126:Generated_Source\PSoC4/capsense_Processing.c **** * \param ptrFlashWdgt The pointer to the Flash widget structure.
1127:Generated_Source\PSoC4/capsense_Processing.c **** * \param curSnsPtr    The pointer to the sensor object in RAM.
1128:Generated_Source\PSoC4/capsense_Processing.c **** * \param fltrHistV    The pointer to the Filter History Object in RAM.
1129:Generated_Source\PSoC4/capsense_Processing.c **** * \param mode         The bit-mask with the data processing tasks to be executed.
1130:Generated_Source\PSoC4/capsense_Processing.c **** *   The mode parameters can take the following values:
ARM GAS  C:\Users\ASUS\AppData\Local\Temp\ccuOUgOD.s 			page 24


1131:Generated_Source\PSoC4/capsense_Processing.c **** *    - capsense_PROCESS_FILTER     (0x01) Run Firmware Filter
1132:Generated_Source\PSoC4/capsense_Processing.c **** *    - capsense_PROCESS_BASELINE   (0x02) Update Baselines
1133:Generated_Source\PSoC4/capsense_Processing.c **** *    - capsense_PROCESS_DIFFCOUNTS (0x04) Update Difference Counts
1134:Generated_Source\PSoC4/capsense_Processing.c **** *    - capsense_PROCESS_CALC_NOISE (0x08) Calculate Noise (only if FW Tuning is enabled)
1135:Generated_Source\PSoC4/capsense_Processing.c **** *    - capsense_PROCESS_THRESHOLDS (0x10) Update Thresholds (only if FW Tuning is enabled)
1136:Generated_Source\PSoC4/capsense_Processing.c **** *    - capsense_PROCESS_ALL               Execute all tasks
1137:Generated_Source\PSoC4/capsense_Processing.c **** *
1138:Generated_Source\PSoC4/capsense_Processing.c **** * \return
1139:Generated_Source\PSoC4/capsense_Processing.c **** *  Returns the status of the specified sensor processing operation:
1140:Generated_Source\PSoC4/capsense_Processing.c **** *  - CYRET_SUCCESS if operation was successfully completed.
1141:Generated_Source\PSoC4/capsense_Processing.c **** *  - capsense_PROCESS_BASELINE_FAILED if baseline processing of any
1142:Generated_Source\PSoC4/capsense_Processing.c **** *    sensor of the specified widget failed. The result is concatenated with the index
1143:Generated_Source\PSoC4/capsense_Processing.c **** *    of failed sensor.
1144:Generated_Source\PSoC4/capsense_Processing.c **** *
1145:Generated_Source\PSoC4/capsense_Processing.c **** *******************************************************************************/
1146:Generated_Source\PSoC4/capsense_Processing.c **** uint32 capsense_DpProcessCsdSensorRawCountsExt(
1147:Generated_Source\PSoC4/capsense_Processing.c ****                 capsense_FLASH_WD_STRUCT const *ptrFlashWdgt,
1148:Generated_Source\PSoC4/capsense_Processing.c ****                 capsense_RAM_SNS_STRUCT *curSnsPtr,
1149:Generated_Source\PSoC4/capsense_Processing.c ****                 capsense_PTR_FILTER_VARIANT fltrHistV,
1150:Generated_Source\PSoC4/capsense_Processing.c ****                  uint32 mode)
1151:Generated_Source\PSoC4/capsense_Processing.c **** {
1152:Generated_Source\PSoC4/capsense_Processing.c ****     uint32 result = CYRET_SUCCESS;
1153:Generated_Source\PSoC4/capsense_Processing.c ****     uint32  widgetType;
1154:Generated_Source\PSoC4/capsense_Processing.c ****     capsense_RAM_WD_BASE_STRUCT *ptrRamWdgt;
1155:Generated_Source\PSoC4/capsense_Processing.c **** 
1156:Generated_Source\PSoC4/capsense_Processing.c ****     #if (0u != (capsense_CSD_AUTOTUNE & capsense_CSD_SS_TH_EN))
1157:Generated_Source\PSoC4/capsense_Processing.c ****         SMARTSENSE_CSD_NOISE_ENVELOPE_STRUCT *ptrNoiseEnvelope;
1158:Generated_Source\PSoC4/capsense_Processing.c ****         #if (capsense_ENABLE == capsense_PROXIMITY_WIDGET_EN)
1159:Generated_Source\PSoC4/capsense_Processing.c ****             uint32  proximityThreshold;
1160:Generated_Source\PSoC4/capsense_Processing.c ****         #endif /* (0 != capsense_PROXIMITY_WIDGET_EN) */
1161:Generated_Source\PSoC4/capsense_Processing.c **** 
1162:Generated_Source\PSoC4/capsense_Processing.c ****         /* Need to specify pointer to corresponding sensor's noise-envelope object.*/
1163:Generated_Source\PSoC4/capsense_Processing.c ****         ptrNoiseEnvelope = ptrFlashWdgt->ptr2NoiseEnvlp;
1164:Generated_Source\PSoC4/capsense_Processing.c ****     #endif /* (0u != (capsense_CSD_AUTOTUNE & capsense_CSD_SS_TH_EN)) */
1165:Generated_Source\PSoC4/capsense_Processing.c **** 
1166:Generated_Source\PSoC4/capsense_Processing.c ****     widgetType = ptrFlashWdgt->wdgtType;
1167:Generated_Source\PSoC4/capsense_Processing.c ****     ptrRamWdgt = (capsense_RAM_WD_BASE_STRUCT *)ptrFlashWdgt->ptr2WdgtRam;
1168:Generated_Source\PSoC4/capsense_Processing.c **** 
1169:Generated_Source\PSoC4/capsense_Processing.c ****     #if (capsense_ENABLE == capsense_RC_FILTER_EN)
1170:Generated_Source\PSoC4/capsense_Processing.c ****         if (0u != (mode & capsense_PROCESS_FILTER))
1171:Generated_Source\PSoC4/capsense_Processing.c ****         {
1172:Generated_Source\PSoC4/capsense_Processing.c ****             capsense_FtRunEnabledFiltersInternal(fltrHistV, curSnsPtr, widgetType);
1173:Generated_Source\PSoC4/capsense_Processing.c ****             #if (capsense_ALP_FILTER_EN)
1174:Generated_Source\PSoC4/capsense_Processing.c ****                 capsense_ConfigRunALPInternal(fltrHistV, ptrRamWdgt, curSnsPtr, widgetType);
1175:Generated_Source\PSoC4/capsense_Processing.c ****             #endif
1176:Generated_Source\PSoC4/capsense_Processing.c ****         }
1177:Generated_Source\PSoC4/capsense_Processing.c ****     #else
1178:Generated_Source\PSoC4/capsense_Processing.c ****         (void)fltrHistV; /* This parameter is unused in such configurations */
1179:Generated_Source\PSoC4/capsense_Processing.c ****     #endif /* #if (capsense_ENABLE == capsense_RC_FILTER_EN) */
1180:Generated_Source\PSoC4/capsense_Processing.c **** 
1181:Generated_Source\PSoC4/capsense_Processing.c ****     #if (0u != (capsense_CSD_AUTOTUNE & capsense_CSD_SS_TH_EN))
1182:Generated_Source\PSoC4/capsense_Processing.c ****         if (0u != (mode & capsense_PROCESS_CALC_NOISE))
1183:Generated_Source\PSoC4/capsense_Processing.c ****         {
1184:Generated_Source\PSoC4/capsense_Processing.c ****             SmartSense_RunNoiseEnvelope(curSnsPtr->raw[0u], ptrRamWdgt->sigPFC, ptrNoiseEnvelope);
1185:Generated_Source\PSoC4/capsense_Processing.c ****         }
1186:Generated_Source\PSoC4/capsense_Processing.c **** 
1187:Generated_Source\PSoC4/capsense_Processing.c ****         if (0u != (mode & capsense_PROCESS_THRESHOLDS))
ARM GAS  C:\Users\ASUS\AppData\Local\Temp\ccuOUgOD.s 			page 25


1188:Generated_Source\PSoC4/capsense_Processing.c ****         {
1189:Generated_Source\PSoC4/capsense_Processing.c ****             capsense_DpUpdateThresholds(ptrRamWdgt, ptrNoiseEnvelope, 0u);
1190:Generated_Source\PSoC4/capsense_Processing.c **** 
1191:Generated_Source\PSoC4/capsense_Processing.c ****             /* Calculate Proximity Touch Threshold in SmartSense mode based on Finger Threshold and
1192:Generated_Source\PSoC4/capsense_Processing.c ****             #if (capsense_ENABLE == capsense_PROXIMITY_WIDGET_EN)
1193:Generated_Source\PSoC4/capsense_Processing.c ****                 if (capsense_WD_PROXIMITY_E == capsense_GET_WIDGET_TYPE(ptrFlashWdgt))
1194:Generated_Source\PSoC4/capsense_Processing.c ****                 {
1195:Generated_Source\PSoC4/capsense_Processing.c ****                     proximityThreshold = ((uint32)ptrRamWdgt->fingerTh * capsense_PROX_TOUCH_COEFF)
1196:Generated_Source\PSoC4/capsense_Processing.c ****                     if ((((1Lu) << capsense_THRESHOLD_SIZE) - 1u) < proximityThreshold)
1197:Generated_Source\PSoC4/capsense_Processing.c ****                     {
1198:Generated_Source\PSoC4/capsense_Processing.c ****                         proximityThreshold = ((1Lu) << capsense_THRESHOLD_SIZE) - 1u;
1199:Generated_Source\PSoC4/capsense_Processing.c ****                     }
1200:Generated_Source\PSoC4/capsense_Processing.c ****                     ((capsense_RAM_WD_PROXIMITY_STRUCT *)ptrFlashWdgt->ptr2WdgtRam)->proxTouchTh =
1201:Generated_Source\PSoC4/capsense_Processing.c ****                         (capsense_THRESHOLD_TYPE)proximityThreshold;
1202:Generated_Source\PSoC4/capsense_Processing.c ****                 }
1203:Generated_Source\PSoC4/capsense_Processing.c ****             #endif /* (0 != capsense_PROXIMITY_WIDGET_EN) */
1204:Generated_Source\PSoC4/capsense_Processing.c ****         }
1205:Generated_Source\PSoC4/capsense_Processing.c ****     #endif /* #if (0u != (capsense_CSD_AUTOTUNE & capsense_CSD_SS_TH_EN)) */
1206:Generated_Source\PSoC4/capsense_Processing.c **** 
1207:Generated_Source\PSoC4/capsense_Processing.c ****     if (0u != (mode & capsense_PROCESS_BASELINE))
1208:Generated_Source\PSoC4/capsense_Processing.c ****     {
1209:Generated_Source\PSoC4/capsense_Processing.c ****         result = capsense_FtUpdateBaseline(ptrRamWdgt, curSnsPtr, widgetType);
1210:Generated_Source\PSoC4/capsense_Processing.c ****     }
1211:Generated_Source\PSoC4/capsense_Processing.c **** 
1212:Generated_Source\PSoC4/capsense_Processing.c ****     if (0u != (mode & capsense_PROCESS_DIFFCOUNTS))
1213:Generated_Source\PSoC4/capsense_Processing.c ****     {
1214:Generated_Source\PSoC4/capsense_Processing.c ****         capsense_DpUpdateDifferences(ptrRamWdgt, curSnsPtr);
1215:Generated_Source\PSoC4/capsense_Processing.c ****     }
1216:Generated_Source\PSoC4/capsense_Processing.c ****     return result;
1217:Generated_Source\PSoC4/capsense_Processing.c **** }
1218:Generated_Source\PSoC4/capsense_Processing.c **** 
1219:Generated_Source\PSoC4/capsense_Processing.c **** /*******************************************************************************
1220:Generated_Source\PSoC4/capsense_Processing.c **** * Function Name: capsense_DpProcessCsdWidgetStatus
1221:Generated_Source\PSoC4/capsense_Processing.c **** ****************************************************************************//**
1222:Generated_Source\PSoC4/capsense_Processing.c **** *
1223:Generated_Source\PSoC4/capsense_Processing.c **** * \brief
1224:Generated_Source\PSoC4/capsense_Processing.c **** *  Runs the status processing of the CSD widget and updates it in the Data Structure.
1225:Generated_Source\PSoC4/capsense_Processing.c **** *
1226:Generated_Source\PSoC4/capsense_Processing.c **** * \details
1227:Generated_Source\PSoC4/capsense_Processing.c **** *  This API determines the widget type and calls the appropriate low-level processing
1228:Generated_Source\PSoC4/capsense_Processing.c **** *  function. Based on the returned results it updates the widget and sensor
1229:Generated_Source\PSoC4/capsense_Processing.c **** *  status in the data structure. Any widget specific registers like the centroid
1230:Generated_Source\PSoC4/capsense_Processing.c **** *  position are updated directly in the low-level processing function.
1231:Generated_Source\PSoC4/capsense_Processing.c **** *
1232:Generated_Source\PSoC4/capsense_Processing.c **** *  When the widget-specific processing completes this API updates the snsStatus
1233:Generated_Source\PSoC4/capsense_Processing.c **** *  and wdgtStatus registers in the data structure. The wdgtStatus register
1234:Generated_Source\PSoC4/capsense_Processing.c **** *  is a bitmask were each bit corresponds to the specific widget identified by
1235:Generated_Source\PSoC4/capsense_Processing.c **** *  the widget index. When the bit is set the widget is active (touched);
1236:Generated_Source\PSoC4/capsense_Processing.c **** *
1237:Generated_Source\PSoC4/capsense_Processing.c **** *  The snsStatus register for CSD widgets contains status of each widget sensor
1238:Generated_Source\PSoC4/capsense_Processing.c **** *  (active/non-active). Each bit corresponds to one sensor. In case of the
1239:Generated_Source\PSoC4/capsense_Processing.c **** *  Proximity widget two bits are used per sensor: one for proximity status and
1240:Generated_Source\PSoC4/capsense_Processing.c **** *  second for the touch status.
1241:Generated_Source\PSoC4/capsense_Processing.c **** *
1242:Generated_Source\PSoC4/capsense_Processing.c **** * \param widgetId      The widget index number.
1243:Generated_Source\PSoC4/capsense_Processing.c **** * \param ptrFlashWdgt  The pointer to the Flash widget structure.
1244:Generated_Source\PSoC4/capsense_Processing.c **** *
ARM GAS  C:\Users\ASUS\AppData\Local\Temp\ccuOUgOD.s 			page 26


1245:Generated_Source\PSoC4/capsense_Processing.c **** *******************************************************************************/
1246:Generated_Source\PSoC4/capsense_Processing.c **** void capsense_DpProcessCsdWidgetStatus(uint32 widgetId, capsense_FLASH_WD_STRUCT const *ptrFlashWdg
1247:Generated_Source\PSoC4/capsense_Processing.c **** {
1248:Generated_Source\PSoC4/capsense_Processing.c ****     uint32 sensorStatus;
1249:Generated_Source\PSoC4/capsense_Processing.c ****     uint32 wdStatusIndex;
1250:Generated_Source\PSoC4/capsense_Processing.c ****     uint32 wdStatusMask;
1251:Generated_Source\PSoC4/capsense_Processing.c ****     capsense_WD_TYPE_ENUM widgetType;
1252:Generated_Source\PSoC4/capsense_Processing.c **** 
1253:Generated_Source\PSoC4/capsense_Processing.c ****     widgetType = (capsense_WD_TYPE_ENUM)ptrFlashWdgt->wdgtType;
1254:Generated_Source\PSoC4/capsense_Processing.c ****     sensorStatus = capsense_dsRam.snsStatus[widgetId];
1255:Generated_Source\PSoC4/capsense_Processing.c **** 
1256:Generated_Source\PSoC4/capsense_Processing.c ****     switch (widgetType)
1257:Generated_Source\PSoC4/capsense_Processing.c ****     {
1258:Generated_Source\PSoC4/capsense_Processing.c ****     #if (0u != capsense_BUTTON_WIDGET_EN)
1259:Generated_Source\PSoC4/capsense_Processing.c ****         case capsense_WD_BUTTON_E:
1260:Generated_Source\PSoC4/capsense_Processing.c ****             sensorStatus = capsense_DpProcessButton(sensorStatus, ptrFlashWdgt);
1261:Generated_Source\PSoC4/capsense_Processing.c ****             break;
1262:Generated_Source\PSoC4/capsense_Processing.c ****     #endif /* #if (0u != capsense_BUTTON_WIDGET_EN) */
1263:Generated_Source\PSoC4/capsense_Processing.c **** 
1264:Generated_Source\PSoC4/capsense_Processing.c ****     #if (0u != capsense_SLIDER_WIDGET_EN)
1265:Generated_Source\PSoC4/capsense_Processing.c ****         case capsense_WD_LINEAR_SLIDER_E:
1266:Generated_Source\PSoC4/capsense_Processing.c ****         case capsense_WD_RADIAL_SLIDER_E:
1267:Generated_Source\PSoC4/capsense_Processing.c ****             sensorStatus = capsense_DpProcessSlider(sensorStatus, ptrFlashWdgt);
1268:Generated_Source\PSoC4/capsense_Processing.c ****             break;
1269:Generated_Source\PSoC4/capsense_Processing.c ****     #endif /* #if (0u != capsense_SLIDER_WIDGET_EN) */
1270:Generated_Source\PSoC4/capsense_Processing.c **** 
1271:Generated_Source\PSoC4/capsense_Processing.c ****     #if (0u != capsense_CSD_MATRIX_WIDGET_EN)
1272:Generated_Source\PSoC4/capsense_Processing.c ****         case capsense_WD_MATRIX_BUTTON_E:
1273:Generated_Source\PSoC4/capsense_Processing.c ****             sensorStatus = capsense_DpProcessCsdMatrix(sensorStatus, ptrFlashWdgt);
1274:Generated_Source\PSoC4/capsense_Processing.c ****             break;
1275:Generated_Source\PSoC4/capsense_Processing.c ****     #endif /* #if (0u != capsense_CSD_MATRIX_WIDGET_EN) */
1276:Generated_Source\PSoC4/capsense_Processing.c **** 
1277:Generated_Source\PSoC4/capsense_Processing.c ****     #if (0u != capsense_CSD_TOUCHPAD_WIDGET_EN)
1278:Generated_Source\PSoC4/capsense_Processing.c ****         case capsense_WD_TOUCHPAD_E:
1279:Generated_Source\PSoC4/capsense_Processing.c ****             sensorStatus = capsense_DpProcessCsdTouchpad(sensorStatus, ptrFlashWdgt);
1280:Generated_Source\PSoC4/capsense_Processing.c ****             #if (0u != capsense_BALLISTIC_MULTIPLIER_EN)
1281:Generated_Source\PSoC4/capsense_Processing.c ****                 capsense_RunBallisticMultiplier(widgetId);
1282:Generated_Source\PSoC4/capsense_Processing.c ****             #endif /* (0u != capsense_BALLISTIC_MULTIPLIER_EN) */
1283:Generated_Source\PSoC4/capsense_Processing.c ****             break;
1284:Generated_Source\PSoC4/capsense_Processing.c ****     #endif /* #if (0u != capsense_CSD_TOUCHPAD_WIDGET_EN) */
1285:Generated_Source\PSoC4/capsense_Processing.c **** 
1286:Generated_Source\PSoC4/capsense_Processing.c ****     #if (0u != capsense_PROXIMITY_WIDGET_EN)
1287:Generated_Source\PSoC4/capsense_Processing.c ****         case capsense_WD_PROXIMITY_E:
1288:Generated_Source\PSoC4/capsense_Processing.c ****             sensorStatus = capsense_DpProcessProximity(sensorStatus, ptrFlashWdgt);
1289:Generated_Source\PSoC4/capsense_Processing.c ****             break;
1290:Generated_Source\PSoC4/capsense_Processing.c ****     #endif /* #if (0u != capsense_PROXIMITY_WIDGET_EN) */
1291:Generated_Source\PSoC4/capsense_Processing.c **** 
1292:Generated_Source\PSoC4/capsense_Processing.c ****     default:
1293:Generated_Source\PSoC4/capsense_Processing.c ****         CYASSERT(0u);
1294:Generated_Source\PSoC4/capsense_Processing.c ****         break;
1295:Generated_Source\PSoC4/capsense_Processing.c ****     }
1296:Generated_Source\PSoC4/capsense_Processing.c **** 
1297:Generated_Source\PSoC4/capsense_Processing.c ****     capsense_dsRam.snsStatus[widgetId] = (capsense_SNS_STS_TYPE)sensorStatus;
1298:Generated_Source\PSoC4/capsense_Processing.c **** 
1299:Generated_Source\PSoC4/capsense_Processing.c ****     /* The next two lines calculate index and bitmask of the widget status bit in the wdgtStatus ar
1300:Generated_Source\PSoC4/capsense_Processing.c ****     wdStatusIndex = capsense_GET_WDGT_STATUS_INDEX(widgetId);
1301:Generated_Source\PSoC4/capsense_Processing.c ****     wdStatusMask = capsense_GET_WDGT_STATUS_MASK(widgetId);
ARM GAS  C:\Users\ASUS\AppData\Local\Temp\ccuOUgOD.s 			page 27


1302:Generated_Source\PSoC4/capsense_Processing.c **** 
1303:Generated_Source\PSoC4/capsense_Processing.c ****     /* Check if there are active sensors and update widget status accordingly */
1304:Generated_Source\PSoC4/capsense_Processing.c ****     if (0u == sensorStatus)
1305:Generated_Source\PSoC4/capsense_Processing.c ****     {
1306:Generated_Source\PSoC4/capsense_Processing.c ****         capsense_dsRam.wdgtStatus[wdStatusIndex] &= ~wdStatusMask;
1307:Generated_Source\PSoC4/capsense_Processing.c ****     }
1308:Generated_Source\PSoC4/capsense_Processing.c ****     else
1309:Generated_Source\PSoC4/capsense_Processing.c ****     {
1310:Generated_Source\PSoC4/capsense_Processing.c ****         capsense_dsRam.wdgtStatus[wdStatusIndex] |= wdStatusMask;
1311:Generated_Source\PSoC4/capsense_Processing.c ****     }
1312:Generated_Source\PSoC4/capsense_Processing.c **** }
1313:Generated_Source\PSoC4/capsense_Processing.c **** #endif /* #if (0u != capsense_TOTAL_CSD_WIDGETS) */
1314:Generated_Source\PSoC4/capsense_Processing.c **** 
1315:Generated_Source\PSoC4/capsense_Processing.c **** 
1316:Generated_Source\PSoC4/capsense_Processing.c **** #if (0 != (capsense_CSD_AUTOTUNE & capsense_CSD_SS_TH_EN))
1317:Generated_Source\PSoC4/capsense_Processing.c **** /*******************************************************************************
1318:Generated_Source\PSoC4/capsense_Processing.c **** * Function Name: capsense_DpUpdateThresholds
1319:Generated_Source\PSoC4/capsense_Processing.c **** ****************************************************************************//**
1320:Generated_Source\PSoC4/capsense_Processing.c **** *
1321:Generated_Source\PSoC4/capsense_Processing.c **** * \brief
1322:Generated_Source\PSoC4/capsense_Processing.c **** *   Updates noise and finger thresholds for a specified widget.
1323:Generated_Source\PSoC4/capsense_Processing.c **** *
1324:Generated_Source\PSoC4/capsense_Processing.c **** * \details
1325:Generated_Source\PSoC4/capsense_Processing.c **** *   Updates noise and finger thresholds for a specified widget.
1326:Generated_Source\PSoC4/capsense_Processing.c **** *   This algorithm is a part of Auto-tuning feature.
1327:Generated_Source\PSoC4/capsense_Processing.c **** *
1328:Generated_Source\PSoC4/capsense_Processing.c **** * \param ptrRamWdgt       The pointer to the RAM widget object.
1329:Generated_Source\PSoC4/capsense_Processing.c **** * \param ptrNoiseEnvelope The pointer to the noise-envelope object in RAM.
1330:Generated_Source\PSoC4/capsense_Processing.c **** * \param startFlag        The flag indicates when new widget is processed.
1331:Generated_Source\PSoC4/capsense_Processing.c **** *
1332:Generated_Source\PSoC4/capsense_Processing.c **** *******************************************************************************/
1333:Generated_Source\PSoC4/capsense_Processing.c **** void capsense_DpUpdateThresholds(capsense_RAM_WD_BASE_STRUCT *ptrRamWdgt,
1334:Generated_Source\PSoC4/capsense_Processing.c ****                                          SMARTSENSE_CSD_NOISE_ENVELOPE_STRUCT *ptrNoiseEnvelope,
1335:Generated_Source\PSoC4/capsense_Processing.c ****                                          uint32 startFlag)
1336:Generated_Source\PSoC4/capsense_Processing.c **** {
1337:Generated_Source\PSoC4/capsense_Processing.c ****     SMARTSENSE_UPDATE_THRESHOLDS_STRUCT thresholds;
1338:Generated_Source\PSoC4/capsense_Processing.c ****     SMARTSENSE_UPDATE_THRESHOLDS_STRUCT *ptrThresholds = &thresholds;
1339:Generated_Source\PSoC4/capsense_Processing.c ****     ptrThresholds->fingerTh = ptrRamWdgt->fingerTh;
1340:Generated_Source\PSoC4/capsense_Processing.c **** 
1341:Generated_Source\PSoC4/capsense_Processing.c ****     SmartSense_UpdateThresholds(ptrNoiseEnvelope, ptrThresholds, ptrRamWdgt->sigPFC, startFlag);
1342:Generated_Source\PSoC4/capsense_Processing.c **** 
1343:Generated_Source\PSoC4/capsense_Processing.c ****     ptrRamWdgt->fingerTh = ptrThresholds->fingerTh;
1344:Generated_Source\PSoC4/capsense_Processing.c ****     ptrRamWdgt->noiseTh = ptrThresholds->noiseTh;
1345:Generated_Source\PSoC4/capsense_Processing.c ****     ptrRamWdgt->nNoiseTh = ptrThresholds->nNoiseTh;
1346:Generated_Source\PSoC4/capsense_Processing.c ****     ptrRamWdgt->hysteresis = ptrThresholds->hysteresis;
1347:Generated_Source\PSoC4/capsense_Processing.c **** }
1348:Generated_Source\PSoC4/capsense_Processing.c **** #endif /* #if (0u != (capsense_CSD_AUTOTUNE & capsense_CSD_SS_TH_EN)) */
1349:Generated_Source\PSoC4/capsense_Processing.c **** 
1350:Generated_Source\PSoC4/capsense_Processing.c **** 
1351:Generated_Source\PSoC4/capsense_Processing.c **** /*******************************************************************************
1352:Generated_Source\PSoC4/capsense_Processing.c **** * Function Name: capsense_DpUpdateDifferences
1353:Generated_Source\PSoC4/capsense_Processing.c **** ****************************************************************************//**
1354:Generated_Source\PSoC4/capsense_Processing.c **** *
1355:Generated_Source\PSoC4/capsense_Processing.c **** * \brief
1356:Generated_Source\PSoC4/capsense_Processing.c **** *   Calculates new difference values.
1357:Generated_Source\PSoC4/capsense_Processing.c **** *   Also, executes the multi-frequency scan algorithm if it is enabled.
1358:Generated_Source\PSoC4/capsense_Processing.c **** *
ARM GAS  C:\Users\ASUS\AppData\Local\Temp\ccuOUgOD.s 			page 28


1359:Generated_Source\PSoC4/capsense_Processing.c **** * \details
1360:Generated_Source\PSoC4/capsense_Processing.c **** *   This API calculates the difference between the baseline and raw counts.
1361:Generated_Source\PSoC4/capsense_Processing.c **** *   If the difference is positive (raw > baseline), and higher than the widget
1362:Generated_Source\PSoC4/capsense_Processing.c **** *   noise threshold, it is saved into the data structure for further processing.
1363:Generated_Source\PSoC4/capsense_Processing.c **** *   Otherwise the difference is set to zero. The final difference value is saved
1364:Generated_Source\PSoC4/capsense_Processing.c **** *   with the subtracted noise threshold value.
1365:Generated_Source\PSoC4/capsense_Processing.c **** *
1366:Generated_Source\PSoC4/capsense_Processing.c **** *   If the multi-frequency scan algorithm is enabled, the difference is calculated
1367:Generated_Source\PSoC4/capsense_Processing.c **** *   for the three sets of data available for each sensor. Then
1368:Generated_Source\PSoC4/capsense_Processing.c **** *   the median filter selects the final difference value.
1369:Generated_Source\PSoC4/capsense_Processing.c **** *
1370:Generated_Source\PSoC4/capsense_Processing.c **** * \param ptrRamWdgt The pointer to the RAR Widget Object.
1371:Generated_Source\PSoC4/capsense_Processing.c **** * \param curSnsPtr  The pointer to the sensor object in RAM.
1372:Generated_Source\PSoC4/capsense_Processing.c **** *
1373:Generated_Source\PSoC4/capsense_Processing.c **** *******************************************************************************/
1374:Generated_Source\PSoC4/capsense_Processing.c **** void capsense_DpUpdateDifferences(
1375:Generated_Source\PSoC4/capsense_Processing.c ****                         capsense_RAM_WD_BASE_STRUCT *ptrRamWdgt,
1376:Generated_Source\PSoC4/capsense_Processing.c ****                         capsense_RAM_SNS_STRUCT *curSnsPtr)
1377:Generated_Source\PSoC4/capsense_Processing.c **** {
 173              		.loc 1 1377 0
 174              		.cfi_startproc
 175              		@ args = 0, pretend = 0, frame = 0
 176              		@ frame_needed = 0, uses_anonymous_args = 0
 177              	.LVL21:
 178 0000 30B5     		push	{r4, r5, lr}
 179              		.cfi_def_cfa_offset 12
 180              		.cfi_offset 4, -12
 181              		.cfi_offset 5, -8
 182              		.cfi_offset 14, -4
 183              	.LVL22:
1378:Generated_Source\PSoC4/capsense_Processing.c ****     register int32 diffValue = 0;
1379:Generated_Source\PSoC4/capsense_Processing.c **** 
1380:Generated_Source\PSoC4/capsense_Processing.c ****     #if (0u != capsense_MULTI_FREQ_SCAN_EN)
1381:Generated_Source\PSoC4/capsense_Processing.c ****         register int32 diffValue_0 = 0;
1382:Generated_Source\PSoC4/capsense_Processing.c ****         register int32 diffValue_2 = 0;
1383:Generated_Source\PSoC4/capsense_Processing.c ****     #endif /* #if (0u != capsense_MULTI_FREQ_SCAN_EN) */
1384:Generated_Source\PSoC4/capsense_Processing.c **** 
1385:Generated_Source\PSoC4/capsense_Processing.c ****     /* Calculate difference */
1386:Generated_Source\PSoC4/capsense_Processing.c ****     diffValue = (int32)curSnsPtr->raw[0u] - (int32)curSnsPtr->bsln[0u];
 184              		.loc 1 1386 0
 185 0002 0B88     		ldrh	r3, [r1]
 186 0004 4A88     		ldrh	r2, [r1, #2]
 187 0006 9C1A     		subs	r4, r3, r2
 188              	.LVL23:
1387:Generated_Source\PSoC4/capsense_Processing.c **** 
1388:Generated_Source\PSoC4/capsense_Processing.c ****     #if (0u != capsense_MULTI_FREQ_SCAN_EN)
1389:Generated_Source\PSoC4/capsense_Processing.c ****         diffValue_0 = (int32)curSnsPtr->raw[1u] - (int32)curSnsPtr->bsln[1u];
1390:Generated_Source\PSoC4/capsense_Processing.c ****         diffValue_2 = (int32)curSnsPtr->raw[2u] - (int32)curSnsPtr->bsln[2u];
1391:Generated_Source\PSoC4/capsense_Processing.c **** 
1392:Generated_Source\PSoC4/capsense_Processing.c ****         /* Find median and put it into [0u] element */
1393:Generated_Source\PSoC4/capsense_Processing.c ****         if (diffValue_0 > diffValue)
1394:Generated_Source\PSoC4/capsense_Processing.c ****         {
1395:Generated_Source\PSoC4/capsense_Processing.c ****             register int32 swapv = diffValue_0;
1396:Generated_Source\PSoC4/capsense_Processing.c ****             diffValue_0 = diffValue;
1397:Generated_Source\PSoC4/capsense_Processing.c ****             diffValue = swapv;
1398:Generated_Source\PSoC4/capsense_Processing.c ****         }
1399:Generated_Source\PSoC4/capsense_Processing.c **** 
ARM GAS  C:\Users\ASUS\AppData\Local\Temp\ccuOUgOD.s 			page 29


1400:Generated_Source\PSoC4/capsense_Processing.c ****         if (diffValue > diffValue_2)
1401:Generated_Source\PSoC4/capsense_Processing.c ****         {
1402:Generated_Source\PSoC4/capsense_Processing.c ****             register int32 swapv = diffValue;
1403:Generated_Source\PSoC4/capsense_Processing.c ****             diffValue = diffValue_2;
1404:Generated_Source\PSoC4/capsense_Processing.c ****             diffValue_2 = swapv;
1405:Generated_Source\PSoC4/capsense_Processing.c ****         }
1406:Generated_Source\PSoC4/capsense_Processing.c **** 
1407:Generated_Source\PSoC4/capsense_Processing.c ****         if (diffValue_0 > diffValue)
1408:Generated_Source\PSoC4/capsense_Processing.c ****         {
1409:Generated_Source\PSoC4/capsense_Processing.c ****             register int32 swapv = diffValue_0;
1410:Generated_Source\PSoC4/capsense_Processing.c ****             diffValue_0 = diffValue;
1411:Generated_Source\PSoC4/capsense_Processing.c ****             diffValue = swapv;
1412:Generated_Source\PSoC4/capsense_Processing.c ****         }
1413:Generated_Source\PSoC4/capsense_Processing.c ****     #endif /* #if (0u != capsense_MULTI_FREQ_SCAN_EN) */
1414:Generated_Source\PSoC4/capsense_Processing.c **** 
1415:Generated_Source\PSoC4/capsense_Processing.c ****     curSnsPtr->diff = 0u;
 189              		.loc 1 1415 0
 190 0008 0025     		movs	r5, #0
 191 000a CD80     		strh	r5, [r1, #6]
1416:Generated_Source\PSoC4/capsense_Processing.c **** 
1417:Generated_Source\PSoC4/capsense_Processing.c ****     if (diffValue > (int32)ptrRamWdgt->noiseTh)
 192              		.loc 1 1417 0
 193 000c 0079     		ldrb	r0, [r0, #4]
 194              	.LVL24:
 195 000e 8442     		cmp	r4, r0
 196 0010 00DD     		ble	.L15
1418:Generated_Source\PSoC4/capsense_Processing.c ****     {
1419:Generated_Source\PSoC4/capsense_Processing.c ****         curSnsPtr->diff = (capsense_THRESHOLD_TYPE) diffValue;
 197              		.loc 1 1419 0
 198 0012 CC80     		strh	r4, [r1, #6]
 199              	.L15:
1420:Generated_Source\PSoC4/capsense_Processing.c ****     }
1421:Generated_Source\PSoC4/capsense_Processing.c **** }
 200              		.loc 1 1421 0
 201              		@ sp needed
 202              	.LVL25:
 203 0014 30BD     		pop	{r4, r5, pc}
 204              		.cfi_endproc
 205              	.LFE9:
 206              		.size	capsense_DpUpdateDifferences, .-capsense_DpUpdateDifferences
 207 0016 C046     		.section	.text.capsense_DpProcessCsxWidgetRawCounts,"ax",%progbits
 208              		.align	2
 209              		.global	capsense_DpProcessCsxWidgetRawCounts
 210              		.code	16
 211              		.thumb_func
 212              		.type	capsense_DpProcessCsxWidgetRawCounts, %function
 213              	capsense_DpProcessCsxWidgetRawCounts:
 214              	.LFB3:
 567:Generated_Source\PSoC4/capsense_Processing.c ****     uint32 result = CYRET_SUCCESS;
 215              		.loc 1 567 0
 216              		.cfi_startproc
 217              		@ args = 0, pretend = 0, frame = 8
 218              		@ frame_needed = 0, uses_anonymous_args = 0
 219              	.LVL26:
 220 0000 F0B5     		push	{r4, r5, r6, r7, lr}
 221              		.cfi_def_cfa_offset 20
 222              		.cfi_offset 4, -20
ARM GAS  C:\Users\ASUS\AppData\Local\Temp\ccuOUgOD.s 			page 30


 223              		.cfi_offset 5, -16
 224              		.cfi_offset 6, -12
 225              		.cfi_offset 7, -8
 226              		.cfi_offset 14, -4
 227 0002 83B0     		sub	sp, sp, #12
 228              		.cfi_def_cfa_offset 32
 229              	.LVL27:
 580:Generated_Source\PSoC4/capsense_Processing.c ****     snsCount = ptrFlashWdgt->totalNumSns;
 230              		.loc 1 580 0
 231 0004 8468     		ldr	r4, [r0, #8]
 232              	.LVL28:
 581:Generated_Source\PSoC4/capsense_Processing.c ****     ptrRamWdgt = (capsense_RAM_WD_BASE_STRUCT *)ptrFlashWdgt->ptr2WdgtRam;
 233              		.loc 1 581 0
 234 0006 038B     		ldrh	r3, [r0, #24]
 235              	.LVL29:
 582:Generated_Source\PSoC4/capsense_Processing.c ****     widgetType = ptrFlashWdgt->wdgtType;
 236              		.loc 1 582 0
 237 0008 4568     		ldr	r5, [r0, #4]
 238              	.LVL30:
 583:Generated_Source\PSoC4/capsense_Processing.c **** 
 239              		.loc 1 583 0
 240 000a 877E     		ldrb	r7, [r0, #26]
 241              	.LVL31:
 568:Generated_Source\PSoC4/capsense_Processing.c ****     uint32 widgetType;
 242              		.loc 1 568 0
 243 000c 0022     		movs	r2, #0
 244 000e 0192     		str	r2, [sp, #4]
 593:Generated_Source\PSoC4/capsense_Processing.c ****     {
 245              		.loc 1 593 0
 246 0010 0BE0     		b	.L18
 247              	.LVL32:
 248              	.L19:
 602:Generated_Source\PSoC4/capsense_Processing.c **** 
 249              		.loc 1 602 0
 250 0012 3A00     		movs	r2, r7
 251 0014 2100     		movs	r1, r4
 252 0016 2800     		movs	r0, r5
 253 0018 FFF7FEFF 		bl	capsense_FtUpdateBaseline
 254              	.LVL33:
 255 001c 0190     		str	r0, [sp, #4]
 256              	.LVL34:
 611:Generated_Source\PSoC4/capsense_Processing.c **** 
 257              		.loc 1 611 0
 258 001e 2100     		movs	r1, r4
 259 0020 2800     		movs	r0, r5
 260              	.LVL35:
 261 0022 FFF7FEFF 		bl	capsense_DpUpdateDifferences
 262              	.LVL36:
 614:Generated_Source\PSoC4/capsense_Processing.c **** 
 263              		.loc 1 614 0
 264 0026 0A34     		adds	r4, r4, #10
 265              	.LVL37:
 593:Generated_Source\PSoC4/capsense_Processing.c ****     {
 266              		.loc 1 593 0
 267 0028 3300     		movs	r3, r6
 268              	.LVL38:
 269              	.L18:
ARM GAS  C:\Users\ASUS\AppData\Local\Temp\ccuOUgOD.s 			page 31


 270 002a 5E1E     		subs	r6, r3, #1
 271              	.LVL39:
 272 002c 002B     		cmp	r3, #0
 273 002e F0D1     		bne	.L19
 621:Generated_Source\PSoC4/capsense_Processing.c **** 
 274              		.loc 1 621 0
 275 0030 0198     		ldr	r0, [sp, #4]
 276 0032 03B0     		add	sp, sp, #12
 277              		@ sp needed
 278              	.LVL40:
 279              	.LVL41:
 280              	.LVL42:
 281              	.LVL43:
 282 0034 F0BD     		pop	{r4, r5, r6, r7, pc}
 283              		.cfi_endproc
 284              	.LFE3:
 285              		.size	capsense_DpProcessCsxWidgetRawCounts, .-capsense_DpProcessCsxWidgetRawCounts
 286 0036 C046     		.section	.text.capsense_DpProcessCsxSensorRawCountsExt,"ax",%progbits
 287              		.align	2
 288              		.global	capsense_DpProcessCsxSensorRawCountsExt
 289              		.code	16
 290              		.thumb_func
 291              		.type	capsense_DpProcessCsxSensorRawCountsExt, %function
 292              	capsense_DpProcessCsxSensorRawCountsExt:
 293              	.LFB4:
 659:Generated_Source\PSoC4/capsense_Processing.c ****     uint32  result = CYRET_SUCCESS;
 294              		.loc 1 659 0
 295              		.cfi_startproc
 296              		@ args = 0, pretend = 0, frame = 0
 297              		@ frame_needed = 0, uses_anonymous_args = 0
 298              	.LVL44:
 299 0000 F8B5     		push	{r3, r4, r5, r6, r7, lr}
 300              		.cfi_def_cfa_offset 24
 301              		.cfi_offset 3, -24
 302              		.cfi_offset 4, -20
 303              		.cfi_offset 5, -16
 304              		.cfi_offset 6, -12
 305              		.cfi_offset 7, -8
 306              		.cfi_offset 14, -4
 307 0002 0E00     		movs	r6, r1
 308 0004 1C00     		movs	r4, r3
 309              	.LVL45:
 664:Generated_Source\PSoC4/capsense_Processing.c ****     ptrRamWdgt = (capsense_RAM_WD_BASE_STRUCT *)ptrFlashWdgt->ptr2WdgtRam;
 310              		.loc 1 664 0
 311 0006 827E     		ldrb	r2, [r0, #26]
 312              	.LVL46:
 665:Generated_Source\PSoC4/capsense_Processing.c **** 
 313              		.loc 1 665 0
 314 0008 4768     		ldr	r7, [r0, #4]
 315              	.LVL47:
 679:Generated_Source\PSoC4/capsense_Processing.c ****     {
 316              		.loc 1 679 0
 317 000a A307     		lsls	r3, r4, #30
 318 000c 04D5     		bpl	.L23
 319              	.LVL48:
 681:Generated_Source\PSoC4/capsense_Processing.c ****     }
 320              		.loc 1 681 0
ARM GAS  C:\Users\ASUS\AppData\Local\Temp\ccuOUgOD.s 			page 32


 321 000e 3800     		movs	r0, r7
 322              	.LVL49:
 323 0010 FFF7FEFF 		bl	capsense_FtUpdateBaseline
 324              	.LVL50:
 325 0014 0500     		movs	r5, r0
 326              	.LVL51:
 327 0016 00E0     		b	.L21
 328              	.LVL52:
 329              	.L23:
 660:Generated_Source\PSoC4/capsense_Processing.c ****     uint32  widgetType;
 330              		.loc 1 660 0
 331 0018 0025     		movs	r5, #0
 332              	.LVL53:
 333              	.L21:
 684:Generated_Source\PSoC4/capsense_Processing.c ****     {
 334              		.loc 1 684 0
 335 001a 6307     		lsls	r3, r4, #29
 336 001c 03D5     		bpl	.L22
 686:Generated_Source\PSoC4/capsense_Processing.c ****     }
 337              		.loc 1 686 0
 338 001e 3100     		movs	r1, r6
 339 0020 3800     		movs	r0, r7
 340 0022 FFF7FEFF 		bl	capsense_DpUpdateDifferences
 341              	.LVL54:
 342              	.L22:
 689:Generated_Source\PSoC4/capsense_Processing.c **** 
 343              		.loc 1 689 0
 344 0026 2800     		movs	r0, r5
 345              		@ sp needed
 346              	.LVL55:
 347              	.LVL56:
 348              	.LVL57:
 349              	.LVL58:
 350 0028 F8BD     		pop	{r3, r4, r5, r6, r7, pc}
 351              		.cfi_endproc
 352              	.LFE4:
 353              		.size	capsense_DpProcessCsxSensorRawCountsExt, .-capsense_DpProcessCsxSensorRawCountsExt
 354 002a C046     		.section	.text.capsense_DpProcessCsdWidgetRawCounts,"ax",%progbits
 355              		.align	2
 356              		.global	capsense_DpProcessCsdWidgetRawCounts
 357              		.code	16
 358              		.thumb_func
 359              		.type	capsense_DpProcessCsdWidgetRawCounts, %function
 360              	capsense_DpProcessCsdWidgetRawCounts:
 361              	.LFB6:
1017:Generated_Source\PSoC4/capsense_Processing.c ****     uint32  result = CYRET_SUCCESS;
 362              		.loc 1 1017 0
 363              		.cfi_startproc
 364              		@ args = 0, pretend = 0, frame = 8
 365              		@ frame_needed = 0, uses_anonymous_args = 0
 366              	.LVL59:
 367 0000 F0B5     		push	{r4, r5, r6, r7, lr}
 368              		.cfi_def_cfa_offset 20
 369              		.cfi_offset 4, -20
 370              		.cfi_offset 5, -16
 371              		.cfi_offset 6, -12
 372              		.cfi_offset 7, -8
ARM GAS  C:\Users\ASUS\AppData\Local\Temp\ccuOUgOD.s 			page 33


 373              		.cfi_offset 14, -4
 374 0002 83B0     		sub	sp, sp, #12
 375              		.cfi_def_cfa_offset 32
 376 0004 0700     		movs	r7, r0
 377              	.LVL60:
1047:Generated_Source\PSoC4/capsense_Processing.c ****     ptrRamWdgt = (capsense_RAM_WD_BASE_STRUCT *)ptrFlashWdgt->ptr2WdgtRam;
 378              		.loc 1 1047 0
 379 0006 8468     		ldr	r4, [r0, #8]
 380              	.LVL61:
1048:Generated_Source\PSoC4/capsense_Processing.c ****     widgetType = ptrFlashWdgt->wdgtType;
 381              		.loc 1 1048 0
 382 0008 4568     		ldr	r5, [r0, #4]
 383              	.LVL62:
1049:Generated_Source\PSoC4/capsense_Processing.c **** 
 384              		.loc 1 1049 0
 385 000a 837E     		ldrb	r3, [r0, #26]
 386 000c 0193     		str	r3, [sp, #4]
 387              	.LVL63:
1056:Generated_Source\PSoC4/capsense_Processing.c ****     {
 388              		.loc 1 1056 0
 389 000e 0026     		movs	r6, #0
1018:Generated_Source\PSoC4/capsense_Processing.c **** 
 390              		.loc 1 1018 0
 391 0010 0023     		movs	r3, #0
 392              	.LVL64:
 393 0012 0093     		str	r3, [sp]
1056:Generated_Source\PSoC4/capsense_Processing.c ****     {
 394              		.loc 1 1056 0
 395 0014 0BE0     		b	.L25
 396              	.LVL65:
 397              	.L26:
1096:Generated_Source\PSoC4/capsense_Processing.c ****         #endif /* (capsense_ENABLE == capsense_TST_BSLN_DUPLICATION_EN) */
 398              		.loc 1 1096 0 discriminator 3
 399 0016 019A     		ldr	r2, [sp, #4]
 400 0018 2100     		movs	r1, r4
 401 001a 2800     		movs	r0, r5
 402 001c FFF7FEFF 		bl	capsense_FtUpdateBaseline
 403              	.LVL66:
 404 0020 0090     		str	r0, [sp]
 405              	.LVL67:
1099:Generated_Source\PSoC4/capsense_Processing.c **** 
 406              		.loc 1 1099 0 discriminator 3
 407 0022 2100     		movs	r1, r4
 408 0024 2800     		movs	r0, r5
 409              	.LVL68:
 410 0026 FFF7FEFF 		bl	capsense_DpUpdateDifferences
 411              	.LVL69:
1102:Generated_Source\PSoC4/capsense_Processing.c **** 
 412              		.loc 1 1102 0 discriminator 3
 413 002a 0A34     		adds	r4, r4, #10
 414              	.LVL70:
1056:Generated_Source\PSoC4/capsense_Processing.c ****     {
 415              		.loc 1 1056 0 discriminator 3
 416 002c 0136     		adds	r6, r6, #1
 417              	.LVL71:
 418              	.L25:
1056:Generated_Source\PSoC4/capsense_Processing.c ****     {
ARM GAS  C:\Users\ASUS\AppData\Local\Temp\ccuOUgOD.s 			page 34


 419              		.loc 1 1056 0 is_stmt 0 discriminator 1
 420 002e 3B8B     		ldrh	r3, [r7, #24]
 421 0030 9E42     		cmp	r6, r3
 422 0032 F0D3     		bcc	.L26
1110:Generated_Source\PSoC4/capsense_Processing.c **** 
 423              		.loc 1 1110 0 is_stmt 1
 424 0034 0098     		ldr	r0, [sp]
 425 0036 03B0     		add	sp, sp, #12
 426              	.LVL72:
 427              		@ sp needed
 428              	.LVL73:
 429              	.LVL74:
 430              	.LVL75:
 431              	.LVL76:
 432 0038 F0BD     		pop	{r4, r5, r6, r7, pc}
 433              		.cfi_endproc
 434              	.LFE6:
 435              		.size	capsense_DpProcessCsdWidgetRawCounts, .-capsense_DpProcessCsdWidgetRawCounts
 436 003a C046     		.section	.text.capsense_DpProcessCsdSensorRawCountsExt,"ax",%progbits
 437              		.align	2
 438              		.global	capsense_DpProcessCsdSensorRawCountsExt
 439              		.code	16
 440              		.thumb_func
 441              		.type	capsense_DpProcessCsdSensorRawCountsExt, %function
 442              	capsense_DpProcessCsdSensorRawCountsExt:
 443              	.LFB7:
1151:Generated_Source\PSoC4/capsense_Processing.c ****     uint32 result = CYRET_SUCCESS;
 444              		.loc 1 1151 0
 445              		.cfi_startproc
 446              		@ args = 0, pretend = 0, frame = 0
 447              		@ frame_needed = 0, uses_anonymous_args = 0
 448              	.LVL77:
 449 0000 F8B5     		push	{r3, r4, r5, r6, r7, lr}
 450              		.cfi_def_cfa_offset 24
 451              		.cfi_offset 3, -24
 452              		.cfi_offset 4, -20
 453              		.cfi_offset 5, -16
 454              		.cfi_offset 6, -12
 455              		.cfi_offset 7, -8
 456              		.cfi_offset 14, -4
 457 0002 0E00     		movs	r6, r1
 458 0004 1C00     		movs	r4, r3
 459              	.LVL78:
1166:Generated_Source\PSoC4/capsense_Processing.c ****     ptrRamWdgt = (capsense_RAM_WD_BASE_STRUCT *)ptrFlashWdgt->ptr2WdgtRam;
 460              		.loc 1 1166 0
 461 0006 827E     		ldrb	r2, [r0, #26]
 462              	.LVL79:
1167:Generated_Source\PSoC4/capsense_Processing.c **** 
 463              		.loc 1 1167 0
 464 0008 4768     		ldr	r7, [r0, #4]
 465              	.LVL80:
1207:Generated_Source\PSoC4/capsense_Processing.c ****     {
 466              		.loc 1 1207 0
 467 000a A307     		lsls	r3, r4, #30
 468 000c 04D5     		bpl	.L30
 469              	.LVL81:
1209:Generated_Source\PSoC4/capsense_Processing.c ****     }
ARM GAS  C:\Users\ASUS\AppData\Local\Temp\ccuOUgOD.s 			page 35


 470              		.loc 1 1209 0
 471 000e 3800     		movs	r0, r7
 472              	.LVL82:
 473 0010 FFF7FEFF 		bl	capsense_FtUpdateBaseline
 474              	.LVL83:
 475 0014 0500     		movs	r5, r0
 476              	.LVL84:
 477 0016 00E0     		b	.L28
 478              	.LVL85:
 479              	.L30:
1152:Generated_Source\PSoC4/capsense_Processing.c ****     uint32  widgetType;
 480              		.loc 1 1152 0
 481 0018 0025     		movs	r5, #0
 482              	.LVL86:
 483              	.L28:
1212:Generated_Source\PSoC4/capsense_Processing.c ****     {
 484              		.loc 1 1212 0
 485 001a 6307     		lsls	r3, r4, #29
 486 001c 03D5     		bpl	.L29
1214:Generated_Source\PSoC4/capsense_Processing.c ****     }
 487              		.loc 1 1214 0
 488 001e 3100     		movs	r1, r6
 489 0020 3800     		movs	r0, r7
 490 0022 FFF7FEFF 		bl	capsense_DpUpdateDifferences
 491              	.LVL87:
 492              	.L29:
1217:Generated_Source\PSoC4/capsense_Processing.c **** 
 493              		.loc 1 1217 0
 494 0026 2800     		movs	r0, r5
 495              		@ sp needed
 496              	.LVL88:
 497              	.LVL89:
 498              	.LVL90:
 499              	.LVL91:
 500 0028 F8BD     		pop	{r3, r4, r5, r6, r7, pc}
 501              		.cfi_endproc
 502              	.LFE7:
 503              		.size	capsense_DpProcessCsdSensorRawCountsExt, .-capsense_DpProcessCsdSensorRawCountsExt
 504 002a C046     		.section	.text.capsense_DpProcessButton,"ax",%progbits
 505              		.align	2
 506              		.global	capsense_DpProcessButton
 507              		.code	16
 508              		.thumb_func
 509              		.type	capsense_DpProcessButton, %function
 510              	capsense_DpProcessButton:
 511              	.LFB10:
1422:Generated_Source\PSoC4/capsense_Processing.c **** 
1423:Generated_Source\PSoC4/capsense_Processing.c **** 
1424:Generated_Source\PSoC4/capsense_Processing.c **** #if ((0u != capsense_BUTTON_WIDGET_EN) || (0u != capsense_CSX_MATRIX_WIDGET_EN))
1425:Generated_Source\PSoC4/capsense_Processing.c **** /*******************************************************************************
1426:Generated_Source\PSoC4/capsense_Processing.c **** * Function Name: capsense_DpProcessButton
1427:Generated_Source\PSoC4/capsense_Processing.c **** ****************************************************************************//**
1428:Generated_Source\PSoC4/capsense_Processing.c **** *
1429:Generated_Source\PSoC4/capsense_Processing.c **** * \brief
1430:Generated_Source\PSoC4/capsense_Processing.c **** *   Processes the status of the Button widget.
1431:Generated_Source\PSoC4/capsense_Processing.c **** *
1432:Generated_Source\PSoC4/capsense_Processing.c **** * \details
ARM GAS  C:\Users\ASUS\AppData\Local\Temp\ccuOUgOD.s 			page 36


1433:Generated_Source\PSoC4/capsense_Processing.c **** *   This API processes the status of the CSD/CSX Button widget and
1434:Generated_Source\PSoC4/capsense_Processing.c **** *   CSX Matrix Button widget. It applies the hysteresis and de-bounce algorithm
1435:Generated_Source\PSoC4/capsense_Processing.c **** *   to each sensor difference value. This API is expected to be called
1436:Generated_Source\PSoC4/capsense_Processing.c **** *   after each new widget scan. If it is called multiple times for the same
1437:Generated_Source\PSoC4/capsense_Processing.c **** *   scan data, the de-bounce algorithm will not work properly.
1438:Generated_Source\PSoC4/capsense_Processing.c **** *
1439:Generated_Source\PSoC4/capsense_Processing.c **** *   This API does not update any Data Structure registers
1440:Generated_Source\PSoC4/capsense_Processing.c **** *   except the de-bounce counters.
1441:Generated_Source\PSoC4/capsense_Processing.c **** *
1442:Generated_Source\PSoC4/capsense_Processing.c **** * \param currStatus   The current status of the widget sensors.
1443:Generated_Source\PSoC4/capsense_Processing.c **** * \param ptrFlashWdgt The pointer to the Flash Widget Object.
1444:Generated_Source\PSoC4/capsense_Processing.c **** *
1445:Generated_Source\PSoC4/capsense_Processing.c **** * \return Returns the status of the widget's sensors. Bit #0 - corresponds to Sensor #0.
1446:Generated_Source\PSoC4/capsense_Processing.c **** *
1447:Generated_Source\PSoC4/capsense_Processing.c **** *******************************************************************************/
1448:Generated_Source\PSoC4/capsense_Processing.c **** uint32 capsense_DpProcessButton(uint32 currStatus, capsense_FLASH_WD_STRUCT const *ptrFlashWdgt)
1449:Generated_Source\PSoC4/capsense_Processing.c **** {
 512              		.loc 1 1449 0
 513              		.cfi_startproc
 514              		@ args = 0, pretend = 0, frame = 0
 515              		@ frame_needed = 0, uses_anonymous_args = 0
 516              	.LVL92:
 517 0000 F0B5     		push	{r4, r5, r6, r7, lr}
 518              		.cfi_def_cfa_offset 20
 519              		.cfi_offset 4, -20
 520              		.cfi_offset 5, -16
 521              		.cfi_offset 6, -12
 522              		.cfi_offset 7, -8
 523              		.cfi_offset 14, -4
1450:Generated_Source\PSoC4/capsense_Processing.c ****     uint32 snsCnt;
1451:Generated_Source\PSoC4/capsense_Processing.c ****     uint32 snsMask;
1452:Generated_Source\PSoC4/capsense_Processing.c ****     uint32 newStatus;
1453:Generated_Source\PSoC4/capsense_Processing.c ****     uint32 touchTh;
1454:Generated_Source\PSoC4/capsense_Processing.c ****     capsense_RAM_SNS_STRUCT *ptrSnsTmp;
1455:Generated_Source\PSoC4/capsense_Processing.c ****     capsense_RAM_WD_BASE_STRUCT *ptrRamWdgt;
1456:Generated_Source\PSoC4/capsense_Processing.c ****     uint8 * ptrDebounceCnt;
1457:Generated_Source\PSoC4/capsense_Processing.c **** 
1458:Generated_Source\PSoC4/capsense_Processing.c ****     snsCnt = ptrFlashWdgt->totalNumSns;
 524              		.loc 1 1458 0
 525 0002 0A8B     		ldrh	r2, [r1, #24]
 526              	.LVL93:
1459:Generated_Source\PSoC4/capsense_Processing.c ****     ptrSnsTmp = ptrFlashWdgt->ptr2SnsRam;
 527              		.loc 1 1459 0
 528 0004 8D68     		ldr	r5, [r1, #8]
 529              	.LVL94:
1460:Generated_Source\PSoC4/capsense_Processing.c ****     ptrRamWdgt = (capsense_RAM_WD_BASE_STRUCT *)ptrFlashWdgt->ptr2WdgtRam;
 530              		.loc 1 1460 0
 531 0006 4F68     		ldr	r7, [r1, #4]
 532              	.LVL95:
1461:Generated_Source\PSoC4/capsense_Processing.c ****     ptrDebounceCnt = ptrFlashWdgt->ptr2DebounceArr;
 533              		.loc 1 1461 0
 534 0008 0B69     		ldr	r3, [r1, #16]
 535              	.LVL96:
1462:Generated_Source\PSoC4/capsense_Processing.c **** 
1463:Generated_Source\PSoC4/capsense_Processing.c ****     /* Go through all widget's sensors */
1464:Generated_Source\PSoC4/capsense_Processing.c ****     snsMask = 1Lu;
 536              		.loc 1 1464 0
ARM GAS  C:\Users\ASUS\AppData\Local\Temp\ccuOUgOD.s 			page 37


 537 000a 0121     		movs	r1, #1
 538              	.LVL97:
1465:Generated_Source\PSoC4/capsense_Processing.c ****     for (; snsCnt-- > 0u; )
 539              		.loc 1 1465 0
 540 000c 25E0     		b	.L32
 541              	.LVL98:
 542              	.L40:
1466:Generated_Source\PSoC4/capsense_Processing.c ****     {
1467:Generated_Source\PSoC4/capsense_Processing.c ****         /* Calculate touch threshold taking into account hysteresis
1468:Generated_Source\PSoC4/capsense_Processing.c ****            and current sensor state. */
1469:Generated_Source\PSoC4/capsense_Processing.c ****         touchTh = (0u == (currStatus & snsMask)) ?
 543              		.loc 1 1469 0
 544 000e 0C00     		movs	r4, r1
 545              	.LVL99:
 546 0010 0440     		ands	r4, r0
1470:Generated_Source\PSoC4/capsense_Processing.c ****                   ((uint32)ptrRamWdgt->fingerTh + ptrRamWdgt->hysteresis) :
 547              		.loc 1 1470 0
 548 0012 03D1     		bne	.L33
 549              		.loc 1 1470 0 is_stmt 0 discriminator 1
 550 0014 7E88     		ldrh	r6, [r7, #2]
 551 0016 BA79     		ldrb	r2, [r7, #6]
 552 0018 B218     		adds	r2, r6, r2
 553 001a 02E0     		b	.L34
 554              	.L33:
1471:Generated_Source\PSoC4/capsense_Processing.c ****                   ((uint32)ptrRamWdgt->fingerTh - ptrRamWdgt->hysteresis);
 555              		.loc 1 1471 0 is_stmt 1 discriminator 2
 556 001c 7A88     		ldrh	r2, [r7, #2]
 557 001e BE79     		ldrb	r6, [r7, #6]
1470:Generated_Source\PSoC4/capsense_Processing.c ****                   ((uint32)ptrRamWdgt->fingerTh + ptrRamWdgt->hysteresis) :
 558              		.loc 1 1470 0 discriminator 2
 559 0020 921B     		subs	r2, r2, r6
 560              	.L34:
 561              	.LVL100:
1472:Generated_Source\PSoC4/capsense_Processing.c **** 
1473:Generated_Source\PSoC4/capsense_Processing.c ****         /* Determine new potential sensor state */
1474:Generated_Source\PSoC4/capsense_Processing.c ****         newStatus = (ptrSnsTmp->diff > touchTh) ? snsMask : 0u;
 562              		.loc 1 1474 0
 563 0022 EE88     		ldrh	r6, [r5, #6]
 564 0024 B242     		cmp	r2, r6
 565 0026 01D3     		bcc	.L41
 566 0028 0022     		movs	r2, #0
 567              	.LVL101:
 568 002a 00E0     		b	.L35
 569              	.LVL102:
 570              	.L41:
 571 002c 0A00     		movs	r2, r1
 572              	.LVL103:
 573              	.L35:
1475:Generated_Source\PSoC4/capsense_Processing.c **** 
1476:Generated_Source\PSoC4/capsense_Processing.c ****         /* Sensor state changed ? */
1477:Generated_Source\PSoC4/capsense_Processing.c ****         if (newStatus != (currStatus & snsMask))
 574              		.loc 1 1477 0 discriminator 4
 575 002e A242     		cmp	r2, r4
 576 0030 02D0     		beq	.L36
1478:Generated_Source\PSoC4/capsense_Processing.c ****         {
1479:Generated_Source\PSoC4/capsense_Processing.c ****             /* Decrement de-bounce counter */
1480:Generated_Source\PSoC4/capsense_Processing.c ****             (*ptrDebounceCnt)--;
ARM GAS  C:\Users\ASUS\AppData\Local\Temp\ccuOUgOD.s 			page 38


 577              		.loc 1 1480 0
 578 0032 1E78     		ldrb	r6, [r3]
 579 0034 013E     		subs	r6, r6, #1
 580 0036 1E70     		strb	r6, [r3]
 581              	.L36:
1481:Generated_Source\PSoC4/capsense_Processing.c ****         }
1482:Generated_Source\PSoC4/capsense_Processing.c **** 
1483:Generated_Source\PSoC4/capsense_Processing.c ****         /*
1484:Generated_Source\PSoC4/capsense_Processing.c ****         *  This piece of code has two objectives:
1485:Generated_Source\PSoC4/capsense_Processing.c ****         *  1. Reset de-bounce counter if the sensor state did not change.
1486:Generated_Source\PSoC4/capsense_Processing.c ****         *     (It is possible that during previous processing cycles sensor
1487:Generated_Source\PSoC4/capsense_Processing.c ****         *     was active and de-bounce counter was decremented.)
1488:Generated_Source\PSoC4/capsense_Processing.c ****         *  2. Set new sensor state after successful de-bounce.
1489:Generated_Source\PSoC4/capsense_Processing.c ****         */
1490:Generated_Source\PSoC4/capsense_Processing.c ****         if ((newStatus == (currStatus & snsMask)) || (0u == (*ptrDebounceCnt)))
 582              		.loc 1 1490 0
 583 0038 A242     		cmp	r2, r4
 584 003a 02D0     		beq	.L37
 585              		.loc 1 1490 0 is_stmt 0 discriminator 1
 586 003c 1C78     		ldrb	r4, [r3]
 587 003e 002C     		cmp	r4, #0
 588 0040 07D1     		bne	.L38
 589              	.L37:
1491:Generated_Source\PSoC4/capsense_Processing.c ****         {
1492:Generated_Source\PSoC4/capsense_Processing.c ****             /* Set new sensor status */
1493:Generated_Source\PSoC4/capsense_Processing.c ****             currStatus &= ~snsMask;
 590              		.loc 1 1493 0 is_stmt 1
 591 0042 8843     		bics	r0, r1
 592              	.LVL104:
1494:Generated_Source\PSoC4/capsense_Processing.c ****             currStatus |= newStatus;
 593              		.loc 1 1494 0
 594 0044 1043     		orrs	r0, r2
 595              	.LVL105:
1495:Generated_Source\PSoC4/capsense_Processing.c **** 
1496:Generated_Source\PSoC4/capsense_Processing.c ****             /* Reset de-bounce counter */
1497:Generated_Source\PSoC4/capsense_Processing.c ****             #if (0u != capsense_OFF_DEBOUNCE_EN)
1498:Generated_Source\PSoC4/capsense_Processing.c ****                 *ptrDebounceCnt = (0Lu == newStatus) ? ptrRamWdgt->onDebounce : ptrRamWdgt->offDebo
1499:Generated_Source\PSoC4/capsense_Processing.c ****             #else
1500:Generated_Source\PSoC4/capsense_Processing.c ****                 *ptrDebounceCnt = (0Lu == newStatus) ? ptrRamWdgt->onDebounce : DEFAULT_OFF_DEBOUNC
 596              		.loc 1 1500 0
 597 0046 002A     		cmp	r2, #0
 598 0048 01D1     		bne	.L42
 599              		.loc 1 1500 0 is_stmt 0 discriminator 1
 600 004a FA79     		ldrb	r2, [r7, #7]
 601              	.LVL106:
 602 004c 00E0     		b	.L39
 603              	.LVL107:
 604              	.L42:
 605              		.loc 1 1500 0
 606 004e 0122     		movs	r2, #1
 607              	.LVL108:
 608              	.L39:
 609              		.loc 1 1500 0 discriminator 4
 610 0050 1A70     		strb	r2, [r3]
 611              	.L38:
1501:Generated_Source\PSoC4/capsense_Processing.c ****             #endif /* #if (0u != capsense_OFF_DEBOUNCE_EN) */
1502:Generated_Source\PSoC4/capsense_Processing.c ****         }
ARM GAS  C:\Users\ASUS\AppData\Local\Temp\ccuOUgOD.s 			page 39


1503:Generated_Source\PSoC4/capsense_Processing.c **** 
1504:Generated_Source\PSoC4/capsense_Processing.c ****         /* Move mask to the next sensor */
1505:Generated_Source\PSoC4/capsense_Processing.c ****         snsMask <<= 1u;
 612              		.loc 1 1505 0 is_stmt 1
 613 0052 4900     		lsls	r1, r1, #1
 614              	.LVL109:
1506:Generated_Source\PSoC4/capsense_Processing.c **** 
1507:Generated_Source\PSoC4/capsense_Processing.c ****         ptrSnsTmp++;
 615              		.loc 1 1507 0
 616 0054 0A35     		adds	r5, r5, #10
 617              	.LVL110:
1508:Generated_Source\PSoC4/capsense_Processing.c ****         ptrDebounceCnt++;
 618              		.loc 1 1508 0
 619 0056 0133     		adds	r3, r3, #1
 620              	.LVL111:
1465:Generated_Source\PSoC4/capsense_Processing.c ****     {
 621              		.loc 1 1465 0
 622 0058 6246     		mov	r2, ip
 623              	.LVL112:
 624              	.L32:
 625 005a 541E     		subs	r4, r2, #1
 626 005c A446     		mov	ip, r4
 627              	.LVL113:
 628 005e 002A     		cmp	r2, #0
 629 0060 D5D1     		bne	.L40
1509:Generated_Source\PSoC4/capsense_Processing.c ****     }
1510:Generated_Source\PSoC4/capsense_Processing.c **** 
1511:Generated_Source\PSoC4/capsense_Processing.c ****     return currStatus;
1512:Generated_Source\PSoC4/capsense_Processing.c **** }
 630              		.loc 1 1512 0
 631              		@ sp needed
 632              	.LVL114:
 633              	.LVL115:
 634              	.LVL116:
 635 0062 F0BD     		pop	{r4, r5, r6, r7, pc}
 636              		.cfi_endproc
 637              	.LFE10:
 638              		.size	capsense_DpProcessButton, .-capsense_DpProcessButton
 639              		.section	.text.capsense_DpProcessCsxWidgetStatus,"ax",%progbits
 640              		.align	2
 641              		.global	capsense_DpProcessCsxWidgetStatus
 642              		.code	16
 643              		.thumb_func
 644              		.type	capsense_DpProcessCsxWidgetStatus, %function
 645              	capsense_DpProcessCsxWidgetStatus:
 646              	.LFB5:
 718:Generated_Source\PSoC4/capsense_Processing.c ****     uint32 sensorStatus;
 647              		.loc 1 718 0
 648              		.cfi_startproc
 649              		@ args = 0, pretend = 0, frame = 0
 650              		@ frame_needed = 0, uses_anonymous_args = 0
 651              	.LVL117:
 652 0000 70B5     		push	{r4, r5, r6, lr}
 653              		.cfi_def_cfa_offset 16
 654              		.cfi_offset 4, -16
 655              		.cfi_offset 5, -12
 656              		.cfi_offset 6, -8
ARM GAS  C:\Users\ASUS\AppData\Local\Temp\ccuOUgOD.s 			page 40


 657              		.cfi_offset 14, -4
 658 0002 0400     		movs	r4, r0
 724:Generated_Source\PSoC4/capsense_Processing.c ****     sensorStatus = capsense_dsRam.snsStatus[widgetId];
 659              		.loc 1 724 0
 660 0004 8A7E     		ldrb	r2, [r1, #26]
 661              	.LVL118:
 725:Generated_Source\PSoC4/capsense_Processing.c **** 
 662              		.loc 1 725 0
 663 0006 134B     		ldr	r3, .L50
 664 0008 1B18     		adds	r3, r3, r0
 665 000a 1D7E     		ldrb	r5, [r3, #24]
 666              	.LVL119:
 727:Generated_Source\PSoC4/capsense_Processing.c ****     {
 667              		.loc 1 727 0
 668 000c 012A     		cmp	r2, #1
 669 000e 04D1     		bne	.L49
 731:Generated_Source\PSoC4/capsense_Processing.c ****             break;
 670              		.loc 1 731 0
 671 0010 2800     		movs	r0, r5
 672              	.LVL120:
 673 0012 FFF7FEFF 		bl	capsense_DpProcessButton
 674              	.LVL121:
 675 0016 0500     		movs	r5, r0
 676              	.LVL122:
 732:Generated_Source\PSoC4/capsense_Processing.c ****     #endif /* #if (0u != capsense_BUTTON_WIDGET_EN) */
 677              		.loc 1 732 0
 678 0018 02E0     		b	.L46
 679              	.LVL123:
 680              	.L49:
 748:Generated_Source\PSoC4/capsense_Processing.c ****         break;
 681              		.loc 1 748 0 discriminator 1
 682 001a 0020     		movs	r0, #0
 683              	.LVL124:
 684 001c FFF7FEFF 		bl	CyHalt
 685              	.LVL125:
 686              	.L46:
 753:Generated_Source\PSoC4/capsense_Processing.c **** 
 687              		.loc 1 753 0
 688 0020 0C4B     		ldr	r3, .L50
 689 0022 1B19     		adds	r3, r3, r4
 690 0024 1D76     		strb	r5, [r3, #24]
 756:Generated_Source\PSoC4/capsense_Processing.c ****     wdStatusMask = capsense_GET_WDGT_STATUS_MASK(widgetId);
 691              		.loc 1 756 0
 692 0026 6309     		lsrs	r3, r4, #5
 693              	.LVL126:
 757:Generated_Source\PSoC4/capsense_Processing.c **** 
 694              		.loc 1 757 0
 695 0028 1F22     		movs	r2, #31
 696 002a 1440     		ands	r4, r2
 697              	.LVL127:
 698 002c 1E3A     		subs	r2, r2, #30
 699 002e A240     		lsls	r2, r2, r4
 700              	.LVL128:
 760:Generated_Source\PSoC4/capsense_Processing.c ****     {
 701              		.loc 1 760 0
 702 0030 002D     		cmp	r5, #0
 703 0032 07D1     		bne	.L47
ARM GAS  C:\Users\ASUS\AppData\Local\Temp\ccuOUgOD.s 			page 41


 762:Generated_Source\PSoC4/capsense_Processing.c ****     }
 704              		.loc 1 762 0
 705 0034 0433     		adds	r3, r3, #4
 706              	.LVL129:
 707 0036 9B00     		lsls	r3, r3, #2
 708              	.LVL130:
 709 0038 0649     		ldr	r1, .L50
 710 003a CB18     		adds	r3, r1, r3
 711 003c 5968     		ldr	r1, [r3, #4]
 712 003e 9143     		bics	r1, r2
 713 0040 5960     		str	r1, [r3, #4]
 714 0042 06E0     		b	.L43
 715              	.LVL131:
 716              	.L47:
 766:Generated_Source\PSoC4/capsense_Processing.c ****     }
 717              		.loc 1 766 0
 718 0044 0433     		adds	r3, r3, #4
 719              	.LVL132:
 720 0046 9B00     		lsls	r3, r3, #2
 721              	.LVL133:
 722 0048 0249     		ldr	r1, .L50
 723 004a CB18     		adds	r3, r1, r3
 724 004c 5968     		ldr	r1, [r3, #4]
 725 004e 0A43     		orrs	r2, r1
 726              	.LVL134:
 727 0050 5A60     		str	r2, [r3, #4]
 728              	.L43:
 768:Generated_Source\PSoC4/capsense_Processing.c **** #endif /* #if capsense_TOTAL_CSX_WIDGETS */
 729              		.loc 1 768 0
 730              		@ sp needed
 731              	.LVL135:
 732              	.LVL136:
 733 0052 70BD     		pop	{r4, r5, r6, pc}
 734              	.L51:
 735              		.align	2
 736              	.L50:
 737 0054 00000000 		.word	capsense_dsRam
 738              		.cfi_endproc
 739              	.LFE5:
 740              		.size	capsense_DpProcessCsxWidgetStatus, .-capsense_DpProcessCsxWidgetStatus
 741              		.section	.text.capsense_DpProcessSlider,"ax",%progbits
 742              		.align	2
 743              		.global	capsense_DpProcessSlider
 744              		.code	16
 745              		.thumb_func
 746              		.type	capsense_DpProcessSlider, %function
 747              	capsense_DpProcessSlider:
 748              	.LFB11:
1513:Generated_Source\PSoC4/capsense_Processing.c **** #endif /* #if ((0u != capsense_BUTTON_WIDGET_EN) || (0u != capsense_CSX_MATRIX_WIDGET_EN)) */
1514:Generated_Source\PSoC4/capsense_Processing.c **** 
1515:Generated_Source\PSoC4/capsense_Processing.c **** 
1516:Generated_Source\PSoC4/capsense_Processing.c **** #if (0u != capsense_PROXIMITY_WIDGET_EN)
1517:Generated_Source\PSoC4/capsense_Processing.c **** /*******************************************************************************
1518:Generated_Source\PSoC4/capsense_Processing.c **** * Function Name: capsense_DpProcessProximity
1519:Generated_Source\PSoC4/capsense_Processing.c **** ****************************************************************************//**
1520:Generated_Source\PSoC4/capsense_Processing.c **** *
1521:Generated_Source\PSoC4/capsense_Processing.c **** * \brief
ARM GAS  C:\Users\ASUS\AppData\Local\Temp\ccuOUgOD.s 			page 42


1522:Generated_Source\PSoC4/capsense_Processing.c **** *   Processes the status of the Proximity widget.
1523:Generated_Source\PSoC4/capsense_Processing.c **** *
1524:Generated_Source\PSoC4/capsense_Processing.c **** * \details
1525:Generated_Source\PSoC4/capsense_Processing.c **** *   This API processes the status of the CSD Proximity widget. It applies the
1526:Generated_Source\PSoC4/capsense_Processing.c **** *   hysteresis and debounce algorithm to each sensor difference value.
1527:Generated_Source\PSoC4/capsense_Processing.c **** *   The proximity and touch events are considered independently so debounce and
1528:Generated_Source\PSoC4/capsense_Processing.c **** *   hysteresis are also applied independently.
1529:Generated_Source\PSoC4/capsense_Processing.c **** *
1530:Generated_Source\PSoC4/capsense_Processing.c **** *   This API is expected to be called after each new widget scan. If it is
1531:Generated_Source\PSoC4/capsense_Processing.c **** *   called multiple times for the same scan data the debounce algorithm
1532:Generated_Source\PSoC4/capsense_Processing.c **** *   will not work properly.
1533:Generated_Source\PSoC4/capsense_Processing.c **** *
1534:Generated_Source\PSoC4/capsense_Processing.c **** *   This API does not update any Data Structure registers
1535:Generated_Source\PSoC4/capsense_Processing.c **** *   except the debounce counters.
1536:Generated_Source\PSoC4/capsense_Processing.c **** *
1537:Generated_Source\PSoC4/capsense_Processing.c **** * \param currStatus   The value with the current widget status.
1538:Generated_Source\PSoC4/capsense_Processing.c **** * \param ptrFlashWdgt The pointer to the Flash Widget Object.
1539:Generated_Source\PSoC4/capsense_Processing.c **** *
1540:Generated_Source\PSoC4/capsense_Processing.c **** * \return
1541:Generated_Source\PSoC4/capsense_Processing.c **** *  Returns the status of the proximity sensors. Each sensor is represented by two bits
1542:Generated_Source\PSoC4/capsense_Processing.c **** *  that can take the following values:
1543:Generated_Source\PSoC4/capsense_Processing.c **** *   - 00b not active
1544:Generated_Source\PSoC4/capsense_Processing.c **** *   - 01b proximity is detected (signal is above finger threshold)
1545:Generated_Source\PSoC4/capsense_Processing.c **** *   - 11b finger touch is detected (signal is above the touch threshold)
1546:Generated_Source\PSoC4/capsense_Processing.c **** *
1547:Generated_Source\PSoC4/capsense_Processing.c **** *******************************************************************************/
1548:Generated_Source\PSoC4/capsense_Processing.c **** uint32 capsense_DpProcessProximity(uint32 currStatus, capsense_FLASH_WD_STRUCT const *ptrFlashWdgt)
1549:Generated_Source\PSoC4/capsense_Processing.c **** {
1550:Generated_Source\PSoC4/capsense_Processing.c ****     uint32 currTh;
1551:Generated_Source\PSoC4/capsense_Processing.c ****     uint32 snsCnt;
1552:Generated_Source\PSoC4/capsense_Processing.c ****     uint32 snsMask;
1553:Generated_Source\PSoC4/capsense_Processing.c ****     uint32 newStatus;
1554:Generated_Source\PSoC4/capsense_Processing.c ****     uint32 difference;
1555:Generated_Source\PSoC4/capsense_Processing.c **** 
1556:Generated_Source\PSoC4/capsense_Processing.c ****     uint8 *ptrDebounceCnt;
1557:Generated_Source\PSoC4/capsense_Processing.c ****     capsense_RAM_SNS_STRUCT *ptrSnsTmp;
1558:Generated_Source\PSoC4/capsense_Processing.c ****     capsense_RAM_WD_PROXIMITY_STRUCT *ptrRamWdgt;
1559:Generated_Source\PSoC4/capsense_Processing.c **** 
1560:Generated_Source\PSoC4/capsense_Processing.c ****     /* Mask for proximity status bits. (All odd bits.) */
1561:Generated_Source\PSoC4/capsense_Processing.c ****     const uint32 proxMask = UINT32_ODD_BITS_CONST;
1562:Generated_Source\PSoC4/capsense_Processing.c **** 
1563:Generated_Source\PSoC4/capsense_Processing.c ****     ptrSnsTmp = ptrFlashWdgt->ptr2SnsRam;
1564:Generated_Source\PSoC4/capsense_Processing.c ****     ptrRamWdgt = (capsense_RAM_WD_PROXIMITY_STRUCT *)ptrFlashWdgt->ptr2WdgtRam;
1565:Generated_Source\PSoC4/capsense_Processing.c ****     ptrDebounceCnt = ptrFlashWdgt->ptr2DebounceArr;
1566:Generated_Source\PSoC4/capsense_Processing.c **** 
1567:Generated_Source\PSoC4/capsense_Processing.c ****     /* Get number of sensors and multiply it by 2 - proximity and touch statuses per sensor. */
1568:Generated_Source\PSoC4/capsense_Processing.c ****     snsCnt = (uint32)ptrFlashWdgt->totalNumSns << 1u;
1569:Generated_Source\PSoC4/capsense_Processing.c **** 
1570:Generated_Source\PSoC4/capsense_Processing.c ****     /* Go through all sensor's status bits */
1571:Generated_Source\PSoC4/capsense_Processing.c ****     snsMask = 1Lu;
1572:Generated_Source\PSoC4/capsense_Processing.c ****     for (; snsCnt-- > 0u;)
1573:Generated_Source\PSoC4/capsense_Processing.c ****     {
1574:Generated_Source\PSoC4/capsense_Processing.c ****         difference = ptrSnsTmp->diff;
1575:Generated_Source\PSoC4/capsense_Processing.c **** 
1576:Generated_Source\PSoC4/capsense_Processing.c ****         /* Determine current event (proximity - odd; touch - even) and get appropriate threshold. *
1577:Generated_Source\PSoC4/capsense_Processing.c ****         currTh = ptrRamWdgt->fingerTh;
1578:Generated_Source\PSoC4/capsense_Processing.c **** 
ARM GAS  C:\Users\ASUS\AppData\Local\Temp\ccuOUgOD.s 			page 43


1579:Generated_Source\PSoC4/capsense_Processing.c ****         if (0u == (snsMask & proxMask))
1580:Generated_Source\PSoC4/capsense_Processing.c ****         {
1581:Generated_Source\PSoC4/capsense_Processing.c ****             currTh = ptrRamWdgt->proxTouchTh;
1582:Generated_Source\PSoC4/capsense_Processing.c ****             ptrSnsTmp++;
1583:Generated_Source\PSoC4/capsense_Processing.c ****         }
1584:Generated_Source\PSoC4/capsense_Processing.c **** 
1585:Generated_Source\PSoC4/capsense_Processing.c ****         /* Calculate finger threshold applying hysteresis based on current sensor state. */
1586:Generated_Source\PSoC4/capsense_Processing.c ****         currTh = (0u == (currStatus & snsMask)) ? (currTh + ptrRamWdgt->hysteresis) : (currTh - ptr
1587:Generated_Source\PSoC4/capsense_Processing.c **** 
1588:Generated_Source\PSoC4/capsense_Processing.c ****         /* Determine new potential sensor state before de-bounce */
1589:Generated_Source\PSoC4/capsense_Processing.c ****         newStatus = (difference > currTh) ? snsMask : 0Lu;
1590:Generated_Source\PSoC4/capsense_Processing.c **** 
1591:Generated_Source\PSoC4/capsense_Processing.c ****         /* Sensor state changed ? */
1592:Generated_Source\PSoC4/capsense_Processing.c ****         if (newStatus != (currStatus & snsMask))
1593:Generated_Source\PSoC4/capsense_Processing.c ****         {
1594:Generated_Source\PSoC4/capsense_Processing.c ****             /* Decrement de-bounce counter */
1595:Generated_Source\PSoC4/capsense_Processing.c ****             (*ptrDebounceCnt)--;
1596:Generated_Source\PSoC4/capsense_Processing.c ****         }
1597:Generated_Source\PSoC4/capsense_Processing.c **** 
1598:Generated_Source\PSoC4/capsense_Processing.c ****         /*
1599:Generated_Source\PSoC4/capsense_Processing.c ****         *  This piece of code has two objectives:
1600:Generated_Source\PSoC4/capsense_Processing.c ****         *  1. Reset de-bounce counter if new sensor state has not changed.
1601:Generated_Source\PSoC4/capsense_Processing.c ****         *     (It is possible that during previous processing cycles the sensor
1602:Generated_Source\PSoC4/capsense_Processing.c ****         *     state was different which caused de-bounce counter change.)
1603:Generated_Source\PSoC4/capsense_Processing.c ****         *  2. Set new sensor state after successful de-bounce.
1604:Generated_Source\PSoC4/capsense_Processing.c ****         */
1605:Generated_Source\PSoC4/capsense_Processing.c ****         if ((newStatus == (currStatus & snsMask)) || (0u == (*ptrDebounceCnt)))
1606:Generated_Source\PSoC4/capsense_Processing.c ****         {
1607:Generated_Source\PSoC4/capsense_Processing.c ****             /* Set new sensor status */
1608:Generated_Source\PSoC4/capsense_Processing.c ****             currStatus &= ~snsMask;
1609:Generated_Source\PSoC4/capsense_Processing.c ****             currStatus |= newStatus;
1610:Generated_Source\PSoC4/capsense_Processing.c **** 
1611:Generated_Source\PSoC4/capsense_Processing.c ****             /* Reset de-bounce counter */
1612:Generated_Source\PSoC4/capsense_Processing.c ****             #if (0u != capsense_OFF_DEBOUNCE_EN)
1613:Generated_Source\PSoC4/capsense_Processing.c ****                 *ptrDebounceCnt = (0Lu == newStatus) ? ptrRamWdgt->onDebounce : ptrRamWdgt->offDebo
1614:Generated_Source\PSoC4/capsense_Processing.c ****             #else
1615:Generated_Source\PSoC4/capsense_Processing.c ****                 *ptrDebounceCnt = (0Lu == newStatus) ? ptrRamWdgt->onDebounce : DEFAULT_OFF_DEBOUNC
1616:Generated_Source\PSoC4/capsense_Processing.c ****             #endif /* #if (0u != capsense_OFF_DEBOUNCE_EN) */
1617:Generated_Source\PSoC4/capsense_Processing.c ****         }
1618:Generated_Source\PSoC4/capsense_Processing.c **** 
1619:Generated_Source\PSoC4/capsense_Processing.c ****         ptrDebounceCnt++;
1620:Generated_Source\PSoC4/capsense_Processing.c **** 
1621:Generated_Source\PSoC4/capsense_Processing.c ****         /* Move sensor mask to the next sensor */
1622:Generated_Source\PSoC4/capsense_Processing.c ****         snsMask <<= 1u;
1623:Generated_Source\PSoC4/capsense_Processing.c ****     }
1624:Generated_Source\PSoC4/capsense_Processing.c **** 
1625:Generated_Source\PSoC4/capsense_Processing.c ****     return currStatus;
1626:Generated_Source\PSoC4/capsense_Processing.c **** }
1627:Generated_Source\PSoC4/capsense_Processing.c **** #endif /* (0u != capsense_PROXIMITY_WIDGET_EN) */
1628:Generated_Source\PSoC4/capsense_Processing.c **** 
1629:Generated_Source\PSoC4/capsense_Processing.c **** 
1630:Generated_Source\PSoC4/capsense_Processing.c **** #if (0u != capsense_ENCODERDIAL_WIDGET_EN)
1631:Generated_Source\PSoC4/capsense_Processing.c **** /*******************************************************************************
1632:Generated_Source\PSoC4/capsense_Processing.c **** * Function Name: capsense_DpProcessEncoderDial
1633:Generated_Source\PSoC4/capsense_Processing.c **** ****************************************************************************//**
1634:Generated_Source\PSoC4/capsense_Processing.c **** *
1635:Generated_Source\PSoC4/capsense_Processing.c **** * \brief
ARM GAS  C:\Users\ASUS\AppData\Local\Temp\ccuOUgOD.s 			page 44


1636:Generated_Source\PSoC4/capsense_Processing.c **** *   Processes the status of the Encoder Dial widget.
1637:Generated_Source\PSoC4/capsense_Processing.c **** *
1638:Generated_Source\PSoC4/capsense_Processing.c **** * \details
1639:Generated_Source\PSoC4/capsense_Processing.c **** *   This API processes the status of the Encoder Dial Widget. It applies the
1640:Generated_Source\PSoC4/capsense_Processing.c **** *   hysteresis and debounce algorithm to each sensor difference value.
1641:Generated_Source\PSoC4/capsense_Processing.c **** *
1642:Generated_Source\PSoC4/capsense_Processing.c **** *   This API is expected to be called after each new widget scan. If it is
1643:Generated_Source\PSoC4/capsense_Processing.c **** *   called multiple times for the same scan data the debounce algorithm
1644:Generated_Source\PSoC4/capsense_Processing.c **** *   will not work properly.
1645:Generated_Source\PSoC4/capsense_Processing.c **** *
1646:Generated_Source\PSoC4/capsense_Processing.c **** *   This function updates the position and numTurns data structure members.
1647:Generated_Source\PSoC4/capsense_Processing.c **** *
1648:Generated_Source\PSoC4/capsense_Processing.c **** * \param currStatus   The value with the current widget status.
1649:Generated_Source\PSoC4/capsense_Processing.c **** * \param ptrFlashWdgt The pointer to the Flash Widget Object.
1650:Generated_Source\PSoC4/capsense_Processing.c **** *
1651:Generated_Source\PSoC4/capsense_Processing.c **** * \return Returns the 4-bit status of the widget.
1652:Generated_Source\PSoC4/capsense_Processing.c **** *
1653:Generated_Source\PSoC4/capsense_Processing.c **** *******************************************************************************/
1654:Generated_Source\PSoC4/capsense_Processing.c **** uint32 capsense_DpProcessEncoderDial(uint32 currStatus, capsense_FLASH_WD_STRUCT const *ptrFlashWdg
1655:Generated_Source\PSoC4/capsense_Processing.c **** {
1656:Generated_Source\PSoC4/capsense_Processing.c ****     uint32 currTh;
1657:Generated_Source\PSoC4/capsense_Processing.c ****     uint32 snsCnt;
1658:Generated_Source\PSoC4/capsense_Processing.c ****     uint32 snsMask;
1659:Generated_Source\PSoC4/capsense_Processing.c ****     uint32 newStatus;
1660:Generated_Source\PSoC4/capsense_Processing.c ****     uint32 difference;
1661:Generated_Source\PSoC4/capsense_Processing.c ****     uint32 historicStatus;
1662:Generated_Source\PSoC4/capsense_Processing.c **** 
1663:Generated_Source\PSoC4/capsense_Processing.c ****     uint8 *ptrDebounceCnt;
1664:Generated_Source\PSoC4/capsense_Processing.c ****     capsense_RAM_SNS_STRUCT *ptrSnsTmp;
1665:Generated_Source\PSoC4/capsense_Processing.c ****     capsense_RAM_WD_ENCODERDIAL_STRUCT *ptrRamWdgt;
1666:Generated_Source\PSoC4/capsense_Processing.c **** 
1667:Generated_Source\PSoC4/capsense_Processing.c ****     ptrSnsTmp = ptrFlashWdgt->ptr2SnsRam;
1668:Generated_Source\PSoC4/capsense_Processing.c ****     ptrRamWdgt = (capsense_RAM_WD_ENCODERDIAL_STRUCT *)ptrFlashWdgt->ptr2WdgtRam;
1669:Generated_Source\PSoC4/capsense_Processing.c ****     ptrDebounceCnt = ptrFlashWdgt->ptr2DebounceArr;
1670:Generated_Source\PSoC4/capsense_Processing.c **** 
1671:Generated_Source\PSoC4/capsense_Processing.c ****     /* Get number of sensors. */
1672:Generated_Source\PSoC4/capsense_Processing.c ****     snsCnt = (uint32)ptrFlashWdgt->totalNumSns;
1673:Generated_Source\PSoC4/capsense_Processing.c **** 
1674:Generated_Source\PSoC4/capsense_Processing.c ****     /* Put current status in encoder history position */
1675:Generated_Source\PSoC4/capsense_Processing.c ****     currStatus = currStatus & 0x3u;
1676:Generated_Source\PSoC4/capsense_Processing.c ****     historicStatus = currStatus << 2u;
1677:Generated_Source\PSoC4/capsense_Processing.c ****     /* Go through all sensors' status bits */
1678:Generated_Source\PSoC4/capsense_Processing.c ****     snsMask = 1Lu;
1679:Generated_Source\PSoC4/capsense_Processing.c ****     for (; snsCnt-- > 0u;)
1680:Generated_Source\PSoC4/capsense_Processing.c ****     {
1681:Generated_Source\PSoC4/capsense_Processing.c ****         difference = ptrSnsTmp->diff;
1682:Generated_Source\PSoC4/capsense_Processing.c **** 
1683:Generated_Source\PSoC4/capsense_Processing.c ****         /* Determine current threshold. */
1684:Generated_Source\PSoC4/capsense_Processing.c ****         currTh = ptrRamWdgt->fingerTh;
1685:Generated_Source\PSoC4/capsense_Processing.c **** 
1686:Generated_Source\PSoC4/capsense_Processing.c ****         /* Calculate finger threshold applying hysteresis based on current sensor state. */
1687:Generated_Source\PSoC4/capsense_Processing.c ****         currTh = (0u == (currStatus & snsMask)) ? (currTh + ptrRamWdgt->hysteresis) : (currTh - ptr
1688:Generated_Source\PSoC4/capsense_Processing.c **** 
1689:Generated_Source\PSoC4/capsense_Processing.c ****         /* Determine new potential sensor state before de-bounce */
1690:Generated_Source\PSoC4/capsense_Processing.c ****         newStatus = (difference > currTh) ? snsMask : 0Lu;
1691:Generated_Source\PSoC4/capsense_Processing.c **** 
1692:Generated_Source\PSoC4/capsense_Processing.c ****         /* Sensor state changed ? */
ARM GAS  C:\Users\ASUS\AppData\Local\Temp\ccuOUgOD.s 			page 45


1693:Generated_Source\PSoC4/capsense_Processing.c ****         if (newStatus != (currStatus & snsMask))
1694:Generated_Source\PSoC4/capsense_Processing.c ****         {
1695:Generated_Source\PSoC4/capsense_Processing.c ****             /* Decrement de-bounce counter */
1696:Generated_Source\PSoC4/capsense_Processing.c ****             (*ptrDebounceCnt)--;
1697:Generated_Source\PSoC4/capsense_Processing.c ****         }
1698:Generated_Source\PSoC4/capsense_Processing.c **** 
1699:Generated_Source\PSoC4/capsense_Processing.c ****         /*
1700:Generated_Source\PSoC4/capsense_Processing.c ****         *  This piece of code has two objectives:
1701:Generated_Source\PSoC4/capsense_Processing.c ****         *  1. Reset de-bounce counter if new sensor state has not changed.
1702:Generated_Source\PSoC4/capsense_Processing.c ****         *     (It is possible that during previous processing cycles the sensor
1703:Generated_Source\PSoC4/capsense_Processing.c ****         *     state was different which caused de-bounce counter change.)
1704:Generated_Source\PSoC4/capsense_Processing.c ****         *  2. Set new sensor state after successful de-bounce.
1705:Generated_Source\PSoC4/capsense_Processing.c ****         */
1706:Generated_Source\PSoC4/capsense_Processing.c ****         if ((newStatus == (currStatus & snsMask)) || (0u == (*ptrDebounceCnt)))
1707:Generated_Source\PSoC4/capsense_Processing.c ****         {
1708:Generated_Source\PSoC4/capsense_Processing.c ****             /* Set new sensor status */
1709:Generated_Source\PSoC4/capsense_Processing.c ****             currStatus &= ~snsMask;
1710:Generated_Source\PSoC4/capsense_Processing.c ****             currStatus |= newStatus;
1711:Generated_Source\PSoC4/capsense_Processing.c **** 
1712:Generated_Source\PSoC4/capsense_Processing.c ****             /* Reset de-bounce counter */
1713:Generated_Source\PSoC4/capsense_Processing.c ****             #if (0u != capsense_OFF_DEBOUNCE_EN)
1714:Generated_Source\PSoC4/capsense_Processing.c ****                 *ptrDebounceCnt = (0Lu == newStatus) ? ptrRamWdgt->onDebounce : ptrRamWdgt->offDebo
1715:Generated_Source\PSoC4/capsense_Processing.c ****             #else
1716:Generated_Source\PSoC4/capsense_Processing.c ****                 *ptrDebounceCnt = ptrRamWdgt->onDebounce;
1717:Generated_Source\PSoC4/capsense_Processing.c ****             #endif /* #if (0u != capsense_OFF_DEBOUNCE_EN) */
1718:Generated_Source\PSoC4/capsense_Processing.c ****         }
1719:Generated_Source\PSoC4/capsense_Processing.c **** 
1720:Generated_Source\PSoC4/capsense_Processing.c ****         ptrDebounceCnt++;
1721:Generated_Source\PSoC4/capsense_Processing.c **** 
1722:Generated_Source\PSoC4/capsense_Processing.c ****         /* Move sensor mask to the next sensor */
1723:Generated_Source\PSoC4/capsense_Processing.c ****         snsMask <<= 1u;
1724:Generated_Source\PSoC4/capsense_Processing.c ****         ptrSnsTmp++;
1725:Generated_Source\PSoC4/capsense_Processing.c ****     }
1726:Generated_Source\PSoC4/capsense_Processing.c **** 
1727:Generated_Source\PSoC4/capsense_Processing.c ****     currStatus |= historicStatus;
1728:Generated_Source\PSoC4/capsense_Processing.c **** 
1729:Generated_Source\PSoC4/capsense_Processing.c ****     /* Update dial position based on status */
1730:Generated_Source\PSoC4/capsense_Processing.c ****     switch (currStatus)
1731:Generated_Source\PSoC4/capsense_Processing.c ****     {
1732:Generated_Source\PSoC4/capsense_Processing.c ****     /* Clockwise rotations */
1733:Generated_Source\PSoC4/capsense_Processing.c ****     case capsense_DIALTRANSITION_CW0:
1734:Generated_Source\PSoC4/capsense_Processing.c ****     case capsense_DIALTRANSITION_CW1:
1735:Generated_Source\PSoC4/capsense_Processing.c ****     case capsense_DIALTRANSITION_CW2:
1736:Generated_Source\PSoC4/capsense_Processing.c ****     case capsense_DIALTRANSITION_CW3:
1737:Generated_Source\PSoC4/capsense_Processing.c **** 
1738:Generated_Source\PSoC4/capsense_Processing.c ****         /* Decrement angle by 90/numTargs */
1739:Generated_Source\PSoC4/capsense_Processing.c ****         if(ptrRamWdgt->position[0] == 0u)
1740:Generated_Source\PSoC4/capsense_Processing.c ****         {
1741:Generated_Source\PSoC4/capsense_Processing.c ****             ptrRamWdgt->position[0] = 0xffffu; /* Underflow without setting flag */
1742:Generated_Source\PSoC4/capsense_Processing.c ****         }
1743:Generated_Source\PSoC4/capsense_Processing.c ****         else
1744:Generated_Source\PSoC4/capsense_Processing.c ****         {
1745:Generated_Source\PSoC4/capsense_Processing.c ****             ptrRamWdgt->position[0] -= 1u;
1746:Generated_Source\PSoC4/capsense_Processing.c ****         }
1747:Generated_Source\PSoC4/capsense_Processing.c ****         break;
1748:Generated_Source\PSoC4/capsense_Processing.c ****     /* Counterclockwise rotations */
1749:Generated_Source\PSoC4/capsense_Processing.c ****     case capsense_DIALTRANSITION_CCW0:
ARM GAS  C:\Users\ASUS\AppData\Local\Temp\ccuOUgOD.s 			page 46


1750:Generated_Source\PSoC4/capsense_Processing.c ****     case capsense_DIALTRANSITION_CCW1:
1751:Generated_Source\PSoC4/capsense_Processing.c ****     case capsense_DIALTRANSITION_CCW2:
1752:Generated_Source\PSoC4/capsense_Processing.c ****     case capsense_DIALTRANSITION_CCW3:
1753:Generated_Source\PSoC4/capsense_Processing.c **** 
1754:Generated_Source\PSoC4/capsense_Processing.c ****         /* Increment angle by 90/numTargs */
1755:Generated_Source\PSoC4/capsense_Processing.c ****         if(ptrRamWdgt->position[0] == 0xffffu)
1756:Generated_Source\PSoC4/capsense_Processing.c ****         {
1757:Generated_Source\PSoC4/capsense_Processing.c ****             ptrRamWdgt->position[0] = 0u; /* Overflow without setting flag */
1758:Generated_Source\PSoC4/capsense_Processing.c ****         }
1759:Generated_Source\PSoC4/capsense_Processing.c ****         else
1760:Generated_Source\PSoC4/capsense_Processing.c ****         {
1761:Generated_Source\PSoC4/capsense_Processing.c ****             ptrRamWdgt->position[0] += 1u;
1762:Generated_Source\PSoC4/capsense_Processing.c ****         }
1763:Generated_Source\PSoC4/capsense_Processing.c ****         break;
1764:Generated_Source\PSoC4/capsense_Processing.c ****     /* No rotation */
1765:Generated_Source\PSoC4/capsense_Processing.c ****     default:
1766:Generated_Source\PSoC4/capsense_Processing.c ****         break;
1767:Generated_Source\PSoC4/capsense_Processing.c ****     }
1768:Generated_Source\PSoC4/capsense_Processing.c ****     return currStatus;
1769:Generated_Source\PSoC4/capsense_Processing.c **** }
1770:Generated_Source\PSoC4/capsense_Processing.c **** #endif /* #if (0u != capsense_ENCODERDIAL_WIDGET_EN) */
1771:Generated_Source\PSoC4/capsense_Processing.c **** 
1772:Generated_Source\PSoC4/capsense_Processing.c **** #if (0u != capsense_SLIDER_WIDGET_EN)
1773:Generated_Source\PSoC4/capsense_Processing.c **** /*******************************************************************************
1774:Generated_Source\PSoC4/capsense_Processing.c **** * Function Name: capsense_DpProcessSlider
1775:Generated_Source\PSoC4/capsense_Processing.c **** ****************************************************************************//**
1776:Generated_Source\PSoC4/capsense_Processing.c **** *
1777:Generated_Source\PSoC4/capsense_Processing.c **** * \brief
1778:Generated_Source\PSoC4/capsense_Processing.c **** *   Processes the status of the Linear/Radial Slider widget.
1779:Generated_Source\PSoC4/capsense_Processing.c **** *   The process involves running the Linear/Radial Centroid algorithm.
1780:Generated_Source\PSoC4/capsense_Processing.c **** *
1781:Generated_Source\PSoC4/capsense_Processing.c **** * \details
1782:Generated_Source\PSoC4/capsense_Processing.c **** *   This API processes the status of the CSD Slider widget (Linear and Radial).
1783:Generated_Source\PSoC4/capsense_Processing.c **** *   It applies the hysteresis and de-bounce algorithm to the widget ignoring
1784:Generated_Source\PSoC4/capsense_Processing.c **** *   the individual states of the sensors.
1785:Generated_Source\PSoC4/capsense_Processing.c **** *
1786:Generated_Source\PSoC4/capsense_Processing.c **** *   This API is expected to be called after each new widget scan. If it is
1787:Generated_Source\PSoC4/capsense_Processing.c **** *   called multiple times for the same scan data, the debounce algorithm
1788:Generated_Source\PSoC4/capsense_Processing.c **** *   will not work properly.
1789:Generated_Source\PSoC4/capsense_Processing.c **** *
1790:Generated_Source\PSoC4/capsense_Processing.c **** *   Slider widgets do not support the ON to OFF debounce.
1791:Generated_Source\PSoC4/capsense_Processing.c **** *
1792:Generated_Source\PSoC4/capsense_Processing.c **** *   This API does not update any Data Structure registers
1793:Generated_Source\PSoC4/capsense_Processing.c **** *   except the debounce counters.
1794:Generated_Source\PSoC4/capsense_Processing.c **** *
1795:Generated_Source\PSoC4/capsense_Processing.c **** * \param currStatus   The current sensor status of the Slider widget.
1796:Generated_Source\PSoC4/capsense_Processing.c **** * \param ptrFlashWdgt The pointer to the Flash Widget Object.
1797:Generated_Source\PSoC4/capsense_Processing.c **** *
1798:Generated_Source\PSoC4/capsense_Processing.c **** * \return Returns the status of the widget's sensors. Bit #0 - corresponds to Sensor #0.
1799:Generated_Source\PSoC4/capsense_Processing.c **** *
1800:Generated_Source\PSoC4/capsense_Processing.c **** *******************************************************************************/
1801:Generated_Source\PSoC4/capsense_Processing.c **** uint32 capsense_DpProcessSlider(uint32 currStatus, capsense_FLASH_WD_STRUCT const *ptrFlashWdgt)
1802:Generated_Source\PSoC4/capsense_Processing.c **** {
 749              		.loc 1 1802 0
 750              		.cfi_startproc
 751              		@ args = 0, pretend = 0, frame = 8
 752              		@ frame_needed = 0, uses_anonymous_args = 0
ARM GAS  C:\Users\ASUS\AppData\Local\Temp\ccuOUgOD.s 			page 47


 753              	.LVL137:
 754 0000 F0B5     		push	{r4, r5, r6, r7, lr}
 755              		.cfi_def_cfa_offset 20
 756              		.cfi_offset 4, -20
 757              		.cfi_offset 5, -16
 758              		.cfi_offset 6, -12
 759              		.cfi_offset 7, -8
 760              		.cfi_offset 14, -4
 761 0002 4746     		mov	r7, r8
 762 0004 80B4     		push	{r7}
 763              		.cfi_def_cfa_offset 24
 764              		.cfi_offset 8, -24
 765 0006 82B0     		sub	sp, sp, #8
 766              		.cfi_def_cfa_offset 32
 767 0008 8446     		mov	ip, r0
 768 000a 0F00     		movs	r7, r1
 769              	.LVL138:
1803:Generated_Source\PSoC4/capsense_Processing.c ****     uint32 snsCnt;
1804:Generated_Source\PSoC4/capsense_Processing.c ****     uint32 snsMask;
1805:Generated_Source\PSoC4/capsense_Processing.c ****     uint32 touchTh;
1806:Generated_Source\PSoC4/capsense_Processing.c ****     uint32 newStatus = 0Lu;
1807:Generated_Source\PSoC4/capsense_Processing.c ****     uint8 * ptrDebounceCnt;
1808:Generated_Source\PSoC4/capsense_Processing.c ****     capsense_RAM_SNS_STRUCT *ptrSnsTmp;
1809:Generated_Source\PSoC4/capsense_Processing.c ****     capsense_RAM_WD_SLIDER_STRUCT *ptrRamWdgt;
1810:Generated_Source\PSoC4/capsense_Processing.c **** 
1811:Generated_Source\PSoC4/capsense_Processing.c ****     #if (0u != capsense_POSITION_FILTER_EN)
1812:Generated_Source\PSoC4/capsense_Processing.c ****         capsense_SLIDER_POS_HISTORY_STRUCT *ptrHistory;
1813:Generated_Source\PSoC4/capsense_Processing.c ****     #endif /* #if (0u != capsense_POSITION_FILTER_EN) */
1814:Generated_Source\PSoC4/capsense_Processing.c **** 
1815:Generated_Source\PSoC4/capsense_Processing.c ****     uint32 touchIdx;
1816:Generated_Source\PSoC4/capsense_Processing.c ****     uint32 touchCnt = 0Lu;
1817:Generated_Source\PSoC4/capsense_Processing.c ****     uint16 newPos[capsense_NUM_CENTROIDS];
1818:Generated_Source\PSoC4/capsense_Processing.c **** 
1819:Generated_Source\PSoC4/capsense_Processing.c ****     snsCnt = ptrFlashWdgt->totalNumSns;
 770              		.loc 1 1819 0
 771 000c 0B8B     		ldrh	r3, [r1, #24]
 772              	.LVL139:
1820:Generated_Source\PSoC4/capsense_Processing.c ****     ptrSnsTmp = ptrFlashWdgt->ptr2SnsRam;
 773              		.loc 1 1820 0
 774 000e 8A68     		ldr	r2, [r1, #8]
 775              	.LVL140:
1821:Generated_Source\PSoC4/capsense_Processing.c ****     ptrRamWdgt = (capsense_RAM_WD_SLIDER_STRUCT *)ptrFlashWdgt->ptr2WdgtRam;
 776              		.loc 1 1821 0
 777 0010 4D68     		ldr	r5, [r1, #4]
 778              	.LVL141:
1822:Generated_Source\PSoC4/capsense_Processing.c ****     ptrDebounceCnt = ptrFlashWdgt->ptr2DebounceArr;
 779              		.loc 1 1822 0
 780 0012 0969     		ldr	r1, [r1, #16]
 781              	.LVL142:
 782 0014 8846     		mov	r8, r1
 783              	.LVL143:
1823:Generated_Source\PSoC4/capsense_Processing.c **** 
1824:Generated_Source\PSoC4/capsense_Processing.c ****     #if (0u != capsense_POSITION_FILTER_EN)
1825:Generated_Source\PSoC4/capsense_Processing.c ****         ptrHistory = ptrFlashWdgt->ptr2PosHistory;
1826:Generated_Source\PSoC4/capsense_Processing.c ****     #endif /* #if (0u != capsense_POSITION_FILTER_EN) */
1827:Generated_Source\PSoC4/capsense_Processing.c **** 
1828:Generated_Source\PSoC4/capsense_Processing.c ****     /* Calculate touch threshold based on current slider state */
ARM GAS  C:\Users\ASUS\AppData\Local\Temp\ccuOUgOD.s 			page 48


1829:Generated_Source\PSoC4/capsense_Processing.c ****     touchTh = (0Lu == currStatus ) ?
1830:Generated_Source\PSoC4/capsense_Processing.c ****               ((uint32)ptrRamWdgt->fingerTh + ptrRamWdgt->hysteresis) :
 784              		.loc 1 1830 0
 785 0016 0028     		cmp	r0, #0
 786 0018 03D1     		bne	.L53
 787              		.loc 1 1830 0 is_stmt 0 discriminator 1
 788 001a 6888     		ldrh	r0, [r5, #2]
 789              	.LVL144:
 790 001c A979     		ldrb	r1, [r5, #6]
 791              	.LVL145:
 792 001e 4018     		adds	r0, r0, r1
 793 0020 02E0     		b	.L54
 794              	.LVL146:
 795              	.L53:
1831:Generated_Source\PSoC4/capsense_Processing.c ****               ((uint32)ptrRamWdgt->fingerTh - ptrRamWdgt->hysteresis);
 796              		.loc 1 1831 0 is_stmt 1 discriminator 2
 797 0022 6988     		ldrh	r1, [r5, #2]
 798              	.LVL147:
 799 0024 A879     		ldrb	r0, [r5, #6]
 800              	.LVL148:
1830:Generated_Source\PSoC4/capsense_Processing.c ****               ((uint32)ptrRamWdgt->fingerTh - ptrRamWdgt->hysteresis);
 801              		.loc 1 1830 0 discriminator 2
 802 0026 081A     		subs	r0, r1, r0
 803              	.L54:
 804              	.LVL149:
1806:Generated_Source\PSoC4/capsense_Processing.c ****     uint8 * ptrDebounceCnt;
 805              		.loc 1 1806 0
 806 0028 0024     		movs	r4, #0
1832:Generated_Source\PSoC4/capsense_Processing.c **** 
1833:Generated_Source\PSoC4/capsense_Processing.c ****     /* Go through all widget's sensors */
1834:Generated_Source\PSoC4/capsense_Processing.c ****     snsMask = 1Lu;
 807              		.loc 1 1834 0
 808 002a 0121     		movs	r1, #1
1835:Generated_Source\PSoC4/capsense_Processing.c ****     for (; snsCnt-- > 0Lu; )
 809              		.loc 1 1835 0
 810 002c 09E0     		b	.L55
 811              	.LVL150:
 812              	.L57:
1836:Generated_Source\PSoC4/capsense_Processing.c ****     {
1837:Generated_Source\PSoC4/capsense_Processing.c ****         /* Determine new potential sensor state */
1838:Generated_Source\PSoC4/capsense_Processing.c ****         newStatus |= (ptrSnsTmp->diff > touchTh) ? snsMask : 0Lu;
 813              		.loc 1 1838 0
 814 002e D388     		ldrh	r3, [r2, #6]
 815 0030 9842     		cmp	r0, r3
 816 0032 01D3     		bcc	.L67
 817 0034 0023     		movs	r3, #0
 818 0036 00E0     		b	.L56
 819              	.L67:
 820 0038 0B00     		movs	r3, r1
 821              	.L56:
 822              		.loc 1 1838 0 is_stmt 0 discriminator 4
 823 003a 1C43     		orrs	r4, r3
 824              	.LVL151:
1839:Generated_Source\PSoC4/capsense_Processing.c ****         ptrSnsTmp++;
 825              		.loc 1 1839 0 is_stmt 1 discriminator 4
 826 003c 0A32     		adds	r2, r2, #10
 827              	.LVL152:
ARM GAS  C:\Users\ASUS\AppData\Local\Temp\ccuOUgOD.s 			page 49


1840:Generated_Source\PSoC4/capsense_Processing.c **** 
1841:Generated_Source\PSoC4/capsense_Processing.c ****         snsMask <<= 1u;
 828              		.loc 1 1841 0 discriminator 4
 829 003e 4900     		lsls	r1, r1, #1
 830              	.LVL153:
1835:Generated_Source\PSoC4/capsense_Processing.c ****     {
 831              		.loc 1 1835 0 discriminator 4
 832 0040 3300     		movs	r3, r6
 833              	.LVL154:
 834              	.L55:
1835:Generated_Source\PSoC4/capsense_Processing.c ****     {
 835              		.loc 1 1835 0 is_stmt 0
 836 0042 5E1E     		subs	r6, r3, #1
 837              	.LVL155:
 838 0044 002B     		cmp	r3, #0
 839 0046 F2D1     		bne	.L57
1842:Generated_Source\PSoC4/capsense_Processing.c ****     }
1843:Generated_Source\PSoC4/capsense_Processing.c **** 
1844:Generated_Source\PSoC4/capsense_Processing.c ****     /* If widget is active, check whether debounce is needed */
1845:Generated_Source\PSoC4/capsense_Processing.c ****     if (0Lu != newStatus)
 840              		.loc 1 1845 0 is_stmt 1
 841 0048 002C     		cmp	r4, #0
 842 004a 0CD0     		beq	.L58
1846:Generated_Source\PSoC4/capsense_Processing.c ****     {
1847:Generated_Source\PSoC4/capsense_Processing.c ****         if (0u < (*ptrDebounceCnt))
 843              		.loc 1 1847 0
 844 004c 4346     		mov	r3, r8
 845 004e 1B78     		ldrb	r3, [r3]
 846 0050 002B     		cmp	r3, #0
 847 0052 02D0     		beq	.L59
1848:Generated_Source\PSoC4/capsense_Processing.c ****         {
1849:Generated_Source\PSoC4/capsense_Processing.c ****             /* Decrement debounce counter */
1850:Generated_Source\PSoC4/capsense_Processing.c ****             (*ptrDebounceCnt)--;
 848              		.loc 1 1850 0
 849 0054 013B     		subs	r3, r3, #1
 850 0056 4246     		mov	r2, r8
 851              	.LVL156:
 852 0058 1370     		strb	r3, [r2]
 853              	.L59:
1851:Generated_Source\PSoC4/capsense_Processing.c ****         }
1852:Generated_Source\PSoC4/capsense_Processing.c **** 
1853:Generated_Source\PSoC4/capsense_Processing.c ****         if (0u == (*ptrDebounceCnt))
 854              		.loc 1 1853 0
 855 005a 4346     		mov	r3, r8
 856 005c 1B78     		ldrb	r3, [r3]
 857 005e 002B     		cmp	r3, #0
 858 0060 04D0     		beq	.L60
 859 0062 6446     		mov	r4, ip
 860              	.LVL157:
 861 0064 02E0     		b	.L60
 862              	.LVL158:
 863              	.L58:
1854:Generated_Source\PSoC4/capsense_Processing.c ****         {
1855:Generated_Source\PSoC4/capsense_Processing.c ****             /* Update slider sensor state when debounce completes */
1856:Generated_Source\PSoC4/capsense_Processing.c ****             currStatus = newStatus;
1857:Generated_Source\PSoC4/capsense_Processing.c ****         }
1858:Generated_Source\PSoC4/capsense_Processing.c ****     }
ARM GAS  C:\Users\ASUS\AppData\Local\Temp\ccuOUgOD.s 			page 50


1859:Generated_Source\PSoC4/capsense_Processing.c ****     else
1860:Generated_Source\PSoC4/capsense_Processing.c ****     {
1861:Generated_Source\PSoC4/capsense_Processing.c ****         /* Reset debounce counter */
1862:Generated_Source\PSoC4/capsense_Processing.c ****         *ptrDebounceCnt = ptrRamWdgt->onDebounce;
 864              		.loc 1 1862 0
 865 0066 EB79     		ldrb	r3, [r5, #7]
 866 0068 4246     		mov	r2, r8
 867              	.LVL159:
 868 006a 1370     		strb	r3, [r2]
 869              	.LVL160:
 870              	.L60:
1863:Generated_Source\PSoC4/capsense_Processing.c **** 
1864:Generated_Source\PSoC4/capsense_Processing.c ****         /* Clear slider sensor state */
1865:Generated_Source\PSoC4/capsense_Processing.c ****         currStatus = 0Lu;
1866:Generated_Source\PSoC4/capsense_Processing.c ****     }
1867:Generated_Source\PSoC4/capsense_Processing.c **** 
1868:Generated_Source\PSoC4/capsense_Processing.c ****     /* Centroid processing */
1869:Generated_Source\PSoC4/capsense_Processing.c ****     /* If there are active sensors after debounce run the centroid algorithm */
1870:Generated_Source\PSoC4/capsense_Processing.c ****     if (0u != currStatus)
 871              		.loc 1 1870 0
 872 006c 002C     		cmp	r4, #0
 873 006e 0AD0     		beq	.L68
1871:Generated_Source\PSoC4/capsense_Processing.c ****     {
1872:Generated_Source\PSoC4/capsense_Processing.c ****         /* Centroid always uses the lowest finger threshold (minus hysteresis)
1873:Generated_Source\PSoC4/capsense_Processing.c ****          * to produce same results for first and all consecutive invocations */
1874:Generated_Source\PSoC4/capsense_Processing.c ****         touchTh = (uint32)ptrRamWdgt->fingerTh - ptrRamWdgt->hysteresis;
 874              		.loc 1 1874 0
 875 0070 6B88     		ldrh	r3, [r5, #2]
 876 0072 AA79     		ldrb	r2, [r5, #6]
 877 0074 9A1A     		subs	r2, r3, r2
 878              	.LVL161:
1875:Generated_Source\PSoC4/capsense_Processing.c ****         snsCnt = ptrFlashWdgt->totalNumSns;
 879              		.loc 1 1875 0
 880 0076 3E8B     		ldrh	r6, [r7, #24]
 881              	.LVL162:
1876:Generated_Source\PSoC4/capsense_Processing.c **** 
1877:Generated_Source\PSoC4/capsense_Processing.c ****         #if (0u != capsense_TOTAL_DIPLEXED_SLIDERS)
1878:Generated_Source\PSoC4/capsense_Processing.c ****             if ((0u != (ptrFlashWdgt->staticConfig & capsense_DIPLEXING_MASK)))
1879:Generated_Source\PSoC4/capsense_Processing.c ****             {
1880:Generated_Source\PSoC4/capsense_Processing.c ****                 /* Run local maximum search for duplexed slider */
1881:Generated_Source\PSoC4/capsense_Processing.c ****                 touchCnt = capsense_DpFindLocalMaxDiplex(
1882:Generated_Source\PSoC4/capsense_Processing.c ****                                 ptrFlashWdgt->ptr2SnsRam, snsCnt, ptrFlashWdgt->ptr2DiplexTable, to
1883:Generated_Source\PSoC4/capsense_Processing.c **** 
1884:Generated_Source\PSoC4/capsense_Processing.c ****                 /* Centroid calculation API requires double sensor count for the diplexed sliders. 
1885:Generated_Source\PSoC4/capsense_Processing.c ****                 snsCnt *= 2u;
1886:Generated_Source\PSoC4/capsense_Processing.c ****             }
1887:Generated_Source\PSoC4/capsense_Processing.c ****             else
1888:Generated_Source\PSoC4/capsense_Processing.c ****             {
1889:Generated_Source\PSoC4/capsense_Processing.c ****                 /* Run local maximum search for NON-duplexed slider */
1890:Generated_Source\PSoC4/capsense_Processing.c ****                 #if (capsense_ENABLE == capsense_4PTS_LOCAL_MAX_EN)
1891:Generated_Source\PSoC4/capsense_Processing.c ****                     touchCnt = capsense_DpFindLocalMaxSd4pts(ptrFlashWdgt, ptrFlashWdgt->ptr2SnsRam
1892:Generated_Source\PSoC4/capsense_Processing.c ****                 #else
1893:Generated_Source\PSoC4/capsense_Processing.c ****                     touchCnt = capsense_DpFindLocalMaxSd(ptrFlashWdgt->ptr2SnsRam, snsCnt, touchTh)
1894:Generated_Source\PSoC4/capsense_Processing.c ****                 #endif
1895:Generated_Source\PSoC4/capsense_Processing.c ****             }
1896:Generated_Source\PSoC4/capsense_Processing.c ****         #else
1897:Generated_Source\PSoC4/capsense_Processing.c ****             /* Run local maximum search for NON-duplexed slider */
ARM GAS  C:\Users\ASUS\AppData\Local\Temp\ccuOUgOD.s 			page 51


1898:Generated_Source\PSoC4/capsense_Processing.c ****             #if (capsense_ENABLE == capsense_4PTS_LOCAL_MAX_EN)
1899:Generated_Source\PSoC4/capsense_Processing.c ****                 touchCnt = capsense_DpFindLocalMaxSd4pts(ptrFlashWdgt, ptrFlashWdgt->ptr2SnsRam, sn
1900:Generated_Source\PSoC4/capsense_Processing.c ****             #else
1901:Generated_Source\PSoC4/capsense_Processing.c ****                 touchCnt = capsense_DpFindLocalMaxSd(ptrFlashWdgt->ptr2SnsRam, snsCnt, touchTh);
 882              		.loc 1 1901 0
 883 0078 3100     		movs	r1, r6
 884              	.LVL163:
 885 007a B868     		ldr	r0, [r7, #8]
 886 007c FFF7FEFF 		bl	capsense_DpFindLocalMaxSd
 887              	.LVL164:
1902:Generated_Source\PSoC4/capsense_Processing.c ****             #endif
1903:Generated_Source\PSoC4/capsense_Processing.c ****         #endif /* #if (0u != capsense_TOTAL_DIPLEXED_SLIDERS) */
1904:Generated_Source\PSoC4/capsense_Processing.c **** 
1905:Generated_Source\PSoC4/capsense_Processing.c ****         /* If at least one touch is detected */
1906:Generated_Source\PSoC4/capsense_Processing.c ****         if (0u != touchCnt)
 888              		.loc 1 1906 0
 889 0080 0028     		cmp	r0, #0
 890 0082 02D1     		bne	.L62
 891 0084 21E0     		b	.L63
 892              	.LVL165:
 893              	.L68:
1816:Generated_Source\PSoC4/capsense_Processing.c ****     uint16 newPos[capsense_NUM_CENTROIDS];
 894              		.loc 1 1816 0
 895 0086 0020     		movs	r0, #0
 896              	.LVL166:
 897 0088 1FE0     		b	.L63
 898              	.LVL167:
 899              	.L62:
1907:Generated_Source\PSoC4/capsense_Processing.c ****         {
1908:Generated_Source\PSoC4/capsense_Processing.c ****             /* Determine slider type and calculate new position(s) */
1909:Generated_Source\PSoC4/capsense_Processing.c ****             #if (0u != capsense_TOTAL_LINEAR_SLIDERS)
1910:Generated_Source\PSoC4/capsense_Processing.c ****                 if ((capsense_WD_TYPE_ENUM)ptrFlashWdgt->wdgtType == capsense_WD_LINEAR_SLIDER_E)
 900              		.loc 1 1910 0
 901 008a BB7E     		ldrb	r3, [r7, #26]
 902 008c 022B     		cmp	r3, #2
 903 008e 1CD1     		bne	.L63
1911:Generated_Source\PSoC4/capsense_Processing.c ****                 {
1912:Generated_Source\PSoC4/capsense_Processing.c ****                     #if (capsense_ENABLE == capsense_SLIDER_MULT_METHOD)
1913:Generated_Source\PSoC4/capsense_Processing.c ****                         touchCnt = capsense_DpCalcLinearCentroid(newPos, (uint32)ptrFlashWdgt->xCen
1914:Generated_Source\PSoC4/capsense_Processing.c ****                                     snsCnt, (uint32)(ptrFlashWdgt->xCentroidMultiplier >> 1));
1915:Generated_Source\PSoC4/capsense_Processing.c ****                     #else
1916:Generated_Source\PSoC4/capsense_Processing.c ****                         touchCnt = capsense_DpCalcLinearCentroid(
1917:Generated_Source\PSoC4/capsense_Processing.c ****                                         newPos, (uint32)ptrFlashWdgt->xCentroidMultiplier, snsCnt, 
 904              		.loc 1 1917 0
 905 0090 396A     		ldr	r1, [r7, #32]
1916:Generated_Source\PSoC4/capsense_Processing.c ****                                         newPos, (uint32)ptrFlashWdgt->xCentroidMultiplier, snsCnt, 
 906              		.loc 1 1916 0
 907 0092 0023     		movs	r3, #0
 908 0094 3200     		movs	r2, r6
 909 0096 01A8     		add	r0, sp, #4
 910              	.LVL168:
 911 0098 FFF7FEFF 		bl	capsense_DpCalcLinearCentroid
 912              	.LVL169:
 913              	.LBB8:
 914              	.LBB9:
1918:Generated_Source\PSoC4/capsense_Processing.c ****                     #endif
1919:Generated_Source\PSoC4/capsense_Processing.c ****                     DpUpdateLinSlider(newPos, touchCnt, ptrFlashWdgt, ptrRamWdgt);
ARM GAS  C:\Users\ASUS\AppData\Local\Temp\ccuOUgOD.s 			page 52


1920:Generated_Source\PSoC4/capsense_Processing.c ****                 }
1921:Generated_Source\PSoC4/capsense_Processing.c ****             #endif /* #if (0u != capsense_TOTAL_LINEAR_SLIDERS) */
1922:Generated_Source\PSoC4/capsense_Processing.c **** 
1923:Generated_Source\PSoC4/capsense_Processing.c ****             #if (0u != capsense_TOTAL_RADIAL_SLIDERS)
1924:Generated_Source\PSoC4/capsense_Processing.c ****                 if ((capsense_WD_TYPE_ENUM)ptrFlashWdgt->wdgtType == capsense_WD_RADIAL_SLIDER_E)
1925:Generated_Source\PSoC4/capsense_Processing.c ****                 {
1926:Generated_Source\PSoC4/capsense_Processing.c ****                     touchCnt = capsense_DpCalcRadialCentroid(
1927:Generated_Source\PSoC4/capsense_Processing.c ****                                     newPos, (uint32)ptrFlashWdgt->xCentroidMultiplier, snsCnt);
1928:Generated_Source\PSoC4/capsense_Processing.c ****                     DpUpdateRadSlider(newPos, touchCnt, ptrFlashWdgt, ptrRamWdgt);
1929:Generated_Source\PSoC4/capsense_Processing.c ****                 }
1930:Generated_Source\PSoC4/capsense_Processing.c ****             #endif /* #if (0u != capsense_TOTAL_RADIAL_SLIDERS) */
1931:Generated_Source\PSoC4/capsense_Processing.c ****         }
1932:Generated_Source\PSoC4/capsense_Processing.c ****     }
1933:Generated_Source\PSoC4/capsense_Processing.c **** 
1934:Generated_Source\PSoC4/capsense_Processing.c ****     /* Clear not active position data slots */
1935:Generated_Source\PSoC4/capsense_Processing.c ****     for (touchIdx = touchCnt; touchIdx < capsense_NUM_CENTROIDS; touchIdx++)
1936:Generated_Source\PSoC4/capsense_Processing.c ****     {
1937:Generated_Source\PSoC4/capsense_Processing.c ****         ptrRamWdgt->position[touchIdx] = capsense_SLIDER_POS_NONE;
1938:Generated_Source\PSoC4/capsense_Processing.c **** 
1939:Generated_Source\PSoC4/capsense_Processing.c ****         #if (0u != capsense_POSITION_FILTER_EN)
1940:Generated_Source\PSoC4/capsense_Processing.c ****             if (NULL != ptrHistory)
1941:Generated_Source\PSoC4/capsense_Processing.c ****             {
1942:Generated_Source\PSoC4/capsense_Processing.c ****                 capsense_InitPosFiltersSd(&ptrHistory[touchIdx], capsense_SLIDER_POS_NONE);
1943:Generated_Source\PSoC4/capsense_Processing.c ****             }
1944:Generated_Source\PSoC4/capsense_Processing.c ****         #endif /* #if (0u != capsense_POSITION_FILTER_EN) */
1945:Generated_Source\PSoC4/capsense_Processing.c ****     }
1946:Generated_Source\PSoC4/capsense_Processing.c **** 
1947:Generated_Source\PSoC4/capsense_Processing.c ****     return currStatus;
1948:Generated_Source\PSoC4/capsense_Processing.c **** }
1949:Generated_Source\PSoC4/capsense_Processing.c **** #endif /* #if (0u != capsense_SLIDER_WIDGET_EN) */
1950:Generated_Source\PSoC4/capsense_Processing.c **** 
1951:Generated_Source\PSoC4/capsense_Processing.c **** #if (0u != capsense_TOTAL_LINEAR_SLIDERS)
1952:Generated_Source\PSoC4/capsense_Processing.c **** /*******************************************************************************
1953:Generated_Source\PSoC4/capsense_Processing.c **** * Function Name: DpUpdateLinSlider
1954:Generated_Source\PSoC4/capsense_Processing.c **** ****************************************************************************//**
1955:Generated_Source\PSoC4/capsense_Processing.c **** *
1956:Generated_Source\PSoC4/capsense_Processing.c **** * \brief
1957:Generated_Source\PSoC4/capsense_Processing.c **** *   Updates the touch status of the Linear Slider widget.
1958:Generated_Source\PSoC4/capsense_Processing.c **** *
1959:Generated_Source\PSoC4/capsense_Processing.c **** * \details
1960:Generated_Source\PSoC4/capsense_Processing.c **** *   This function updates the position data of the Linear Slider
1961:Generated_Source\PSoC4/capsense_Processing.c **** *   in the Data Structure. Also, this function runs position filters for the
1962:Generated_Source\PSoC4/capsense_Processing.c **** *   position data if any enabled.
1963:Generated_Source\PSoC4/capsense_Processing.c **** *
1964:Generated_Source\PSoC4/capsense_Processing.c **** * \param newPos       The pointer to the array with the new finger position coordinates.
1965:Generated_Source\PSoC4/capsense_Processing.c **** * \param numTouches   The number of the coordinates in the newPos array.
1966:Generated_Source\PSoC4/capsense_Processing.c **** * \param ptrFlashWdgt The pointer to the Flash Widget Object.
1967:Generated_Source\PSoC4/capsense_Processing.c **** * \param ptrRamWdgt   The pointer to the RAM Widget Object.
1968:Generated_Source\PSoC4/capsense_Processing.c **** *
1969:Generated_Source\PSoC4/capsense_Processing.c **** *******************************************************************************/
1970:Generated_Source\PSoC4/capsense_Processing.c **** static CY_INLINE void DpUpdateLinSlider(
1971:Generated_Source\PSoC4/capsense_Processing.c ****                         const uint16 newPos[],
1972:Generated_Source\PSoC4/capsense_Processing.c ****                         uint32 numTouches,
1973:Generated_Source\PSoC4/capsense_Processing.c ****                         capsense_FLASH_WD_STRUCT const *ptrFlashWdgt,
1974:Generated_Source\PSoC4/capsense_Processing.c ****                         capsense_RAM_WD_SLIDER_STRUCT *ptrRamWdgt)
1975:Generated_Source\PSoC4/capsense_Processing.c **** {
1976:Generated_Source\PSoC4/capsense_Processing.c ****     uint32 touchIdx;
ARM GAS  C:\Users\ASUS\AppData\Local\Temp\ccuOUgOD.s 			page 53


1977:Generated_Source\PSoC4/capsense_Processing.c **** 
1978:Generated_Source\PSoC4/capsense_Processing.c ****     #if (0u != capsense_POS_AVERAGE_FILTER_EN)
1979:Generated_Source\PSoC4/capsense_Processing.c ****         uint16 tempPosition;
1980:Generated_Source\PSoC4/capsense_Processing.c ****     #endif /* (0u != capsense_POS_AVERAGE_FILTER_EN) */
1981:Generated_Source\PSoC4/capsense_Processing.c **** 
1982:Generated_Source\PSoC4/capsense_Processing.c ****     #if (0u == capsense_POSITION_FILTER_EN)
1983:Generated_Source\PSoC4/capsense_Processing.c ****         /* This parameter is unused in such configurations */
1984:Generated_Source\PSoC4/capsense_Processing.c ****         (void)ptrFlashWdgt;
1985:Generated_Source\PSoC4/capsense_Processing.c ****     #else
1986:Generated_Source\PSoC4/capsense_Processing.c ****         uint16 filteredPosition;
1987:Generated_Source\PSoC4/capsense_Processing.c ****         /* Get bitmask with the enabled filters */
1988:Generated_Source\PSoC4/capsense_Processing.c ****         uint32 filterConfig = (uint32)ptrFlashWdgt->staticConfig;
1989:Generated_Source\PSoC4/capsense_Processing.c ****         /* Get pointer to the position filter history */
1990:Generated_Source\PSoC4/capsense_Processing.c ****         capsense_SLIDER_POS_HISTORY_STRUCT *ptrHistory = ptrFlashWdgt->ptr2PosHistory;
1991:Generated_Source\PSoC4/capsense_Processing.c ****     #endif /* #if (0u == capsense_POSITION_FILTER_EN) */
1992:Generated_Source\PSoC4/capsense_Processing.c **** 
1993:Generated_Source\PSoC4/capsense_Processing.c ****     #if (0u != capsense_POS_ADAPTIVE_IIR_FILTER_EN)
1994:Generated_Source\PSoC4/capsense_Processing.c ****         ADAPTIVE_FILTER_CONTEXT_STRUCT contextAIIR;
1995:Generated_Source\PSoC4/capsense_Processing.c ****         uint16 emptyPosition = 0;
1996:Generated_Source\PSoC4/capsense_Processing.c ****     #endif /* (0u != capsense_POS_ADAPTIVE_IIR_FILTER_EN) */
1997:Generated_Source\PSoC4/capsense_Processing.c **** 
1998:Generated_Source\PSoC4/capsense_Processing.c ****     /* Run Filter and update the position registers with the filtered data */
1999:Generated_Source\PSoC4/capsense_Processing.c ****     for (touchIdx = 0u; touchIdx < numTouches; touchIdx++)
 915              		.loc 1 1999 0
 916 009c 0022     		movs	r2, #0
 917 009e 0AE0     		b	.L64
 918              	.LVL170:
 919              	.L65:
2000:Generated_Source\PSoC4/capsense_Processing.c ****     {
2001:Generated_Source\PSoC4/capsense_Processing.c ****         #if (0u == capsense_POSITION_FILTER_EN)
2002:Generated_Source\PSoC4/capsense_Processing.c ****             /* If filters are not enabled just copy the position data */
2003:Generated_Source\PSoC4/capsense_Processing.c ****             ptrRamWdgt->position[touchIdx] = newPos[touchIdx];
 920              		.loc 1 2003 0
 921 00a0 5300     		lsls	r3, r2, #1
 922 00a2 02A9     		add	r1, sp, #8
 923 00a4 8C46     		mov	ip, r1
 924 00a6 6344     		add	r3, r3, ip
 925 00a8 043B     		subs	r3, r3, #4
 926 00aa 1988     		ldrh	r1, [r3]
 927 00ac 1300     		movs	r3, r2
 928 00ae 0833     		adds	r3, r3, #8
 929 00b0 5B00     		lsls	r3, r3, #1
 930 00b2 5953     		strh	r1, [r3, r5]
1999:Generated_Source\PSoC4/capsense_Processing.c ****     {
 931              		.loc 1 1999 0
 932 00b4 0132     		adds	r2, r2, #1
 933              	.LVL171:
 934              	.L64:
 935 00b6 9042     		cmp	r0, r2
 936 00b8 F2D8     		bhi	.L65
 937 00ba 06E0     		b	.L63
 938              	.LVL172:
 939              	.L66:
 940              	.LBE9:
 941              	.LBE8:
1937:Generated_Source\PSoC4/capsense_Processing.c **** 
 942              		.loc 1 1937 0 discriminator 3
ARM GAS  C:\Users\ASUS\AppData\Local\Temp\ccuOUgOD.s 			page 54


 943 00bc 0300     		movs	r3, r0
 944 00be 0833     		adds	r3, r3, #8
 945 00c0 5B00     		lsls	r3, r3, #1
 946 00c2 0122     		movs	r2, #1
 947 00c4 5242     		rsbs	r2, r2, #0
 948 00c6 5A53     		strh	r2, [r3, r5]
1935:Generated_Source\PSoC4/capsense_Processing.c ****     {
 949              		.loc 1 1935 0 discriminator 3
 950 00c8 0130     		adds	r0, r0, #1
 951              	.LVL173:
 952              	.L63:
1935:Generated_Source\PSoC4/capsense_Processing.c ****     {
 953              		.loc 1 1935 0 is_stmt 0 discriminator 1
 954 00ca 0028     		cmp	r0, #0
 955 00cc F6D0     		beq	.L66
1948:Generated_Source\PSoC4/capsense_Processing.c **** #endif /* #if (0u != capsense_SLIDER_WIDGET_EN) */
 956              		.loc 1 1948 0 is_stmt 1
 957 00ce 2000     		movs	r0, r4
 958              	.LVL174:
 959 00d0 02B0     		add	sp, sp, #8
 960              		@ sp needed
 961              	.LVL175:
 962              	.LVL176:
 963              	.LVL177:
 964              	.LVL178:
 965              	.LVL179:
 966 00d2 04BC     		pop	{r2}
 967 00d4 9046     		mov	r8, r2
 968 00d6 F0BD     		pop	{r4, r5, r6, r7, pc}
 969              		.cfi_endproc
 970              	.LFE11:
 971              		.size	capsense_DpProcessSlider, .-capsense_DpProcessSlider
 972              		.section	.text.capsense_DpProcessCsdWidgetStatus,"ax",%progbits
 973              		.align	2
 974              		.global	capsense_DpProcessCsdWidgetStatus
 975              		.code	16
 976              		.thumb_func
 977              		.type	capsense_DpProcessCsdWidgetStatus, %function
 978              	capsense_DpProcessCsdWidgetStatus:
 979              	.LFB8:
1247:Generated_Source\PSoC4/capsense_Processing.c ****     uint32 sensorStatus;
 980              		.loc 1 1247 0
 981              		.cfi_startproc
 982              		@ args = 0, pretend = 0, frame = 0
 983              		@ frame_needed = 0, uses_anonymous_args = 0
 984              	.LVL180:
 985 0000 70B5     		push	{r4, r5, r6, lr}
 986              		.cfi_def_cfa_offset 16
 987              		.cfi_offset 4, -16
 988              		.cfi_offset 5, -12
 989              		.cfi_offset 6, -8
 990              		.cfi_offset 14, -4
 991 0002 0400     		movs	r4, r0
1253:Generated_Source\PSoC4/capsense_Processing.c ****     sensorStatus = capsense_dsRam.snsStatus[widgetId];
 992              		.loc 1 1253 0
 993 0004 8A7E     		ldrb	r2, [r1, #26]
 994              	.LVL181:
ARM GAS  C:\Users\ASUS\AppData\Local\Temp\ccuOUgOD.s 			page 55


1254:Generated_Source\PSoC4/capsense_Processing.c **** 
 995              		.loc 1 1254 0
 996 0006 184B     		ldr	r3, .L77
 997 0008 1B18     		adds	r3, r3, r0
 998 000a 1D7E     		ldrb	r5, [r3, #24]
 999              	.LVL182:
1256:Generated_Source\PSoC4/capsense_Processing.c ****     {
 1000              		.loc 1 1256 0
 1001 000c 012A     		cmp	r2, #1
 1002 000e 04D0     		beq	.L71
 1003 0010 002A     		cmp	r2, #0
 1004 0012 0CD0     		beq	.L70
 1005 0014 032A     		cmp	r2, #3
 1006 0016 05D9     		bls	.L76
 1007 0018 09E0     		b	.L70
 1008              	.L71:
1260:Generated_Source\PSoC4/capsense_Processing.c ****             break;
 1009              		.loc 1 1260 0
 1010 001a 2800     		movs	r0, r5
 1011              	.LVL183:
 1012 001c FFF7FEFF 		bl	capsense_DpProcessButton
 1013              	.LVL184:
 1014 0020 0500     		movs	r5, r0
 1015              	.LVL185:
1261:Generated_Source\PSoC4/capsense_Processing.c ****     #endif /* #if (0u != capsense_BUTTON_WIDGET_EN) */
 1016              		.loc 1 1261 0
 1017 0022 07E0     		b	.L73
 1018              	.LVL186:
 1019              	.L76:
1267:Generated_Source\PSoC4/capsense_Processing.c ****             break;
 1020              		.loc 1 1267 0
 1021 0024 2800     		movs	r0, r5
 1022              	.LVL187:
 1023 0026 FFF7FEFF 		bl	capsense_DpProcessSlider
 1024              	.LVL188:
 1025 002a 0500     		movs	r5, r0
 1026              	.LVL189:
1268:Generated_Source\PSoC4/capsense_Processing.c ****     #endif /* #if (0u != capsense_SLIDER_WIDGET_EN) */
 1027              		.loc 1 1268 0
 1028 002c 02E0     		b	.L73
 1029              	.LVL190:
 1030              	.L70:
1293:Generated_Source\PSoC4/capsense_Processing.c ****         break;
 1031              		.loc 1 1293 0 discriminator 1
 1032 002e 0020     		movs	r0, #0
 1033              	.LVL191:
 1034 0030 FFF7FEFF 		bl	CyHalt
 1035              	.LVL192:
 1036              	.L73:
1297:Generated_Source\PSoC4/capsense_Processing.c **** 
 1037              		.loc 1 1297 0
 1038 0034 0C4B     		ldr	r3, .L77
 1039 0036 1B19     		adds	r3, r3, r4
 1040 0038 1D76     		strb	r5, [r3, #24]
1300:Generated_Source\PSoC4/capsense_Processing.c ****     wdStatusMask = capsense_GET_WDGT_STATUS_MASK(widgetId);
 1041              		.loc 1 1300 0
 1042 003a 6309     		lsrs	r3, r4, #5
ARM GAS  C:\Users\ASUS\AppData\Local\Temp\ccuOUgOD.s 			page 56


 1043              	.LVL193:
1301:Generated_Source\PSoC4/capsense_Processing.c **** 
 1044              		.loc 1 1301 0
 1045 003c 1F22     		movs	r2, #31
 1046 003e 1440     		ands	r4, r2
 1047              	.LVL194:
 1048 0040 1E3A     		subs	r2, r2, #30
 1049 0042 A240     		lsls	r2, r2, r4
 1050              	.LVL195:
1304:Generated_Source\PSoC4/capsense_Processing.c ****     {
 1051              		.loc 1 1304 0
 1052 0044 002D     		cmp	r5, #0
 1053 0046 07D1     		bne	.L74
1306:Generated_Source\PSoC4/capsense_Processing.c ****     }
 1054              		.loc 1 1306 0
 1055 0048 0433     		adds	r3, r3, #4
 1056              	.LVL196:
 1057 004a 9B00     		lsls	r3, r3, #2
 1058              	.LVL197:
 1059 004c 0649     		ldr	r1, .L77
 1060 004e CB18     		adds	r3, r1, r3
 1061 0050 5968     		ldr	r1, [r3, #4]
 1062 0052 9143     		bics	r1, r2
 1063 0054 5960     		str	r1, [r3, #4]
 1064 0056 06E0     		b	.L69
 1065              	.LVL198:
 1066              	.L74:
1310:Generated_Source\PSoC4/capsense_Processing.c ****     }
 1067              		.loc 1 1310 0
 1068 0058 0433     		adds	r3, r3, #4
 1069              	.LVL199:
 1070 005a 9B00     		lsls	r3, r3, #2
 1071              	.LVL200:
 1072 005c 0249     		ldr	r1, .L77
 1073 005e CB18     		adds	r3, r1, r3
 1074 0060 5968     		ldr	r1, [r3, #4]
 1075 0062 0A43     		orrs	r2, r1
 1076              	.LVL201:
 1077 0064 5A60     		str	r2, [r3, #4]
 1078              	.L69:
1312:Generated_Source\PSoC4/capsense_Processing.c **** #endif /* #if (0u != capsense_TOTAL_CSD_WIDGETS) */
 1079              		.loc 1 1312 0
 1080              		@ sp needed
 1081              	.LVL202:
 1082              	.LVL203:
 1083 0066 70BD     		pop	{r4, r5, r6, pc}
 1084              	.L78:
 1085              		.align	2
 1086              	.L77:
 1087 0068 00000000 		.word	capsense_dsRam
 1088              		.cfi_endproc
 1089              	.LFE8:
 1090              		.size	capsense_DpProcessCsdWidgetStatus, .-capsense_DpProcessCsdWidgetStatus
 1091              		.text
 1092              	.Letext0:
 1093              		.file 2 "Generated_Source\\PSoC4\\cytypes.h"
 1094              		.file 3 "c:\\program files (x86)\\cypress\\psoc creator\\4.4\\psoc creator\\import\\gnu\\arm\\5.4.
ARM GAS  C:\Users\ASUS\AppData\Local\Temp\ccuOUgOD.s 			page 57


 1095              		.file 4 "Generated_Source\\PSoC4\\capsense_Configuration.h"
 1096              		.file 5 "Generated_Source\\PSoC4\\capsense_Structure.h"
 1097              		.file 6 "c:\\program files (x86)\\cypress\\psoc creator\\4.4\\psoc creator\\import\\gnu\\arm\\5.4.
 1098              		.file 7 "Generated_Source\\PSoC4\\capsense_Filter.h"
 1099              		.file 8 "Generated_Source\\PSoC4\\CyLib.h"
 1100              		.file 9 "Generated_Source\\PSoC4\\capsense_Centroid_LL.h"
 1101              		.section	.debug_info,"",%progbits
 1102              	.Ldebug_info0:
 1103 0000 350F0000 		.4byte	0xf35
 1104 0004 0400     		.2byte	0x4
 1105 0006 00000000 		.4byte	.Ldebug_abbrev0
 1106 000a 04       		.byte	0x4
 1107 000b 01       		.uleb128 0x1
 1108 000c 71010000 		.4byte	.LASF147
 1109 0010 0C       		.byte	0xc
 1110 0011 4D080000 		.4byte	.LASF148
 1111 0015 53060000 		.4byte	.LASF149
 1112 0019 00000000 		.4byte	.Ldebug_ranges0+0
 1113 001d 00000000 		.4byte	0
 1114 0021 00000000 		.4byte	.Ldebug_line0
 1115 0025 02       		.uleb128 0x2
 1116 0026 01       		.byte	0x1
 1117 0027 06       		.byte	0x6
 1118 0028 C2080000 		.4byte	.LASF0
 1119 002c 02       		.uleb128 0x2
 1120 002d 01       		.byte	0x1
 1121 002e 08       		.byte	0x8
 1122 002f D7070000 		.4byte	.LASF1
 1123 0033 02       		.uleb128 0x2
 1124 0034 02       		.byte	0x2
 1125 0035 05       		.byte	0x5
 1126 0036 FD050000 		.4byte	.LASF2
 1127 003a 02       		.uleb128 0x2
 1128 003b 02       		.byte	0x2
 1129 003c 07       		.byte	0x7
 1130 003d D3080000 		.4byte	.LASF3
 1131 0041 02       		.uleb128 0x2
 1132 0042 04       		.byte	0x4
 1133 0043 05       		.byte	0x5
 1134 0044 07060000 		.4byte	.LASF4
 1135 0048 02       		.uleb128 0x2
 1136 0049 04       		.byte	0x4
 1137 004a 07       		.byte	0x7
 1138 004b 45070000 		.4byte	.LASF5
 1139 004f 02       		.uleb128 0x2
 1140 0050 08       		.byte	0x8
 1141 0051 05       		.byte	0x5
 1142 0052 CC030000 		.4byte	.LASF6
 1143 0056 02       		.uleb128 0x2
 1144 0057 08       		.byte	0x8
 1145 0058 07       		.byte	0x7
 1146 0059 31020000 		.4byte	.LASF7
 1147 005d 03       		.uleb128 0x3
 1148 005e 04       		.byte	0x4
 1149 005f 05       		.byte	0x5
 1150 0060 696E7400 		.ascii	"int\000"
 1151 0064 02       		.uleb128 0x2
ARM GAS  C:\Users\ASUS\AppData\Local\Temp\ccuOUgOD.s 			page 58


 1152 0065 04       		.byte	0x4
 1153 0066 07       		.byte	0x7
 1154 0067 9D000000 		.4byte	.LASF8
 1155 006b 04       		.uleb128 0x4
 1156 006c 20090000 		.4byte	.LASF9
 1157 0070 02       		.byte	0x2
 1158 0071 FC01     		.2byte	0x1fc
 1159 0073 2C000000 		.4byte	0x2c
 1160 0077 04       		.uleb128 0x4
 1161 0078 70030000 		.4byte	.LASF10
 1162 007c 02       		.byte	0x2
 1163 007d FD01     		.2byte	0x1fd
 1164 007f 3A000000 		.4byte	0x3a
 1165 0083 04       		.uleb128 0x4
 1166 0084 81040000 		.4byte	.LASF11
 1167 0088 02       		.byte	0x2
 1168 0089 FE01     		.2byte	0x1fe
 1169 008b 48000000 		.4byte	0x48
 1170 008f 04       		.uleb128 0x4
 1171 0090 03020000 		.4byte	.LASF12
 1172 0094 02       		.byte	0x2
 1173 0095 0102     		.2byte	0x201
 1174 0097 41000000 		.4byte	0x41
 1175 009b 02       		.uleb128 0x2
 1176 009c 04       		.byte	0x4
 1177 009d 04       		.byte	0x4
 1178 009e 6B010000 		.4byte	.LASF13
 1179 00a2 02       		.uleb128 0x2
 1180 00a3 08       		.byte	0x8
 1181 00a4 04       		.byte	0x4
 1182 00a5 26090000 		.4byte	.LASF14
 1183 00a9 02       		.uleb128 0x2
 1184 00aa 01       		.byte	0x1
 1185 00ab 08       		.byte	0x8
 1186 00ac 4C030000 		.4byte	.LASF15
 1187 00b0 05       		.uleb128 0x5
 1188 00b1 83000000 		.4byte	0x83
 1189 00b5 06       		.uleb128 0x6
 1190 00b6 AD020000 		.4byte	.LASF16
 1191 00ba 03       		.byte	0x3
 1192 00bb D8       		.byte	0xd8
 1193 00bc 64000000 		.4byte	0x64
 1194 00c0 02       		.uleb128 0x2
 1195 00c1 08       		.byte	0x8
 1196 00c2 04       		.byte	0x4
 1197 00c3 3F050000 		.4byte	.LASF17
 1198 00c7 02       		.uleb128 0x2
 1199 00c8 04       		.byte	0x4
 1200 00c9 07       		.byte	0x7
 1201 00ca 3C070000 		.4byte	.LASF18
 1202 00ce 07       		.uleb128 0x7
 1203 00cf 04       		.byte	0x4
 1204 00d0 04       		.uleb128 0x4
 1205 00d1 D4040000 		.4byte	.LASF19
 1206 00d5 04       		.byte	0x4
 1207 00d6 4301     		.2byte	0x143
 1208 00d8 77000000 		.4byte	0x77
ARM GAS  C:\Users\ASUS\AppData\Local\Temp\ccuOUgOD.s 			page 59


 1209 00dc 04       		.uleb128 0x4
 1210 00dd 29030000 		.4byte	.LASF20
 1211 00e1 04       		.byte	0x4
 1212 00e2 4701     		.2byte	0x147
 1213 00e4 6B000000 		.4byte	0x6b
 1214 00e8 08       		.uleb128 0x8
 1215 00e9 01       		.byte	0x1
 1216 00ea 2C000000 		.4byte	0x2c
 1217 00ee 05       		.byte	0x5
 1218 00ef 61       		.byte	0x61
 1219 00f0 1F010000 		.4byte	0x11f
 1220 00f4 09       		.uleb128 0x9
 1221 00f5 88000000 		.4byte	.LASF21
 1222 00f9 01       		.byte	0x1
 1223 00fa 09       		.uleb128 0x9
 1224 00fb 00000000 		.4byte	.LASF22
 1225 00ff 02       		.byte	0x2
 1226 0100 09       		.uleb128 0x9
 1227 0101 20070000 		.4byte	.LASF23
 1228 0105 03       		.byte	0x3
 1229 0106 09       		.uleb128 0x9
 1230 0107 1C000000 		.4byte	.LASF24
 1231 010b 04       		.byte	0x4
 1232 010c 09       		.uleb128 0x9
 1233 010d 48020000 		.4byte	.LASF25
 1234 0111 05       		.byte	0x5
 1235 0112 09       		.uleb128 0x9
 1236 0113 90050000 		.4byte	.LASF26
 1237 0117 06       		.byte	0x6
 1238 0118 09       		.uleb128 0x9
 1239 0119 BF020000 		.4byte	.LASF27
 1240 011d 07       		.byte	0x7
 1241 011e 00       		.byte	0
 1242 011f 06       		.uleb128 0x6
 1243 0120 B6000000 		.4byte	.LASF28
 1244 0124 05       		.byte	0x5
 1245 0125 69       		.byte	0x69
 1246 0126 E8000000 		.4byte	0xe8
 1247 012a 0A       		.uleb128 0xa
 1248 012b 10       		.byte	0x10
 1249 012c 05       		.byte	0x5
 1250 012d AD       		.byte	0xad
 1251 012e B7010000 		.4byte	0x1b7
 1252 0132 0B       		.uleb128 0xb
 1253 0133 77030000 		.4byte	.LASF29
 1254 0137 05       		.byte	0x5
 1255 0138 B2       		.byte	0xb2
 1256 0139 77000000 		.4byte	0x77
 1257 013d 00       		.byte	0
 1258 013e 0B       		.uleb128 0xb
 1259 013f 83070000 		.4byte	.LASF30
 1260 0143 05       		.byte	0x5
 1261 0144 B7       		.byte	0xb7
 1262 0145 D0000000 		.4byte	0xd0
 1263 0149 02       		.byte	0x2
 1264 014a 0B       		.uleb128 0xb
 1265 014b 44030000 		.4byte	.LASF31
ARM GAS  C:\Users\ASUS\AppData\Local\Temp\ccuOUgOD.s 			page 60


 1266 014f 05       		.byte	0x5
 1267 0150 BC       		.byte	0xbc
 1268 0151 6B000000 		.4byte	0x6b
 1269 0155 04       		.byte	0x4
 1270 0156 0B       		.uleb128 0xb
 1271 0157 60040000 		.4byte	.LASF32
 1272 015b 05       		.byte	0x5
 1273 015c C1       		.byte	0xc1
 1274 015d 6B000000 		.4byte	0x6b
 1275 0161 05       		.byte	0x5
 1276 0162 0B       		.uleb128 0xb
 1277 0163 B4020000 		.4byte	.LASF33
 1278 0167 05       		.byte	0x5
 1279 0168 C7       		.byte	0xc7
 1280 0169 6B000000 		.4byte	0x6b
 1281 016d 06       		.byte	0x6
 1282 016e 0B       		.uleb128 0xb
 1283 016f 1A040000 		.4byte	.LASF34
 1284 0173 05       		.byte	0x5
 1285 0174 CD       		.byte	0xcd
 1286 0175 6B000000 		.4byte	0x6b
 1287 0179 07       		.byte	0x7
 1288 017a 0B       		.uleb128 0xb
 1289 017b FB020000 		.4byte	.LASF35
 1290 017f 05       		.byte	0x5
 1291 0180 D4       		.byte	0xd4
 1292 0181 DC000000 		.4byte	0xdc
 1293 0185 08       		.byte	0x8
 1294 0186 0B       		.uleb128 0xb
 1295 0187 57070000 		.4byte	.LASF36
 1296 018b 05       		.byte	0x5
 1297 018c DB       		.byte	0xdb
 1298 018d B7010000 		.4byte	0x1b7
 1299 0191 09       		.byte	0x9
 1300 0192 0B       		.uleb128 0xb
 1301 0193 53010000 		.4byte	.LASF37
 1302 0197 05       		.byte	0x5
 1303 0198 E0       		.byte	0xe0
 1304 0199 6B000000 		.4byte	0x6b
 1305 019d 0A       		.byte	0xa
 1306 019e 0B       		.uleb128 0xb
 1307 019f BB080000 		.4byte	.LASF38
 1308 01a3 05       		.byte	0x5
 1309 01a4 E8       		.byte	0xe8
 1310 01a5 77000000 		.4byte	0x77
 1311 01a9 0C       		.byte	0xc
 1312 01aa 0B       		.uleb128 0xb
 1313 01ab C8050000 		.4byte	.LASF39
 1314 01af 05       		.byte	0x5
 1315 01b0 ED       		.byte	0xed
 1316 01b1 6B000000 		.4byte	0x6b
 1317 01b5 0E       		.byte	0xe
 1318 01b6 00       		.byte	0
 1319 01b7 0C       		.uleb128 0xc
 1320 01b8 6B000000 		.4byte	0x6b
 1321 01bc C7010000 		.4byte	0x1c7
 1322 01c0 0D       		.uleb128 0xd
ARM GAS  C:\Users\ASUS\AppData\Local\Temp\ccuOUgOD.s 			page 61


 1323 01c1 C7000000 		.4byte	0xc7
 1324 01c5 00       		.byte	0
 1325 01c6 00       		.byte	0
 1326 01c7 06       		.uleb128 0x6
 1327 01c8 6E090000 		.4byte	.LASF40
 1328 01cc 05       		.byte	0x5
 1329 01cd EE       		.byte	0xee
 1330 01ce 2A010000 		.4byte	0x12a
 1331 01d2 0A       		.uleb128 0xa
 1332 01d3 10       		.byte	0x10
 1333 01d4 05       		.byte	0x5
 1334 01d5 F3       		.byte	0xf3
 1335 01d6 68020000 		.4byte	0x268
 1336 01da 0B       		.uleb128 0xb
 1337 01db 77030000 		.4byte	.LASF29
 1338 01df 05       		.byte	0x5
 1339 01e0 F8       		.byte	0xf8
 1340 01e1 77000000 		.4byte	0x77
 1341 01e5 00       		.byte	0
 1342 01e6 0B       		.uleb128 0xb
 1343 01e7 83070000 		.4byte	.LASF30
 1344 01eb 05       		.byte	0x5
 1345 01ec FD       		.byte	0xfd
 1346 01ed D0000000 		.4byte	0xd0
 1347 01f1 02       		.byte	0x2
 1348 01f2 0E       		.uleb128 0xe
 1349 01f3 44030000 		.4byte	.LASF31
 1350 01f7 05       		.byte	0x5
 1351 01f8 0201     		.2byte	0x102
 1352 01fa 6B000000 		.4byte	0x6b
 1353 01fe 04       		.byte	0x4
 1354 01ff 0E       		.uleb128 0xe
 1355 0200 60040000 		.4byte	.LASF32
 1356 0204 05       		.byte	0x5
 1357 0205 0701     		.2byte	0x107
 1358 0207 6B000000 		.4byte	0x6b
 1359 020b 05       		.byte	0x5
 1360 020c 0E       		.uleb128 0xe
 1361 020d B4020000 		.4byte	.LASF33
 1362 0211 05       		.byte	0x5
 1363 0212 0D01     		.2byte	0x10d
 1364 0214 6B000000 		.4byte	0x6b
 1365 0218 06       		.byte	0x6
 1366 0219 0E       		.uleb128 0xe
 1367 021a 1A040000 		.4byte	.LASF34
 1368 021e 05       		.byte	0x5
 1369 021f 1301     		.2byte	0x113
 1370 0221 6B000000 		.4byte	0x6b
 1371 0225 07       		.byte	0x7
 1372 0226 0E       		.uleb128 0xe
 1373 0227 FB020000 		.4byte	.LASF35
 1374 022b 05       		.byte	0x5
 1375 022c 1A01     		.2byte	0x11a
 1376 022e DC000000 		.4byte	0xdc
 1377 0232 08       		.byte	0x8
 1378 0233 0E       		.uleb128 0xe
 1379 0234 57070000 		.4byte	.LASF36
ARM GAS  C:\Users\ASUS\AppData\Local\Temp\ccuOUgOD.s 			page 62


 1380 0238 05       		.byte	0x5
 1381 0239 2101     		.2byte	0x121
 1382 023b B7010000 		.4byte	0x1b7
 1383 023f 09       		.byte	0x9
 1384 0240 0E       		.uleb128 0xe
 1385 0241 53010000 		.4byte	.LASF37
 1386 0245 05       		.byte	0x5
 1387 0246 2601     		.2byte	0x126
 1388 0248 6B000000 		.4byte	0x6b
 1389 024c 0A       		.byte	0xa
 1390 024d 0E       		.uleb128 0xe
 1391 024e BB080000 		.4byte	.LASF38
 1392 0252 05       		.byte	0x5
 1393 0253 2E01     		.2byte	0x12e
 1394 0255 77000000 		.4byte	0x77
 1395 0259 0C       		.byte	0xc
 1396 025a 0E       		.uleb128 0xe
 1397 025b C8050000 		.4byte	.LASF39
 1398 025f 05       		.byte	0x5
 1399 0260 3301     		.2byte	0x133
 1400 0262 6B000000 		.4byte	0x6b
 1401 0266 0E       		.byte	0xe
 1402 0267 00       		.byte	0
 1403 0268 04       		.uleb128 0x4
 1404 0269 DA030000 		.4byte	.LASF41
 1405 026d 05       		.byte	0x5
 1406 026e 3401     		.2byte	0x134
 1407 0270 D2010000 		.4byte	0x1d2
 1408 0274 0F       		.uleb128 0xf
 1409 0275 12       		.byte	0x12
 1410 0276 05       		.byte	0x5
 1411 0277 3901     		.2byte	0x139
 1412 0279 1A030000 		.4byte	0x31a
 1413 027d 0E       		.uleb128 0xe
 1414 027e 77030000 		.4byte	.LASF29
 1415 0282 05       		.byte	0x5
 1416 0283 3E01     		.2byte	0x13e
 1417 0285 77000000 		.4byte	0x77
 1418 0289 00       		.byte	0
 1419 028a 0E       		.uleb128 0xe
 1420 028b 83070000 		.4byte	.LASF30
 1421 028f 05       		.byte	0x5
 1422 0290 4301     		.2byte	0x143
 1423 0292 D0000000 		.4byte	0xd0
 1424 0296 02       		.byte	0x2
 1425 0297 0E       		.uleb128 0xe
 1426 0298 44030000 		.4byte	.LASF31
 1427 029c 05       		.byte	0x5
 1428 029d 4801     		.2byte	0x148
 1429 029f 6B000000 		.4byte	0x6b
 1430 02a3 04       		.byte	0x4
 1431 02a4 0E       		.uleb128 0xe
 1432 02a5 60040000 		.4byte	.LASF32
 1433 02a9 05       		.byte	0x5
 1434 02aa 4D01     		.2byte	0x14d
 1435 02ac 6B000000 		.4byte	0x6b
 1436 02b0 05       		.byte	0x5
ARM GAS  C:\Users\ASUS\AppData\Local\Temp\ccuOUgOD.s 			page 63


 1437 02b1 0E       		.uleb128 0xe
 1438 02b2 B4020000 		.4byte	.LASF33
 1439 02b6 05       		.byte	0x5
 1440 02b7 5301     		.2byte	0x153
 1441 02b9 6B000000 		.4byte	0x6b
 1442 02bd 06       		.byte	0x6
 1443 02be 0E       		.uleb128 0xe
 1444 02bf 1A040000 		.4byte	.LASF34
 1445 02c3 05       		.byte	0x5
 1446 02c4 5901     		.2byte	0x159
 1447 02c6 6B000000 		.4byte	0x6b
 1448 02ca 07       		.byte	0x7
 1449 02cb 0E       		.uleb128 0xe
 1450 02cc FB020000 		.4byte	.LASF35
 1451 02d0 05       		.byte	0x5
 1452 02d1 6001     		.2byte	0x160
 1453 02d3 DC000000 		.4byte	0xdc
 1454 02d7 08       		.byte	0x8
 1455 02d8 0E       		.uleb128 0xe
 1456 02d9 57070000 		.4byte	.LASF36
 1457 02dd 05       		.byte	0x5
 1458 02de 6701     		.2byte	0x167
 1459 02e0 B7010000 		.4byte	0x1b7
 1460 02e4 09       		.byte	0x9
 1461 02e5 0E       		.uleb128 0xe
 1462 02e6 53010000 		.4byte	.LASF37
 1463 02ea 05       		.byte	0x5
 1464 02eb 6C01     		.2byte	0x16c
 1465 02ed 6B000000 		.4byte	0x6b
 1466 02f1 0A       		.byte	0xa
 1467 02f2 0E       		.uleb128 0xe
 1468 02f3 BB080000 		.4byte	.LASF38
 1469 02f7 05       		.byte	0x5
 1470 02f8 7401     		.2byte	0x174
 1471 02fa 77000000 		.4byte	0x77
 1472 02fe 0C       		.byte	0xc
 1473 02ff 0E       		.uleb128 0xe
 1474 0300 C8050000 		.4byte	.LASF39
 1475 0304 05       		.byte	0x5
 1476 0305 7901     		.2byte	0x179
 1477 0307 6B000000 		.4byte	0x6b
 1478 030b 0E       		.byte	0xe
 1479 030c 0E       		.uleb128 0xe
 1480 030d 8A090000 		.4byte	.LASF42
 1481 0311 05       		.byte	0x5
 1482 0312 7E01     		.2byte	0x17e
 1483 0314 1A030000 		.4byte	0x31a
 1484 0318 10       		.byte	0x10
 1485 0319 00       		.byte	0
 1486 031a 0C       		.uleb128 0xc
 1487 031b 77000000 		.4byte	0x77
 1488 031f 2A030000 		.4byte	0x32a
 1489 0323 0D       		.uleb128 0xd
 1490 0324 C7000000 		.4byte	0xc7
 1491 0328 00       		.byte	0
 1492 0329 00       		.byte	0
 1493 032a 04       		.uleb128 0x4
ARM GAS  C:\Users\ASUS\AppData\Local\Temp\ccuOUgOD.s 			page 64


 1494 032b 11050000 		.4byte	.LASF43
 1495 032f 05       		.byte	0x5
 1496 0330 7F01     		.2byte	0x17f
 1497 0332 74020000 		.4byte	0x274
 1498 0336 0F       		.uleb128 0xf
 1499 0337 42       		.byte	0x42
 1500 0338 05       		.byte	0x5
 1501 0339 8501     		.2byte	0x185
 1502 033b 74030000 		.4byte	0x374
 1503 033f 0E       		.uleb128 0xe
 1504 0340 06030000 		.4byte	.LASF44
 1505 0344 05       		.byte	0x5
 1506 0345 8A01     		.2byte	0x18a
 1507 0347 68020000 		.4byte	0x268
 1508 034b 00       		.byte	0
 1509 034c 0E       		.uleb128 0xe
 1510 034d 0B030000 		.4byte	.LASF45
 1511 0351 05       		.byte	0x5
 1512 0352 8F01     		.2byte	0x18f
 1513 0354 68020000 		.4byte	0x268
 1514 0358 10       		.byte	0x10
 1515 0359 0E       		.uleb128 0xe
 1516 035a 10030000 		.4byte	.LASF46
 1517 035e 05       		.byte	0x5
 1518 035f 9401     		.2byte	0x194
 1519 0361 68020000 		.4byte	0x268
 1520 0365 20       		.byte	0x20
 1521 0366 0E       		.uleb128 0xe
 1522 0367 1B060000 		.4byte	.LASF47
 1523 036b 05       		.byte	0x5
 1524 036c 9901     		.2byte	0x199
 1525 036e 2A030000 		.4byte	0x32a
 1526 0372 30       		.byte	0x30
 1527 0373 00       		.byte	0
 1528 0374 04       		.uleb128 0x4
 1529 0375 B8040000 		.4byte	.LASF48
 1530 0379 05       		.byte	0x5
 1531 037a 9A01     		.2byte	0x19a
 1532 037c 36030000 		.4byte	0x336
 1533 0380 0F       		.uleb128 0xf
 1534 0381 0A       		.byte	0xa
 1535 0382 05       		.byte	0x5
 1536 0383 A001     		.2byte	0x1a0
 1537 0385 D8030000 		.4byte	0x3d8
 1538 0389 10       		.uleb128 0x10
 1539 038a 72617700 		.ascii	"raw\000"
 1540 038e 05       		.byte	0x5
 1541 038f A501     		.2byte	0x1a5
 1542 0391 1A030000 		.4byte	0x31a
 1543 0395 00       		.byte	0
 1544 0396 0E       		.uleb128 0xe
 1545 0397 CE080000 		.4byte	.LASF49
 1546 039b 05       		.byte	0x5
 1547 039c AA01     		.2byte	0x1aa
 1548 039e 1A030000 		.4byte	0x31a
 1549 03a2 02       		.byte	0x2
 1550 03a3 0E       		.uleb128 0xe
ARM GAS  C:\Users\ASUS\AppData\Local\Temp\ccuOUgOD.s 			page 65


 1551 03a4 AA070000 		.4byte	.LASF50
 1552 03a8 05       		.byte	0x5
 1553 03a9 B001     		.2byte	0x1b0
 1554 03ab B7010000 		.4byte	0x1b7
 1555 03af 04       		.byte	0x4
 1556 03b0 0E       		.uleb128 0xe
 1557 03b1 28060000 		.4byte	.LASF51
 1558 03b5 05       		.byte	0x5
 1559 03b6 B501     		.2byte	0x1b5
 1560 03b8 D0000000 		.4byte	0xd0
 1561 03bc 06       		.byte	0x6
 1562 03bd 0E       		.uleb128 0xe
 1563 03be 2D090000 		.4byte	.LASF52
 1564 03c2 05       		.byte	0x5
 1565 03c3 BA01     		.2byte	0x1ba
 1566 03c5 D8030000 		.4byte	0x3d8
 1567 03c9 08       		.byte	0x8
 1568 03ca 0E       		.uleb128 0xe
 1569 03cb 92030000 		.4byte	.LASF53
 1570 03cf 05       		.byte	0x5
 1571 03d0 BF01     		.2byte	0x1bf
 1572 03d2 B7010000 		.4byte	0x1b7
 1573 03d6 09       		.byte	0x9
 1574 03d7 00       		.byte	0
 1575 03d8 0C       		.uleb128 0xc
 1576 03d9 DC000000 		.4byte	0xdc
 1577 03dd E8030000 		.4byte	0x3e8
 1578 03e1 0D       		.uleb128 0xd
 1579 03e2 C7000000 		.4byte	0xc7
 1580 03e6 00       		.byte	0
 1581 03e7 00       		.byte	0
 1582 03e8 04       		.uleb128 0x4
 1583 03e9 B3060000 		.4byte	.LASF54
 1584 03ed 05       		.byte	0x5
 1585 03ee C001     		.2byte	0x1c0
 1586 03f0 80030000 		.4byte	0x380
 1587 03f4 0F       		.uleb128 0xf
 1588 03f5 50       		.byte	0x50
 1589 03f6 05       		.byte	0x5
 1590 03f7 C601     		.2byte	0x1c6
 1591 03f9 32040000 		.4byte	0x432
 1592 03fd 0E       		.uleb128 0xe
 1593 03fe 06030000 		.4byte	.LASF44
 1594 0402 05       		.byte	0x5
 1595 0403 CB01     		.2byte	0x1cb
 1596 0405 32040000 		.4byte	0x432
 1597 0409 00       		.byte	0
 1598 040a 0E       		.uleb128 0xe
 1599 040b 0B030000 		.4byte	.LASF45
 1600 040f 05       		.byte	0x5
 1601 0410 D001     		.2byte	0x1d0
 1602 0412 32040000 		.4byte	0x432
 1603 0416 0A       		.byte	0xa
 1604 0417 0E       		.uleb128 0xe
 1605 0418 10030000 		.4byte	.LASF46
 1606 041c 05       		.byte	0x5
 1607 041d D501     		.2byte	0x1d5
ARM GAS  C:\Users\ASUS\AppData\Local\Temp\ccuOUgOD.s 			page 66


 1608 041f 32040000 		.4byte	0x432
 1609 0423 14       		.byte	0x14
 1610 0424 0E       		.uleb128 0xe
 1611 0425 1B060000 		.4byte	.LASF47
 1612 0429 05       		.byte	0x5
 1613 042a DA01     		.2byte	0x1da
 1614 042c 42040000 		.4byte	0x442
 1615 0430 1E       		.byte	0x1e
 1616 0431 00       		.byte	0
 1617 0432 0C       		.uleb128 0xc
 1618 0433 E8030000 		.4byte	0x3e8
 1619 0437 42040000 		.4byte	0x442
 1620 043b 0D       		.uleb128 0xd
 1621 043c C7000000 		.4byte	0xc7
 1622 0440 00       		.byte	0
 1623 0441 00       		.byte	0
 1624 0442 0C       		.uleb128 0xc
 1625 0443 E8030000 		.4byte	0x3e8
 1626 0447 52040000 		.4byte	0x452
 1627 044b 0D       		.uleb128 0xd
 1628 044c C7000000 		.4byte	0xc7
 1629 0450 04       		.byte	0x4
 1630 0451 00       		.byte	0
 1631 0452 04       		.uleb128 0x4
 1632 0453 E6000000 		.4byte	.LASF55
 1633 0457 05       		.byte	0x5
 1634 0458 DB01     		.2byte	0x1db
 1635 045a F4030000 		.4byte	0x3f4
 1636 045e 0F       		.uleb128 0xf
 1637 045f BC       		.byte	0xbc
 1638 0460 05       		.byte	0x5
 1639 0461 E101     		.2byte	0x1e1
 1640 0463 79050000 		.4byte	0x579
 1641 0467 0E       		.uleb128 0xe
 1642 0468 7C050000 		.4byte	.LASF56
 1643 046c 05       		.byte	0x5
 1644 046d E801     		.2byte	0x1e8
 1645 046f 77000000 		.4byte	0x77
 1646 0473 00       		.byte	0
 1647 0474 0E       		.uleb128 0xe
 1648 0475 5C090000 		.4byte	.LASF57
 1649 0479 05       		.byte	0x5
 1650 047a ED01     		.2byte	0x1ed
 1651 047c 77000000 		.4byte	0x77
 1652 0480 02       		.byte	0x2
 1653 0481 0E       		.uleb128 0xe
 1654 0482 CC000000 		.4byte	.LASF58
 1655 0486 05       		.byte	0x5
 1656 0487 F201     		.2byte	0x1f2
 1657 0489 77000000 		.4byte	0x77
 1658 048d 04       		.byte	0x4
 1659 048e 0E       		.uleb128 0xe
 1660 048f 2D060000 		.4byte	.LASF59
 1661 0493 05       		.byte	0x5
 1662 0494 F801     		.2byte	0x1f8
 1663 0496 77000000 		.4byte	0x77
 1664 049a 06       		.byte	0x6
ARM GAS  C:\Users\ASUS\AppData\Local\Temp\ccuOUgOD.s 			page 67


 1665 049b 0E       		.uleb128 0xe
 1666 049c AA000000 		.4byte	.LASF60
 1667 04a0 05       		.byte	0x5
 1668 04a1 FD01     		.2byte	0x1fd
 1669 04a3 77000000 		.4byte	0x77
 1670 04a7 08       		.byte	0x8
 1671 04a8 0E       		.uleb128 0xe
 1672 04a9 82030000 		.4byte	.LASF61
 1673 04ad 05       		.byte	0x5
 1674 04ae 0202     		.2byte	0x202
 1675 04b0 B0000000 		.4byte	0xb0
 1676 04b4 0C       		.byte	0xc
 1677 04b5 0E       		.uleb128 0xe
 1678 04b6 10060000 		.4byte	.LASF62
 1679 04ba 05       		.byte	0x5
 1680 04bb 0802     		.2byte	0x208
 1681 04bd 79050000 		.4byte	0x579
 1682 04c1 10       		.byte	0x10
 1683 04c2 0E       		.uleb128 0xe
 1684 04c3 FC060000 		.4byte	.LASF63
 1685 04c7 05       		.byte	0x5
 1686 04c8 0F02     		.2byte	0x20f
 1687 04ca 79050000 		.4byte	0x579
 1688 04ce 14       		.byte	0x14
 1689 04cf 0E       		.uleb128 0xe
 1690 04d0 BE050000 		.4byte	.LASF64
 1691 04d4 05       		.byte	0x5
 1692 04d5 1F02     		.2byte	0x21f
 1693 04d7 89050000 		.4byte	0x589
 1694 04db 18       		.byte	0x18
 1695 04dc 0E       		.uleb128 0xe
 1696 04dd 69040000 		.4byte	.LASF65
 1697 04e1 05       		.byte	0x5
 1698 04e2 2502     		.2byte	0x225
 1699 04e4 77000000 		.4byte	0x77
 1700 04e8 1C       		.byte	0x1c
 1701 04e9 0E       		.uleb128 0xe
 1702 04ea A3020000 		.4byte	.LASF66
 1703 04ee 05       		.byte	0x5
 1704 04ef 2A02     		.2byte	0x22a
 1705 04f1 6B000000 		.4byte	0x6b
 1706 04f5 1E       		.byte	0x1e
 1707 04f6 0E       		.uleb128 0xe
 1708 04f7 0C080000 		.4byte	.LASF67
 1709 04fb 05       		.byte	0x5
 1710 04fc 2F02     		.2byte	0x22f
 1711 04fe 6B000000 		.4byte	0x6b
 1712 0502 1F       		.byte	0x1f
 1713 0503 0E       		.uleb128 0xe
 1714 0504 34040000 		.4byte	.LASF68
 1715 0508 05       		.byte	0x5
 1716 0509 3402     		.2byte	0x234
 1717 050b 74030000 		.4byte	0x374
 1718 050f 20       		.byte	0x20
 1719 0510 0E       		.uleb128 0xe
 1720 0511 22020000 		.4byte	.LASF69
 1721 0515 05       		.byte	0x5
ARM GAS  C:\Users\ASUS\AppData\Local\Temp\ccuOUgOD.s 			page 68


 1722 0516 3902     		.2byte	0x239
 1723 0518 52040000 		.4byte	0x452
 1724 051c 62       		.byte	0x62
 1725 051d 0E       		.uleb128 0xe
 1726 051e 50000000 		.4byte	.LASF70
 1727 0522 05       		.byte	0x5
 1728 0523 3E02     		.2byte	0x23e
 1729 0525 6B000000 		.4byte	0x6b
 1730 0529 B2       		.byte	0xb2
 1731 052a 0E       		.uleb128 0xe
 1732 052b 6A020000 		.4byte	.LASF71
 1733 052f 05       		.byte	0x5
 1734 0530 4302     		.2byte	0x243
 1735 0532 6B000000 		.4byte	0x6b
 1736 0536 B3       		.byte	0xb3
 1737 0537 0E       		.uleb128 0xe
 1738 0538 69050000 		.4byte	.LASF72
 1739 053c 05       		.byte	0x5
 1740 053d 4802     		.2byte	0x248
 1741 053f 77000000 		.4byte	0x77
 1742 0543 B4       		.byte	0xb4
 1743 0544 0E       		.uleb128 0xe
 1744 0545 49040000 		.4byte	.LASF73
 1745 0549 05       		.byte	0x5
 1746 054a 4D02     		.2byte	0x24d
 1747 054c 1A030000 		.4byte	0x31a
 1748 0550 B6       		.byte	0xb6
 1749 0551 0E       		.uleb128 0xe
 1750 0552 D4000000 		.4byte	.LASF74
 1751 0556 05       		.byte	0x5
 1752 0557 5202     		.2byte	0x252
 1753 0559 6B000000 		.4byte	0x6b
 1754 055d B8       		.byte	0xb8
 1755 055e 0E       		.uleb128 0xe
 1756 055f 4B050000 		.4byte	.LASF75
 1757 0563 05       		.byte	0x5
 1758 0564 5702     		.2byte	0x257
 1759 0566 6B000000 		.4byte	0x6b
 1760 056a B9       		.byte	0xb9
 1761 056b 0E       		.uleb128 0xe
 1762 056c 16080000 		.4byte	.LASF76
 1763 0570 05       		.byte	0x5
 1764 0571 5C02     		.2byte	0x25c
 1765 0573 6B000000 		.4byte	0x6b
 1766 0577 BA       		.byte	0xba
 1767 0578 00       		.byte	0
 1768 0579 0C       		.uleb128 0xc
 1769 057a 83000000 		.4byte	0x83
 1770 057e 89050000 		.4byte	0x589
 1771 0582 0D       		.uleb128 0xd
 1772 0583 C7000000 		.4byte	0xc7
 1773 0587 00       		.byte	0
 1774 0588 00       		.byte	0
 1775 0589 0C       		.uleb128 0xc
 1776 058a 6B000000 		.4byte	0x6b
 1777 058e 99050000 		.4byte	0x599
 1778 0592 0D       		.uleb128 0xd
ARM GAS  C:\Users\ASUS\AppData\Local\Temp\ccuOUgOD.s 			page 69


 1779 0593 C7000000 		.4byte	0xc7
 1780 0597 03       		.byte	0x3
 1781 0598 00       		.byte	0
 1782 0599 04       		.uleb128 0x4
 1783 059a 31080000 		.4byte	.LASF77
 1784 059e 05       		.byte	0x5
 1785 059f 5D02     		.2byte	0x25d
 1786 05a1 5E040000 		.4byte	0x45e
 1787 05a5 0F       		.uleb128 0xf
 1788 05a6 28       		.byte	0x28
 1789 05a7 05       		.byte	0x5
 1790 05a8 C402     		.2byte	0x2c4
 1791 05aa 65060000 		.4byte	0x665
 1792 05ae 0E       		.uleb128 0xe
 1793 05af 0B090000 		.4byte	.LASF78
 1794 05b3 05       		.byte	0x5
 1795 05b4 CD02     		.2byte	0x2cd
 1796 05b6 65060000 		.4byte	0x665
 1797 05ba 00       		.byte	0
 1798 05bb 0E       		.uleb128 0xe
 1799 05bc 25080000 		.4byte	.LASF79
 1800 05c0 05       		.byte	0x5
 1801 05c1 D402     		.2byte	0x2d4
 1802 05c3 CE000000 		.4byte	0xce
 1803 05c7 04       		.byte	0x4
 1804 05c8 0E       		.uleb128 0xe
 1805 05c9 85050000 		.4byte	.LASF80
 1806 05cd 05       		.byte	0x5
 1807 05ce DA02     		.2byte	0x2da
 1808 05d0 6C060000 		.4byte	0x66c
 1809 05d4 08       		.byte	0x8
 1810 05d5 0E       		.uleb128 0xe
 1811 05d6 9A040000 		.4byte	.LASF81
 1812 05da 05       		.byte	0x5
 1813 05db E002     		.2byte	0x2e0
 1814 05dd CE000000 		.4byte	0xce
 1815 05e1 0C       		.byte	0xc
 1816 05e2 0E       		.uleb128 0xe
 1817 05e3 5F070000 		.4byte	.LASF82
 1818 05e7 05       		.byte	0x5
 1819 05e8 E702     		.2byte	0x2e7
 1820 05ea 72060000 		.4byte	0x672
 1821 05ee 10       		.byte	0x10
 1822 05ef 0E       		.uleb128 0xe
 1823 05f0 FF070000 		.4byte	.LASF83
 1824 05f4 05       		.byte	0x5
 1825 05f5 EC02     		.2byte	0x2ec
 1826 05f7 83000000 		.4byte	0x83
 1827 05fb 14       		.byte	0x14
 1828 05fc 0E       		.uleb128 0xe
 1829 05fd 1D030000 		.4byte	.LASF84
 1830 0601 05       		.byte	0x5
 1831 0602 F302     		.2byte	0x2f3
 1832 0604 77000000 		.4byte	0x77
 1833 0608 18       		.byte	0x18
 1834 0609 0E       		.uleb128 0xe
 1835 060a 8B020000 		.4byte	.LASF85
ARM GAS  C:\Users\ASUS\AppData\Local\Temp\ccuOUgOD.s 			page 70


 1836 060e 05       		.byte	0x5
 1837 060f FA02     		.2byte	0x2fa
 1838 0611 6B000000 		.4byte	0x6b
 1839 0615 1A       		.byte	0x1a
 1840 0616 0E       		.uleb128 0xe
 1841 0617 C0030000 		.4byte	.LASF86
 1842 061b 05       		.byte	0x5
 1843 061c 0003     		.2byte	0x300
 1844 061e 6B000000 		.4byte	0x6b
 1845 0622 1B       		.byte	0x1b
 1846 0623 0E       		.uleb128 0xe
 1847 0624 E5060000 		.4byte	.LASF87
 1848 0628 05       		.byte	0x5
 1849 0629 0A03     		.2byte	0x30a
 1850 062b 6B000000 		.4byte	0x6b
 1851 062f 1C       		.byte	0x1c
 1852 0630 0E       		.uleb128 0xe
 1853 0631 45080000 		.4byte	.LASF88
 1854 0635 05       		.byte	0x5
 1855 0636 1203     		.2byte	0x312
 1856 0638 6B000000 		.4byte	0x6b
 1857 063c 1D       		.byte	0x1d
 1858 063d 0E       		.uleb128 0xe
 1859 063e D5050000 		.4byte	.LASF89
 1860 0642 05       		.byte	0x5
 1861 0643 1703     		.2byte	0x317
 1862 0645 77000000 		.4byte	0x77
 1863 0649 1E       		.byte	0x1e
 1864 064a 0E       		.uleb128 0xe
 1865 064b 6F070000 		.4byte	.LASF90
 1866 064f 05       		.byte	0x5
 1867 0650 2003     		.2byte	0x320
 1868 0652 83000000 		.4byte	0x83
 1869 0656 20       		.byte	0x20
 1870 0657 0E       		.uleb128 0xe
 1871 0658 44010000 		.4byte	.LASF91
 1872 065c 05       		.byte	0x5
 1873 065d 2503     		.2byte	0x325
 1874 065f 6B000000 		.4byte	0x6b
 1875 0663 24       		.byte	0x24
 1876 0664 00       		.byte	0
 1877 0665 11       		.uleb128 0x11
 1878 0666 04       		.byte	0x4
 1879 0667 6B060000 		.4byte	0x66b
 1880 066b 12       		.uleb128 0x12
 1881 066c 11       		.uleb128 0x11
 1882 066d 04       		.byte	0x4
 1883 066e E8030000 		.4byte	0x3e8
 1884 0672 11       		.uleb128 0x11
 1885 0673 04       		.byte	0x4
 1886 0674 6B000000 		.4byte	0x6b
 1887 0678 04       		.uleb128 0x4
 1888 0679 09020000 		.4byte	.LASF92
 1889 067d 05       		.byte	0x5
 1890 067e 2603     		.2byte	0x326
 1891 0680 A5050000 		.4byte	0x5a5
 1892 0684 0F       		.uleb128 0xf
ARM GAS  C:\Users\ASUS\AppData\Local\Temp\ccuOUgOD.s 			page 71


 1893 0685 A0       		.byte	0xa0
 1894 0686 05       		.byte	0x5
 1895 0687 2C03     		.2byte	0x32c
 1896 0689 9B060000 		.4byte	0x69b
 1897 068d 0E       		.uleb128 0xe
 1898 068e 93090000 		.4byte	.LASF93
 1899 0692 05       		.byte	0x5
 1900 0693 3103     		.2byte	0x331
 1901 0695 9B060000 		.4byte	0x69b
 1902 0699 00       		.byte	0
 1903 069a 00       		.byte	0
 1904 069b 0C       		.uleb128 0xc
 1905 069c 78060000 		.4byte	0x678
 1906 06a0 AB060000 		.4byte	0x6ab
 1907 06a4 0D       		.uleb128 0xd
 1908 06a5 C7000000 		.4byte	0xc7
 1909 06a9 03       		.byte	0x3
 1910 06aa 00       		.byte	0
 1911 06ab 04       		.uleb128 0x4
 1912 06ac 46090000 		.4byte	.LASF94
 1913 06b0 05       		.byte	0x5
 1914 06b1 3203     		.2byte	0x332
 1915 06b3 84060000 		.4byte	0x684
 1916 06b7 0F       		.uleb128 0xf
 1917 06b8 02       		.byte	0x2
 1918 06b9 05       		.byte	0x5
 1919 06ba 6703     		.2byte	0x367
 1920 06bc CE060000 		.4byte	0x6ce
 1921 06c0 0E       		.uleb128 0xe
 1922 06c1 18090000 		.4byte	.LASF95
 1923 06c5 05       		.byte	0x5
 1924 06c6 6903     		.2byte	0x369
 1925 06c8 77000000 		.4byte	0x77
 1926 06cc 00       		.byte	0
 1927 06cd 00       		.byte	0
 1928 06ce 04       		.uleb128 0x4
 1929 06cf E6080000 		.4byte	.LASF96
 1930 06d3 05       		.byte	0x5
 1931 06d4 6A03     		.2byte	0x36a
 1932 06d6 B7060000 		.4byte	0x6b7
 1933 06da 0F       		.uleb128 0xf
 1934 06db 02       		.byte	0x2
 1935 06dc 05       		.byte	0x5
 1936 06dd 6F03     		.2byte	0x36f
 1937 06df F1060000 		.4byte	0x6f1
 1938 06e3 0E       		.uleb128 0xe
 1939 06e4 94020000 		.4byte	.LASF97
 1940 06e8 05       		.byte	0x5
 1941 06e9 7403     		.2byte	0x374
 1942 06eb F1060000 		.4byte	0x6f1
 1943 06ef 00       		.byte	0
 1944 06f0 00       		.byte	0
 1945 06f1 0C       		.uleb128 0xc
 1946 06f2 CE060000 		.4byte	0x6ce
 1947 06f6 01070000 		.4byte	0x701
 1948 06fa 0D       		.uleb128 0xd
 1949 06fb C7000000 		.4byte	0xc7
ARM GAS  C:\Users\ASUS\AppData\Local\Temp\ccuOUgOD.s 			page 72


 1950 06ff 00       		.byte	0
 1951 0700 00       		.byte	0
 1952 0701 04       		.uleb128 0x4
 1953 0702 36060000 		.4byte	.LASF98
 1954 0706 05       		.byte	0x5
 1955 0707 7503     		.2byte	0x375
 1956 0709 DA060000 		.4byte	0x6da
 1957 070d 13       		.uleb128 0x13
 1958 070e 04       		.byte	0x4
 1959 070f 05       		.byte	0x5
 1960 0710 7A03     		.2byte	0x37a
 1961 0712 2F070000 		.4byte	0x72f
 1962 0716 14       		.uleb128 0x14
 1963 0717 70747200 		.ascii	"ptr\000"
 1964 071b 05       		.byte	0x5
 1965 071c 7F03     		.2byte	0x37f
 1966 071e CE000000 		.4byte	0xce
 1967 0722 15       		.uleb128 0x15
 1968 0723 5F020000 		.4byte	.LASF99
 1969 0727 05       		.byte	0x5
 1970 0728 8403     		.2byte	0x384
 1971 072a 2F070000 		.4byte	0x72f
 1972 072e 00       		.byte	0
 1973 072f 11       		.uleb128 0x11
 1974 0730 04       		.byte	0x4
 1975 0731 01070000 		.4byte	0x701
 1976 0735 04       		.uleb128 0x4
 1977 0736 E1050000 		.4byte	.LASF100
 1978 073a 05       		.byte	0x5
 1979 073b 8503     		.2byte	0x385
 1980 073d 0D070000 		.4byte	0x70d
 1981 0741 16       		.uleb128 0x16
 1982 0742 5A030000 		.4byte	.LASF102
 1983 0746 01       		.byte	0x1
 1984 0747 3A01     		.2byte	0x13a
 1985 0749 03       		.byte	0x3
 1986 074a 73070000 		.4byte	0x773
 1987 074e 17       		.uleb128 0x17
 1988 074f F2070000 		.4byte	.LASF104
 1989 0753 01       		.byte	0x1
 1990 0754 3A01     		.2byte	0x13a
 1991 0756 73070000 		.4byte	0x773
 1992 075a 18       		.uleb128 0x18
 1993 075b 69647800 		.ascii	"idx\000"
 1994 075f 01       		.byte	0x1
 1995 0760 3C01     		.2byte	0x13c
 1996 0762 83000000 		.4byte	0x83
 1997 0766 19       		.uleb128 0x19
 1998 0767 3D040000 		.4byte	.LASF101
 1999 076b 01       		.byte	0x1
 2000 076c 3D01     		.2byte	0x13d
 2001 076e 7E070000 		.4byte	0x77e
 2002 0772 00       		.byte	0
 2003 0773 11       		.uleb128 0x11
 2004 0774 04       		.byte	0x4
 2005 0775 79070000 		.4byte	0x779
 2006 0779 1A       		.uleb128 0x1a
ARM GAS  C:\Users\ASUS\AppData\Local\Temp\ccuOUgOD.s 			page 73


 2007 077a 78060000 		.4byte	0x678
 2008 077e 11       		.uleb128 0x11
 2009 077f 04       		.byte	0x4
 2010 0780 2A030000 		.4byte	0x32a
 2011 0784 16       		.uleb128 0x16
 2012 0785 88040000 		.4byte	.LASF103
 2013 0789 01       		.byte	0x1
 2014 078a B207     		.2byte	0x7b2
 2015 078c 03       		.byte	0x3
 2016 078d CE070000 		.4byte	0x7ce
 2017 0791 17       		.uleb128 0x17
 2018 0792 38050000 		.4byte	.LASF105
 2019 0796 01       		.byte	0x1
 2020 0797 B307     		.2byte	0x7b3
 2021 0799 CE070000 		.4byte	0x7ce
 2022 079d 17       		.uleb128 0x17
 2023 079e CC070000 		.4byte	.LASF106
 2024 07a2 01       		.byte	0x1
 2025 07a3 B407     		.2byte	0x7b4
 2026 07a5 83000000 		.4byte	0x83
 2027 07a9 17       		.uleb128 0x17
 2028 07aa F2070000 		.4byte	.LASF104
 2029 07ae 01       		.byte	0x1
 2030 07af B507     		.2byte	0x7b5
 2031 07b1 73070000 		.4byte	0x773
 2032 07b5 17       		.uleb128 0x17
 2033 07b6 56050000 		.4byte	.LASF107
 2034 07ba 01       		.byte	0x1
 2035 07bb B607     		.2byte	0x7b6
 2036 07bd 7E070000 		.4byte	0x77e
 2037 07c1 19       		.uleb128 0x19
 2038 07c2 51030000 		.4byte	.LASF108
 2039 07c6 01       		.byte	0x1
 2040 07c7 B807     		.2byte	0x7b8
 2041 07c9 83000000 		.4byte	0x83
 2042 07cd 00       		.byte	0
 2043 07ce 11       		.uleb128 0x11
 2044 07cf 04       		.byte	0x4
 2045 07d0 D4070000 		.4byte	0x7d4
 2046 07d4 1A       		.uleb128 0x1a
 2047 07d5 77000000 		.4byte	0x77
 2048 07d9 1B       		.uleb128 0x1b
 2049 07da A8050000 		.4byte	.LASF111
 2050 07de 01       		.byte	0x1
 2051 07df 9001     		.2byte	0x190
 2052 07e1 00000000 		.4byte	.LFB2
 2053 07e5 84000000 		.4byte	.LFE2-.LFB2
 2054 07e9 01       		.uleb128 0x1
 2055 07ea 9C       		.byte	0x9c
 2056 07eb 73080000 		.4byte	0x873
 2057 07ef 1C       		.uleb128 0x1c
 2058 07f0 3F000000 		.4byte	.LASF109
 2059 07f4 01       		.byte	0x1
 2060 07f5 9201     		.2byte	0x192
 2061 07f7 83000000 		.4byte	0x83
 2062 07fb 00000000 		.4byte	.LLST0
 2063 07ff 1C       		.uleb128 0x1c
ARM GAS  C:\Users\ASUS\AppData\Local\Temp\ccuOUgOD.s 			page 74


 2064 0800 3B090000 		.4byte	.LASF110
 2065 0804 01       		.byte	0x1
 2066 0805 9301     		.2byte	0x193
 2067 0807 1F010000 		.4byte	0x11f
 2068 080b 4D000000 		.4byte	.LLST1
 2069 080f 1C       		.uleb128 0x1c
 2070 0810 56050000 		.4byte	.LASF107
 2071 0814 01       		.byte	0x1
 2072 0815 9401     		.2byte	0x194
 2073 0817 73080000 		.4byte	0x873
 2074 081b 6B000000 		.4byte	.LLST2
 2075 081f 1C       		.uleb128 0x1c
 2076 0820 F2070000 		.4byte	.LASF104
 2077 0824 01       		.byte	0x1
 2078 0825 9501     		.2byte	0x195
 2079 0827 73070000 		.4byte	0x773
 2080 082b 7E000000 		.4byte	.LLST3
 2081 082f 1D       		.uleb128 0x1d
 2082 0830 41070000 		.4byte	0x741
 2083 0834 58000000 		.4byte	.LBB6
 2084 0838 18000000 		.4byte	.LBE6-.LBB6
 2085 083c 01       		.byte	0x1
 2086 083d DA01     		.2byte	0x1da
 2087 083f 69080000 		.4byte	0x869
 2088 0843 1E       		.uleb128 0x1e
 2089 0844 4E070000 		.4byte	0x74e
 2090 0848 91000000 		.4byte	.LLST4
 2091 084c 1F       		.uleb128 0x1f
 2092 084d 58000000 		.4byte	.LBB7
 2093 0851 18000000 		.4byte	.LBE7-.LBB7
 2094 0855 20       		.uleb128 0x20
 2095 0856 5A070000 		.4byte	0x75a
 2096 085a A4000000 		.4byte	.LLST5
 2097 085e 20       		.uleb128 0x20
 2098 085f 66070000 		.4byte	0x766
 2099 0863 C3000000 		.4byte	.LLST6
 2100 0867 00       		.byte	0
 2101 0868 00       		.byte	0
 2102 0869 21       		.uleb128 0x21
 2103 086a 4C000000 		.4byte	.LVL8
 2104 086e 010F0000 		.4byte	0xf01
 2105 0872 00       		.byte	0
 2106 0873 11       		.uleb128 0x11
 2107 0874 04       		.byte	0x4
 2108 0875 C7010000 		.4byte	0x1c7
 2109 0879 1B       		.uleb128 0x1b
 2110 087a 0E010000 		.4byte	.LASF112
 2111 087e 01       		.byte	0x1
 2112 087f 5E05     		.2byte	0x55e
 2113 0881 00000000 		.4byte	.LFB9
 2114 0885 16000000 		.4byte	.LFE9-.LFB9
 2115 0889 01       		.uleb128 0x1
 2116 088a 9C       		.byte	0x9c
 2117 088b BE080000 		.4byte	0x8be
 2118 088f 22       		.uleb128 0x22
 2119 0890 56050000 		.4byte	.LASF107
 2120 0894 01       		.byte	0x1
ARM GAS  C:\Users\ASUS\AppData\Local\Temp\ccuOUgOD.s 			page 75


 2121 0895 5F05     		.2byte	0x55f
 2122 0897 73080000 		.4byte	0x873
 2123 089b D6000000 		.4byte	.LLST7
 2124 089f 23       		.uleb128 0x23
 2125 08a0 3A010000 		.4byte	.LASF113
 2126 08a4 01       		.byte	0x1
 2127 08a5 6005     		.2byte	0x560
 2128 08a7 6C060000 		.4byte	0x66c
 2129 08ab 01       		.uleb128 0x1
 2130 08ac 51       		.byte	0x51
 2131 08ad 1C       		.uleb128 0x1c
 2132 08ae 2B010000 		.4byte	.LASF114
 2133 08b2 01       		.byte	0x1
 2134 08b3 6205     		.2byte	0x562
 2135 08b5 8F000000 		.4byte	0x8f
 2136 08b9 F7000000 		.4byte	.LLST8
 2137 08bd 00       		.byte	0
 2138 08be 24       		.uleb128 0x24
 2139 08bf 9B030000 		.4byte	.LASF118
 2140 08c3 01       		.byte	0x1
 2141 08c4 3602     		.2byte	0x236
 2142 08c6 83000000 		.4byte	0x83
 2143 08ca 00000000 		.4byte	.LFB3
 2144 08ce 36000000 		.4byte	.LFE3-.LFB3
 2145 08d2 01       		.uleb128 0x1
 2146 08d3 9C       		.byte	0x9c
 2147 08d4 6F090000 		.4byte	0x96f
 2148 08d8 22       		.uleb128 0x22
 2149 08d9 F2070000 		.4byte	.LASF104
 2150 08dd 01       		.byte	0x1
 2151 08de 3602     		.2byte	0x236
 2152 08e0 73070000 		.4byte	0x773
 2153 08e4 26010000 		.4byte	.LLST9
 2154 08e8 1C       		.uleb128 0x1c
 2155 08e9 2A020000 		.4byte	.LASF115
 2156 08ed 01       		.byte	0x1
 2157 08ee 3802     		.2byte	0x238
 2158 08f0 83000000 		.4byte	0x83
 2159 08f4 47010000 		.4byte	.LLST10
 2160 08f8 1C       		.uleb128 0x1c
 2161 08f9 3B090000 		.4byte	.LASF110
 2162 08fd 01       		.byte	0x1
 2163 08fe 3902     		.2byte	0x239
 2164 0900 83000000 		.4byte	0x83
 2165 0904 7E010000 		.4byte	.LLST11
 2166 0908 1C       		.uleb128 0x1c
 2167 0909 2F050000 		.4byte	.LASF116
 2168 090d 01       		.byte	0x1
 2169 090e 3A02     		.2byte	0x23a
 2170 0910 83000000 		.4byte	0x83
 2171 0914 91010000 		.4byte	.LLST12
 2172 0918 1C       		.uleb128 0x1c
 2173 0919 A9060000 		.4byte	.LASF117
 2174 091d 01       		.byte	0x1
 2175 091e 3B02     		.2byte	0x23b
 2176 0920 6C060000 		.4byte	0x66c
 2177 0924 D2010000 		.4byte	.LLST13
ARM GAS  C:\Users\ASUS\AppData\Local\Temp\ccuOUgOD.s 			page 76


 2178 0928 1C       		.uleb128 0x1c
 2179 0929 56050000 		.4byte	.LASF107
 2180 092d 01       		.byte	0x1
 2181 092e 3C02     		.2byte	0x23c
 2182 0930 73080000 		.4byte	0x873
 2183 0934 E5010000 		.4byte	.LLST14
 2184 0938 25       		.uleb128 0x25
 2185 0939 1C000000 		.4byte	.LVL33
 2186 093d 0C0F0000 		.4byte	0xf0c
 2187 0941 58090000 		.4byte	0x958
 2188 0945 26       		.uleb128 0x26
 2189 0946 01       		.uleb128 0x1
 2190 0947 50       		.byte	0x50
 2191 0948 02       		.uleb128 0x2
 2192 0949 75       		.byte	0x75
 2193 094a 00       		.sleb128 0
 2194 094b 26       		.uleb128 0x26
 2195 094c 01       		.uleb128 0x1
 2196 094d 51       		.byte	0x51
 2197 094e 02       		.uleb128 0x2
 2198 094f 74       		.byte	0x74
 2199 0950 00       		.sleb128 0
 2200 0951 26       		.uleb128 0x26
 2201 0952 01       		.uleb128 0x1
 2202 0953 52       		.byte	0x52
 2203 0954 02       		.uleb128 0x2
 2204 0955 77       		.byte	0x77
 2205 0956 00       		.sleb128 0
 2206 0957 00       		.byte	0
 2207 0958 27       		.uleb128 0x27
 2208 0959 26000000 		.4byte	.LVL36
 2209 095d 79080000 		.4byte	0x879
 2210 0961 26       		.uleb128 0x26
 2211 0962 01       		.uleb128 0x1
 2212 0963 50       		.byte	0x50
 2213 0964 02       		.uleb128 0x2
 2214 0965 75       		.byte	0x75
 2215 0966 00       		.sleb128 0
 2216 0967 26       		.uleb128 0x26
 2217 0968 01       		.uleb128 0x1
 2218 0969 51       		.byte	0x51
 2219 096a 02       		.uleb128 0x2
 2220 096b 74       		.byte	0x74
 2221 096c 00       		.sleb128 0
 2222 096d 00       		.byte	0
 2223 096e 00       		.byte	0
 2224 096f 24       		.uleb128 0x24
 2225 0970 60000000 		.4byte	.LASF119
 2226 0974 01       		.byte	0x1
 2227 0975 8E02     		.2byte	0x28e
 2228 0977 83000000 		.4byte	0x83
 2229 097b 00000000 		.4byte	.LFB4
 2230 097f 2A000000 		.4byte	.LFE4-.LFB4
 2231 0983 01       		.uleb128 0x1
 2232 0984 9C       		.byte	0x9c
 2233 0985 2A0A0000 		.4byte	0xa2a
 2234 0989 22       		.uleb128 0x22
ARM GAS  C:\Users\ASUS\AppData\Local\Temp\ccuOUgOD.s 			page 77


 2235 098a F2070000 		.4byte	.LASF104
 2236 098e 01       		.byte	0x1
 2237 098f 8F02     		.2byte	0x28f
 2238 0991 73070000 		.4byte	0x773
 2239 0995 F8010000 		.4byte	.LLST15
 2240 0999 22       		.uleb128 0x22
 2241 099a 3A010000 		.4byte	.LASF113
 2242 099e 01       		.byte	0x1
 2243 099f 9002     		.2byte	0x290
 2244 09a1 6C060000 		.4byte	0x66c
 2245 09a5 32020000 		.4byte	.LLST16
 2246 09a9 22       		.uleb128 0x22
 2247 09aa 46000000 		.4byte	.LASF120
 2248 09ae 01       		.byte	0x1
 2249 09af 9102     		.2byte	0x291
 2250 09b1 35070000 		.4byte	0x735
 2251 09b5 74020000 		.4byte	.LLST17
 2252 09b9 22       		.uleb128 0x22
 2253 09ba 35010000 		.4byte	.LASF121
 2254 09be 01       		.byte	0x1
 2255 09bf 9202     		.2byte	0x292
 2256 09c1 83000000 		.4byte	0x83
 2257 09c5 87020000 		.4byte	.LLST18
 2258 09c9 1C       		.uleb128 0x1c
 2259 09ca 2A020000 		.4byte	.LASF115
 2260 09ce 01       		.byte	0x1
 2261 09cf 9402     		.2byte	0x294
 2262 09d1 83000000 		.4byte	0x83
 2263 09d5 B3020000 		.4byte	.LLST19
 2264 09d9 1C       		.uleb128 0x1c
 2265 09da 3B090000 		.4byte	.LASF110
 2266 09de 01       		.byte	0x1
 2267 09df 9502     		.2byte	0x295
 2268 09e1 83000000 		.4byte	0x83
 2269 09e5 F4020000 		.4byte	.LLST20
 2270 09e9 1C       		.uleb128 0x1c
 2271 09ea 56050000 		.4byte	.LASF107
 2272 09ee 01       		.byte	0x1
 2273 09ef 9602     		.2byte	0x296
 2274 09f1 73080000 		.4byte	0x873
 2275 09f5 12030000 		.4byte	.LLST21
 2276 09f9 25       		.uleb128 0x25
 2277 09fa 14000000 		.4byte	.LVL50
 2278 09fe 0C0F0000 		.4byte	0xf0c
 2279 0a02 130A0000 		.4byte	0xa13
 2280 0a06 26       		.uleb128 0x26
 2281 0a07 01       		.uleb128 0x1
 2282 0a08 50       		.byte	0x50
 2283 0a09 02       		.uleb128 0x2
 2284 0a0a 77       		.byte	0x77
 2285 0a0b 00       		.sleb128 0
 2286 0a0c 26       		.uleb128 0x26
 2287 0a0d 01       		.uleb128 0x1
 2288 0a0e 51       		.byte	0x51
 2289 0a0f 02       		.uleb128 0x2
 2290 0a10 76       		.byte	0x76
 2291 0a11 00       		.sleb128 0
ARM GAS  C:\Users\ASUS\AppData\Local\Temp\ccuOUgOD.s 			page 78


 2292 0a12 00       		.byte	0
 2293 0a13 27       		.uleb128 0x27
 2294 0a14 26000000 		.4byte	.LVL54
 2295 0a18 79080000 		.4byte	0x879
 2296 0a1c 26       		.uleb128 0x26
 2297 0a1d 01       		.uleb128 0x1
 2298 0a1e 50       		.byte	0x50
 2299 0a1f 02       		.uleb128 0x2
 2300 0a20 77       		.byte	0x77
 2301 0a21 00       		.sleb128 0
 2302 0a22 26       		.uleb128 0x26
 2303 0a23 01       		.uleb128 0x1
 2304 0a24 51       		.byte	0x51
 2305 0a25 02       		.uleb128 0x2
 2306 0a26 76       		.byte	0x76
 2307 0a27 00       		.sleb128 0
 2308 0a28 00       		.byte	0
 2309 0a29 00       		.byte	0
 2310 0a2a 24       		.uleb128 0x24
 2311 0a2b EC040000 		.4byte	.LASF122
 2312 0a2f 01       		.byte	0x1
 2313 0a30 F803     		.2byte	0x3f8
 2314 0a32 83000000 		.4byte	0x83
 2315 0a36 00000000 		.4byte	.LFB6
 2316 0a3a 3A000000 		.4byte	.LFE6-.LFB6
 2317 0a3e 01       		.uleb128 0x1
 2318 0a3f 9C       		.byte	0x9c
 2319 0a40 DC0A0000 		.4byte	0xadc
 2320 0a44 22       		.uleb128 0x22
 2321 0a45 F2070000 		.4byte	.LASF104
 2322 0a49 01       		.byte	0x1
 2323 0a4a F803     		.2byte	0x3f8
 2324 0a4c 73070000 		.4byte	0x773
 2325 0a50 25030000 		.4byte	.LLST22
 2326 0a54 1C       		.uleb128 0x1c
 2327 0a55 2A020000 		.4byte	.LASF115
 2328 0a59 01       		.byte	0x1
 2329 0a5a FA03     		.2byte	0x3fa
 2330 0a5c 83000000 		.4byte	0x83
 2331 0a60 51030000 		.4byte	.LLST23
 2332 0a64 1C       		.uleb128 0x1c
 2333 0a65 3B090000 		.4byte	.LASF110
 2334 0a69 01       		.byte	0x1
 2335 0a6a 0004     		.2byte	0x400
 2336 0a6c 83000000 		.4byte	0x83
 2337 0a70 93030000 		.4byte	.LLST24
 2338 0a74 1C       		.uleb128 0x1c
 2339 0a75 A3060000 		.4byte	.LASF123
 2340 0a79 01       		.byte	0x1
 2341 0a7a 0104     		.2byte	0x401
 2342 0a7c 83000000 		.4byte	0x83
 2343 0a80 B2030000 		.4byte	.LLST25
 2344 0a84 1C       		.uleb128 0x1c
 2345 0a85 A9060000 		.4byte	.LASF117
 2346 0a89 01       		.byte	0x1
 2347 0a8a 0204     		.2byte	0x402
 2348 0a8c 6C060000 		.4byte	0x66c
ARM GAS  C:\Users\ASUS\AppData\Local\Temp\ccuOUgOD.s 			page 79


 2349 0a90 D1030000 		.4byte	.LLST26
 2350 0a94 1C       		.uleb128 0x1c
 2351 0a95 56050000 		.4byte	.LASF107
 2352 0a99 01       		.byte	0x1
 2353 0a9a 0304     		.2byte	0x403
 2354 0a9c 73080000 		.4byte	0x873
 2355 0aa0 E4030000 		.4byte	.LLST27
 2356 0aa4 25       		.uleb128 0x25
 2357 0aa5 20000000 		.4byte	.LVL66
 2358 0aa9 0C0F0000 		.4byte	0xf0c
 2359 0aad C50A0000 		.4byte	0xac5
 2360 0ab1 26       		.uleb128 0x26
 2361 0ab2 01       		.uleb128 0x1
 2362 0ab3 50       		.byte	0x50
 2363 0ab4 02       		.uleb128 0x2
 2364 0ab5 75       		.byte	0x75
 2365 0ab6 00       		.sleb128 0
 2366 0ab7 26       		.uleb128 0x26
 2367 0ab8 01       		.uleb128 0x1
 2368 0ab9 51       		.byte	0x51
 2369 0aba 02       		.uleb128 0x2
 2370 0abb 74       		.byte	0x74
 2371 0abc 00       		.sleb128 0
 2372 0abd 26       		.uleb128 0x26
 2373 0abe 01       		.uleb128 0x1
 2374 0abf 52       		.byte	0x52
 2375 0ac0 03       		.uleb128 0x3
 2376 0ac1 91       		.byte	0x91
 2377 0ac2 64       		.sleb128 -28
 2378 0ac3 06       		.byte	0x6
 2379 0ac4 00       		.byte	0
 2380 0ac5 27       		.uleb128 0x27
 2381 0ac6 2A000000 		.4byte	.LVL69
 2382 0aca 79080000 		.4byte	0x879
 2383 0ace 26       		.uleb128 0x26
 2384 0acf 01       		.uleb128 0x1
 2385 0ad0 50       		.byte	0x50
 2386 0ad1 02       		.uleb128 0x2
 2387 0ad2 75       		.byte	0x75
 2388 0ad3 00       		.sleb128 0
 2389 0ad4 26       		.uleb128 0x26
 2390 0ad5 01       		.uleb128 0x1
 2391 0ad6 51       		.byte	0x51
 2392 0ad7 02       		.uleb128 0x2
 2393 0ad8 74       		.byte	0x74
 2394 0ad9 00       		.sleb128 0
 2395 0ada 00       		.byte	0
 2396 0adb 00       		.byte	0
 2397 0adc 24       		.uleb128 0x24
 2398 0add 93080000 		.4byte	.LASF124
 2399 0ae1 01       		.byte	0x1
 2400 0ae2 7A04     		.2byte	0x47a
 2401 0ae4 83000000 		.4byte	0x83
 2402 0ae8 00000000 		.4byte	.LFB7
 2403 0aec 2A000000 		.4byte	.LFE7-.LFB7
 2404 0af0 01       		.uleb128 0x1
 2405 0af1 9C       		.byte	0x9c
ARM GAS  C:\Users\ASUS\AppData\Local\Temp\ccuOUgOD.s 			page 80


 2406 0af2 970B0000 		.4byte	0xb97
 2407 0af6 22       		.uleb128 0x22
 2408 0af7 F2070000 		.4byte	.LASF104
 2409 0afb 01       		.byte	0x1
 2410 0afc 7B04     		.2byte	0x47b
 2411 0afe 73070000 		.4byte	0x773
 2412 0b02 F7030000 		.4byte	.LLST28
 2413 0b06 22       		.uleb128 0x22
 2414 0b07 3A010000 		.4byte	.LASF113
 2415 0b0b 01       		.byte	0x1
 2416 0b0c 7C04     		.2byte	0x47c
 2417 0b0e 6C060000 		.4byte	0x66c
 2418 0b12 31040000 		.4byte	.LLST29
 2419 0b16 22       		.uleb128 0x22
 2420 0b17 46000000 		.4byte	.LASF120
 2421 0b1b 01       		.byte	0x1
 2422 0b1c 7D04     		.2byte	0x47d
 2423 0b1e 35070000 		.4byte	0x735
 2424 0b22 73040000 		.4byte	.LLST30
 2425 0b26 22       		.uleb128 0x22
 2426 0b27 35010000 		.4byte	.LASF121
 2427 0b2b 01       		.byte	0x1
 2428 0b2c 7E04     		.2byte	0x47e
 2429 0b2e 83000000 		.4byte	0x83
 2430 0b32 86040000 		.4byte	.LLST31
 2431 0b36 1C       		.uleb128 0x1c
 2432 0b37 2A020000 		.4byte	.LASF115
 2433 0b3b 01       		.byte	0x1
 2434 0b3c 8004     		.2byte	0x480
 2435 0b3e 83000000 		.4byte	0x83
 2436 0b42 B2040000 		.4byte	.LLST32
 2437 0b46 1C       		.uleb128 0x1c
 2438 0b47 3B090000 		.4byte	.LASF110
 2439 0b4b 01       		.byte	0x1
 2440 0b4c 8104     		.2byte	0x481
 2441 0b4e 83000000 		.4byte	0x83
 2442 0b52 F3040000 		.4byte	.LLST33
 2443 0b56 1C       		.uleb128 0x1c
 2444 0b57 56050000 		.4byte	.LASF107
 2445 0b5b 01       		.byte	0x1
 2446 0b5c 8204     		.2byte	0x482
 2447 0b5e 73080000 		.4byte	0x873
 2448 0b62 11050000 		.4byte	.LLST34
 2449 0b66 25       		.uleb128 0x25
 2450 0b67 14000000 		.4byte	.LVL83
 2451 0b6b 0C0F0000 		.4byte	0xf0c
 2452 0b6f 800B0000 		.4byte	0xb80
 2453 0b73 26       		.uleb128 0x26
 2454 0b74 01       		.uleb128 0x1
 2455 0b75 50       		.byte	0x50
 2456 0b76 02       		.uleb128 0x2
 2457 0b77 77       		.byte	0x77
 2458 0b78 00       		.sleb128 0
 2459 0b79 26       		.uleb128 0x26
 2460 0b7a 01       		.uleb128 0x1
 2461 0b7b 51       		.byte	0x51
 2462 0b7c 02       		.uleb128 0x2
ARM GAS  C:\Users\ASUS\AppData\Local\Temp\ccuOUgOD.s 			page 81


 2463 0b7d 76       		.byte	0x76
 2464 0b7e 00       		.sleb128 0
 2465 0b7f 00       		.byte	0
 2466 0b80 27       		.uleb128 0x27
 2467 0b81 26000000 		.4byte	.LVL87
 2468 0b85 79080000 		.4byte	0x879
 2469 0b89 26       		.uleb128 0x26
 2470 0b8a 01       		.uleb128 0x1
 2471 0b8b 50       		.byte	0x50
 2472 0b8c 02       		.uleb128 0x2
 2473 0b8d 77       		.byte	0x77
 2474 0b8e 00       		.sleb128 0
 2475 0b8f 26       		.uleb128 0x26
 2476 0b90 01       		.uleb128 0x1
 2477 0b91 51       		.byte	0x51
 2478 0b92 02       		.uleb128 0x2
 2479 0b93 76       		.byte	0x76
 2480 0b94 00       		.sleb128 0
 2481 0b95 00       		.byte	0
 2482 0b96 00       		.byte	0
 2483 0b97 24       		.uleb128 0x24
 2484 0b98 07070000 		.4byte	.LASF125
 2485 0b9c 01       		.byte	0x1
 2486 0b9d A805     		.2byte	0x5a8
 2487 0b9f 83000000 		.4byte	0x83
 2488 0ba3 00000000 		.4byte	.LFB10
 2489 0ba7 64000000 		.4byte	.LFE10-.LFB10
 2490 0bab 01       		.uleb128 0x1
 2491 0bac 9C       		.byte	0x9c
 2492 0bad 400C0000 		.4byte	0xc40
 2493 0bb1 22       		.uleb128 0x22
 2494 0bb2 03010000 		.4byte	.LASF126
 2495 0bb6 01       		.byte	0x1
 2496 0bb7 A805     		.2byte	0x5a8
 2497 0bb9 83000000 		.4byte	0x83
 2498 0bbd 24050000 		.4byte	.LLST35
 2499 0bc1 22       		.uleb128 0x22
 2500 0bc2 F2070000 		.4byte	.LASF104
 2501 0bc6 01       		.byte	0x1
 2502 0bc7 A805     		.2byte	0x5a8
 2503 0bc9 73070000 		.4byte	0x773
 2504 0bcd 42050000 		.4byte	.LLST36
 2505 0bd1 1C       		.uleb128 0x1c
 2506 0bd2 38000000 		.4byte	.LASF127
 2507 0bd6 01       		.byte	0x1
 2508 0bd7 AA05     		.2byte	0x5aa
 2509 0bd9 83000000 		.4byte	0x83
 2510 0bdd 63050000 		.4byte	.LLST37
 2511 0be1 1C       		.uleb128 0x1c
 2512 0be2 61050000 		.4byte	.LASF128
 2513 0be6 01       		.byte	0x1
 2514 0be7 AB05     		.2byte	0x5ab
 2515 0be9 83000000 		.4byte	0x83
 2516 0bed AD050000 		.4byte	.LLST38
 2517 0bf1 1C       		.uleb128 0x1c
 2518 0bf2 61010000 		.4byte	.LASF129
 2519 0bf6 01       		.byte	0x1
ARM GAS  C:\Users\ASUS\AppData\Local\Temp\ccuOUgOD.s 			page 82


 2520 0bf7 AC05     		.2byte	0x5ac
 2521 0bf9 83000000 		.4byte	0x83
 2522 0bfd CC050000 		.4byte	.LLST39
 2523 0c01 1C       		.uleb128 0x1c
 2524 0c02 15030000 		.4byte	.LASF130
 2525 0c06 01       		.byte	0x1
 2526 0c07 AD05     		.2byte	0x5ad
 2527 0c09 83000000 		.4byte	0x83
 2528 0c0d EA050000 		.4byte	.LLST40
 2529 0c11 1C       		.uleb128 0x1c
 2530 0c12 A9060000 		.4byte	.LASF117
 2531 0c16 01       		.byte	0x1
 2532 0c17 AE05     		.2byte	0x5ae
 2533 0c19 6C060000 		.4byte	0x66c
 2534 0c1d 08060000 		.4byte	.LLST41
 2535 0c21 1C       		.uleb128 0x1c
 2536 0c22 56050000 		.4byte	.LASF107
 2537 0c26 01       		.byte	0x1
 2538 0c27 AF05     		.2byte	0x5af
 2539 0c29 73080000 		.4byte	0x873
 2540 0c2d 1B060000 		.4byte	.LLST42
 2541 0c31 28       		.uleb128 0x28
 2542 0c32 ED060000 		.4byte	.LASF131
 2543 0c36 01       		.byte	0x1
 2544 0c37 B005     		.2byte	0x5b0
 2545 0c39 72060000 		.4byte	0x672
 2546 0c3d 01       		.uleb128 0x1
 2547 0c3e 53       		.byte	0x53
 2548 0c3f 00       		.byte	0
 2549 0c40 1B       		.uleb128 0x1b
 2550 0c41 D9020000 		.4byte	.LASF132
 2551 0c45 01       		.byte	0x1
 2552 0c46 CD02     		.2byte	0x2cd
 2553 0c48 00000000 		.4byte	.LFB5
 2554 0c4c 58000000 		.4byte	.LFE5-.LFB5
 2555 0c50 01       		.uleb128 0x1
 2556 0c51 9C       		.byte	0x9c
 2557 0c52 E10C0000 		.4byte	0xce1
 2558 0c56 22       		.uleb128 0x22
 2559 0c57 65090000 		.4byte	.LASF133
 2560 0c5b 01       		.byte	0x1
 2561 0c5c CD02     		.2byte	0x2cd
 2562 0c5e 83000000 		.4byte	0x83
 2563 0c62 2E060000 		.4byte	.LLST43
 2564 0c66 22       		.uleb128 0x22
 2565 0c67 F2070000 		.4byte	.LASF104
 2566 0c6b 01       		.byte	0x1
 2567 0c6c CD02     		.2byte	0x2cd
 2568 0c6e 73070000 		.4byte	0x773
 2569 0c72 70060000 		.4byte	.LLST44
 2570 0c76 1C       		.uleb128 0x1c
 2571 0c77 74040000 		.4byte	.LASF134
 2572 0c7b 01       		.byte	0x1
 2573 0c7c CF02     		.2byte	0x2cf
 2574 0c7e 83000000 		.4byte	0x83
 2575 0c82 AA060000 		.4byte	.LLST45
 2576 0c86 1C       		.uleb128 0x1c
ARM GAS  C:\Users\ASUS\AppData\Local\Temp\ccuOUgOD.s 			page 83


 2577 0c87 AA040000 		.4byte	.LASF135
 2578 0c8b 01       		.byte	0x1
 2579 0c8c D002     		.2byte	0x2d0
 2580 0c8e 83000000 		.4byte	0x83
 2581 0c92 D3060000 		.4byte	.LLST46
 2582 0c96 1C       		.uleb128 0x1c
 2583 0c97 E5070000 		.4byte	.LASF136
 2584 0c9b 01       		.byte	0x1
 2585 0c9c D102     		.2byte	0x2d1
 2586 0c9e 83000000 		.4byte	0x83
 2587 0ca2 2B070000 		.4byte	.LLST47
 2588 0ca6 1C       		.uleb128 0x1c
 2589 0ca7 3B090000 		.4byte	.LASF110
 2590 0cab 01       		.byte	0x1
 2591 0cac D202     		.2byte	0x2d2
 2592 0cae 1F010000 		.4byte	0x11f
 2593 0cb2 5F070000 		.4byte	.LLST48
 2594 0cb6 25       		.uleb128 0x25
 2595 0cb7 16000000 		.4byte	.LVL121
 2596 0cbb 970B0000 		.4byte	0xb97
 2597 0cbf D10C0000 		.4byte	0xcd1
 2598 0cc3 26       		.uleb128 0x26
 2599 0cc4 01       		.uleb128 0x1
 2600 0cc5 50       		.byte	0x50
 2601 0cc6 02       		.uleb128 0x2
 2602 0cc7 75       		.byte	0x75
 2603 0cc8 00       		.sleb128 0
 2604 0cc9 26       		.uleb128 0x26
 2605 0cca 01       		.uleb128 0x1
 2606 0ccb 51       		.byte	0x51
 2607 0ccc 03       		.uleb128 0x3
 2608 0ccd F3       		.byte	0xf3
 2609 0cce 01       		.uleb128 0x1
 2610 0ccf 51       		.byte	0x51
 2611 0cd0 00       		.byte	0
 2612 0cd1 27       		.uleb128 0x27
 2613 0cd2 20000000 		.4byte	.LVL125
 2614 0cd6 170F0000 		.4byte	0xf17
 2615 0cda 26       		.uleb128 0x26
 2616 0cdb 01       		.uleb128 0x1
 2617 0cdc 50       		.byte	0x50
 2618 0cdd 01       		.uleb128 0x1
 2619 0cde 30       		.byte	0x30
 2620 0cdf 00       		.byte	0
 2621 0ce0 00       		.byte	0
 2622 0ce1 24       		.uleb128 0x24
 2623 0ce2 7A080000 		.4byte	.LASF137
 2624 0ce6 01       		.byte	0x1
 2625 0ce7 0907     		.2byte	0x709
 2626 0ce9 83000000 		.4byte	0x83
 2627 0ced 00000000 		.4byte	.LFB11
 2628 0cf1 D8000000 		.4byte	.LFE11-.LFB11
 2629 0cf5 01       		.uleb128 0x1
 2630 0cf6 9C       		.byte	0x9c
 2631 0cf7 360E0000 		.4byte	0xe36
 2632 0cfb 22       		.uleb128 0x22
 2633 0cfc 03010000 		.4byte	.LASF126
ARM GAS  C:\Users\ASUS\AppData\Local\Temp\ccuOUgOD.s 			page 84


 2634 0d00 01       		.byte	0x1
 2635 0d01 0907     		.2byte	0x709
 2636 0d03 83000000 		.4byte	0x83
 2637 0d07 7D070000 		.4byte	.LLST49
 2638 0d0b 22       		.uleb128 0x22
 2639 0d0c F2070000 		.4byte	.LASF104
 2640 0d10 01       		.byte	0x1
 2641 0d11 0907     		.2byte	0x709
 2642 0d13 73070000 		.4byte	0x773
 2643 0d17 C7070000 		.4byte	.LLST50
 2644 0d1b 1C       		.uleb128 0x1c
 2645 0d1c 38000000 		.4byte	.LASF127
 2646 0d20 01       		.byte	0x1
 2647 0d21 0B07     		.2byte	0x70b
 2648 0d23 83000000 		.4byte	0x83
 2649 0d27 F3070000 		.4byte	.LLST51
 2650 0d2b 1C       		.uleb128 0x1c
 2651 0d2c 61050000 		.4byte	.LASF128
 2652 0d30 01       		.byte	0x1
 2653 0d31 0C07     		.2byte	0x70c
 2654 0d33 83000000 		.4byte	0x83
 2655 0d37 27080000 		.4byte	.LLST52
 2656 0d3b 1C       		.uleb128 0x1c
 2657 0d3c 15030000 		.4byte	.LASF130
 2658 0d40 01       		.byte	0x1
 2659 0d41 0D07     		.2byte	0x70d
 2660 0d43 83000000 		.4byte	0x83
 2661 0d47 51080000 		.4byte	.LLST53
 2662 0d4b 1C       		.uleb128 0x1c
 2663 0d4c 61010000 		.4byte	.LASF129
 2664 0d50 01       		.byte	0x1
 2665 0d51 0E07     		.2byte	0x70e
 2666 0d53 83000000 		.4byte	0x83
 2667 0d57 7A080000 		.4byte	.LLST54
 2668 0d5b 1C       		.uleb128 0x1c
 2669 0d5c ED060000 		.4byte	.LASF131
 2670 0d60 01       		.byte	0x1
 2671 0d61 0F07     		.2byte	0x70f
 2672 0d63 72060000 		.4byte	0x672
 2673 0d67 A4080000 		.4byte	.LLST55
 2674 0d6b 1C       		.uleb128 0x1c
 2675 0d6c A9060000 		.4byte	.LASF117
 2676 0d70 01       		.byte	0x1
 2677 0d71 1007     		.2byte	0x710
 2678 0d73 6C060000 		.4byte	0x66c
 2679 0d77 D8080000 		.4byte	.LLST56
 2680 0d7b 1C       		.uleb128 0x1c
 2681 0d7c 56050000 		.4byte	.LASF107
 2682 0d80 01       		.byte	0x1
 2683 0d81 1107     		.2byte	0x711
 2684 0d83 7E070000 		.4byte	0x77e
 2685 0d87 F6080000 		.4byte	.LLST57
 2686 0d8b 1C       		.uleb128 0x1c
 2687 0d8c 51030000 		.4byte	.LASF108
 2688 0d90 01       		.byte	0x1
 2689 0d91 1707     		.2byte	0x717
 2690 0d93 83000000 		.4byte	0x83
ARM GAS  C:\Users\ASUS\AppData\Local\Temp\ccuOUgOD.s 			page 85


 2691 0d97 09090000 		.4byte	.LLST58
 2692 0d9b 1C       		.uleb128 0x1c
 2693 0d9c 89030000 		.4byte	.LASF138
 2694 0da0 01       		.byte	0x1
 2695 0da1 1807     		.2byte	0x718
 2696 0da3 83000000 		.4byte	0x83
 2697 0da7 1C090000 		.4byte	.LLST59
 2698 0dab 28       		.uleb128 0x28
 2699 0dac 38050000 		.4byte	.LASF105
 2700 0db0 01       		.byte	0x1
 2701 0db1 1907     		.2byte	0x719
 2702 0db3 1A030000 		.4byte	0x31a
 2703 0db7 02       		.uleb128 0x2
 2704 0db8 91       		.byte	0x91
 2705 0db9 64       		.sleb128 -28
 2706 0dba 1D       		.uleb128 0x1d
 2707 0dbb 84070000 		.4byte	0x784
 2708 0dbf 9C000000 		.4byte	.LBB8
 2709 0dc3 20000000 		.4byte	.LBE8-.LBB8
 2710 0dc7 01       		.byte	0x1
 2711 0dc8 7F07     		.2byte	0x77f
 2712 0dca 060E0000 		.4byte	0xe06
 2713 0dce 1E       		.uleb128 0x1e
 2714 0dcf B5070000 		.4byte	0x7b5
 2715 0dd3 5D090000 		.4byte	.LLST60
 2716 0dd7 1E       		.uleb128 0x1e
 2717 0dd8 A9070000 		.4byte	0x7a9
 2718 0ddc 70090000 		.4byte	.LLST61
 2719 0de0 1E       		.uleb128 0x1e
 2720 0de1 9D070000 		.4byte	0x79d
 2721 0de5 83090000 		.4byte	.LLST62
 2722 0de9 1E       		.uleb128 0x1e
 2723 0dea 91070000 		.4byte	0x791
 2724 0dee 96090000 		.4byte	.LLST63
 2725 0df2 1F       		.uleb128 0x1f
 2726 0df3 9C000000 		.4byte	.LBB9
 2727 0df7 20000000 		.4byte	.LBE9-.LBB9
 2728 0dfb 20       		.uleb128 0x20
 2729 0dfc C1070000 		.4byte	0x7c1
 2730 0e00 AB090000 		.4byte	.LLST64
 2731 0e04 00       		.byte	0
 2732 0e05 00       		.byte	0
 2733 0e06 25       		.uleb128 0x25
 2734 0e07 80000000 		.4byte	.LVL164
 2735 0e0b 220F0000 		.4byte	0xf22
 2736 0e0f 1A0E0000 		.4byte	0xe1a
 2737 0e13 26       		.uleb128 0x26
 2738 0e14 01       		.uleb128 0x1
 2739 0e15 51       		.byte	0x51
 2740 0e16 02       		.uleb128 0x2
 2741 0e17 76       		.byte	0x76
 2742 0e18 00       		.sleb128 0
 2743 0e19 00       		.byte	0
 2744 0e1a 27       		.uleb128 0x27
 2745 0e1b 9C000000 		.4byte	.LVL169
 2746 0e1f 2D0F0000 		.4byte	0xf2d
 2747 0e23 26       		.uleb128 0x26
ARM GAS  C:\Users\ASUS\AppData\Local\Temp\ccuOUgOD.s 			page 86


 2748 0e24 01       		.uleb128 0x1
 2749 0e25 50       		.byte	0x50
 2750 0e26 02       		.uleb128 0x2
 2751 0e27 91       		.byte	0x91
 2752 0e28 64       		.sleb128 -28
 2753 0e29 26       		.uleb128 0x26
 2754 0e2a 01       		.uleb128 0x1
 2755 0e2b 52       		.byte	0x52
 2756 0e2c 02       		.uleb128 0x2
 2757 0e2d 76       		.byte	0x76
 2758 0e2e 00       		.sleb128 0
 2759 0e2f 26       		.uleb128 0x26
 2760 0e30 01       		.uleb128 0x1
 2761 0e31 53       		.byte	0x53
 2762 0e32 01       		.uleb128 0x1
 2763 0e33 30       		.byte	0x30
 2764 0e34 00       		.byte	0
 2765 0e35 00       		.byte	0
 2766 0e36 1B       		.uleb128 0x1b
 2767 0e37 F8030000 		.4byte	.LASF139
 2768 0e3b 01       		.byte	0x1
 2769 0e3c DE04     		.2byte	0x4de
 2770 0e3e 00000000 		.4byte	.LFB8
 2771 0e42 6C000000 		.4byte	.LFE8-.LFB8
 2772 0e46 01       		.uleb128 0x1
 2773 0e47 9C       		.byte	0x9c
 2774 0e48 E40E0000 		.4byte	0xee4
 2775 0e4c 22       		.uleb128 0x22
 2776 0e4d 65090000 		.4byte	.LASF133
 2777 0e51 01       		.byte	0x1
 2778 0e52 DE04     		.2byte	0x4de
 2779 0e54 83000000 		.4byte	0x83
 2780 0e58 CA090000 		.4byte	.LLST65
 2781 0e5c 22       		.uleb128 0x22
 2782 0e5d F2070000 		.4byte	.LASF104
 2783 0e61 01       		.byte	0x1
 2784 0e62 DE04     		.2byte	0x4de
 2785 0e64 73070000 		.4byte	0x773
 2786 0e68 220A0000 		.4byte	.LLST66
 2787 0e6c 1C       		.uleb128 0x1c
 2788 0e6d 74040000 		.4byte	.LASF134
 2789 0e71 01       		.byte	0x1
 2790 0e72 E004     		.2byte	0x4e0
 2791 0e74 83000000 		.4byte	0x83
 2792 0e78 750A0000 		.4byte	.LLST67
 2793 0e7c 1C       		.uleb128 0x1c
 2794 0e7d AA040000 		.4byte	.LASF135
 2795 0e81 01       		.byte	0x1
 2796 0e82 E104     		.2byte	0x4e1
 2797 0e84 83000000 		.4byte	0x83
 2798 0e88 B40A0000 		.4byte	.LLST68
 2799 0e8c 1C       		.uleb128 0x1c
 2800 0e8d E5070000 		.4byte	.LASF136
 2801 0e91 01       		.byte	0x1
 2802 0e92 E204     		.2byte	0x4e2
 2803 0e94 83000000 		.4byte	0x83
 2804 0e98 0C0B0000 		.4byte	.LLST69
ARM GAS  C:\Users\ASUS\AppData\Local\Temp\ccuOUgOD.s 			page 87


 2805 0e9c 1C       		.uleb128 0x1c
 2806 0e9d 3B090000 		.4byte	.LASF110
 2807 0ea1 01       		.byte	0x1
 2808 0ea2 E304     		.2byte	0x4e3
 2809 0ea4 1F010000 		.4byte	0x11f
 2810 0ea8 400B0000 		.4byte	.LLST70
 2811 0eac 25       		.uleb128 0x25
 2812 0ead 20000000 		.4byte	.LVL184
 2813 0eb1 970B0000 		.4byte	0xb97
 2814 0eb5 C00E0000 		.4byte	0xec0
 2815 0eb9 26       		.uleb128 0x26
 2816 0eba 01       		.uleb128 0x1
 2817 0ebb 50       		.byte	0x50
 2818 0ebc 02       		.uleb128 0x2
 2819 0ebd 75       		.byte	0x75
 2820 0ebe 00       		.sleb128 0
 2821 0ebf 00       		.byte	0
 2822 0ec0 25       		.uleb128 0x25
 2823 0ec1 2A000000 		.4byte	.LVL188
 2824 0ec5 E10C0000 		.4byte	0xce1
 2825 0ec9 D40E0000 		.4byte	0xed4
 2826 0ecd 26       		.uleb128 0x26
 2827 0ece 01       		.uleb128 0x1
 2828 0ecf 50       		.byte	0x50
 2829 0ed0 02       		.uleb128 0x2
 2830 0ed1 75       		.byte	0x75
 2831 0ed2 00       		.sleb128 0
 2832 0ed3 00       		.byte	0
 2833 0ed4 27       		.uleb128 0x27
 2834 0ed5 34000000 		.4byte	.LVL192
 2835 0ed9 170F0000 		.4byte	0xf17
 2836 0edd 26       		.uleb128 0x26
 2837 0ede 01       		.uleb128 0x1
 2838 0edf 50       		.byte	0x50
 2839 0ee0 01       		.uleb128 0x1
 2840 0ee1 30       		.byte	0x30
 2841 0ee2 00       		.byte	0
 2842 0ee3 00       		.byte	0
 2843 0ee4 29       		.uleb128 0x29
 2844 0ee5 25040000 		.4byte	.LASF140
 2845 0ee9 05       		.byte	0x5
 2846 0eea C604     		.2byte	0x4c6
 2847 0eec 99050000 		.4byte	0x599
 2848 0ef0 29       		.uleb128 0x29
 2849 0ef1 7A020000 		.4byte	.LASF141
 2850 0ef5 05       		.byte	0x5
 2851 0ef6 C704     		.2byte	0x4c7
 2852 0ef8 FC0E0000 		.4byte	0xefc
 2853 0efc 1A       		.uleb128 0x1a
 2854 0efd AB060000 		.4byte	0x6ab
 2855 0f01 2A       		.uleb128 0x2a
 2856 0f02 59040000 		.4byte	.LASF142
 2857 0f06 59040000 		.4byte	.LASF142
 2858 0f0a 06       		.byte	0x6
 2859 0f0b 19       		.byte	0x19
 2860 0f0c 2A       		.uleb128 0x2a
 2861 0f0d B2070000 		.4byte	.LASF143
ARM GAS  C:\Users\ASUS\AppData\Local\Temp\ccuOUgOD.s 			page 88


 2862 0f11 B2070000 		.4byte	.LASF143
 2863 0f15 07       		.byte	0x7
 2864 0f16 72       		.byte	0x72
 2865 0f17 2A       		.uleb128 0x2a
 2866 0f18 DF000000 		.4byte	.LASF144
 2867 0f1c DF000000 		.4byte	.LASF144
 2868 0f20 08       		.byte	0x8
 2869 0f21 FA       		.byte	0xfa
 2870 0f22 2A       		.uleb128 0x2a
 2871 0f23 CB060000 		.4byte	.LASF145
 2872 0f27 CB060000 		.4byte	.LASF145
 2873 0f2b 09       		.byte	0x9
 2874 0f2c 4E       		.byte	0x4e
 2875 0f2d 2A       		.uleb128 0x2a
 2876 0f2e 8C070000 		.4byte	.LASF146
 2877 0f32 8C070000 		.4byte	.LASF146
 2878 0f36 09       		.byte	0x9
 2879 0f37 5D       		.byte	0x5d
 2880 0f38 00       		.byte	0
 2881              		.section	.debug_abbrev,"",%progbits
 2882              	.Ldebug_abbrev0:
 2883 0000 01       		.uleb128 0x1
 2884 0001 11       		.uleb128 0x11
 2885 0002 01       		.byte	0x1
 2886 0003 25       		.uleb128 0x25
 2887 0004 0E       		.uleb128 0xe
 2888 0005 13       		.uleb128 0x13
 2889 0006 0B       		.uleb128 0xb
 2890 0007 03       		.uleb128 0x3
 2891 0008 0E       		.uleb128 0xe
 2892 0009 1B       		.uleb128 0x1b
 2893 000a 0E       		.uleb128 0xe
 2894 000b 55       		.uleb128 0x55
 2895 000c 17       		.uleb128 0x17
 2896 000d 11       		.uleb128 0x11
 2897 000e 01       		.uleb128 0x1
 2898 000f 10       		.uleb128 0x10
 2899 0010 17       		.uleb128 0x17
 2900 0011 00       		.byte	0
 2901 0012 00       		.byte	0
 2902 0013 02       		.uleb128 0x2
 2903 0014 24       		.uleb128 0x24
 2904 0015 00       		.byte	0
 2905 0016 0B       		.uleb128 0xb
 2906 0017 0B       		.uleb128 0xb
 2907 0018 3E       		.uleb128 0x3e
 2908 0019 0B       		.uleb128 0xb
 2909 001a 03       		.uleb128 0x3
 2910 001b 0E       		.uleb128 0xe
 2911 001c 00       		.byte	0
 2912 001d 00       		.byte	0
 2913 001e 03       		.uleb128 0x3
 2914 001f 24       		.uleb128 0x24
 2915 0020 00       		.byte	0
 2916 0021 0B       		.uleb128 0xb
 2917 0022 0B       		.uleb128 0xb
 2918 0023 3E       		.uleb128 0x3e
ARM GAS  C:\Users\ASUS\AppData\Local\Temp\ccuOUgOD.s 			page 89


 2919 0024 0B       		.uleb128 0xb
 2920 0025 03       		.uleb128 0x3
 2921 0026 08       		.uleb128 0x8
 2922 0027 00       		.byte	0
 2923 0028 00       		.byte	0
 2924 0029 04       		.uleb128 0x4
 2925 002a 16       		.uleb128 0x16
 2926 002b 00       		.byte	0
 2927 002c 03       		.uleb128 0x3
 2928 002d 0E       		.uleb128 0xe
 2929 002e 3A       		.uleb128 0x3a
 2930 002f 0B       		.uleb128 0xb
 2931 0030 3B       		.uleb128 0x3b
 2932 0031 05       		.uleb128 0x5
 2933 0032 49       		.uleb128 0x49
 2934 0033 13       		.uleb128 0x13
 2935 0034 00       		.byte	0
 2936 0035 00       		.byte	0
 2937 0036 05       		.uleb128 0x5
 2938 0037 35       		.uleb128 0x35
 2939 0038 00       		.byte	0
 2940 0039 49       		.uleb128 0x49
 2941 003a 13       		.uleb128 0x13
 2942 003b 00       		.byte	0
 2943 003c 00       		.byte	0
 2944 003d 06       		.uleb128 0x6
 2945 003e 16       		.uleb128 0x16
 2946 003f 00       		.byte	0
 2947 0040 03       		.uleb128 0x3
 2948 0041 0E       		.uleb128 0xe
 2949 0042 3A       		.uleb128 0x3a
 2950 0043 0B       		.uleb128 0xb
 2951 0044 3B       		.uleb128 0x3b
 2952 0045 0B       		.uleb128 0xb
 2953 0046 49       		.uleb128 0x49
 2954 0047 13       		.uleb128 0x13
 2955 0048 00       		.byte	0
 2956 0049 00       		.byte	0
 2957 004a 07       		.uleb128 0x7
 2958 004b 0F       		.uleb128 0xf
 2959 004c 00       		.byte	0
 2960 004d 0B       		.uleb128 0xb
 2961 004e 0B       		.uleb128 0xb
 2962 004f 00       		.byte	0
 2963 0050 00       		.byte	0
 2964 0051 08       		.uleb128 0x8
 2965 0052 04       		.uleb128 0x4
 2966 0053 01       		.byte	0x1
 2967 0054 0B       		.uleb128 0xb
 2968 0055 0B       		.uleb128 0xb
 2969 0056 49       		.uleb128 0x49
 2970 0057 13       		.uleb128 0x13
 2971 0058 3A       		.uleb128 0x3a
 2972 0059 0B       		.uleb128 0xb
 2973 005a 3B       		.uleb128 0x3b
 2974 005b 0B       		.uleb128 0xb
 2975 005c 01       		.uleb128 0x1
ARM GAS  C:\Users\ASUS\AppData\Local\Temp\ccuOUgOD.s 			page 90


 2976 005d 13       		.uleb128 0x13
 2977 005e 00       		.byte	0
 2978 005f 00       		.byte	0
 2979 0060 09       		.uleb128 0x9
 2980 0061 28       		.uleb128 0x28
 2981 0062 00       		.byte	0
 2982 0063 03       		.uleb128 0x3
 2983 0064 0E       		.uleb128 0xe
 2984 0065 1C       		.uleb128 0x1c
 2985 0066 0B       		.uleb128 0xb
 2986 0067 00       		.byte	0
 2987 0068 00       		.byte	0
 2988 0069 0A       		.uleb128 0xa
 2989 006a 13       		.uleb128 0x13
 2990 006b 01       		.byte	0x1
 2991 006c 0B       		.uleb128 0xb
 2992 006d 0B       		.uleb128 0xb
 2993 006e 3A       		.uleb128 0x3a
 2994 006f 0B       		.uleb128 0xb
 2995 0070 3B       		.uleb128 0x3b
 2996 0071 0B       		.uleb128 0xb
 2997 0072 01       		.uleb128 0x1
 2998 0073 13       		.uleb128 0x13
 2999 0074 00       		.byte	0
 3000 0075 00       		.byte	0
 3001 0076 0B       		.uleb128 0xb
 3002 0077 0D       		.uleb128 0xd
 3003 0078 00       		.byte	0
 3004 0079 03       		.uleb128 0x3
 3005 007a 0E       		.uleb128 0xe
 3006 007b 3A       		.uleb128 0x3a
 3007 007c 0B       		.uleb128 0xb
 3008 007d 3B       		.uleb128 0x3b
 3009 007e 0B       		.uleb128 0xb
 3010 007f 49       		.uleb128 0x49
 3011 0080 13       		.uleb128 0x13
 3012 0081 38       		.uleb128 0x38
 3013 0082 0B       		.uleb128 0xb
 3014 0083 00       		.byte	0
 3015 0084 00       		.byte	0
 3016 0085 0C       		.uleb128 0xc
 3017 0086 01       		.uleb128 0x1
 3018 0087 01       		.byte	0x1
 3019 0088 49       		.uleb128 0x49
 3020 0089 13       		.uleb128 0x13
 3021 008a 01       		.uleb128 0x1
 3022 008b 13       		.uleb128 0x13
 3023 008c 00       		.byte	0
 3024 008d 00       		.byte	0
 3025 008e 0D       		.uleb128 0xd
 3026 008f 21       		.uleb128 0x21
 3027 0090 00       		.byte	0
 3028 0091 49       		.uleb128 0x49
 3029 0092 13       		.uleb128 0x13
 3030 0093 2F       		.uleb128 0x2f
 3031 0094 0B       		.uleb128 0xb
 3032 0095 00       		.byte	0
ARM GAS  C:\Users\ASUS\AppData\Local\Temp\ccuOUgOD.s 			page 91


 3033 0096 00       		.byte	0
 3034 0097 0E       		.uleb128 0xe
 3035 0098 0D       		.uleb128 0xd
 3036 0099 00       		.byte	0
 3037 009a 03       		.uleb128 0x3
 3038 009b 0E       		.uleb128 0xe
 3039 009c 3A       		.uleb128 0x3a
 3040 009d 0B       		.uleb128 0xb
 3041 009e 3B       		.uleb128 0x3b
 3042 009f 05       		.uleb128 0x5
 3043 00a0 49       		.uleb128 0x49
 3044 00a1 13       		.uleb128 0x13
 3045 00a2 38       		.uleb128 0x38
 3046 00a3 0B       		.uleb128 0xb
 3047 00a4 00       		.byte	0
 3048 00a5 00       		.byte	0
 3049 00a6 0F       		.uleb128 0xf
 3050 00a7 13       		.uleb128 0x13
 3051 00a8 01       		.byte	0x1
 3052 00a9 0B       		.uleb128 0xb
 3053 00aa 0B       		.uleb128 0xb
 3054 00ab 3A       		.uleb128 0x3a
 3055 00ac 0B       		.uleb128 0xb
 3056 00ad 3B       		.uleb128 0x3b
 3057 00ae 05       		.uleb128 0x5
 3058 00af 01       		.uleb128 0x1
 3059 00b0 13       		.uleb128 0x13
 3060 00b1 00       		.byte	0
 3061 00b2 00       		.byte	0
 3062 00b3 10       		.uleb128 0x10
 3063 00b4 0D       		.uleb128 0xd
 3064 00b5 00       		.byte	0
 3065 00b6 03       		.uleb128 0x3
 3066 00b7 08       		.uleb128 0x8
 3067 00b8 3A       		.uleb128 0x3a
 3068 00b9 0B       		.uleb128 0xb
 3069 00ba 3B       		.uleb128 0x3b
 3070 00bb 05       		.uleb128 0x5
 3071 00bc 49       		.uleb128 0x49
 3072 00bd 13       		.uleb128 0x13
 3073 00be 38       		.uleb128 0x38
 3074 00bf 0B       		.uleb128 0xb
 3075 00c0 00       		.byte	0
 3076 00c1 00       		.byte	0
 3077 00c2 11       		.uleb128 0x11
 3078 00c3 0F       		.uleb128 0xf
 3079 00c4 00       		.byte	0
 3080 00c5 0B       		.uleb128 0xb
 3081 00c6 0B       		.uleb128 0xb
 3082 00c7 49       		.uleb128 0x49
 3083 00c8 13       		.uleb128 0x13
 3084 00c9 00       		.byte	0
 3085 00ca 00       		.byte	0
 3086 00cb 12       		.uleb128 0x12
 3087 00cc 26       		.uleb128 0x26
 3088 00cd 00       		.byte	0
 3089 00ce 00       		.byte	0
ARM GAS  C:\Users\ASUS\AppData\Local\Temp\ccuOUgOD.s 			page 92


 3090 00cf 00       		.byte	0
 3091 00d0 13       		.uleb128 0x13
 3092 00d1 17       		.uleb128 0x17
 3093 00d2 01       		.byte	0x1
 3094 00d3 0B       		.uleb128 0xb
 3095 00d4 0B       		.uleb128 0xb
 3096 00d5 3A       		.uleb128 0x3a
 3097 00d6 0B       		.uleb128 0xb
 3098 00d7 3B       		.uleb128 0x3b
 3099 00d8 05       		.uleb128 0x5
 3100 00d9 01       		.uleb128 0x1
 3101 00da 13       		.uleb128 0x13
 3102 00db 00       		.byte	0
 3103 00dc 00       		.byte	0
 3104 00dd 14       		.uleb128 0x14
 3105 00de 0D       		.uleb128 0xd
 3106 00df 00       		.byte	0
 3107 00e0 03       		.uleb128 0x3
 3108 00e1 08       		.uleb128 0x8
 3109 00e2 3A       		.uleb128 0x3a
 3110 00e3 0B       		.uleb128 0xb
 3111 00e4 3B       		.uleb128 0x3b
 3112 00e5 05       		.uleb128 0x5
 3113 00e6 49       		.uleb128 0x49
 3114 00e7 13       		.uleb128 0x13
 3115 00e8 00       		.byte	0
 3116 00e9 00       		.byte	0
 3117 00ea 15       		.uleb128 0x15
 3118 00eb 0D       		.uleb128 0xd
 3119 00ec 00       		.byte	0
 3120 00ed 03       		.uleb128 0x3
 3121 00ee 0E       		.uleb128 0xe
 3122 00ef 3A       		.uleb128 0x3a
 3123 00f0 0B       		.uleb128 0xb
 3124 00f1 3B       		.uleb128 0x3b
 3125 00f2 05       		.uleb128 0x5
 3126 00f3 49       		.uleb128 0x49
 3127 00f4 13       		.uleb128 0x13
 3128 00f5 00       		.byte	0
 3129 00f6 00       		.byte	0
 3130 00f7 16       		.uleb128 0x16
 3131 00f8 2E       		.uleb128 0x2e
 3132 00f9 01       		.byte	0x1
 3133 00fa 03       		.uleb128 0x3
 3134 00fb 0E       		.uleb128 0xe
 3135 00fc 3A       		.uleb128 0x3a
 3136 00fd 0B       		.uleb128 0xb
 3137 00fe 3B       		.uleb128 0x3b
 3138 00ff 05       		.uleb128 0x5
 3139 0100 27       		.uleb128 0x27
 3140 0101 19       		.uleb128 0x19
 3141 0102 20       		.uleb128 0x20
 3142 0103 0B       		.uleb128 0xb
 3143 0104 01       		.uleb128 0x1
 3144 0105 13       		.uleb128 0x13
 3145 0106 00       		.byte	0
 3146 0107 00       		.byte	0
ARM GAS  C:\Users\ASUS\AppData\Local\Temp\ccuOUgOD.s 			page 93


 3147 0108 17       		.uleb128 0x17
 3148 0109 05       		.uleb128 0x5
 3149 010a 00       		.byte	0
 3150 010b 03       		.uleb128 0x3
 3151 010c 0E       		.uleb128 0xe
 3152 010d 3A       		.uleb128 0x3a
 3153 010e 0B       		.uleb128 0xb
 3154 010f 3B       		.uleb128 0x3b
 3155 0110 05       		.uleb128 0x5
 3156 0111 49       		.uleb128 0x49
 3157 0112 13       		.uleb128 0x13
 3158 0113 00       		.byte	0
 3159 0114 00       		.byte	0
 3160 0115 18       		.uleb128 0x18
 3161 0116 34       		.uleb128 0x34
 3162 0117 00       		.byte	0
 3163 0118 03       		.uleb128 0x3
 3164 0119 08       		.uleb128 0x8
 3165 011a 3A       		.uleb128 0x3a
 3166 011b 0B       		.uleb128 0xb
 3167 011c 3B       		.uleb128 0x3b
 3168 011d 05       		.uleb128 0x5
 3169 011e 49       		.uleb128 0x49
 3170 011f 13       		.uleb128 0x13
 3171 0120 00       		.byte	0
 3172 0121 00       		.byte	0
 3173 0122 19       		.uleb128 0x19
 3174 0123 34       		.uleb128 0x34
 3175 0124 00       		.byte	0
 3176 0125 03       		.uleb128 0x3
 3177 0126 0E       		.uleb128 0xe
 3178 0127 3A       		.uleb128 0x3a
 3179 0128 0B       		.uleb128 0xb
 3180 0129 3B       		.uleb128 0x3b
 3181 012a 05       		.uleb128 0x5
 3182 012b 49       		.uleb128 0x49
 3183 012c 13       		.uleb128 0x13
 3184 012d 00       		.byte	0
 3185 012e 00       		.byte	0
 3186 012f 1A       		.uleb128 0x1a
 3187 0130 26       		.uleb128 0x26
 3188 0131 00       		.byte	0
 3189 0132 49       		.uleb128 0x49
 3190 0133 13       		.uleb128 0x13
 3191 0134 00       		.byte	0
 3192 0135 00       		.byte	0
 3193 0136 1B       		.uleb128 0x1b
 3194 0137 2E       		.uleb128 0x2e
 3195 0138 01       		.byte	0x1
 3196 0139 3F       		.uleb128 0x3f
 3197 013a 19       		.uleb128 0x19
 3198 013b 03       		.uleb128 0x3
 3199 013c 0E       		.uleb128 0xe
 3200 013d 3A       		.uleb128 0x3a
 3201 013e 0B       		.uleb128 0xb
 3202 013f 3B       		.uleb128 0x3b
 3203 0140 05       		.uleb128 0x5
ARM GAS  C:\Users\ASUS\AppData\Local\Temp\ccuOUgOD.s 			page 94


 3204 0141 27       		.uleb128 0x27
 3205 0142 19       		.uleb128 0x19
 3206 0143 11       		.uleb128 0x11
 3207 0144 01       		.uleb128 0x1
 3208 0145 12       		.uleb128 0x12
 3209 0146 06       		.uleb128 0x6
 3210 0147 40       		.uleb128 0x40
 3211 0148 18       		.uleb128 0x18
 3212 0149 9742     		.uleb128 0x2117
 3213 014b 19       		.uleb128 0x19
 3214 014c 01       		.uleb128 0x1
 3215 014d 13       		.uleb128 0x13
 3216 014e 00       		.byte	0
 3217 014f 00       		.byte	0
 3218 0150 1C       		.uleb128 0x1c
 3219 0151 34       		.uleb128 0x34
 3220 0152 00       		.byte	0
 3221 0153 03       		.uleb128 0x3
 3222 0154 0E       		.uleb128 0xe
 3223 0155 3A       		.uleb128 0x3a
 3224 0156 0B       		.uleb128 0xb
 3225 0157 3B       		.uleb128 0x3b
 3226 0158 05       		.uleb128 0x5
 3227 0159 49       		.uleb128 0x49
 3228 015a 13       		.uleb128 0x13
 3229 015b 02       		.uleb128 0x2
 3230 015c 17       		.uleb128 0x17
 3231 015d 00       		.byte	0
 3232 015e 00       		.byte	0
 3233 015f 1D       		.uleb128 0x1d
 3234 0160 1D       		.uleb128 0x1d
 3235 0161 01       		.byte	0x1
 3236 0162 31       		.uleb128 0x31
 3237 0163 13       		.uleb128 0x13
 3238 0164 11       		.uleb128 0x11
 3239 0165 01       		.uleb128 0x1
 3240 0166 12       		.uleb128 0x12
 3241 0167 06       		.uleb128 0x6
 3242 0168 58       		.uleb128 0x58
 3243 0169 0B       		.uleb128 0xb
 3244 016a 59       		.uleb128 0x59
 3245 016b 05       		.uleb128 0x5
 3246 016c 01       		.uleb128 0x1
 3247 016d 13       		.uleb128 0x13
 3248 016e 00       		.byte	0
 3249 016f 00       		.byte	0
 3250 0170 1E       		.uleb128 0x1e
 3251 0171 05       		.uleb128 0x5
 3252 0172 00       		.byte	0
 3253 0173 31       		.uleb128 0x31
 3254 0174 13       		.uleb128 0x13
 3255 0175 02       		.uleb128 0x2
 3256 0176 17       		.uleb128 0x17
 3257 0177 00       		.byte	0
 3258 0178 00       		.byte	0
 3259 0179 1F       		.uleb128 0x1f
 3260 017a 0B       		.uleb128 0xb
ARM GAS  C:\Users\ASUS\AppData\Local\Temp\ccuOUgOD.s 			page 95


 3261 017b 01       		.byte	0x1
 3262 017c 11       		.uleb128 0x11
 3263 017d 01       		.uleb128 0x1
 3264 017e 12       		.uleb128 0x12
 3265 017f 06       		.uleb128 0x6
 3266 0180 00       		.byte	0
 3267 0181 00       		.byte	0
 3268 0182 20       		.uleb128 0x20
 3269 0183 34       		.uleb128 0x34
 3270 0184 00       		.byte	0
 3271 0185 31       		.uleb128 0x31
 3272 0186 13       		.uleb128 0x13
 3273 0187 02       		.uleb128 0x2
 3274 0188 17       		.uleb128 0x17
 3275 0189 00       		.byte	0
 3276 018a 00       		.byte	0
 3277 018b 21       		.uleb128 0x21
 3278 018c 898201   		.uleb128 0x4109
 3279 018f 00       		.byte	0
 3280 0190 11       		.uleb128 0x11
 3281 0191 01       		.uleb128 0x1
 3282 0192 31       		.uleb128 0x31
 3283 0193 13       		.uleb128 0x13
 3284 0194 00       		.byte	0
 3285 0195 00       		.byte	0
 3286 0196 22       		.uleb128 0x22
 3287 0197 05       		.uleb128 0x5
 3288 0198 00       		.byte	0
 3289 0199 03       		.uleb128 0x3
 3290 019a 0E       		.uleb128 0xe
 3291 019b 3A       		.uleb128 0x3a
 3292 019c 0B       		.uleb128 0xb
 3293 019d 3B       		.uleb128 0x3b
 3294 019e 05       		.uleb128 0x5
 3295 019f 49       		.uleb128 0x49
 3296 01a0 13       		.uleb128 0x13
 3297 01a1 02       		.uleb128 0x2
 3298 01a2 17       		.uleb128 0x17
 3299 01a3 00       		.byte	0
 3300 01a4 00       		.byte	0
 3301 01a5 23       		.uleb128 0x23
 3302 01a6 05       		.uleb128 0x5
 3303 01a7 00       		.byte	0
 3304 01a8 03       		.uleb128 0x3
 3305 01a9 0E       		.uleb128 0xe
 3306 01aa 3A       		.uleb128 0x3a
 3307 01ab 0B       		.uleb128 0xb
 3308 01ac 3B       		.uleb128 0x3b
 3309 01ad 05       		.uleb128 0x5
 3310 01ae 49       		.uleb128 0x49
 3311 01af 13       		.uleb128 0x13
 3312 01b0 02       		.uleb128 0x2
 3313 01b1 18       		.uleb128 0x18
 3314 01b2 00       		.byte	0
 3315 01b3 00       		.byte	0
 3316 01b4 24       		.uleb128 0x24
 3317 01b5 2E       		.uleb128 0x2e
ARM GAS  C:\Users\ASUS\AppData\Local\Temp\ccuOUgOD.s 			page 96


 3318 01b6 01       		.byte	0x1
 3319 01b7 3F       		.uleb128 0x3f
 3320 01b8 19       		.uleb128 0x19
 3321 01b9 03       		.uleb128 0x3
 3322 01ba 0E       		.uleb128 0xe
 3323 01bb 3A       		.uleb128 0x3a
 3324 01bc 0B       		.uleb128 0xb
 3325 01bd 3B       		.uleb128 0x3b
 3326 01be 05       		.uleb128 0x5
 3327 01bf 27       		.uleb128 0x27
 3328 01c0 19       		.uleb128 0x19
 3329 01c1 49       		.uleb128 0x49
 3330 01c2 13       		.uleb128 0x13
 3331 01c3 11       		.uleb128 0x11
 3332 01c4 01       		.uleb128 0x1
 3333 01c5 12       		.uleb128 0x12
 3334 01c6 06       		.uleb128 0x6
 3335 01c7 40       		.uleb128 0x40
 3336 01c8 18       		.uleb128 0x18
 3337 01c9 9742     		.uleb128 0x2117
 3338 01cb 19       		.uleb128 0x19
 3339 01cc 01       		.uleb128 0x1
 3340 01cd 13       		.uleb128 0x13
 3341 01ce 00       		.byte	0
 3342 01cf 00       		.byte	0
 3343 01d0 25       		.uleb128 0x25
 3344 01d1 898201   		.uleb128 0x4109
 3345 01d4 01       		.byte	0x1
 3346 01d5 11       		.uleb128 0x11
 3347 01d6 01       		.uleb128 0x1
 3348 01d7 31       		.uleb128 0x31
 3349 01d8 13       		.uleb128 0x13
 3350 01d9 01       		.uleb128 0x1
 3351 01da 13       		.uleb128 0x13
 3352 01db 00       		.byte	0
 3353 01dc 00       		.byte	0
 3354 01dd 26       		.uleb128 0x26
 3355 01de 8A8201   		.uleb128 0x410a
 3356 01e1 00       		.byte	0
 3357 01e2 02       		.uleb128 0x2
 3358 01e3 18       		.uleb128 0x18
 3359 01e4 9142     		.uleb128 0x2111
 3360 01e6 18       		.uleb128 0x18
 3361 01e7 00       		.byte	0
 3362 01e8 00       		.byte	0
 3363 01e9 27       		.uleb128 0x27
 3364 01ea 898201   		.uleb128 0x4109
 3365 01ed 01       		.byte	0x1
 3366 01ee 11       		.uleb128 0x11
 3367 01ef 01       		.uleb128 0x1
 3368 01f0 31       		.uleb128 0x31
 3369 01f1 13       		.uleb128 0x13
 3370 01f2 00       		.byte	0
 3371 01f3 00       		.byte	0
 3372 01f4 28       		.uleb128 0x28
 3373 01f5 34       		.uleb128 0x34
 3374 01f6 00       		.byte	0
ARM GAS  C:\Users\ASUS\AppData\Local\Temp\ccuOUgOD.s 			page 97


 3375 01f7 03       		.uleb128 0x3
 3376 01f8 0E       		.uleb128 0xe
 3377 01f9 3A       		.uleb128 0x3a
 3378 01fa 0B       		.uleb128 0xb
 3379 01fb 3B       		.uleb128 0x3b
 3380 01fc 05       		.uleb128 0x5
 3381 01fd 49       		.uleb128 0x49
 3382 01fe 13       		.uleb128 0x13
 3383 01ff 02       		.uleb128 0x2
 3384 0200 18       		.uleb128 0x18
 3385 0201 00       		.byte	0
 3386 0202 00       		.byte	0
 3387 0203 29       		.uleb128 0x29
 3388 0204 34       		.uleb128 0x34
 3389 0205 00       		.byte	0
 3390 0206 03       		.uleb128 0x3
 3391 0207 0E       		.uleb128 0xe
 3392 0208 3A       		.uleb128 0x3a
 3393 0209 0B       		.uleb128 0xb
 3394 020a 3B       		.uleb128 0x3b
 3395 020b 05       		.uleb128 0x5
 3396 020c 49       		.uleb128 0x49
 3397 020d 13       		.uleb128 0x13
 3398 020e 3F       		.uleb128 0x3f
 3399 020f 19       		.uleb128 0x19
 3400 0210 3C       		.uleb128 0x3c
 3401 0211 19       		.uleb128 0x19
 3402 0212 00       		.byte	0
 3403 0213 00       		.byte	0
 3404 0214 2A       		.uleb128 0x2a
 3405 0215 2E       		.uleb128 0x2e
 3406 0216 00       		.byte	0
 3407 0217 3F       		.uleb128 0x3f
 3408 0218 19       		.uleb128 0x19
 3409 0219 3C       		.uleb128 0x3c
 3410 021a 19       		.uleb128 0x19
 3411 021b 6E       		.uleb128 0x6e
 3412 021c 0E       		.uleb128 0xe
 3413 021d 03       		.uleb128 0x3
 3414 021e 0E       		.uleb128 0xe
 3415 021f 3A       		.uleb128 0x3a
 3416 0220 0B       		.uleb128 0xb
 3417 0221 3B       		.uleb128 0x3b
 3418 0222 0B       		.uleb128 0xb
 3419 0223 00       		.byte	0
 3420 0224 00       		.byte	0
 3421 0225 00       		.byte	0
 3422              		.section	.debug_loc,"",%progbits
 3423              	.Ldebug_loc0:
 3424              	.LLST0:
 3425 0000 02000000 		.4byte	.LVL0
 3426 0004 06000000 		.4byte	.LVL1
 3427 0008 0200     		.2byte	0x2
 3428 000a 30       		.byte	0x30
 3429 000b 9F       		.byte	0x9f
 3430 000c 06000000 		.4byte	.LVL1
 3431 0010 22000000 		.4byte	.LVL3
ARM GAS  C:\Users\ASUS\AppData\Local\Temp\ccuOUgOD.s 			page 98


 3432 0014 0100     		.2byte	0x1
 3433 0016 53       		.byte	0x53
 3434 0017 24000000 		.4byte	.LVL4
 3435 001b 74000000 		.4byte	.LVL17
 3436 001f 0100     		.2byte	0x1
 3437 0021 55       		.byte	0x55
 3438 0022 74000000 		.4byte	.LVL17
 3439 0026 76000000 		.4byte	.LVL18
 3440 002a 0100     		.2byte	0x1
 3441 002c 53       		.byte	0x53
 3442 002d 76000000 		.4byte	.LVL18
 3443 0031 7A000000 		.4byte	.LVL20
 3444 0035 0100     		.2byte	0x1
 3445 0037 55       		.byte	0x55
 3446 0038 7A000000 		.4byte	.LVL20
 3447 003c 84000000 		.4byte	.LFE2
 3448 0040 0300     		.2byte	0x3
 3449 0042 73       		.byte	0x73
 3450 0043 7F       		.sleb128 -1
 3451 0044 9F       		.byte	0x9f
 3452 0045 00000000 		.4byte	0
 3453 0049 00000000 		.4byte	0
 3454              	.LLST1:
 3455 004d 28000000 		.4byte	.LVL6
 3456 0051 48000000 		.4byte	.LVL7
 3457 0055 0100     		.2byte	0x1
 3458 0057 52       		.byte	0x52
 3459 0058 4E000000 		.4byte	.LVL9
 3460 005c 56000000 		.4byte	.LVL10
 3461 0060 0100     		.2byte	0x1
 3462 0062 52       		.byte	0x52
 3463 0063 00000000 		.4byte	0
 3464 0067 00000000 		.4byte	0
 3465              	.LLST2:
 3466 006b 26000000 		.4byte	.LVL5
 3467 006f 74000000 		.4byte	.LVL17
 3468 0073 0100     		.2byte	0x1
 3469 0075 56       		.byte	0x56
 3470 0076 00000000 		.4byte	0
 3471 007a 00000000 		.4byte	0
 3472              	.LLST3:
 3473 007e 24000000 		.4byte	.LVL4
 3474 0082 7A000000 		.4byte	.LVL19
 3475 0086 0100     		.2byte	0x1
 3476 0088 54       		.byte	0x54
 3477 0089 00000000 		.4byte	0
 3478 008d 00000000 		.4byte	0
 3479              	.LLST4:
 3480 0091 58000000 		.4byte	.LVL11
 3481 0095 70000000 		.4byte	.LVL15
 3482 0099 0100     		.2byte	0x1
 3483 009b 54       		.byte	0x54
 3484 009c 00000000 		.4byte	0
 3485 00a0 00000000 		.4byte	0
 3486              	.LLST5:
 3487 00a4 5A000000 		.4byte	.LVL12
 3488 00a8 5E000000 		.4byte	.LVL13
ARM GAS  C:\Users\ASUS\AppData\Local\Temp\ccuOUgOD.s 			page 99


 3489 00ac 0200     		.2byte	0x2
 3490 00ae 30       		.byte	0x30
 3491 00af 9F       		.byte	0x9f
 3492 00b0 5E000000 		.4byte	.LVL13
 3493 00b4 70000000 		.4byte	.LVL15
 3494 00b8 0100     		.2byte	0x1
 3495 00ba 53       		.byte	0x53
 3496 00bb 00000000 		.4byte	0
 3497 00bf 00000000 		.4byte	0
 3498              	.LLST6:
 3499 00c3 5A000000 		.4byte	.LVL12
 3500 00c7 70000000 		.4byte	.LVL15
 3501 00cb 0100     		.2byte	0x1
 3502 00cd 51       		.byte	0x51
 3503 00ce 00000000 		.4byte	0
 3504 00d2 00000000 		.4byte	0
 3505              	.LLST7:
 3506 00d6 00000000 		.4byte	.LVL21
 3507 00da 0E000000 		.4byte	.LVL24
 3508 00de 0100     		.2byte	0x1
 3509 00e0 50       		.byte	0x50
 3510 00e1 0E000000 		.4byte	.LVL24
 3511 00e5 16000000 		.4byte	.LFE9
 3512 00e9 0400     		.2byte	0x4
 3513 00eb F3       		.byte	0xf3
 3514 00ec 01       		.uleb128 0x1
 3515 00ed 50       		.byte	0x50
 3516 00ee 9F       		.byte	0x9f
 3517 00ef 00000000 		.4byte	0
 3518 00f3 00000000 		.4byte	0
 3519              	.LLST8:
 3520 00f7 02000000 		.4byte	.LVL22
 3521 00fb 08000000 		.4byte	.LVL23
 3522 00ff 0200     		.2byte	0x2
 3523 0101 30       		.byte	0x30
 3524 0102 9F       		.byte	0x9f
 3525 0103 08000000 		.4byte	.LVL23
 3526 0107 14000000 		.4byte	.LVL25
 3527 010b 0100     		.2byte	0x1
 3528 010d 54       		.byte	0x54
 3529 010e 14000000 		.4byte	.LVL25
 3530 0112 16000000 		.4byte	.LFE9
 3531 0116 0600     		.2byte	0x6
 3532 0118 73       		.byte	0x73
 3533 0119 00       		.sleb128 0
 3534 011a 72       		.byte	0x72
 3535 011b 00       		.sleb128 0
 3536 011c 1C       		.byte	0x1c
 3537 011d 9F       		.byte	0x9f
 3538 011e 00000000 		.4byte	0
 3539 0122 00000000 		.4byte	0
 3540              	.LLST9:
 3541 0126 00000000 		.4byte	.LVL26
 3542 012a 12000000 		.4byte	.LVL32
 3543 012e 0100     		.2byte	0x1
 3544 0130 50       		.byte	0x50
 3545 0131 12000000 		.4byte	.LVL32
ARM GAS  C:\Users\ASUS\AppData\Local\Temp\ccuOUgOD.s 			page 100


 3546 0135 36000000 		.4byte	.LFE3
 3547 0139 0400     		.2byte	0x4
 3548 013b F3       		.byte	0xf3
 3549 013c 01       		.uleb128 0x1
 3550 013d 50       		.byte	0x50
 3551 013e 9F       		.byte	0x9f
 3552 013f 00000000 		.4byte	0
 3553 0143 00000000 		.4byte	0
 3554              	.LLST10:
 3555 0147 04000000 		.4byte	.LVL27
 3556 014b 12000000 		.4byte	.LVL32
 3557 014f 0200     		.2byte	0x2
 3558 0151 30       		.byte	0x30
 3559 0152 9F       		.byte	0x9f
 3560 0153 12000000 		.4byte	.LVL32
 3561 0157 1E000000 		.4byte	.LVL34
 3562 015b 0200     		.2byte	0x2
 3563 015d 91       		.byte	0x91
 3564 015e 64       		.sleb128 -28
 3565 015f 1E000000 		.4byte	.LVL34
 3566 0163 22000000 		.4byte	.LVL35
 3567 0167 0100     		.2byte	0x1
 3568 0169 50       		.byte	0x50
 3569 016a 22000000 		.4byte	.LVL35
 3570 016e 36000000 		.4byte	.LFE3
 3571 0172 0200     		.2byte	0x2
 3572 0174 91       		.byte	0x91
 3573 0175 64       		.sleb128 -28
 3574 0176 00000000 		.4byte	0
 3575 017a 00000000 		.4byte	0
 3576              	.LLST11:
 3577 017e 0C000000 		.4byte	.LVL31
 3578 0182 34000000 		.4byte	.LVL43
 3579 0186 0100     		.2byte	0x1
 3580 0188 57       		.byte	0x57
 3581 0189 00000000 		.4byte	0
 3582 018d 00000000 		.4byte	0
 3583              	.LLST12:
 3584 0191 08000000 		.4byte	.LVL29
 3585 0195 12000000 		.4byte	.LVL32
 3586 0199 0100     		.2byte	0x1
 3587 019b 53       		.byte	0x53
 3588 019c 12000000 		.4byte	.LVL32
 3589 01a0 2A000000 		.4byte	.LVL38
 3590 01a4 0100     		.2byte	0x1
 3591 01a6 56       		.byte	0x56
 3592 01a7 2A000000 		.4byte	.LVL38
 3593 01ab 2C000000 		.4byte	.LVL39
 3594 01af 0100     		.2byte	0x1
 3595 01b1 53       		.byte	0x53
 3596 01b2 2C000000 		.4byte	.LVL39
 3597 01b6 34000000 		.4byte	.LVL42
 3598 01ba 0100     		.2byte	0x1
 3599 01bc 56       		.byte	0x56
 3600 01bd 34000000 		.4byte	.LVL42
 3601 01c1 36000000 		.4byte	.LFE3
 3602 01c5 0300     		.2byte	0x3
ARM GAS  C:\Users\ASUS\AppData\Local\Temp\ccuOUgOD.s 			page 101


 3603 01c7 73       		.byte	0x73
 3604 01c8 7F       		.sleb128 -1
 3605 01c9 9F       		.byte	0x9f
 3606 01ca 00000000 		.4byte	0
 3607 01ce 00000000 		.4byte	0
 3608              	.LLST13:
 3609 01d2 06000000 		.4byte	.LVL28
 3610 01d6 34000000 		.4byte	.LVL40
 3611 01da 0100     		.2byte	0x1
 3612 01dc 54       		.byte	0x54
 3613 01dd 00000000 		.4byte	0
 3614 01e1 00000000 		.4byte	0
 3615              	.LLST14:
 3616 01e5 0A000000 		.4byte	.LVL30
 3617 01e9 34000000 		.4byte	.LVL41
 3618 01ed 0100     		.2byte	0x1
 3619 01ef 55       		.byte	0x55
 3620 01f0 00000000 		.4byte	0
 3621 01f4 00000000 		.4byte	0
 3622              	.LLST15:
 3623 01f8 00000000 		.4byte	.LVL44
 3624 01fc 10000000 		.4byte	.LVL49
 3625 0200 0100     		.2byte	0x1
 3626 0202 50       		.byte	0x50
 3627 0203 10000000 		.4byte	.LVL49
 3628 0207 18000000 		.4byte	.LVL52
 3629 020b 0400     		.2byte	0x4
 3630 020d F3       		.byte	0xf3
 3631 020e 01       		.uleb128 0x1
 3632 020f 50       		.byte	0x50
 3633 0210 9F       		.byte	0x9f
 3634 0211 18000000 		.4byte	.LVL52
 3635 0215 1A000000 		.4byte	.LVL53
 3636 0219 0100     		.2byte	0x1
 3637 021b 50       		.byte	0x50
 3638 021c 1A000000 		.4byte	.LVL53
 3639 0220 2A000000 		.4byte	.LFE4
 3640 0224 0400     		.2byte	0x4
 3641 0226 F3       		.byte	0xf3
 3642 0227 01       		.uleb128 0x1
 3643 0228 50       		.byte	0x50
 3644 0229 9F       		.byte	0x9f
 3645 022a 00000000 		.4byte	0
 3646 022e 00000000 		.4byte	0
 3647              	.LLST16:
 3648 0232 00000000 		.4byte	.LVL44
 3649 0236 13000000 		.4byte	.LVL50-1
 3650 023a 0100     		.2byte	0x1
 3651 023c 51       		.byte	0x51
 3652 023d 13000000 		.4byte	.LVL50-1
 3653 0241 18000000 		.4byte	.LVL52
 3654 0245 0100     		.2byte	0x1
 3655 0247 56       		.byte	0x56
 3656 0248 18000000 		.4byte	.LVL52
 3657 024c 1A000000 		.4byte	.LVL53
 3658 0250 0100     		.2byte	0x1
 3659 0252 51       		.byte	0x51
ARM GAS  C:\Users\ASUS\AppData\Local\Temp\ccuOUgOD.s 			page 102


 3660 0253 1A000000 		.4byte	.LVL53
 3661 0257 28000000 		.4byte	.LVL57
 3662 025b 0100     		.2byte	0x1
 3663 025d 56       		.byte	0x56
 3664 025e 28000000 		.4byte	.LVL57
 3665 0262 2A000000 		.4byte	.LFE4
 3666 0266 0400     		.2byte	0x4
 3667 0268 F3       		.byte	0xf3
 3668 0269 01       		.uleb128 0x1
 3669 026a 51       		.byte	0x51
 3670 026b 9F       		.byte	0x9f
 3671 026c 00000000 		.4byte	0
 3672 0270 00000000 		.4byte	0
 3673              	.LLST17:
 3674 0274 00000000 		.4byte	.LVL44
 3675 0278 08000000 		.4byte	.LVL46
 3676 027c 0100     		.2byte	0x1
 3677 027e 52       		.byte	0x52
 3678 027f 00000000 		.4byte	0
 3679 0283 00000000 		.4byte	0
 3680              	.LLST18:
 3681 0287 00000000 		.4byte	.LVL44
 3682 028b 0E000000 		.4byte	.LVL48
 3683 028f 0100     		.2byte	0x1
 3684 0291 53       		.byte	0x53
 3685 0292 0E000000 		.4byte	.LVL48
 3686 0296 28000000 		.4byte	.LVL55
 3687 029a 0100     		.2byte	0x1
 3688 029c 54       		.byte	0x54
 3689 029d 28000000 		.4byte	.LVL55
 3690 02a1 2A000000 		.4byte	.LFE4
 3691 02a5 0400     		.2byte	0x4
 3692 02a7 F3       		.byte	0xf3
 3693 02a8 01       		.uleb128 0x1
 3694 02a9 53       		.byte	0x53
 3695 02aa 9F       		.byte	0x9f
 3696 02ab 00000000 		.4byte	0
 3697 02af 00000000 		.4byte	0
 3698              	.LLST19:
 3699 02b3 06000000 		.4byte	.LVL45
 3700 02b7 16000000 		.4byte	.LVL51
 3701 02bb 0200     		.2byte	0x2
 3702 02bd 30       		.byte	0x30
 3703 02be 9F       		.byte	0x9f
 3704 02bf 16000000 		.4byte	.LVL51
 3705 02c3 18000000 		.4byte	.LVL52
 3706 02c7 0100     		.2byte	0x1
 3707 02c9 50       		.byte	0x50
 3708 02ca 18000000 		.4byte	.LVL52
 3709 02ce 1A000000 		.4byte	.LVL53
 3710 02d2 0200     		.2byte	0x2
 3711 02d4 30       		.byte	0x30
 3712 02d5 9F       		.byte	0x9f
 3713 02d6 1A000000 		.4byte	.LVL53
 3714 02da 28000000 		.4byte	.LVL56
 3715 02de 0100     		.2byte	0x1
 3716 02e0 55       		.byte	0x55
ARM GAS  C:\Users\ASUS\AppData\Local\Temp\ccuOUgOD.s 			page 103


 3717 02e1 28000000 		.4byte	.LVL56
 3718 02e5 2A000000 		.4byte	.LFE4
 3719 02e9 0100     		.2byte	0x1
 3720 02eb 50       		.byte	0x50
 3721 02ec 00000000 		.4byte	0
 3722 02f0 00000000 		.4byte	0
 3723              	.LLST20:
 3724 02f4 08000000 		.4byte	.LVL46
 3725 02f8 13000000 		.4byte	.LVL50-1
 3726 02fc 0100     		.2byte	0x1
 3727 02fe 52       		.byte	0x52
 3728 02ff 18000000 		.4byte	.LVL52
 3729 0303 1A000000 		.4byte	.LVL53
 3730 0307 0100     		.2byte	0x1
 3731 0309 52       		.byte	0x52
 3732 030a 00000000 		.4byte	0
 3733 030e 00000000 		.4byte	0
 3734              	.LLST21:
 3735 0312 0A000000 		.4byte	.LVL47
 3736 0316 28000000 		.4byte	.LVL58
 3737 031a 0100     		.2byte	0x1
 3738 031c 57       		.byte	0x57
 3739 031d 00000000 		.4byte	0
 3740 0321 00000000 		.4byte	0
 3741              	.LLST22:
 3742 0325 00000000 		.4byte	.LVL59
 3743 0329 16000000 		.4byte	.LVL65
 3744 032d 0100     		.2byte	0x1
 3745 032f 50       		.byte	0x50
 3746 0330 16000000 		.4byte	.LVL65
 3747 0334 38000000 		.4byte	.LVL76
 3748 0338 0100     		.2byte	0x1
 3749 033a 57       		.byte	0x57
 3750 033b 38000000 		.4byte	.LVL76
 3751 033f 3A000000 		.4byte	.LFE6
 3752 0343 0400     		.2byte	0x4
 3753 0345 F3       		.byte	0xf3
 3754 0346 01       		.uleb128 0x1
 3755 0347 50       		.byte	0x50
 3756 0348 9F       		.byte	0x9f
 3757 0349 00000000 		.4byte	0
 3758 034d 00000000 		.4byte	0
 3759              	.LLST23:
 3760 0351 06000000 		.4byte	.LVL60
 3761 0355 16000000 		.4byte	.LVL65
 3762 0359 0200     		.2byte	0x2
 3763 035b 30       		.byte	0x30
 3764 035c 9F       		.byte	0x9f
 3765 035d 16000000 		.4byte	.LVL65
 3766 0361 22000000 		.4byte	.LVL67
 3767 0365 0200     		.2byte	0x2
 3768 0367 7D       		.byte	0x7d
 3769 0368 00       		.sleb128 0
 3770 0369 22000000 		.4byte	.LVL67
 3771 036d 26000000 		.4byte	.LVL68
 3772 0371 0100     		.2byte	0x1
 3773 0373 50       		.byte	0x50
ARM GAS  C:\Users\ASUS\AppData\Local\Temp\ccuOUgOD.s 			page 104


 3774 0374 26000000 		.4byte	.LVL68
 3775 0378 38000000 		.4byte	.LVL72
 3776 037c 0200     		.2byte	0x2
 3777 037e 7D       		.byte	0x7d
 3778 037f 00       		.sleb128 0
 3779 0380 38000000 		.4byte	.LVL72
 3780 0384 3A000000 		.4byte	.LFE6
 3781 0388 0100     		.2byte	0x1
 3782 038a 50       		.byte	0x50
 3783 038b 00000000 		.4byte	0
 3784 038f 00000000 		.4byte	0
 3785              	.LLST24:
 3786 0393 0E000000 		.4byte	.LVL63
 3787 0397 12000000 		.4byte	.LVL64
 3788 039b 0100     		.2byte	0x1
 3789 039d 53       		.byte	0x53
 3790 039e 12000000 		.4byte	.LVL64
 3791 03a2 3A000000 		.4byte	.LFE6
 3792 03a6 0200     		.2byte	0x2
 3793 03a8 91       		.byte	0x91
 3794 03a9 64       		.sleb128 -28
 3795 03aa 00000000 		.4byte	0
 3796 03ae 00000000 		.4byte	0
 3797              	.LLST25:
 3798 03b2 0E000000 		.4byte	.LVL63
 3799 03b6 16000000 		.4byte	.LVL65
 3800 03ba 0200     		.2byte	0x2
 3801 03bc 30       		.byte	0x30
 3802 03bd 9F       		.byte	0x9f
 3803 03be 16000000 		.4byte	.LVL65
 3804 03c2 38000000 		.4byte	.LVL75
 3805 03c6 0100     		.2byte	0x1
 3806 03c8 56       		.byte	0x56
 3807 03c9 00000000 		.4byte	0
 3808 03cd 00000000 		.4byte	0
 3809              	.LLST26:
 3810 03d1 08000000 		.4byte	.LVL61
 3811 03d5 38000000 		.4byte	.LVL73
 3812 03d9 0100     		.2byte	0x1
 3813 03db 54       		.byte	0x54
 3814 03dc 00000000 		.4byte	0
 3815 03e0 00000000 		.4byte	0
 3816              	.LLST27:
 3817 03e4 0A000000 		.4byte	.LVL62
 3818 03e8 38000000 		.4byte	.LVL74
 3819 03ec 0100     		.2byte	0x1
 3820 03ee 55       		.byte	0x55
 3821 03ef 00000000 		.4byte	0
 3822 03f3 00000000 		.4byte	0
 3823              	.LLST28:
 3824 03f7 00000000 		.4byte	.LVL77
 3825 03fb 10000000 		.4byte	.LVL82
 3826 03ff 0100     		.2byte	0x1
 3827 0401 50       		.byte	0x50
 3828 0402 10000000 		.4byte	.LVL82
 3829 0406 18000000 		.4byte	.LVL85
 3830 040a 0400     		.2byte	0x4
ARM GAS  C:\Users\ASUS\AppData\Local\Temp\ccuOUgOD.s 			page 105


 3831 040c F3       		.byte	0xf3
 3832 040d 01       		.uleb128 0x1
 3833 040e 50       		.byte	0x50
 3834 040f 9F       		.byte	0x9f
 3835 0410 18000000 		.4byte	.LVL85
 3836 0414 1A000000 		.4byte	.LVL86
 3837 0418 0100     		.2byte	0x1
 3838 041a 50       		.byte	0x50
 3839 041b 1A000000 		.4byte	.LVL86
 3840 041f 2A000000 		.4byte	.LFE7
 3841 0423 0400     		.2byte	0x4
 3842 0425 F3       		.byte	0xf3
 3843 0426 01       		.uleb128 0x1
 3844 0427 50       		.byte	0x50
 3845 0428 9F       		.byte	0x9f
 3846 0429 00000000 		.4byte	0
 3847 042d 00000000 		.4byte	0
 3848              	.LLST29:
 3849 0431 00000000 		.4byte	.LVL77
 3850 0435 13000000 		.4byte	.LVL83-1
 3851 0439 0100     		.2byte	0x1
 3852 043b 51       		.byte	0x51
 3853 043c 13000000 		.4byte	.LVL83-1
 3854 0440 18000000 		.4byte	.LVL85
 3855 0444 0100     		.2byte	0x1
 3856 0446 56       		.byte	0x56
 3857 0447 18000000 		.4byte	.LVL85
 3858 044b 1A000000 		.4byte	.LVL86
 3859 044f 0100     		.2byte	0x1
 3860 0451 51       		.byte	0x51
 3861 0452 1A000000 		.4byte	.LVL86
 3862 0456 28000000 		.4byte	.LVL90
 3863 045a 0100     		.2byte	0x1
 3864 045c 56       		.byte	0x56
 3865 045d 28000000 		.4byte	.LVL90
 3866 0461 2A000000 		.4byte	.LFE7
 3867 0465 0400     		.2byte	0x4
 3868 0467 F3       		.byte	0xf3
 3869 0468 01       		.uleb128 0x1
 3870 0469 51       		.byte	0x51
 3871 046a 9F       		.byte	0x9f
 3872 046b 00000000 		.4byte	0
 3873 046f 00000000 		.4byte	0
 3874              	.LLST30:
 3875 0473 00000000 		.4byte	.LVL77
 3876 0477 08000000 		.4byte	.LVL79
 3877 047b 0100     		.2byte	0x1
 3878 047d 52       		.byte	0x52
 3879 047e 00000000 		.4byte	0
 3880 0482 00000000 		.4byte	0
 3881              	.LLST31:
 3882 0486 00000000 		.4byte	.LVL77
 3883 048a 0E000000 		.4byte	.LVL81
 3884 048e 0100     		.2byte	0x1
 3885 0490 53       		.byte	0x53
 3886 0491 0E000000 		.4byte	.LVL81
 3887 0495 28000000 		.4byte	.LVL88
ARM GAS  C:\Users\ASUS\AppData\Local\Temp\ccuOUgOD.s 			page 106


 3888 0499 0100     		.2byte	0x1
 3889 049b 54       		.byte	0x54
 3890 049c 28000000 		.4byte	.LVL88
 3891 04a0 2A000000 		.4byte	.LFE7
 3892 04a4 0400     		.2byte	0x4
 3893 04a6 F3       		.byte	0xf3
 3894 04a7 01       		.uleb128 0x1
 3895 04a8 53       		.byte	0x53
 3896 04a9 9F       		.byte	0x9f
 3897 04aa 00000000 		.4byte	0
 3898 04ae 00000000 		.4byte	0
 3899              	.LLST32:
 3900 04b2 06000000 		.4byte	.LVL78
 3901 04b6 16000000 		.4byte	.LVL84
 3902 04ba 0200     		.2byte	0x2
 3903 04bc 30       		.byte	0x30
 3904 04bd 9F       		.byte	0x9f
 3905 04be 16000000 		.4byte	.LVL84
 3906 04c2 18000000 		.4byte	.LVL85
 3907 04c6 0100     		.2byte	0x1
 3908 04c8 50       		.byte	0x50
 3909 04c9 18000000 		.4byte	.LVL85
 3910 04cd 1A000000 		.4byte	.LVL86
 3911 04d1 0200     		.2byte	0x2
 3912 04d3 30       		.byte	0x30
 3913 04d4 9F       		.byte	0x9f
 3914 04d5 1A000000 		.4byte	.LVL86
 3915 04d9 28000000 		.4byte	.LVL89
 3916 04dd 0100     		.2byte	0x1
 3917 04df 55       		.byte	0x55
 3918 04e0 28000000 		.4byte	.LVL89
 3919 04e4 2A000000 		.4byte	.LFE7
 3920 04e8 0100     		.2byte	0x1
 3921 04ea 50       		.byte	0x50
 3922 04eb 00000000 		.4byte	0
 3923 04ef 00000000 		.4byte	0
 3924              	.LLST33:
 3925 04f3 08000000 		.4byte	.LVL79
 3926 04f7 13000000 		.4byte	.LVL83-1
 3927 04fb 0100     		.2byte	0x1
 3928 04fd 52       		.byte	0x52
 3929 04fe 18000000 		.4byte	.LVL85
 3930 0502 1A000000 		.4byte	.LVL86
 3931 0506 0100     		.2byte	0x1
 3932 0508 52       		.byte	0x52
 3933 0509 00000000 		.4byte	0
 3934 050d 00000000 		.4byte	0
 3935              	.LLST34:
 3936 0511 0A000000 		.4byte	.LVL80
 3937 0515 28000000 		.4byte	.LVL91
 3938 0519 0100     		.2byte	0x1
 3939 051b 57       		.byte	0x57
 3940 051c 00000000 		.4byte	0
 3941 0520 00000000 		.4byte	0
 3942              	.LLST35:
 3943 0524 00000000 		.4byte	.LVL92
 3944 0528 44000000 		.4byte	.LVL104
ARM GAS  C:\Users\ASUS\AppData\Local\Temp\ccuOUgOD.s 			page 107


 3945 052c 0100     		.2byte	0x1
 3946 052e 50       		.byte	0x50
 3947 052f 44000000 		.4byte	.LVL104
 3948 0533 64000000 		.4byte	.LFE10
 3949 0537 0100     		.2byte	0x1
 3950 0539 50       		.byte	0x50
 3951 053a 00000000 		.4byte	0
 3952 053e 00000000 		.4byte	0
 3953              	.LLST36:
 3954 0542 00000000 		.4byte	.LVL92
 3955 0546 0C000000 		.4byte	.LVL97
 3956 054a 0100     		.2byte	0x1
 3957 054c 51       		.byte	0x51
 3958 054d 0C000000 		.4byte	.LVL97
 3959 0551 64000000 		.4byte	.LFE10
 3960 0555 0400     		.2byte	0x4
 3961 0557 F3       		.byte	0xf3
 3962 0558 01       		.uleb128 0x1
 3963 0559 51       		.byte	0x51
 3964 055a 9F       		.byte	0x9f
 3965 055b 00000000 		.4byte	0
 3966 055f 00000000 		.4byte	0
 3967              	.LLST37:
 3968 0563 04000000 		.4byte	.LVL93
 3969 0567 0E000000 		.4byte	.LVL98
 3970 056b 0100     		.2byte	0x1
 3971 056d 52       		.byte	0x52
 3972 056e 0E000000 		.4byte	.LVL98
 3973 0572 10000000 		.4byte	.LVL99
 3974 0576 0100     		.2byte	0x1
 3975 0578 54       		.byte	0x54
 3976 0579 10000000 		.4byte	.LVL99
 3977 057d 5A000000 		.4byte	.LVL112
 3978 0581 0100     		.2byte	0x1
 3979 0583 5C       		.byte	0x5c
 3980 0584 5A000000 		.4byte	.LVL112
 3981 0588 5E000000 		.4byte	.LVL113
 3982 058c 0100     		.2byte	0x1
 3983 058e 52       		.byte	0x52
 3984 058f 5E000000 		.4byte	.LVL113
 3985 0593 62000000 		.4byte	.LVL114
 3986 0597 0100     		.2byte	0x1
 3987 0599 54       		.byte	0x54
 3988 059a 62000000 		.4byte	.LVL114
 3989 059e 64000000 		.4byte	.LFE10
 3990 05a2 0100     		.2byte	0x1
 3991 05a4 5C       		.byte	0x5c
 3992 05a5 00000000 		.4byte	0
 3993 05a9 00000000 		.4byte	0
 3994              	.LLST38:
 3995 05ad 0A000000 		.4byte	.LVL96
 3996 05b1 0E000000 		.4byte	.LVL98
 3997 05b5 0200     		.2byte	0x2
 3998 05b7 31       		.byte	0x31
 3999 05b8 9F       		.byte	0x9f
 4000 05b9 0E000000 		.4byte	.LVL98
 4001 05bd 64000000 		.4byte	.LFE10
ARM GAS  C:\Users\ASUS\AppData\Local\Temp\ccuOUgOD.s 			page 108


 4002 05c1 0100     		.2byte	0x1
 4003 05c3 51       		.byte	0x51
 4004 05c4 00000000 		.4byte	0
 4005 05c8 00000000 		.4byte	0
 4006              	.LLST39:
 4007 05cc 2E000000 		.4byte	.LVL103
 4008 05d0 4C000000 		.4byte	.LVL106
 4009 05d4 0100     		.2byte	0x1
 4010 05d6 52       		.byte	0x52
 4011 05d7 4E000000 		.4byte	.LVL107
 4012 05db 50000000 		.4byte	.LVL108
 4013 05df 0100     		.2byte	0x1
 4014 05e1 52       		.byte	0x52
 4015 05e2 00000000 		.4byte	0
 4016 05e6 00000000 		.4byte	0
 4017              	.LLST40:
 4018 05ea 22000000 		.4byte	.LVL100
 4019 05ee 2A000000 		.4byte	.LVL101
 4020 05f2 0100     		.2byte	0x1
 4021 05f4 52       		.byte	0x52
 4022 05f5 2C000000 		.4byte	.LVL102
 4023 05f9 2E000000 		.4byte	.LVL103
 4024 05fd 0100     		.2byte	0x1
 4025 05ff 52       		.byte	0x52
 4026 0600 00000000 		.4byte	0
 4027 0604 00000000 		.4byte	0
 4028              	.LLST41:
 4029 0608 06000000 		.4byte	.LVL94
 4030 060c 62000000 		.4byte	.LVL115
 4031 0610 0100     		.2byte	0x1
 4032 0612 55       		.byte	0x55
 4033 0613 00000000 		.4byte	0
 4034 0617 00000000 		.4byte	0
 4035              	.LLST42:
 4036 061b 08000000 		.4byte	.LVL95
 4037 061f 62000000 		.4byte	.LVL116
 4038 0623 0100     		.2byte	0x1
 4039 0625 57       		.byte	0x57
 4040 0626 00000000 		.4byte	0
 4041 062a 00000000 		.4byte	0
 4042              	.LLST43:
 4043 062e 00000000 		.4byte	.LVL117
 4044 0632 12000000 		.4byte	.LVL120
 4045 0636 0100     		.2byte	0x1
 4046 0638 50       		.byte	0x50
 4047 0639 12000000 		.4byte	.LVL120
 4048 063d 1A000000 		.4byte	.LVL123
 4049 0641 0100     		.2byte	0x1
 4050 0643 54       		.byte	0x54
 4051 0644 1A000000 		.4byte	.LVL123
 4052 0648 1C000000 		.4byte	.LVL124
 4053 064c 0100     		.2byte	0x1
 4054 064e 50       		.byte	0x50
 4055 064f 1C000000 		.4byte	.LVL124
 4056 0653 2C000000 		.4byte	.LVL127
 4057 0657 0100     		.2byte	0x1
 4058 0659 54       		.byte	0x54
ARM GAS  C:\Users\ASUS\AppData\Local\Temp\ccuOUgOD.s 			page 109


 4059 065a 2C000000 		.4byte	.LVL127
 4060 065e 58000000 		.4byte	.LFE5
 4061 0662 0400     		.2byte	0x4
 4062 0664 F3       		.byte	0xf3
 4063 0665 01       		.uleb128 0x1
 4064 0666 50       		.byte	0x50
 4065 0667 9F       		.byte	0x9f
 4066 0668 00000000 		.4byte	0
 4067 066c 00000000 		.4byte	0
 4068              	.LLST44:
 4069 0670 00000000 		.4byte	.LVL117
 4070 0674 15000000 		.4byte	.LVL121-1
 4071 0678 0100     		.2byte	0x1
 4072 067a 51       		.byte	0x51
 4073 067b 15000000 		.4byte	.LVL121-1
 4074 067f 1A000000 		.4byte	.LVL123
 4075 0683 0400     		.2byte	0x4
 4076 0685 F3       		.byte	0xf3
 4077 0686 01       		.uleb128 0x1
 4078 0687 51       		.byte	0x51
 4079 0688 9F       		.byte	0x9f
 4080 0689 1A000000 		.4byte	.LVL123
 4081 068d 1F000000 		.4byte	.LVL125-1
 4082 0691 0100     		.2byte	0x1
 4083 0693 51       		.byte	0x51
 4084 0694 1F000000 		.4byte	.LVL125-1
 4085 0698 58000000 		.4byte	.LFE5
 4086 069c 0400     		.2byte	0x4
 4087 069e F3       		.byte	0xf3
 4088 069f 01       		.uleb128 0x1
 4089 06a0 51       		.byte	0x51
 4090 06a1 9F       		.byte	0x9f
 4091 06a2 00000000 		.4byte	0
 4092 06a6 00000000 		.4byte	0
 4093              	.LLST45:
 4094 06aa 0C000000 		.4byte	.LVL119
 4095 06ae 18000000 		.4byte	.LVL122
 4096 06b2 0100     		.2byte	0x1
 4097 06b4 55       		.byte	0x55
 4098 06b5 18000000 		.4byte	.LVL122
 4099 06b9 1A000000 		.4byte	.LVL123
 4100 06bd 0100     		.2byte	0x1
 4101 06bf 50       		.byte	0x50
 4102 06c0 1A000000 		.4byte	.LVL123
 4103 06c4 52000000 		.4byte	.LVL136
 4104 06c8 0100     		.2byte	0x1
 4105 06ca 55       		.byte	0x55
 4106 06cb 00000000 		.4byte	0
 4107 06cf 00000000 		.4byte	0
 4108              	.LLST46:
 4109 06d3 28000000 		.4byte	.LVL126
 4110 06d7 36000000 		.4byte	.LVL129
 4111 06db 0100     		.2byte	0x1
 4112 06dd 53       		.byte	0x53
 4113 06de 36000000 		.4byte	.LVL129
 4114 06e2 38000000 		.4byte	.LVL130
 4115 06e6 0300     		.2byte	0x3
ARM GAS  C:\Users\ASUS\AppData\Local\Temp\ccuOUgOD.s 			page 110


 4116 06e8 73       		.byte	0x73
 4117 06e9 7C       		.sleb128 -4
 4118 06ea 9F       		.byte	0x9f
 4119 06eb 38000000 		.4byte	.LVL130
 4120 06ef 44000000 		.4byte	.LVL131
 4121 06f3 0600     		.2byte	0x6
 4122 06f5 F3       		.byte	0xf3
 4123 06f6 01       		.uleb128 0x1
 4124 06f7 50       		.byte	0x50
 4125 06f8 35       		.byte	0x35
 4126 06f9 25       		.byte	0x25
 4127 06fa 9F       		.byte	0x9f
 4128 06fb 44000000 		.4byte	.LVL131
 4129 06ff 46000000 		.4byte	.LVL132
 4130 0703 0100     		.2byte	0x1
 4131 0705 53       		.byte	0x53
 4132 0706 46000000 		.4byte	.LVL132
 4133 070a 48000000 		.4byte	.LVL133
 4134 070e 0300     		.2byte	0x3
 4135 0710 73       		.byte	0x73
 4136 0711 7C       		.sleb128 -4
 4137 0712 9F       		.byte	0x9f
 4138 0713 48000000 		.4byte	.LVL133
 4139 0717 58000000 		.4byte	.LFE5
 4140 071b 0600     		.2byte	0x6
 4141 071d F3       		.byte	0xf3
 4142 071e 01       		.uleb128 0x1
 4143 071f 50       		.byte	0x50
 4144 0720 35       		.byte	0x35
 4145 0721 25       		.byte	0x25
 4146 0722 9F       		.byte	0x9f
 4147 0723 00000000 		.4byte	0
 4148 0727 00000000 		.4byte	0
 4149              	.LLST47:
 4150 072b 30000000 		.4byte	.LVL128
 4151 072f 50000000 		.4byte	.LVL134
 4152 0733 0100     		.2byte	0x1
 4153 0735 52       		.byte	0x52
 4154 0736 50000000 		.4byte	.LVL134
 4155 073a 52000000 		.4byte	.LVL135
 4156 073e 0500     		.2byte	0x5
 4157 0740 31       		.byte	0x31
 4158 0741 74       		.byte	0x74
 4159 0742 00       		.sleb128 0
 4160 0743 24       		.byte	0x24
 4161 0744 9F       		.byte	0x9f
 4162 0745 52000000 		.4byte	.LVL135
 4163 0749 58000000 		.4byte	.LFE5
 4164 074d 0800     		.2byte	0x8
 4165 074f 31       		.byte	0x31
 4166 0750 F3       		.byte	0xf3
 4167 0751 01       		.uleb128 0x1
 4168 0752 50       		.byte	0x50
 4169 0753 4F       		.byte	0x4f
 4170 0754 1A       		.byte	0x1a
 4171 0755 24       		.byte	0x24
 4172 0756 9F       		.byte	0x9f
ARM GAS  C:\Users\ASUS\AppData\Local\Temp\ccuOUgOD.s 			page 111


 4173 0757 00000000 		.4byte	0
 4174 075b 00000000 		.4byte	0
 4175              	.LLST48:
 4176 075f 06000000 		.4byte	.LVL118
 4177 0763 15000000 		.4byte	.LVL121-1
 4178 0767 0100     		.2byte	0x1
 4179 0769 52       		.byte	0x52
 4180 076a 1A000000 		.4byte	.LVL123
 4181 076e 1F000000 		.4byte	.LVL125-1
 4182 0772 0100     		.2byte	0x1
 4183 0774 52       		.byte	0x52
 4184 0775 00000000 		.4byte	0
 4185 0779 00000000 		.4byte	0
 4186              	.LLST49:
 4187 077d 00000000 		.4byte	.LVL137
 4188 0781 1C000000 		.4byte	.LVL144
 4189 0785 0100     		.2byte	0x1
 4190 0787 50       		.byte	0x50
 4191 0788 1C000000 		.4byte	.LVL144
 4192 078c 22000000 		.4byte	.LVL146
 4193 0790 0100     		.2byte	0x1
 4194 0792 5C       		.byte	0x5c
 4195 0793 22000000 		.4byte	.LVL146
 4196 0797 26000000 		.4byte	.LVL148
 4197 079b 0100     		.2byte	0x1
 4198 079d 50       		.byte	0x50
 4199 079e 26000000 		.4byte	.LVL148
 4200 07a2 6C000000 		.4byte	.LVL160
 4201 07a6 0100     		.2byte	0x1
 4202 07a8 5C       		.byte	0x5c
 4203 07a9 6C000000 		.4byte	.LVL160
 4204 07ad D2000000 		.4byte	.LVL175
 4205 07b1 0100     		.2byte	0x1
 4206 07b3 54       		.byte	0x54
 4207 07b4 D2000000 		.4byte	.LVL175
 4208 07b8 D8000000 		.4byte	.LFE11
 4209 07bc 0100     		.2byte	0x1
 4210 07be 50       		.byte	0x50
 4211 07bf 00000000 		.4byte	0
 4212 07c3 00000000 		.4byte	0
 4213              	.LLST50:
 4214 07c7 00000000 		.4byte	.LVL137
 4215 07cb 14000000 		.4byte	.LVL142
 4216 07cf 0100     		.2byte	0x1
 4217 07d1 51       		.byte	0x51
 4218 07d2 14000000 		.4byte	.LVL142
 4219 07d6 D2000000 		.4byte	.LVL178
 4220 07da 0100     		.2byte	0x1
 4221 07dc 57       		.byte	0x57
 4222 07dd D2000000 		.4byte	.LVL178
 4223 07e1 D8000000 		.4byte	.LFE11
 4224 07e5 0400     		.2byte	0x4
 4225 07e7 F3       		.byte	0xf3
 4226 07e8 01       		.uleb128 0x1
 4227 07e9 51       		.byte	0x51
 4228 07ea 9F       		.byte	0x9f
 4229 07eb 00000000 		.4byte	0
ARM GAS  C:\Users\ASUS\AppData\Local\Temp\ccuOUgOD.s 			page 112


 4230 07ef 00000000 		.4byte	0
 4231              	.LLST51:
 4232 07f3 0E000000 		.4byte	.LVL139
 4233 07f7 2E000000 		.4byte	.LVL150
 4234 07fb 0100     		.2byte	0x1
 4235 07fd 53       		.byte	0x53
 4236 07fe 2E000000 		.4byte	.LVL150
 4237 0802 42000000 		.4byte	.LVL154
 4238 0806 0100     		.2byte	0x1
 4239 0808 56       		.byte	0x56
 4240 0809 42000000 		.4byte	.LVL154
 4241 080d 44000000 		.4byte	.LVL155
 4242 0811 0100     		.2byte	0x1
 4243 0813 53       		.byte	0x53
 4244 0814 44000000 		.4byte	.LVL155
 4245 0818 D2000000 		.4byte	.LVL177
 4246 081c 0100     		.2byte	0x1
 4247 081e 56       		.byte	0x56
 4248 081f 00000000 		.4byte	0
 4249 0823 00000000 		.4byte	0
 4250              	.LLST52:
 4251 0827 28000000 		.4byte	.LVL149
 4252 082b 2E000000 		.4byte	.LVL150
 4253 082f 0200     		.2byte	0x2
 4254 0831 31       		.byte	0x31
 4255 0832 9F       		.byte	0x9f
 4256 0833 2E000000 		.4byte	.LVL150
 4257 0837 7A000000 		.4byte	.LVL163
 4258 083b 0100     		.2byte	0x1
 4259 083d 51       		.byte	0x51
 4260 083e 86000000 		.4byte	.LVL165
 4261 0842 8A000000 		.4byte	.LVL167
 4262 0846 0100     		.2byte	0x1
 4263 0848 51       		.byte	0x51
 4264 0849 00000000 		.4byte	0
 4265 084d 00000000 		.4byte	0
 4266              	.LLST53:
 4267 0851 28000000 		.4byte	.LVL149
 4268 0855 76000000 		.4byte	.LVL161
 4269 0859 0100     		.2byte	0x1
 4270 085b 50       		.byte	0x50
 4271 085c 76000000 		.4byte	.LVL161
 4272 0860 7F000000 		.4byte	.LVL164-1
 4273 0864 0100     		.2byte	0x1
 4274 0866 52       		.byte	0x52
 4275 0867 86000000 		.4byte	.LVL165
 4276 086b 88000000 		.4byte	.LVL166
 4277 086f 0100     		.2byte	0x1
 4278 0871 50       		.byte	0x50
 4279 0872 00000000 		.4byte	0
 4280 0876 00000000 		.4byte	0
 4281              	.LLST54:
 4282 087a 0C000000 		.4byte	.LVL138
 4283 087e 2E000000 		.4byte	.LVL150
 4284 0882 0200     		.2byte	0x2
 4285 0884 30       		.byte	0x30
 4286 0885 9F       		.byte	0x9f
ARM GAS  C:\Users\ASUS\AppData\Local\Temp\ccuOUgOD.s 			page 113


 4287 0886 2E000000 		.4byte	.LVL150
 4288 088a 64000000 		.4byte	.LVL157
 4289 088e 0100     		.2byte	0x1
 4290 0890 54       		.byte	0x54
 4291 0891 66000000 		.4byte	.LVL158
 4292 0895 6C000000 		.4byte	.LVL160
 4293 0899 0100     		.2byte	0x1
 4294 089b 54       		.byte	0x54
 4295 089c 00000000 		.4byte	0
 4296 08a0 00000000 		.4byte	0
 4297              	.LLST55:
 4298 08a4 16000000 		.4byte	.LVL143
 4299 08a8 1E000000 		.4byte	.LVL145
 4300 08ac 0100     		.2byte	0x1
 4301 08ae 51       		.byte	0x51
 4302 08af 1E000000 		.4byte	.LVL145
 4303 08b3 22000000 		.4byte	.LVL146
 4304 08b7 0100     		.2byte	0x1
 4305 08b9 58       		.byte	0x58
 4306 08ba 22000000 		.4byte	.LVL146
 4307 08be 24000000 		.4byte	.LVL147
 4308 08c2 0100     		.2byte	0x1
 4309 08c4 51       		.byte	0x51
 4310 08c5 24000000 		.4byte	.LVL147
 4311 08c9 D2000000 		.4byte	.LVL179
 4312 08cd 0100     		.2byte	0x1
 4313 08cf 58       		.byte	0x58
 4314 08d0 00000000 		.4byte	0
 4315 08d4 00000000 		.4byte	0
 4316              	.LLST56:
 4317 08d8 10000000 		.4byte	.LVL140
 4318 08dc 58000000 		.4byte	.LVL156
 4319 08e0 0100     		.2byte	0x1
 4320 08e2 52       		.byte	0x52
 4321 08e3 66000000 		.4byte	.LVL158
 4322 08e7 6A000000 		.4byte	.LVL159
 4323 08eb 0100     		.2byte	0x1
 4324 08ed 52       		.byte	0x52
 4325 08ee 00000000 		.4byte	0
 4326 08f2 00000000 		.4byte	0
 4327              	.LLST57:
 4328 08f6 12000000 		.4byte	.LVL141
 4329 08fa D2000000 		.4byte	.LVL176
 4330 08fe 0100     		.2byte	0x1
 4331 0900 55       		.byte	0x55
 4332 0901 00000000 		.4byte	0
 4333 0905 00000000 		.4byte	0
 4334              	.LLST58:
 4335 0909 BC000000 		.4byte	.LVL172
 4336 090d D0000000 		.4byte	.LVL174
 4337 0911 0100     		.2byte	0x1
 4338 0913 50       		.byte	0x50
 4339 0914 00000000 		.4byte	0
 4340 0918 00000000 		.4byte	0
 4341              	.LLST59:
 4342 091c 0C000000 		.4byte	.LVL138
 4343 0920 80000000 		.4byte	.LVL164
ARM GAS  C:\Users\ASUS\AppData\Local\Temp\ccuOUgOD.s 			page 114


 4344 0924 0200     		.2byte	0x2
 4345 0926 30       		.byte	0x30
 4346 0927 9F       		.byte	0x9f
 4347 0928 80000000 		.4byte	.LVL164
 4348 092c 86000000 		.4byte	.LVL165
 4349 0930 0100     		.2byte	0x1
 4350 0932 50       		.byte	0x50
 4351 0933 86000000 		.4byte	.LVL165
 4352 0937 8A000000 		.4byte	.LVL167
 4353 093b 0200     		.2byte	0x2
 4354 093d 30       		.byte	0x30
 4355 093e 9F       		.byte	0x9f
 4356 093f 8A000000 		.4byte	.LVL167
 4357 0943 98000000 		.4byte	.LVL168
 4358 0947 0100     		.2byte	0x1
 4359 0949 50       		.byte	0x50
 4360 094a 9C000000 		.4byte	.LVL169
 4361 094e BC000000 		.4byte	.LVL172
 4362 0952 0100     		.2byte	0x1
 4363 0954 50       		.byte	0x50
 4364 0955 00000000 		.4byte	0
 4365 0959 00000000 		.4byte	0
 4366              	.LLST60:
 4367 095d 9C000000 		.4byte	.LVL169
 4368 0961 BC000000 		.4byte	.LVL172
 4369 0965 0100     		.2byte	0x1
 4370 0967 55       		.byte	0x55
 4371 0968 00000000 		.4byte	0
 4372 096c 00000000 		.4byte	0
 4373              	.LLST61:
 4374 0970 9C000000 		.4byte	.LVL169
 4375 0974 BC000000 		.4byte	.LVL172
 4376 0978 0100     		.2byte	0x1
 4377 097a 57       		.byte	0x57
 4378 097b 00000000 		.4byte	0
 4379 097f 00000000 		.4byte	0
 4380              	.LLST62:
 4381 0983 9C000000 		.4byte	.LVL169
 4382 0987 BC000000 		.4byte	.LVL172
 4383 098b 0100     		.2byte	0x1
 4384 098d 50       		.byte	0x50
 4385 098e 00000000 		.4byte	0
 4386 0992 00000000 		.4byte	0
 4387              	.LLST63:
 4388 0996 9C000000 		.4byte	.LVL169
 4389 099a BC000000 		.4byte	.LVL172
 4390 099e 0300     		.2byte	0x3
 4391 09a0 91       		.byte	0x91
 4392 09a1 64       		.sleb128 -28
 4393 09a2 9F       		.byte	0x9f
 4394 09a3 00000000 		.4byte	0
 4395 09a7 00000000 		.4byte	0
 4396              	.LLST64:
 4397 09ab 9C000000 		.4byte	.LVL169
 4398 09af A0000000 		.4byte	.LVL170
 4399 09b3 0200     		.2byte	0x2
 4400 09b5 30       		.byte	0x30
ARM GAS  C:\Users\ASUS\AppData\Local\Temp\ccuOUgOD.s 			page 115


 4401 09b6 9F       		.byte	0x9f
 4402 09b7 A0000000 		.4byte	.LVL170
 4403 09bb BC000000 		.4byte	.LVL172
 4404 09bf 0100     		.2byte	0x1
 4405 09c1 52       		.byte	0x52
 4406 09c2 00000000 		.4byte	0
 4407 09c6 00000000 		.4byte	0
 4408              	.LLST65:
 4409 09ca 00000000 		.4byte	.LVL180
 4410 09ce 1C000000 		.4byte	.LVL183
 4411 09d2 0100     		.2byte	0x1
 4412 09d4 50       		.byte	0x50
 4413 09d5 1C000000 		.4byte	.LVL183
 4414 09d9 24000000 		.4byte	.LVL186
 4415 09dd 0100     		.2byte	0x1
 4416 09df 54       		.byte	0x54
 4417 09e0 24000000 		.4byte	.LVL186
 4418 09e4 26000000 		.4byte	.LVL187
 4419 09e8 0100     		.2byte	0x1
 4420 09ea 50       		.byte	0x50
 4421 09eb 26000000 		.4byte	.LVL187
 4422 09ef 2E000000 		.4byte	.LVL190
 4423 09f3 0100     		.2byte	0x1
 4424 09f5 54       		.byte	0x54
 4425 09f6 2E000000 		.4byte	.LVL190
 4426 09fa 30000000 		.4byte	.LVL191
 4427 09fe 0100     		.2byte	0x1
 4428 0a00 50       		.byte	0x50
 4429 0a01 30000000 		.4byte	.LVL191
 4430 0a05 40000000 		.4byte	.LVL194
 4431 0a09 0100     		.2byte	0x1
 4432 0a0b 54       		.byte	0x54
 4433 0a0c 40000000 		.4byte	.LVL194
 4434 0a10 6C000000 		.4byte	.LFE8
 4435 0a14 0400     		.2byte	0x4
 4436 0a16 F3       		.byte	0xf3
 4437 0a17 01       		.uleb128 0x1
 4438 0a18 50       		.byte	0x50
 4439 0a19 9F       		.byte	0x9f
 4440 0a1a 00000000 		.4byte	0
 4441 0a1e 00000000 		.4byte	0
 4442              	.LLST66:
 4443 0a22 00000000 		.4byte	.LVL180
 4444 0a26 1F000000 		.4byte	.LVL184-1
 4445 0a2a 0100     		.2byte	0x1
 4446 0a2c 51       		.byte	0x51
 4447 0a2d 1F000000 		.4byte	.LVL184-1
 4448 0a31 24000000 		.4byte	.LVL186
 4449 0a35 0400     		.2byte	0x4
 4450 0a37 F3       		.byte	0xf3
 4451 0a38 01       		.uleb128 0x1
 4452 0a39 51       		.byte	0x51
 4453 0a3a 9F       		.byte	0x9f
 4454 0a3b 24000000 		.4byte	.LVL186
 4455 0a3f 29000000 		.4byte	.LVL188-1
 4456 0a43 0100     		.2byte	0x1
 4457 0a45 51       		.byte	0x51
ARM GAS  C:\Users\ASUS\AppData\Local\Temp\ccuOUgOD.s 			page 116


 4458 0a46 29000000 		.4byte	.LVL188-1
 4459 0a4a 2E000000 		.4byte	.LVL190
 4460 0a4e 0400     		.2byte	0x4
 4461 0a50 F3       		.byte	0xf3
 4462 0a51 01       		.uleb128 0x1
 4463 0a52 51       		.byte	0x51
 4464 0a53 9F       		.byte	0x9f
 4465 0a54 2E000000 		.4byte	.LVL190
 4466 0a58 33000000 		.4byte	.LVL192-1
 4467 0a5c 0100     		.2byte	0x1
 4468 0a5e 51       		.byte	0x51
 4469 0a5f 33000000 		.4byte	.LVL192-1
 4470 0a63 6C000000 		.4byte	.LFE8
 4471 0a67 0400     		.2byte	0x4
 4472 0a69 F3       		.byte	0xf3
 4473 0a6a 01       		.uleb128 0x1
 4474 0a6b 51       		.byte	0x51
 4475 0a6c 9F       		.byte	0x9f
 4476 0a6d 00000000 		.4byte	0
 4477 0a71 00000000 		.4byte	0
 4478              	.LLST67:
 4479 0a75 0C000000 		.4byte	.LVL182
 4480 0a79 22000000 		.4byte	.LVL185
 4481 0a7d 0100     		.2byte	0x1
 4482 0a7f 55       		.byte	0x55
 4483 0a80 22000000 		.4byte	.LVL185
 4484 0a84 24000000 		.4byte	.LVL186
 4485 0a88 0100     		.2byte	0x1
 4486 0a8a 50       		.byte	0x50
 4487 0a8b 24000000 		.4byte	.LVL186
 4488 0a8f 2C000000 		.4byte	.LVL189
 4489 0a93 0100     		.2byte	0x1
 4490 0a95 55       		.byte	0x55
 4491 0a96 2C000000 		.4byte	.LVL189
 4492 0a9a 2E000000 		.4byte	.LVL190
 4493 0a9e 0100     		.2byte	0x1
 4494 0aa0 50       		.byte	0x50
 4495 0aa1 2E000000 		.4byte	.LVL190
 4496 0aa5 66000000 		.4byte	.LVL203
 4497 0aa9 0100     		.2byte	0x1
 4498 0aab 55       		.byte	0x55
 4499 0aac 00000000 		.4byte	0
 4500 0ab0 00000000 		.4byte	0
 4501              	.LLST68:
 4502 0ab4 3C000000 		.4byte	.LVL193
 4503 0ab8 4A000000 		.4byte	.LVL196
 4504 0abc 0100     		.2byte	0x1
 4505 0abe 53       		.byte	0x53
 4506 0abf 4A000000 		.4byte	.LVL196
 4507 0ac3 4C000000 		.4byte	.LVL197
 4508 0ac7 0300     		.2byte	0x3
 4509 0ac9 73       		.byte	0x73
 4510 0aca 7C       		.sleb128 -4
 4511 0acb 9F       		.byte	0x9f
 4512 0acc 4C000000 		.4byte	.LVL197
 4513 0ad0 58000000 		.4byte	.LVL198
 4514 0ad4 0600     		.2byte	0x6
ARM GAS  C:\Users\ASUS\AppData\Local\Temp\ccuOUgOD.s 			page 117


 4515 0ad6 F3       		.byte	0xf3
 4516 0ad7 01       		.uleb128 0x1
 4517 0ad8 50       		.byte	0x50
 4518 0ad9 35       		.byte	0x35
 4519 0ada 25       		.byte	0x25
 4520 0adb 9F       		.byte	0x9f
 4521 0adc 58000000 		.4byte	.LVL198
 4522 0ae0 5A000000 		.4byte	.LVL199
 4523 0ae4 0100     		.2byte	0x1
 4524 0ae6 53       		.byte	0x53
 4525 0ae7 5A000000 		.4byte	.LVL199
 4526 0aeb 5C000000 		.4byte	.LVL200
 4527 0aef 0300     		.2byte	0x3
 4528 0af1 73       		.byte	0x73
 4529 0af2 7C       		.sleb128 -4
 4530 0af3 9F       		.byte	0x9f
 4531 0af4 5C000000 		.4byte	.LVL200
 4532 0af8 6C000000 		.4byte	.LFE8
 4533 0afc 0600     		.2byte	0x6
 4534 0afe F3       		.byte	0xf3
 4535 0aff 01       		.uleb128 0x1
 4536 0b00 50       		.byte	0x50
 4537 0b01 35       		.byte	0x35
 4538 0b02 25       		.byte	0x25
 4539 0b03 9F       		.byte	0x9f
 4540 0b04 00000000 		.4byte	0
 4541 0b08 00000000 		.4byte	0
 4542              	.LLST69:
 4543 0b0c 44000000 		.4byte	.LVL195
 4544 0b10 64000000 		.4byte	.LVL201
 4545 0b14 0100     		.2byte	0x1
 4546 0b16 52       		.byte	0x52
 4547 0b17 64000000 		.4byte	.LVL201
 4548 0b1b 66000000 		.4byte	.LVL202
 4549 0b1f 0500     		.2byte	0x5
 4550 0b21 31       		.byte	0x31
 4551 0b22 74       		.byte	0x74
 4552 0b23 00       		.sleb128 0
 4553 0b24 24       		.byte	0x24
 4554 0b25 9F       		.byte	0x9f
 4555 0b26 66000000 		.4byte	.LVL202
 4556 0b2a 6C000000 		.4byte	.LFE8
 4557 0b2e 0800     		.2byte	0x8
 4558 0b30 31       		.byte	0x31
 4559 0b31 F3       		.byte	0xf3
 4560 0b32 01       		.uleb128 0x1
 4561 0b33 50       		.byte	0x50
 4562 0b34 4F       		.byte	0x4f
 4563 0b35 1A       		.byte	0x1a
 4564 0b36 24       		.byte	0x24
 4565 0b37 9F       		.byte	0x9f
 4566 0b38 00000000 		.4byte	0
 4567 0b3c 00000000 		.4byte	0
 4568              	.LLST70:
 4569 0b40 06000000 		.4byte	.LVL181
 4570 0b44 1F000000 		.4byte	.LVL184-1
 4571 0b48 0100     		.2byte	0x1
ARM GAS  C:\Users\ASUS\AppData\Local\Temp\ccuOUgOD.s 			page 118


 4572 0b4a 52       		.byte	0x52
 4573 0b4b 24000000 		.4byte	.LVL186
 4574 0b4f 29000000 		.4byte	.LVL188-1
 4575 0b53 0100     		.2byte	0x1
 4576 0b55 52       		.byte	0x52
 4577 0b56 2E000000 		.4byte	.LVL190
 4578 0b5a 33000000 		.4byte	.LVL192-1
 4579 0b5e 0100     		.2byte	0x1
 4580 0b60 52       		.byte	0x52
 4581 0b61 00000000 		.4byte	0
 4582 0b65 00000000 		.4byte	0
 4583              		.section	.debug_aranges,"",%progbits
 4584 0000 64000000 		.4byte	0x64
 4585 0004 0200     		.2byte	0x2
 4586 0006 00000000 		.4byte	.Ldebug_info0
 4587 000a 04       		.byte	0x4
 4588 000b 00       		.byte	0
 4589 000c 0000     		.2byte	0
 4590 000e 0000     		.2byte	0
 4591 0010 00000000 		.4byte	.LFB2
 4592 0014 84000000 		.4byte	.LFE2-.LFB2
 4593 0018 00000000 		.4byte	.LFB9
 4594 001c 16000000 		.4byte	.LFE9-.LFB9
 4595 0020 00000000 		.4byte	.LFB3
 4596 0024 36000000 		.4byte	.LFE3-.LFB3
 4597 0028 00000000 		.4byte	.LFB4
 4598 002c 2A000000 		.4byte	.LFE4-.LFB4
 4599 0030 00000000 		.4byte	.LFB6
 4600 0034 3A000000 		.4byte	.LFE6-.LFB6
 4601 0038 00000000 		.4byte	.LFB7
 4602 003c 2A000000 		.4byte	.LFE7-.LFB7
 4603 0040 00000000 		.4byte	.LFB10
 4604 0044 64000000 		.4byte	.LFE10-.LFB10
 4605 0048 00000000 		.4byte	.LFB5
 4606 004c 58000000 		.4byte	.LFE5-.LFB5
 4607 0050 00000000 		.4byte	.LFB11
 4608 0054 D8000000 		.4byte	.LFE11-.LFB11
 4609 0058 00000000 		.4byte	.LFB8
 4610 005c 6C000000 		.4byte	.LFE8-.LFB8
 4611 0060 00000000 		.4byte	0
 4612 0064 00000000 		.4byte	0
 4613              		.section	.debug_ranges,"",%progbits
 4614              	.Ldebug_ranges0:
 4615 0000 00000000 		.4byte	.LFB2
 4616 0004 84000000 		.4byte	.LFE2
 4617 0008 00000000 		.4byte	.LFB9
 4618 000c 16000000 		.4byte	.LFE9
 4619 0010 00000000 		.4byte	.LFB3
 4620 0014 36000000 		.4byte	.LFE3
 4621 0018 00000000 		.4byte	.LFB4
 4622 001c 2A000000 		.4byte	.LFE4
 4623 0020 00000000 		.4byte	.LFB6
 4624 0024 3A000000 		.4byte	.LFE6
 4625 0028 00000000 		.4byte	.LFB7
 4626 002c 2A000000 		.4byte	.LFE7
 4627 0030 00000000 		.4byte	.LFB10
 4628 0034 64000000 		.4byte	.LFE10
ARM GAS  C:\Users\ASUS\AppData\Local\Temp\ccuOUgOD.s 			page 119


 4629 0038 00000000 		.4byte	.LFB5
 4630 003c 58000000 		.4byte	.LFE5
 4631 0040 00000000 		.4byte	.LFB11
 4632 0044 D8000000 		.4byte	.LFE11
 4633 0048 00000000 		.4byte	.LFB8
 4634 004c 6C000000 		.4byte	.LFE8
 4635 0050 00000000 		.4byte	0
 4636 0054 00000000 		.4byte	0
 4637              		.section	.debug_line,"",%progbits
 4638              	.Ldebug_line0:
 4639 0000 E9030000 		.section	.debug_str,"MS",%progbits,1
 4639      0200B401 
 4639      00000201 
 4639      FB0E0D00 
 4639      01010101 
 4640              	.LASF22:
 4641 0000 63617073 		.ascii	"capsense_WD_LINEAR_SLIDER_E\000"
 4641      656E7365 
 4641      5F57445F 
 4641      4C494E45 
 4641      41525F53 
 4642              	.LASF24:
 4643 001c 63617073 		.ascii	"capsense_WD_MATRIX_BUTTON_E\000"
 4643      656E7365 
 4643      5F57445F 
 4643      4D415452 
 4643      49585F42 
 4644              	.LASF127:
 4645 0038 736E7343 		.ascii	"snsCnt\000"
 4645      6E7400
 4646              	.LASF109:
 4647 003f 77646774 		.ascii	"wdgtId\000"
 4647      496400
 4648              	.LASF120:
 4649 0046 666C7472 		.ascii	"fltrHistV\000"
 4649      48697374 
 4649      5600
 4650              	.LASF70:
 4651 0050 736E7254 		.ascii	"snrTestWidgetId\000"
 4651      65737457 
 4651      69646765 
 4651      74496400 
 4652              	.LASF119:
 4653 0060 63617073 		.ascii	"capsense_DpProcessCsxSensorRawCountsExt\000"
 4653      656E7365 
 4653      5F447050 
 4653      726F6365 
 4653      73734373 
 4654              	.LASF21:
 4655 0088 63617073 		.ascii	"capsense_WD_BUTTON_E\000"
 4655      656E7365 
 4655      5F57445F 
 4655      42555454 
 4655      4F4E5F45 
 4656              	.LASF8:
 4657 009d 756E7369 		.ascii	"unsigned int\000"
 4657      676E6564 
ARM GAS  C:\Users\ASUS\AppData\Local\Temp\ccuOUgOD.s 			page 120


 4657      20696E74 
 4657      00
 4658              	.LASF60:
 4659 00aa 7363616E 		.ascii	"scanCounter\000"
 4659      436F756E 
 4659      74657200 
 4660              	.LASF28:
 4661 00b6 63617073 		.ascii	"capsense_WD_TYPE_ENUM\000"
 4661      656E7365 
 4661      5F57445F 
 4661      54595045 
 4661      5F454E55 
 4662              	.LASF58:
 4663 00cc 6877436C 		.ascii	"hwClock\000"
 4663      6F636B00 
 4664              	.LASF74:
 4665 00d4 7363616E 		.ascii	"scanCsdISC\000"
 4665      43736449 
 4665      534300
 4666              	.LASF144:
 4667 00df 43794861 		.ascii	"CyHalt\000"
 4667      6C7400
 4668              	.LASF55:
 4669 00e6 63617073 		.ascii	"capsense_RAM_SNS_LIST_STRUCT\000"
 4669      656E7365 
 4669      5F52414D 
 4669      5F534E53 
 4669      5F4C4953 
 4670              	.LASF126:
 4671 0103 63757272 		.ascii	"currStatus\000"
 4671      53746174 
 4671      757300
 4672              	.LASF112:
 4673 010e 63617073 		.ascii	"capsense_DpUpdateDifferences\000"
 4673      656E7365 
 4673      5F447055 
 4673      70646174 
 4673      65446966 
 4674              	.LASF114:
 4675 012b 64696666 		.ascii	"diffValue\000"
 4675      56616C75 
 4675      6500
 4676              	.LASF121:
 4677 0135 6D6F6465 		.ascii	"mode\000"
 4677      00
 4678              	.LASF113:
 4679 013a 63757253 		.ascii	"curSnsPtr\000"
 4679      6E735074 
 4679      7200
 4680              	.LASF91:
 4681 0144 69697246 		.ascii	"iirFilterCoeff\000"
 4681      696C7465 
 4681      72436F65 
 4681      666600
 4682              	.LASF37:
 4683 0153 69646163 		.ascii	"idacGainIndex\000"
 4683      4761696E 
ARM GAS  C:\Users\ASUS\AppData\Local\Temp\ccuOUgOD.s 			page 121


 4683      496E6465 
 4683      7800
 4684              	.LASF129:
 4685 0161 6E657753 		.ascii	"newStatus\000"
 4685      74617475 
 4685      7300
 4686              	.LASF13:
 4687 016b 666C6F61 		.ascii	"float\000"
 4687      7400
 4688              	.LASF147:
 4689 0171 474E5520 		.ascii	"GNU C11 5.4.1 20160609 (release) [ARM/embedded-5-br"
 4689      43313120 
 4689      352E342E 
 4689      31203230 
 4689      31363036 
 4690 01a4 616E6368 		.ascii	"anch revision 237715] -mcpu=cortex-m0plus -mthumb -"
 4690      20726576 
 4690      6973696F 
 4690      6E203233 
 4690      37373135 
 4691 01d7 67202D4F 		.ascii	"g -Og -ffunction-sections -ffat-lto-objects\000"
 4691      67202D66 
 4691      66756E63 
 4691      74696F6E 
 4691      2D736563 
 4692              	.LASF12:
 4693 0203 696E7433 		.ascii	"int32\000"
 4693      3200
 4694              	.LASF92:
 4695 0209 63617073 		.ascii	"capsense_FLASH_WD_STRUCT\000"
 4695      656E7365 
 4695      5F464C41 
 4695      53485F57 
 4695      445F5354 
 4696              	.LASF69:
 4697 0222 736E734C 		.ascii	"snsList\000"
 4697      69737400 
 4698              	.LASF115:
 4699 022a 72657375 		.ascii	"result\000"
 4699      6C7400
 4700              	.LASF7:
 4701 0231 6C6F6E67 		.ascii	"long long unsigned int\000"
 4701      206C6F6E 
 4701      6720756E 
 4701      7369676E 
 4701      65642069 
 4702              	.LASF25:
 4703 0248 63617073 		.ascii	"capsense_WD_TOUCHPAD_E\000"
 4703      656E7365 
 4703      5F57445F 
 4703      544F5543 
 4703      48504144 
 4704              	.LASF99:
 4705 025f 70747252 		.ascii	"ptrRegular\000"
 4705      6567756C 
 4705      617200
 4706              	.LASF71:
ARM GAS  C:\Users\ASUS\AppData\Local\Temp\ccuOUgOD.s 			page 122


 4707 026a 736E7254 		.ascii	"snrTestSensorId\000"
 4707      65737453 
 4707      656E736F 
 4707      72496400 
 4708              	.LASF141:
 4709 027a 63617073 		.ascii	"capsense_dsFlash\000"
 4709      656E7365 
 4709      5F647346 
 4709      6C617368 
 4709      00
 4710              	.LASF85:
 4711 028b 77646774 		.ascii	"wdgtType\000"
 4711      54797065 
 4711      00
 4712              	.LASF97:
 4713 0294 72656775 		.ascii	"regularChannel\000"
 4713      6C617243 
 4713      68616E6E 
 4713      656C00
 4714              	.LASF66:
 4715 02a3 6D6F6443 		.ascii	"modCsdClk\000"
 4715      7364436C 
 4715      6B00
 4716              	.LASF16:
 4717 02ad 73697A65 		.ascii	"size_t\000"
 4717      5F7400
 4718              	.LASF33:
 4719 02b4 68797374 		.ascii	"hysteresis\000"
 4719      65726573 
 4719      697300
 4720              	.LASF27:
 4721 02bf 63617073 		.ascii	"capsense_WD_ENCODERDIAL_E\000"
 4721      656E7365 
 4721      5F57445F 
 4721      454E434F 
 4721      44455244 
 4722              	.LASF132:
 4723 02d9 63617073 		.ascii	"capsense_DpProcessCsxWidgetStatus\000"
 4723      656E7365 
 4723      5F447050 
 4723      726F6365 
 4723      73734373 
 4724              	.LASF35:
 4725 02fb 6C6F7742 		.ascii	"lowBslnRst\000"
 4725      736C6E52 
 4725      737400
 4726              	.LASF44:
 4727 0306 62746E30 		.ascii	"btn0\000"
 4727      00
 4728              	.LASF45:
 4729 030b 62746E31 		.ascii	"btn1\000"
 4729      00
 4730              	.LASF46:
 4731 0310 62746E32 		.ascii	"btn2\000"
 4731      00
 4732              	.LASF130:
 4733 0315 746F7563 		.ascii	"touchTh\000"
ARM GAS  C:\Users\ASUS\AppData\Local\Temp\ccuOUgOD.s 			page 123


 4733      68546800 
 4734              	.LASF84:
 4735 031d 746F7461 		.ascii	"totalNumSns\000"
 4735      6C4E756D 
 4735      536E7300 
 4736              	.LASF20:
 4737 0329 63617073 		.ascii	"capsense_LOW_BSLN_RST_TYPE\000"
 4737      656E7365 
 4737      5F4C4F57 
 4737      5F42534C 
 4737      4E5F5253 
 4738              	.LASF31:
 4739 0344 6E6F6973 		.ascii	"noiseTh\000"
 4739      65546800 
 4740              	.LASF15:
 4741 034c 63686172 		.ascii	"char\000"
 4741      00
 4742              	.LASF108:
 4743 0351 746F7563 		.ascii	"touchIdx\000"
 4743      68496478 
 4743      00
 4744              	.LASF102:
 4745 035a 63617073 		.ascii	"capsense_DpInitSlider\000"
 4745      656E7365 
 4745      5F447049 
 4745      6E697453 
 4745      6C696465 
 4746              	.LASF10:
 4747 0370 75696E74 		.ascii	"uint16\000"
 4747      313600
 4748              	.LASF29:
 4749 0377 7265736F 		.ascii	"resolution\000"
 4749      6C757469 
 4749      6F6E00
 4750              	.LASF61:
 4751 0382 73746174 		.ascii	"status\000"
 4751      757300
 4752              	.LASF138:
 4753 0389 746F7563 		.ascii	"touchCnt\000"
 4753      68436E74 
 4753      00
 4754              	.LASF53:
 4755 0392 69646163 		.ascii	"idacComp\000"
 4755      436F6D70 
 4755      00
 4756              	.LASF118:
 4757 039b 63617073 		.ascii	"capsense_DpProcessCsxWidgetRawCounts\000"
 4757      656E7365 
 4757      5F447050 
 4757      726F6365 
 4757      73734373 
 4758              	.LASF86:
 4759 03c0 73656E73 		.ascii	"senseMethod\000"
 4759      654D6574 
 4759      686F6400 
 4760              	.LASF6:
 4761 03cc 6C6F6E67 		.ascii	"long long int\000"
ARM GAS  C:\Users\ASUS\AppData\Local\Temp\ccuOUgOD.s 			page 124


 4761      206C6F6E 
 4761      6720696E 
 4761      7400
 4762              	.LASF41:
 4763 03da 63617073 		.ascii	"capsense_RAM_WD_BUTTON_STRUCT\000"
 4763      656E7365 
 4763      5F52414D 
 4763      5F57445F 
 4763      42555454 
 4764              	.LASF139:
 4765 03f8 63617073 		.ascii	"capsense_DpProcessCsdWidgetStatus\000"
 4765      656E7365 
 4765      5F447050 
 4765      726F6365 
 4765      73734373 
 4766              	.LASF34:
 4767 041a 6F6E4465 		.ascii	"onDebounce\000"
 4767      626F756E 
 4767      636500
 4768              	.LASF140:
 4769 0425 63617073 		.ascii	"capsense_dsRam\000"
 4769      656E7365 
 4769      5F647352 
 4769      616D00
 4770              	.LASF68:
 4771 0434 77646774 		.ascii	"wdgtList\000"
 4771      4C697374 
 4771      00
 4772              	.LASF101:
 4773 043d 70747257 		.ascii	"ptrWdSlider\000"
 4773      64536C69 
 4773      64657200 
 4774              	.LASF73:
 4775 0449 736E7254 		.ascii	"snrTestRawCount\000"
 4775      65737452 
 4775      6177436F 
 4775      756E7400 
 4776              	.LASF142:
 4777 0459 6D656D73 		.ascii	"memset\000"
 4777      657400
 4778              	.LASF32:
 4779 0460 6E4E6F69 		.ascii	"nNoiseTh\000"
 4779      73655468 
 4779      00
 4780              	.LASF65:
 4781 0469 63736430 		.ascii	"csd0Config\000"
 4781      436F6E66 
 4781      696700
 4782              	.LASF134:
 4783 0474 73656E73 		.ascii	"sensorStatus\000"
 4783      6F725374 
 4783      61747573 
 4783      00
 4784              	.LASF11:
 4785 0481 75696E74 		.ascii	"uint32\000"
 4785      333200
 4786              	.LASF103:
ARM GAS  C:\Users\ASUS\AppData\Local\Temp\ccuOUgOD.s 			page 125


 4787 0488 44705570 		.ascii	"DpUpdateLinSlider\000"
 4787      64617465 
 4787      4C696E53 
 4787      6C696465 
 4787      7200
 4788              	.LASF81:
 4789 049a 70747232 		.ascii	"ptr2FltrHistory\000"
 4789      466C7472 
 4789      48697374 
 4789      6F727900 
 4790              	.LASF135:
 4791 04aa 77645374 		.ascii	"wdStatusIndex\000"
 4791      61747573 
 4791      496E6465 
 4791      7800
 4792              	.LASF48:
 4793 04b8 63617073 		.ascii	"capsense_RAM_WD_LIST_STRUCT\000"
 4793      656E7365 
 4793      5F52414D 
 4793      5F57445F 
 4793      4C495354 
 4794              	.LASF19:
 4795 04d4 63617073 		.ascii	"capsense_THRESHOLD_TYPE\000"
 4795      656E7365 
 4795      5F544852 
 4795      4553484F 
 4795      4C445F54 
 4796              	.LASF122:
 4797 04ec 63617073 		.ascii	"capsense_DpProcessCsdWidgetRawCounts\000"
 4797      656E7365 
 4797      5F447050 
 4797      726F6365 
 4797      73734373 
 4798              	.LASF43:
 4799 0511 63617073 		.ascii	"capsense_RAM_WD_SLIDER_STRUCT\000"
 4799      656E7365 
 4799      5F52414D 
 4799      5F57445F 
 4799      534C4944 
 4800              	.LASF116:
 4801 052f 736E7343 		.ascii	"snsCount\000"
 4801      6F756E74 
 4801      00
 4802              	.LASF105:
 4803 0538 6E657750 		.ascii	"newPos\000"
 4803      6F7300
 4804              	.LASF17:
 4805 053f 6C6F6E67 		.ascii	"long double\000"
 4805      20646F75 
 4805      626C6500 
 4806              	.LASF75:
 4807 054b 7363616E 		.ascii	"scanCsxISC\000"
 4807      43737849 
 4807      534300
 4808              	.LASF107:
 4809 0556 70747252 		.ascii	"ptrRamWdgt\000"
 4809      616D5764 
ARM GAS  C:\Users\ASUS\AppData\Local\Temp\ccuOUgOD.s 			page 126


 4809      677400
 4810              	.LASF128:
 4811 0561 736E734D 		.ascii	"snsMask\000"
 4811      61736B00 
 4812              	.LASF72:
 4813 0569 736E7254 		.ascii	"snrTestScanCounter\000"
 4813      65737453 
 4813      63616E43 
 4813      6F756E74 
 4813      657200
 4814              	.LASF56:
 4815 057c 636F6E66 		.ascii	"configId\000"
 4815      69674964 
 4815      00
 4816              	.LASF80:
 4817 0585 70747232 		.ascii	"ptr2SnsRam\000"
 4817      536E7352 
 4817      616D00
 4818              	.LASF26:
 4819 0590 63617073 		.ascii	"capsense_WD_PROXIMITY_E\000"
 4819      656E7365 
 4819      5F57445F 
 4819      50524F58 
 4819      494D4954 
 4820              	.LASF111:
 4821 05a8 63617073 		.ascii	"capsense_DpInitialize\000"
 4821      656E7365 
 4821      5F447049 
 4821      6E697469 
 4821      616C697A 
 4822              	.LASF64:
 4823 05be 736E7353 		.ascii	"snsStatus\000"
 4823      74617475 
 4823      7300
 4824              	.LASF39:
 4825 05c8 736E7343 		.ascii	"snsClkSource\000"
 4825      6C6B536F 
 4825      75726365 
 4825      00
 4826              	.LASF89:
 4827 05d5 78526573 		.ascii	"xResolution\000"
 4827      6F6C7574 
 4827      696F6E00 
 4828              	.LASF100:
 4829 05e1 63617073 		.ascii	"capsense_PTR_FILTER_VARIANT\000"
 4829      656E7365 
 4829      5F505452 
 4829      5F46494C 
 4829      5445525F 
 4830              	.LASF2:
 4831 05fd 73686F72 		.ascii	"short int\000"
 4831      7420696E 
 4831      7400
 4832              	.LASF4:
 4833 0607 6C6F6E67 		.ascii	"long int\000"
 4833      20696E74 
 4833      00
ARM GAS  C:\Users\ASUS\AppData\Local\Temp\ccuOUgOD.s 			page 127


 4834              	.LASF62:
 4835 0610 77646774 		.ascii	"wdgtEnable\000"
 4835      456E6162 
 4835      6C6500
 4836              	.LASF47:
 4837 061b 6C696E65 		.ascii	"linearslider\000"
 4837      6172736C 
 4837      69646572 
 4837      00
 4838              	.LASF51:
 4839 0628 64696666 		.ascii	"diff\000"
 4839      00
 4840              	.LASF59:
 4841 062d 74756E65 		.ascii	"tunerCmd\000"
 4841      72436D64 
 4841      00
 4842              	.LASF98:
 4843 0636 63617073 		.ascii	"capsense_REGULAR_FLTR_STRUCT\000"
 4843      656E7365 
 4843      5F524547 
 4843      554C4152 
 4843      5F464C54 
 4844              	.LASF149:
 4845 0653 433A5C61 		.ascii	"C:\\aixt\\aixt\\ports\\Cypress\\CY8CKIT-145-40XX\\e"
 4845      6978745C 
 4845      61697874 
 4845      5C706F72 
 4845      74735C43 
 4846 0680 78616D70 		.ascii	"xamples\\CY8CKIT-145-40XX-pwm.cydsn\000"
 4846      6C65735C 
 4846      43593843 
 4846      4B49542D 
 4846      3134352D 
 4847              	.LASF123:
 4848 06a3 736E7349 		.ascii	"snsId\000"
 4848      6400
 4849              	.LASF117:
 4850 06a9 70747253 		.ascii	"ptrSnsTmp\000"
 4850      6E73546D 
 4850      7000
 4851              	.LASF54:
 4852 06b3 63617073 		.ascii	"capsense_RAM_SNS_STRUCT\000"
 4852      656E7365 
 4852      5F52414D 
 4852      5F534E53 
 4852      5F535452 
 4853              	.LASF145:
 4854 06cb 63617073 		.ascii	"capsense_DpFindLocalMaxSd\000"
 4854      656E7365 
 4854      5F447046 
 4854      696E644C 
 4854      6F63616C 
 4855              	.LASF87:
 4856 06e5 6E756D43 		.ascii	"numCols\000"
 4856      6F6C7300 
 4857              	.LASF131:
 4858 06ed 70747244 		.ascii	"ptrDebounceCnt\000"
ARM GAS  C:\Users\ASUS\AppData\Local\Temp\ccuOUgOD.s 			page 128


 4858      65626F75 
 4858      6E636543 
 4858      6E7400
 4859              	.LASF63:
 4860 06fc 77646774 		.ascii	"wdgtStatus\000"
 4860      53746174 
 4860      757300
 4861              	.LASF125:
 4862 0707 63617073 		.ascii	"capsense_DpProcessButton\000"
 4862      656E7365 
 4862      5F447050 
 4862      726F6365 
 4862      73734275 
 4863              	.LASF23:
 4864 0720 63617073 		.ascii	"capsense_WD_RADIAL_SLIDER_E\000"
 4864      656E7365 
 4864      5F57445F 
 4864      52414449 
 4864      414C5F53 
 4865              	.LASF18:
 4866 073c 73697A65 		.ascii	"sizetype\000"
 4866      74797065 
 4866      00
 4867              	.LASF5:
 4868 0745 6C6F6E67 		.ascii	"long unsigned int\000"
 4868      20756E73 
 4868      69676E65 
 4868      6420696E 
 4868      7400
 4869              	.LASF36:
 4870 0757 69646163 		.ascii	"idacMod\000"
 4870      4D6F6400 
 4871              	.LASF82:
 4872 075f 70747232 		.ascii	"ptr2DebounceArr\000"
 4872      4465626F 
 4872      756E6365 
 4872      41727200 
 4873              	.LASF90:
 4874 076f 7843656E 		.ascii	"xCentroidMultiplier\000"
 4874      74726F69 
 4874      644D756C 
 4874      7469706C 
 4874      69657200 
 4875              	.LASF30:
 4876 0783 66696E67 		.ascii	"fingerTh\000"
 4876      65725468 
 4876      00
 4877              	.LASF146:
 4878 078c 63617073 		.ascii	"capsense_DpCalcLinearCentroid\000"
 4878      656E7365 
 4878      5F447043 
 4878      616C634C 
 4878      696E6561 
 4879              	.LASF50:
 4880 07aa 62736C6E 		.ascii	"bslnExt\000"
 4880      45787400 
 4881              	.LASF143:
ARM GAS  C:\Users\ASUS\AppData\Local\Temp\ccuOUgOD.s 			page 129


 4882 07b2 63617073 		.ascii	"capsense_FtUpdateBaseline\000"
 4882      656E7365 
 4882      5F467455 
 4882      70646174 
 4882      65426173 
 4883              	.LASF106:
 4884 07cc 6E756D54 		.ascii	"numTouches\000"
 4884      6F756368 
 4884      657300
 4885              	.LASF1:
 4886 07d7 756E7369 		.ascii	"unsigned char\000"
 4886      676E6564 
 4886      20636861 
 4886      7200
 4887              	.LASF136:
 4888 07e5 77645374 		.ascii	"wdStatusMask\000"
 4888      61747573 
 4888      4D61736B 
 4888      00
 4889              	.LASF104:
 4890 07f2 70747246 		.ascii	"ptrFlashWdgt\000"
 4890      6C617368 
 4890      57646774 
 4890      00
 4891              	.LASF83:
 4892 07ff 73746174 		.ascii	"staticConfig\000"
 4892      6963436F 
 4892      6E666967 
 4892      00
 4893              	.LASF67:
 4894 080c 6D6F6443 		.ascii	"modCsxClk\000"
 4894      7378436C 
 4894      6B00
 4895              	.LASF76:
 4896 0816 7363616E 		.ascii	"scanCurrentISC\000"
 4896      43757272 
 4896      656E7449 
 4896      534300
 4897              	.LASF79:
 4898 0825 70747232 		.ascii	"ptr2WdgtRam\000"
 4898      57646774 
 4898      52616D00 
 4899              	.LASF77:
 4900 0831 63617073 		.ascii	"capsense_RAM_STRUCT\000"
 4900      656E7365 
 4900      5F52414D 
 4900      5F535452 
 4900      55435400 
 4901              	.LASF88:
 4902 0845 6E756D52 		.ascii	"numRows\000"
 4902      6F777300 
 4903              	.LASF148:
 4904 084d 47656E65 		.ascii	"Generated_Source\\PSoC4\\capsense_Processing.c\000"
 4904      72617465 
 4904      645F536F 
 4904      75726365 
 4904      5C50536F 
ARM GAS  C:\Users\ASUS\AppData\Local\Temp\ccuOUgOD.s 			page 130


 4905              	.LASF137:
 4906 087a 63617073 		.ascii	"capsense_DpProcessSlider\000"
 4906      656E7365 
 4906      5F447050 
 4906      726F6365 
 4906      7373536C 
 4907              	.LASF124:
 4908 0893 63617073 		.ascii	"capsense_DpProcessCsdSensorRawCountsExt\000"
 4908      656E7365 
 4908      5F447050 
 4908      726F6365 
 4908      73734373 
 4909              	.LASF38:
 4910 08bb 736E7343 		.ascii	"snsClk\000"
 4910      6C6B00
 4911              	.LASF0:
 4912 08c2 7369676E 		.ascii	"signed char\000"
 4912      65642063 
 4912      68617200 
 4913              	.LASF49:
 4914 08ce 62736C6E 		.ascii	"bsln\000"
 4914      00
 4915              	.LASF3:
 4916 08d3 73686F72 		.ascii	"short unsigned int\000"
 4916      7420756E 
 4916      7369676E 
 4916      65642069 
 4916      6E7400
 4917              	.LASF96:
 4918 08e6 63617073 		.ascii	"capsense_REGULAR_FLTR_CHANNEL_STRUCT\000"
 4918      656E7365 
 4918      5F524547 
 4918      554C4152 
 4918      5F464C54 
 4919              	.LASF78:
 4920 090b 70747232 		.ascii	"ptr2SnsFlash\000"
 4920      536E7346 
 4920      6C617368 
 4920      00
 4921              	.LASF95:
 4922 0918 6E6F7455 		.ascii	"notUsed\000"
 4922      73656400 
 4923              	.LASF9:
 4924 0920 75696E74 		.ascii	"uint8\000"
 4924      3800
 4925              	.LASF14:
 4926 0926 646F7562 		.ascii	"double\000"
 4926      6C6500
 4927              	.LASF52:
 4928 092d 6E656742 		.ascii	"negBslnRstCnt\000"
 4928      736C6E52 
 4928      7374436E 
 4928      7400
 4929              	.LASF110:
 4930 093b 77696467 		.ascii	"widgetType\000"
 4930      65745479 
 4930      706500
ARM GAS  C:\Users\ASUS\AppData\Local\Temp\ccuOUgOD.s 			page 131


 4931              	.LASF94:
 4932 0946 63617073 		.ascii	"capsense_FLASH_STRUCT\000"
 4932      656E7365 
 4932      5F464C41 
 4932      53485F53 
 4932      54525543 
 4933              	.LASF57:
 4934 095c 64657669 		.ascii	"deviceId\000"
 4934      63654964 
 4934      00
 4935              	.LASF133:
 4936 0965 77696467 		.ascii	"widgetId\000"
 4936      65744964 
 4936      00
 4937              	.LASF40:
 4938 096e 63617073 		.ascii	"capsense_RAM_WD_BASE_STRUCT\000"
 4938      656E7365 
 4938      5F52414D 
 4938      5F57445F 
 4938      42415345 
 4939              	.LASF42:
 4940 098a 706F7369 		.ascii	"position\000"
 4940      74696F6E 
 4940      00
 4941              	.LASF93:
 4942 0993 77646774 		.ascii	"wdgtArray\000"
 4942      41727261 
 4942      7900
 4943              		.ident	"GCC: (GNU Tools for ARM Embedded Processors) 5.4.1 20160609 (release) [ARM/embedded-5-bran
