ARM GAS  C:\Users\ASUS\AppData\Local\Temp\ccuOUgOD.s 			page 1


   1              		.syntax unified
   2              		.cpu cortex-m0plus
   3              		.fpu softvfp
   4              		.eabi_attribute 20, 1
   5              		.eabi_attribute 21, 1
   6              		.eabi_attribute 23, 3
   7              		.eabi_attribute 24, 1
   8              		.eabi_attribute 25, 1
   9              		.eabi_attribute 26, 1
  10              		.eabi_attribute 30, 1
  11              		.eabi_attribute 34, 0
  12              		.eabi_attribute 18, 4
  13              		.thumb
  14              		.syntax unified
  15              		.file	"capsense_Processing.c"
  16              		.text
  17              	.Ltext0:
  18              		.cfi_sections	.debug_frame
  19              		.section	.text.capsense_DpInitialize,"ax",%progbits
  20              		.align	2
  21              		.global	capsense_DpInitialize
  22              		.code	16
  23              		.thumb_func
  24              		.type	capsense_DpInitialize, %function
  25              	capsense_DpInitialize:
  26              	.LFB2:
  27              		.file 1 "Generated_Source\\PSoC4\\capsense_Processing.c"
   1:Generated_Source\PSoC4/capsense_Processing.c **** /***************************************************************************//**
   2:Generated_Source\PSoC4/capsense_Processing.c **** * \file capsense_Processing.c
   3:Generated_Source\PSoC4/capsense_Processing.c **** * \version 7.10
   4:Generated_Source\PSoC4/capsense_Processing.c **** *
   5:Generated_Source\PSoC4/capsense_Processing.c **** * \brief
   6:Generated_Source\PSoC4/capsense_Processing.c **** *   This file provides the source code for the Data Processing module APIs
   7:Generated_Source\PSoC4/capsense_Processing.c **** *   of the Component. The Data Processing module is responsible for the
   8:Generated_Source\PSoC4/capsense_Processing.c **** *   low level raw counts processing provided by the sensing module, maintaining
   9:Generated_Source\PSoC4/capsense_Processing.c **** *   baseline and difference values and performing high-level widget processing
  10:Generated_Source\PSoC4/capsense_Processing.c **** *   like updating button status or calculating slider position.
  11:Generated_Source\PSoC4/capsense_Processing.c **** *
  12:Generated_Source\PSoC4/capsense_Processing.c **** * \see capsense v7.10 Datasheet
  13:Generated_Source\PSoC4/capsense_Processing.c **** *
  14:Generated_Source\PSoC4/capsense_Processing.c **** *//*****************************************************************************
  15:Generated_Source\PSoC4/capsense_Processing.c **** * Copyright (2016-2019), Cypress Semiconductor Corporation.
  16:Generated_Source\PSoC4/capsense_Processing.c **** ********************************************************************************
  17:Generated_Source\PSoC4/capsense_Processing.c **** * This software is owned by Cypress Semiconductor Corporation (Cypress) and is
  18:Generated_Source\PSoC4/capsense_Processing.c **** * protected by and subject to worldwide patent protection (United States and
  19:Generated_Source\PSoC4/capsense_Processing.c **** * foreign), United States copyright laws and international treaty provisions.
  20:Generated_Source\PSoC4/capsense_Processing.c **** * Cypress hereby grants to licensee a personal, non-exclusive, non-transferable
  21:Generated_Source\PSoC4/capsense_Processing.c **** * license to copy, use, modify, create derivative works of, and compile the
  22:Generated_Source\PSoC4/capsense_Processing.c **** * Cypress Source Code and derivative works for the sole purpose of creating
  23:Generated_Source\PSoC4/capsense_Processing.c **** * custom software in support of licensee product to be used only in conjunction
  24:Generated_Source\PSoC4/capsense_Processing.c **** * with a Cypress integrated circuit as specified in the applicable agreement.
  25:Generated_Source\PSoC4/capsense_Processing.c **** * Any reproduction, modification, translation, compilation, or representation of
  26:Generated_Source\PSoC4/capsense_Processing.c **** * this software except as specified above is prohibited without the express
  27:Generated_Source\PSoC4/capsense_Processing.c **** * written permission of Cypress.
  28:Generated_Source\PSoC4/capsense_Processing.c **** *
  29:Generated_Source\PSoC4/capsense_Processing.c **** * Disclaimer: CYPRESS MAKES NO WARRANTY OF ANY KIND, EXPRESS OR IMPLIED, WITH
  30:Generated_Source\PSoC4/capsense_Processing.c **** * REGARD TO THIS MATERIAL, INCLUDING, BUT NOT LIMITED TO, THE IMPLIED
ARM GAS  C:\Users\ASUS\AppData\Local\Temp\ccuOUgOD.s 			page 2


  31:Generated_Source\PSoC4/capsense_Processing.c **** * WARRANTIES OF MERCHANTABILITY AND FITNESS FOR A PARTICULAR PURPOSE.
  32:Generated_Source\PSoC4/capsense_Processing.c **** * Cypress reserves the right to make changes without further notice to the
  33:Generated_Source\PSoC4/capsense_Processing.c **** * materials described herein. Cypress does not assume any liability arising out
  34:Generated_Source\PSoC4/capsense_Processing.c **** * of the application or use of any product or circuit described herein. Cypress
  35:Generated_Source\PSoC4/capsense_Processing.c **** * does not authorize its products for use as critical components in life-support
  36:Generated_Source\PSoC4/capsense_Processing.c **** * systems where a malfunction or failure may reasonably be expected to result in
  37:Generated_Source\PSoC4/capsense_Processing.c **** * significant injury to the user. The inclusion of Cypress' product in a life-
  38:Generated_Source\PSoC4/capsense_Processing.c **** * support systems application implies that the manufacturer assumes all risk of
  39:Generated_Source\PSoC4/capsense_Processing.c **** * such use and in doing so indemnifies Cypress against all charges. Use may be
  40:Generated_Source\PSoC4/capsense_Processing.c **** * limited by and subject to the applicable Cypress software license agreement.
  41:Generated_Source\PSoC4/capsense_Processing.c **** *******************************************************************************/
  42:Generated_Source\PSoC4/capsense_Processing.c **** 
  43:Generated_Source\PSoC4/capsense_Processing.c **** #include "CyLib.h"
  44:Generated_Source\PSoC4/capsense_Processing.c **** #include "cytypes.h"
  45:Generated_Source\PSoC4/capsense_Processing.c **** #include "capsense_Configuration.h"
  46:Generated_Source\PSoC4/capsense_Processing.c **** #include "capsense_Processing.h"
  47:Generated_Source\PSoC4/capsense_Processing.c **** #include "capsense_Filter.h"
  48:Generated_Source\PSoC4/capsense_Processing.c **** 
  49:Generated_Source\PSoC4/capsense_Processing.c **** #if (0u != capsense_CENTROID_EN)
  50:Generated_Source\PSoC4/capsense_Processing.c ****     #include "capsense_Centroid_LL.h"
  51:Generated_Source\PSoC4/capsense_Processing.c **** #endif /* (0 != capsense_CENTROID_EN) */
  52:Generated_Source\PSoC4/capsense_Processing.c **** 
  53:Generated_Source\PSoC4/capsense_Processing.c **** #if (0 != (capsense_CSD_AUTOTUNE & capsense_CSD_SS_TH_EN))
  54:Generated_Source\PSoC4/capsense_Processing.c ****     #include "capsense_SmartSense_LL.h"
  55:Generated_Source\PSoC4/capsense_Processing.c **** #endif /* (0 != (capsense_CSD_AUTOTUNE & capsense_CSD_SS_TH_EN)) */
  56:Generated_Source\PSoC4/capsense_Processing.c **** 
  57:Generated_Source\PSoC4/capsense_Processing.c **** #if (capsense_ENABLE == capsense_SELF_TEST_EN)
  58:Generated_Source\PSoC4/capsense_Processing.c ****     #include "capsense_SelfTest.h"
  59:Generated_Source\PSoC4/capsense_Processing.c **** #endif
  60:Generated_Source\PSoC4/capsense_Processing.c **** 
  61:Generated_Source\PSoC4/capsense_Processing.c **** #if (capsense_ENABLE == capsense_CENTROID_5X5_CSD_EN)
  62:Generated_Source\PSoC4/capsense_Processing.c ****     #include "capsense_AdvancedCentroid_LL.h"
  63:Generated_Source\PSoC4/capsense_Processing.c **** #endif
  64:Generated_Source\PSoC4/capsense_Processing.c **** 
  65:Generated_Source\PSoC4/capsense_Processing.c **** #if (capsense_ENABLE == capsense_POS_ADAPTIVE_IIR_FILTER_EN)
  66:Generated_Source\PSoC4/capsense_Processing.c ****     #include "capsense_AdaptiveFilter_LL.h"
  67:Generated_Source\PSoC4/capsense_Processing.c **** #endif
  68:Generated_Source\PSoC4/capsense_Processing.c **** 
  69:Generated_Source\PSoC4/capsense_Processing.c **** #if(capsense_ENABLE == capsense_BALLISTIC_MULTIPLIER_EN)
  70:Generated_Source\PSoC4/capsense_Processing.c ****     #include "capsense_Gesture.h"
  71:Generated_Source\PSoC4/capsense_Processing.c **** #endif
  72:Generated_Source\PSoC4/capsense_Processing.c **** 
  73:Generated_Source\PSoC4/capsense_Processing.c **** /**************************************************************************************************
  74:Generated_Source\PSoC4/capsense_Processing.c **** * Local definition
  75:Generated_Source\PSoC4/capsense_Processing.c **** ***************************************************************************************************
  76:Generated_Source\PSoC4/capsense_Processing.c **** 
  77:Generated_Source\PSoC4/capsense_Processing.c **** /* UINT32 constant with all odd bits set. It is used by the processing function of the Proximity wi
  78:Generated_Source\PSoC4/capsense_Processing.c **** *  determine type of the status bit: odd bits report proximity status; even bits report touch statu
  79:Generated_Source\PSoC4/capsense_Processing.c **** */
  80:Generated_Source\PSoC4/capsense_Processing.c **** #define UINT32_ODD_BITS_CONST       (0x55555555u)
  81:Generated_Source\PSoC4/capsense_Processing.c **** 
  82:Generated_Source\PSoC4/capsense_Processing.c **** /* Default value for the Off Debounce counter when the Off Debounce is disabled */
  83:Generated_Source\PSoC4/capsense_Processing.c **** #define DEFAULT_OFF_DEBOUNCE_VALUE  (1u)
  84:Generated_Source\PSoC4/capsense_Processing.c **** #define PERCENTAGE_100              (100u)
  85:Generated_Source\PSoC4/capsense_Processing.c **** #define TEMP_BUFFER_MSB_SHIFT       (16)
  86:Generated_Source\PSoC4/capsense_Processing.c **** 
  87:Generated_Source\PSoC4/capsense_Processing.c **** /**************************************************************************************************
ARM GAS  C:\Users\ASUS\AppData\Local\Temp\ccuOUgOD.s 			page 3


  88:Generated_Source\PSoC4/capsense_Processing.c **** * Local variables
  89:Generated_Source\PSoC4/capsense_Processing.c **** ***************************************************************************************************
  90:Generated_Source\PSoC4/capsense_Processing.c **** #if (0u != capsense_CSX_MULTIPHASE_TX_EN)
  91:Generated_Source\PSoC4/capsense_Processing.c ****     static uint16 deconvRowData[capsense_CSX_MAX_TX_PHASE_LENGTH];
  92:Generated_Source\PSoC4/capsense_Processing.c **** #endif
  93:Generated_Source\PSoC4/capsense_Processing.c **** 
  94:Generated_Source\PSoC4/capsense_Processing.c **** 
  95:Generated_Source\PSoC4/capsense_Processing.c **** /**************************************************************************************************
  96:Generated_Source\PSoC4/capsense_Processing.c **** * Static Function Prototypes
  97:Generated_Source\PSoC4/capsense_Processing.c **** ***************************************************************************************************
  98:Generated_Source\PSoC4/capsense_Processing.c **** /**
  99:Generated_Source\PSoC4/capsense_Processing.c **** * \cond SECTION_C_INTERNAL
 100:Generated_Source\PSoC4/capsense_Processing.c **** * \addtogroup group_c_internal
 101:Generated_Source\PSoC4/capsense_Processing.c **** * \{
 102:Generated_Source\PSoC4/capsense_Processing.c **** */
 103:Generated_Source\PSoC4/capsense_Processing.c **** #if (0u != capsense_TOTAL_LINEAR_SLIDERS)
 104:Generated_Source\PSoC4/capsense_Processing.c ****     static CY_INLINE void DpUpdateLinSlider(
 105:Generated_Source\PSoC4/capsense_Processing.c ****                         const uint16 newPos[], uint32 numTouches,
 106:Generated_Source\PSoC4/capsense_Processing.c ****                         capsense_FLASH_WD_STRUCT const *ptrFlashWdgt,
 107:Generated_Source\PSoC4/capsense_Processing.c ****                         capsense_RAM_WD_SLIDER_STRUCT *ptrRamWdgt);
 108:Generated_Source\PSoC4/capsense_Processing.c **** #endif /* #if (0u != capsense_TOTAL_LINEAR_SLIDERS) */
 109:Generated_Source\PSoC4/capsense_Processing.c **** 
 110:Generated_Source\PSoC4/capsense_Processing.c **** #if (0u != capsense_TOTAL_RADIAL_SLIDERS)
 111:Generated_Source\PSoC4/capsense_Processing.c ****     static CY_INLINE void DpUpdateRadSlider(
 112:Generated_Source\PSoC4/capsense_Processing.c ****                         const uint16 newPos[], uint32 numTouches,
 113:Generated_Source\PSoC4/capsense_Processing.c ****                         capsense_FLASH_WD_STRUCT const * ptrFlashWdgt,
 114:Generated_Source\PSoC4/capsense_Processing.c ****                         capsense_RAM_WD_SLIDER_STRUCT *ptrRamWdgt);
 115:Generated_Source\PSoC4/capsense_Processing.c **** #endif /* #if (0u != capsense_TOTAL_RADIAL_SLIDERS) */
 116:Generated_Source\PSoC4/capsense_Processing.c **** 
 117:Generated_Source\PSoC4/capsense_Processing.c **** #if (0u != capsense_CSD_TOUCHPAD_WIDGET_EN)
 118:Generated_Source\PSoC4/capsense_Processing.c ****     static CY_INLINE void capsense_DpInitCsdTouchpad(capsense_FLASH_WD_STRUCT const * ptrFlashWdgt)
 119:Generated_Source\PSoC4/capsense_Processing.c **** #endif /* #if (0u != capsense_CSD_TOUCHPAD_WIDGET_EN) */
 120:Generated_Source\PSoC4/capsense_Processing.c **** 
 121:Generated_Source\PSoC4/capsense_Processing.c **** #if (0u != capsense_CSX_TOUCHPAD_WIDGET_EN)
 122:Generated_Source\PSoC4/capsense_Processing.c ****     static CY_INLINE void capsense_DpInitCsxTouchpad(capsense_FLASH_WD_STRUCT const * ptrFlashWdgt)
 123:Generated_Source\PSoC4/capsense_Processing.c **** #endif /* #if (0u != capsense_CSX_TOUCHPAD_WIDGET_EN) */
 124:Generated_Source\PSoC4/capsense_Processing.c **** 
 125:Generated_Source\PSoC4/capsense_Processing.c **** #if (0u != capsense_SLIDER_WIDGET_EN)
 126:Generated_Source\PSoC4/capsense_Processing.c ****     static CY_INLINE void capsense_DpInitSlider(capsense_FLASH_WD_STRUCT const * ptrFlashWdgt);
 127:Generated_Source\PSoC4/capsense_Processing.c **** #endif /* #if (0u != capsense_SLIDER_WIDGET_EN) */
 128:Generated_Source\PSoC4/capsense_Processing.c **** 
 129:Generated_Source\PSoC4/capsense_Processing.c **** #if (0u != capsense_CSD_MATRIX_WIDGET_EN)
 130:Generated_Source\PSoC4/capsense_Processing.c ****     static CY_INLINE void capsense_DpInitCsdMatrix(capsense_FLASH_WD_STRUCT const * ptrFlashWdgt);
 131:Generated_Source\PSoC4/capsense_Processing.c **** #endif /* #if (0u != capsense_CSD_MATRIX_WIDGET_EN) */
 132:Generated_Source\PSoC4/capsense_Processing.c **** 
 133:Generated_Source\PSoC4/capsense_Processing.c **** /** \}
 134:Generated_Source\PSoC4/capsense_Processing.c **** * \endcond */
 135:Generated_Source\PSoC4/capsense_Processing.c **** 
 136:Generated_Source\PSoC4/capsense_Processing.c **** #if (0u != capsense_CSD_TOUCHPAD_WIDGET_EN)
 137:Generated_Source\PSoC4/capsense_Processing.c **** /*******************************************************************************
 138:Generated_Source\PSoC4/capsense_Processing.c **** * Function Name: capsense_DpInitCsdTouchpad
 139:Generated_Source\PSoC4/capsense_Processing.c **** ****************************************************************************//**
 140:Generated_Source\PSoC4/capsense_Processing.c **** *
 141:Generated_Source\PSoC4/capsense_Processing.c **** * \brief
 142:Generated_Source\PSoC4/capsense_Processing.c **** *  Performs initialization of the CSD touchpad widget.
 143:Generated_Source\PSoC4/capsense_Processing.c **** *   - Resets the position data to NONE
 144:Generated_Source\PSoC4/capsense_Processing.c **** *   - Initializes the position filter history if enabled.
ARM GAS  C:\Users\ASUS\AppData\Local\Temp\ccuOUgOD.s 			page 4


 145:Generated_Source\PSoC4/capsense_Processing.c **** *
 146:Generated_Source\PSoC4/capsense_Processing.c **** * \details
 147:Generated_Source\PSoC4/capsense_Processing.c **** *  The position data is always reset to the capsense_TOUCHPAD_POS_NONE value.
 148:Generated_Source\PSoC4/capsense_Processing.c **** *  The same happens to the position filter history data if enabled.
 149:Generated_Source\PSoC4/capsense_Processing.c **** *
 150:Generated_Source\PSoC4/capsense_Processing.c **** *******************************************************************************/
 151:Generated_Source\PSoC4/capsense_Processing.c **** static CY_INLINE void capsense_DpInitCsdTouchpad(capsense_FLASH_WD_STRUCT const * ptrFlashWdgt)
 152:Generated_Source\PSoC4/capsense_Processing.c **** {
 153:Generated_Source\PSoC4/capsense_Processing.c ****     #if (capsense_ENABLE == capsense_CENTROID_5X5_CSD_EN)
 154:Generated_Source\PSoC4/capsense_Processing.c ****         uint32 touchIndex;
 155:Generated_Source\PSoC4/capsense_Processing.c ****     #endif
 156:Generated_Source\PSoC4/capsense_Processing.c **** 
 157:Generated_Source\PSoC4/capsense_Processing.c ****     capsense_RAM_WD_CSD_TOUCHPAD_STRUCT *ptrWdTouchpad;
 158:Generated_Source\PSoC4/capsense_Processing.c **** 
 159:Generated_Source\PSoC4/capsense_Processing.c ****     #if (0u != capsense_POSITION_FILTER_EN)
 160:Generated_Source\PSoC4/capsense_Processing.c ****         capsense_TOUCHPAD_POS_HISTORY_STRUCT *ptrHistory;
 161:Generated_Source\PSoC4/capsense_Processing.c ****     #endif  /* #if (0u != capsense_POSITION_FILTER_EN) */
 162:Generated_Source\PSoC4/capsense_Processing.c **** 
 163:Generated_Source\PSoC4/capsense_Processing.c ****     #if (0u != capsense_POS_ADAPTIVE_IIR_FILTER_EN)
 164:Generated_Source\PSoC4/capsense_Processing.c ****         ADAPTIVE_FILTER_CONTEXT_STRUCT adpContext;
 165:Generated_Source\PSoC4/capsense_Processing.c ****     #endif /* (0u != capsense_POS_ADAPTIVE_IIR_FILTER_EN) */
 166:Generated_Source\PSoC4/capsense_Processing.c **** 
 167:Generated_Source\PSoC4/capsense_Processing.c ****     ptrWdTouchpad = ptrFlashWdgt->ptr2WdgtRam;
 168:Generated_Source\PSoC4/capsense_Processing.c **** 
 169:Generated_Source\PSoC4/capsense_Processing.c ****     /* Reset position data */
 170:Generated_Source\PSoC4/capsense_Processing.c ****     #if (capsense_ENABLE == capsense_CENTROID_5X5_CSD_EN)
 171:Generated_Source\PSoC4/capsense_Processing.c ****         #if (capsense_ENABLE == capsense_CENTROID_3X3_CSD_EN)
 172:Generated_Source\PSoC4/capsense_Processing.c ****             if (0u != (ptrFlashWdgt->staticConfig & capsense_CENTROID_5X5_MASK))
 173:Generated_Source\PSoC4/capsense_Processing.c ****             {
 174:Generated_Source\PSoC4/capsense_Processing.c ****         #endif
 175:Generated_Source\PSoC4/capsense_Processing.c **** 
 176:Generated_Source\PSoC4/capsense_Processing.c ****         ptrWdTouchpad->position.touchNum = 0u;
 177:Generated_Source\PSoC4/capsense_Processing.c **** 
 178:Generated_Source\PSoC4/capsense_Processing.c ****         #if (0u != capsense_POSITION_FILTER_EN)
 179:Generated_Source\PSoC4/capsense_Processing.c ****             ptrHistory = ptrFlashWdgt->ptr2PosHistory;
 180:Generated_Source\PSoC4/capsense_Processing.c ****         #endif /* (0u != capsense_POSITION_FILTER_EN) */
 181:Generated_Source\PSoC4/capsense_Processing.c **** 
 182:Generated_Source\PSoC4/capsense_Processing.c ****         for (touchIndex = 0u; touchIndex < ADVANCED_CENTROID_MAX_TOUCHES; touchIndex++)
 183:Generated_Source\PSoC4/capsense_Processing.c ****         {
 184:Generated_Source\PSoC4/capsense_Processing.c ****             ptrWdTouchpad->position.pos[touchIndex].x = ADVANCED_CENTROID_POSITION_NONE;
 185:Generated_Source\PSoC4/capsense_Processing.c ****             ptrWdTouchpad->position.pos[touchIndex].y = ADVANCED_CENTROID_POSITION_NONE;
 186:Generated_Source\PSoC4/capsense_Processing.c ****             ptrWdTouchpad->position.pos[touchIndex].zX = ADVANCED_CENTROID_POSITION_NONE;
 187:Generated_Source\PSoC4/capsense_Processing.c ****             ptrWdTouchpad->position.pos[touchIndex].zY = ADVANCED_CENTROID_POSITION_NONE;
 188:Generated_Source\PSoC4/capsense_Processing.c **** 
 189:Generated_Source\PSoC4/capsense_Processing.c ****             /* Clear position filter history data if available */
 190:Generated_Source\PSoC4/capsense_Processing.c ****             #if (0u != capsense_POSITION_FILTER_EN)
 191:Generated_Source\PSoC4/capsense_Processing.c ****                 if (NULL != ptrHistory)
 192:Generated_Source\PSoC4/capsense_Processing.c ****                 {
 193:Generated_Source\PSoC4/capsense_Processing.c ****                     capsense_InitPosFiltersDd(&ptrHistory[touchIndex], capsense_TOUCHPAD_POS_NONE, 
 194:Generated_Source\PSoC4/capsense_Processing.c ****                     #if (0u != capsense_POS_ADAPTIVE_IIR_FILTER_EN)
 195:Generated_Source\PSoC4/capsense_Processing.c ****                         AdaptiveFilter_Initialize(&ptrWdTouchpad->aiirConfig, &adpContext);
 196:Generated_Source\PSoC4/capsense_Processing.c ****                         ptrHistory[touchIndex].xPos.posAIIRCoeff = adpContext.coefficient;
 197:Generated_Source\PSoC4/capsense_Processing.c ****                         ptrHistory[touchIndex].yPos.posAIIRCoeff = adpContext.coefficient;
 198:Generated_Source\PSoC4/capsense_Processing.c ****                     #endif /* (0u != capsense_POS_ADAPTIVE_IIR_FILTER_EN) */
 199:Generated_Source\PSoC4/capsense_Processing.c ****                 }
 200:Generated_Source\PSoC4/capsense_Processing.c ****             #endif /* (0u != capsense_POSITION_FILTER_EN) */
 201:Generated_Source\PSoC4/capsense_Processing.c ****         }
ARM GAS  C:\Users\ASUS\AppData\Local\Temp\ccuOUgOD.s 			page 5


 202:Generated_Source\PSoC4/capsense_Processing.c **** 
 203:Generated_Source\PSoC4/capsense_Processing.c ****         #if (capsense_ENABLE == capsense_CENTROID_3X3_CSD_EN)
 204:Generated_Source\PSoC4/capsense_Processing.c ****             }
 205:Generated_Source\PSoC4/capsense_Processing.c ****         #endif
 206:Generated_Source\PSoC4/capsense_Processing.c ****     #endif
 207:Generated_Source\PSoC4/capsense_Processing.c **** 
 208:Generated_Source\PSoC4/capsense_Processing.c ****     #if (capsense_ENABLE == capsense_CENTROID_3X3_CSD_EN)
 209:Generated_Source\PSoC4/capsense_Processing.c ****         if (0u != (ptrFlashWdgt->staticConfig & capsense_CENTROID_3X3_MASK))
 210:Generated_Source\PSoC4/capsense_Processing.c ****         {
 211:Generated_Source\PSoC4/capsense_Processing.c ****             ptrWdTouchpad->posX = capsense_TOUCHPAD_POS_NONE;
 212:Generated_Source\PSoC4/capsense_Processing.c ****             ptrWdTouchpad->posY = capsense_TOUCHPAD_POS_NONE;
 213:Generated_Source\PSoC4/capsense_Processing.c **** 
 214:Generated_Source\PSoC4/capsense_Processing.c ****             /* Clear position filter history data if available */
 215:Generated_Source\PSoC4/capsense_Processing.c ****             #if (0u != capsense_POSITION_FILTER_EN)
 216:Generated_Source\PSoC4/capsense_Processing.c ****                 ptrHistory = ptrFlashWdgt->ptr2PosHistory;
 217:Generated_Source\PSoC4/capsense_Processing.c ****                 capsense_InitPosFiltersDd(ptrHistory, capsense_TOUCHPAD_POS_NONE, capsense_TOUCHPAD
 218:Generated_Source\PSoC4/capsense_Processing.c **** 
 219:Generated_Source\PSoC4/capsense_Processing.c ****                 #if (0u != capsense_POS_ADAPTIVE_IIR_FILTER_EN)
 220:Generated_Source\PSoC4/capsense_Processing.c ****                     if (NULL != ptrHistory)
 221:Generated_Source\PSoC4/capsense_Processing.c ****                     {
 222:Generated_Source\PSoC4/capsense_Processing.c ****                         AdaptiveFilter_Initialize(&ptrWdTouchpad->aiirConfig, &adpContext);
 223:Generated_Source\PSoC4/capsense_Processing.c ****                         ptrHistory->xPos.posAIIRCoeff = adpContext.coefficient;
 224:Generated_Source\PSoC4/capsense_Processing.c ****                         ptrHistory->yPos.posAIIRCoeff = adpContext.coefficient;
 225:Generated_Source\PSoC4/capsense_Processing.c ****                     }
 226:Generated_Source\PSoC4/capsense_Processing.c ****                 #endif /* (0u != capsense_POS_ADAPTIVE_IIR_FILTER_EN) */
 227:Generated_Source\PSoC4/capsense_Processing.c ****             #endif /* (0u != capsense_POSITION_FILTER_EN) */
 228:Generated_Source\PSoC4/capsense_Processing.c ****         }
 229:Generated_Source\PSoC4/capsense_Processing.c ****     #endif
 230:Generated_Source\PSoC4/capsense_Processing.c **** }
 231:Generated_Source\PSoC4/capsense_Processing.c **** #endif /* #if (0u != capsense_CSD_TOUCHPAD_WIDGET_EN) */
 232:Generated_Source\PSoC4/capsense_Processing.c **** 
 233:Generated_Source\PSoC4/capsense_Processing.c **** #if (0u != capsense_CSX_TOUCHPAD_WIDGET_EN)
 234:Generated_Source\PSoC4/capsense_Processing.c **** /*******************************************************************************
 235:Generated_Source\PSoC4/capsense_Processing.c **** * Function Name: capsense_DpInitCsxTouchpad
 236:Generated_Source\PSoC4/capsense_Processing.c **** ****************************************************************************//**
 237:Generated_Source\PSoC4/capsense_Processing.c **** *
 238:Generated_Source\PSoC4/capsense_Processing.c **** * \brief
 239:Generated_Source\PSoC4/capsense_Processing.c **** *  Performs initialization of the CSX touchpad widget i.e. Resets the position data to NONE.
 240:Generated_Source\PSoC4/capsense_Processing.c **** *
 241:Generated_Source\PSoC4/capsense_Processing.c **** * \details
 242:Generated_Source\PSoC4/capsense_Processing.c **** *  The position data is always reset to the capsense_TOUCHPAD_POS_NONE value.
 243:Generated_Source\PSoC4/capsense_Processing.c **** *
 244:Generated_Source\PSoC4/capsense_Processing.c **** *******************************************************************************/
 245:Generated_Source\PSoC4/capsense_Processing.c **** static CY_INLINE void capsense_DpInitCsxTouchpad(capsense_FLASH_WD_STRUCT const * ptrFlashWdgt)
 246:Generated_Source\PSoC4/capsense_Processing.c **** {
 247:Generated_Source\PSoC4/capsense_Processing.c ****     capsense_RAM_WD_CSX_TOUCHPAD_STRUCT *ptrWdTouchpad;
 248:Generated_Source\PSoC4/capsense_Processing.c **** 
 249:Generated_Source\PSoC4/capsense_Processing.c ****     #if (0u != capsense_POSITION_FILTER_EN)
 250:Generated_Source\PSoC4/capsense_Processing.c ****         uint32 touchIndex;
 251:Generated_Source\PSoC4/capsense_Processing.c ****         capsense_TOUCHPAD_POS_HISTORY_STRUCT *ptrHistory;
 252:Generated_Source\PSoC4/capsense_Processing.c ****     #endif  /* #if (0u != capsense_POSITION_FILTER_EN) */
 253:Generated_Source\PSoC4/capsense_Processing.c **** 
 254:Generated_Source\PSoC4/capsense_Processing.c ****     #if (0u != capsense_POS_ADAPTIVE_IIR_FILTER_EN)
 255:Generated_Source\PSoC4/capsense_Processing.c ****         ADAPTIVE_FILTER_CONTEXT_STRUCT adpContext;
 256:Generated_Source\PSoC4/capsense_Processing.c ****     #endif /* (0u != capsense_POS_ADAPTIVE_IIR_FILTER_EN) */
 257:Generated_Source\PSoC4/capsense_Processing.c **** 
 258:Generated_Source\PSoC4/capsense_Processing.c ****     ptrWdTouchpad = ptrFlashWdgt->ptr2WdgtRam;
ARM GAS  C:\Users\ASUS\AppData\Local\Temp\ccuOUgOD.s 			page 6


 259:Generated_Source\PSoC4/capsense_Processing.c **** 
 260:Generated_Source\PSoC4/capsense_Processing.c ****     #if (0u != capsense_POSITION_FILTER_EN)
 261:Generated_Source\PSoC4/capsense_Processing.c ****         ptrHistory = ptrFlashWdgt->ptr2PosHistory;
 262:Generated_Source\PSoC4/capsense_Processing.c ****     #endif /* (0u != capsense_POSITION_FILTER_EN) */
 263:Generated_Source\PSoC4/capsense_Processing.c **** 
 264:Generated_Source\PSoC4/capsense_Processing.c ****     /* Reset position data for finger */
 265:Generated_Source\PSoC4/capsense_Processing.c ****     ptrWdTouchpad->touch[0u].x = capsense_TOUCHPAD_POS_NONE;
 266:Generated_Source\PSoC4/capsense_Processing.c ****     ptrWdTouchpad->touch[0u].y = capsense_TOUCHPAD_POS_NONE;
 267:Generated_Source\PSoC4/capsense_Processing.c ****     ptrWdTouchpad->touch[0u].z = LO8(capsense_TOUCHPAD_POS_NONE);
 268:Generated_Source\PSoC4/capsense_Processing.c **** 
 269:Generated_Source\PSoC4/capsense_Processing.c ****     #if (capsense_CSX_MAX_FINGERS > 1u)
 270:Generated_Source\PSoC4/capsense_Processing.c ****         ptrWdTouchpad->touch[1u].x = capsense_TOUCHPAD_POS_NONE;
 271:Generated_Source\PSoC4/capsense_Processing.c ****         ptrWdTouchpad->touch[1u].y = capsense_TOUCHPAD_POS_NONE;
 272:Generated_Source\PSoC4/capsense_Processing.c ****         ptrWdTouchpad->touch[1u].z = LO8(capsense_TOUCHPAD_POS_NONE);
 273:Generated_Source\PSoC4/capsense_Processing.c ****     #endif /* #if (capsense_CSX_MAX_FINGERS > 1u) */
 274:Generated_Source\PSoC4/capsense_Processing.c **** 
 275:Generated_Source\PSoC4/capsense_Processing.c ****     #if (capsense_CSX_MAX_FINGERS > 2u)
 276:Generated_Source\PSoC4/capsense_Processing.c ****         ptrWdTouchpad->touch[2u].x = capsense_TOUCHPAD_POS_NONE;
 277:Generated_Source\PSoC4/capsense_Processing.c ****         ptrWdTouchpad->touch[2u].y = capsense_TOUCHPAD_POS_NONE;
 278:Generated_Source\PSoC4/capsense_Processing.c ****         ptrWdTouchpad->touch[2u].z = LO8(capsense_TOUCHPAD_POS_NONE);
 279:Generated_Source\PSoC4/capsense_Processing.c ****     #endif /* #if (capsense_CSX_MAX_FINGERS > 2u) */
 280:Generated_Source\PSoC4/capsense_Processing.c **** 
 281:Generated_Source\PSoC4/capsense_Processing.c ****     #if (0u != capsense_POSITION_FILTER_EN)
 282:Generated_Source\PSoC4/capsense_Processing.c ****         for (touchIndex = 0u; touchIndex < capsense_CSX_MAX_FINGERS; touchIndex++)
 283:Generated_Source\PSoC4/capsense_Processing.c ****         {
 284:Generated_Source\PSoC4/capsense_Processing.c ****             if (NULL != ptrHistory)
 285:Generated_Source\PSoC4/capsense_Processing.c ****             {
 286:Generated_Source\PSoC4/capsense_Processing.c ****                 /* Clear position filter history data if available */
 287:Generated_Source\PSoC4/capsense_Processing.c ****                 capsense_InitPosFiltersDd(&ptrHistory[touchIndex], capsense_TOUCHPAD_POS_NONE, caps
 288:Generated_Source\PSoC4/capsense_Processing.c ****                 #if (0u != capsense_POS_ADAPTIVE_IIR_FILTER_EN)
 289:Generated_Source\PSoC4/capsense_Processing.c ****                     AdaptiveFilter_Initialize(&ptrWdTouchpad->aiirConfig, &adpContext);
 290:Generated_Source\PSoC4/capsense_Processing.c ****                     ptrHistory[touchIndex].xPos.posAIIRCoeff = adpContext.coefficient;
 291:Generated_Source\PSoC4/capsense_Processing.c ****                     ptrHistory[touchIndex].yPos.posAIIRCoeff = adpContext.coefficient;
 292:Generated_Source\PSoC4/capsense_Processing.c ****                 #endif /* (0u != capsense_POS_ADAPTIVE_IIR_FILTER_EN) */
 293:Generated_Source\PSoC4/capsense_Processing.c ****             }
 294:Generated_Source\PSoC4/capsense_Processing.c ****         }
 295:Generated_Source\PSoC4/capsense_Processing.c ****     #endif /* (0u != capsense_POSITION_FILTER_EN) */
 296:Generated_Source\PSoC4/capsense_Processing.c **** }
 297:Generated_Source\PSoC4/capsense_Processing.c **** #endif /* #if (0u != capsense_CSX_TOUCHPAD_WIDGET_EN) */
 298:Generated_Source\PSoC4/capsense_Processing.c **** 
 299:Generated_Source\PSoC4/capsense_Processing.c **** #if (0u != capsense_SLIDER_WIDGET_EN)
 300:Generated_Source\PSoC4/capsense_Processing.c **** /*******************************************************************************
 301:Generated_Source\PSoC4/capsense_Processing.c **** * Function Name: capsense_DpInitSlider
 302:Generated_Source\PSoC4/capsense_Processing.c **** ****************************************************************************//**
 303:Generated_Source\PSoC4/capsense_Processing.c **** *
 304:Generated_Source\PSoC4/capsense_Processing.c **** * \brief
 305:Generated_Source\PSoC4/capsense_Processing.c **** *  Performs initialization of the Radial and Linear Slider widget.
 306:Generated_Source\PSoC4/capsense_Processing.c **** *   - Resets the position data to NONE
 307:Generated_Source\PSoC4/capsense_Processing.c **** *   - Initializes the position filter history to NONE if enabled.
 308:Generated_Source\PSoC4/capsense_Processing.c **** *
 309:Generated_Source\PSoC4/capsense_Processing.c **** * \details
 310:Generated_Source\PSoC4/capsense_Processing.c **** *  Position data is always reset to the capsense_SLIDER_POS_NONE value.
 311:Generated_Source\PSoC4/capsense_Processing.c **** *  The same happens to the position filter history data if enabled.
 312:Generated_Source\PSoC4/capsense_Processing.c **** *
 313:Generated_Source\PSoC4/capsense_Processing.c **** *******************************************************************************/
 314:Generated_Source\PSoC4/capsense_Processing.c **** static CY_INLINE void capsense_DpInitSlider(capsense_FLASH_WD_STRUCT const * ptrFlashWdgt)
 315:Generated_Source\PSoC4/capsense_Processing.c **** {
ARM GAS  C:\Users\ASUS\AppData\Local\Temp\ccuOUgOD.s 			page 7


 316:Generated_Source\PSoC4/capsense_Processing.c ****     uint32 idx;
 317:Generated_Source\PSoC4/capsense_Processing.c ****     capsense_RAM_WD_SLIDER_STRUCT *ptrWdSlider;
 318:Generated_Source\PSoC4/capsense_Processing.c **** 
 319:Generated_Source\PSoC4/capsense_Processing.c ****     #if (0u != capsense_POSITION_FILTER_EN)
 320:Generated_Source\PSoC4/capsense_Processing.c ****         capsense_SLIDER_POS_HISTORY_STRUCT *ptrHistory;
 321:Generated_Source\PSoC4/capsense_Processing.c ****     #endif /* #if (0u != capsense_POSITION_FILTER_EN) */
 322:Generated_Source\PSoC4/capsense_Processing.c **** 
 323:Generated_Source\PSoC4/capsense_Processing.c ****     #if (0u != capsense_POS_ADAPTIVE_IIR_FILTER_EN)
 324:Generated_Source\PSoC4/capsense_Processing.c ****         ADAPTIVE_FILTER_CONTEXT_STRUCT context;
 325:Generated_Source\PSoC4/capsense_Processing.c ****     #endif /* (0u != capsense_POS_ADAPTIVE_IIR_FILTER_EN) */
 326:Generated_Source\PSoC4/capsense_Processing.c **** 
 327:Generated_Source\PSoC4/capsense_Processing.c ****     ptrWdSlider = ptrFlashWdgt->ptr2WdgtRam;
 328:Generated_Source\PSoC4/capsense_Processing.c **** 
 329:Generated_Source\PSoC4/capsense_Processing.c ****     /* Reset slider position data to NONE */
 330:Generated_Source\PSoC4/capsense_Processing.c ****     for (idx = 0u; idx < capsense_NUM_CENTROIDS; idx++)
 331:Generated_Source\PSoC4/capsense_Processing.c ****     {
 332:Generated_Source\PSoC4/capsense_Processing.c ****         ptrWdSlider->position[idx] = capsense_SLIDER_POS_NONE;
 333:Generated_Source\PSoC4/capsense_Processing.c **** 
 334:Generated_Source\PSoC4/capsense_Processing.c ****         #if (0u != capsense_POSITION_FILTER_EN)
 335:Generated_Source\PSoC4/capsense_Processing.c ****             ptrHistory = ptrFlashWdgt->ptr2PosHistory;
 336:Generated_Source\PSoC4/capsense_Processing.c ****             if (NULL != ptrHistory)
 337:Generated_Source\PSoC4/capsense_Processing.c ****             {
 338:Generated_Source\PSoC4/capsense_Processing.c ****                 capsense_InitPosFiltersSd(&ptrHistory[idx], capsense_SLIDER_POS_NONE);
 339:Generated_Source\PSoC4/capsense_Processing.c ****                 #if (0u != capsense_POS_ADAPTIVE_IIR_FILTER_EN)
 340:Generated_Source\PSoC4/capsense_Processing.c ****                     AdaptiveFilter_Initialize(&ptrWdSlider->aiirConfig, &context);
 341:Generated_Source\PSoC4/capsense_Processing.c ****                     ptrHistory->posAIIRCoeff = context.coefficient;
 342:Generated_Source\PSoC4/capsense_Processing.c ****                 #endif /* (0u != capsense_POS_ADAPTIVE_IIR_FILTER_EN) */
 343:Generated_Source\PSoC4/capsense_Processing.c ****             }
 344:Generated_Source\PSoC4/capsense_Processing.c **** 
 345:Generated_Source\PSoC4/capsense_Processing.c ****         #endif /* #if (0u != capsense_POSITION_FILTER_EN) */
 346:Generated_Source\PSoC4/capsense_Processing.c ****     }
 347:Generated_Source\PSoC4/capsense_Processing.c **** }
 348:Generated_Source\PSoC4/capsense_Processing.c **** #endif /* #if (0u != capsense_SLIDER_WIDGET_EN) */
 349:Generated_Source\PSoC4/capsense_Processing.c **** 
 350:Generated_Source\PSoC4/capsense_Processing.c **** #if (0u != capsense_CSD_MATRIX_WIDGET_EN)
 351:Generated_Source\PSoC4/capsense_Processing.c **** /*******************************************************************************
 352:Generated_Source\PSoC4/capsense_Processing.c **** * Function Name: capsense_DpInitCsdMatrix
 353:Generated_Source\PSoC4/capsense_Processing.c **** ****************************************************************************//**
 354:Generated_Source\PSoC4/capsense_Processing.c **** *
 355:Generated_Source\PSoC4/capsense_Processing.c **** * \brief
 356:Generated_Source\PSoC4/capsense_Processing.c **** *  Performs initialization of the CSD Matrix Buttons widget.
 357:Generated_Source\PSoC4/capsense_Processing.c **** *   - Resets the active button position data to NONE.
 358:Generated_Source\PSoC4/capsense_Processing.c **** *
 359:Generated_Source\PSoC4/capsense_Processing.c **** * \details
 360:Generated_Source\PSoC4/capsense_Processing.c **** *  Position data is always reset to the capsense_MATRIX_POS_NONE value.
 361:Generated_Source\PSoC4/capsense_Processing.c **** *
 362:Generated_Source\PSoC4/capsense_Processing.c **** *******************************************************************************/
 363:Generated_Source\PSoC4/capsense_Processing.c **** static CY_INLINE void capsense_DpInitCsdMatrix(capsense_FLASH_WD_STRUCT const * ptrFlashWdgt)
 364:Generated_Source\PSoC4/capsense_Processing.c **** {
 365:Generated_Source\PSoC4/capsense_Processing.c ****     capsense_RAM_WD_CSD_MATRIX_STRUCT *ptrRamWdgt;
 366:Generated_Source\PSoC4/capsense_Processing.c **** 
 367:Generated_Source\PSoC4/capsense_Processing.c ****     ptrRamWdgt = (capsense_RAM_WD_CSD_MATRIX_STRUCT *)ptrFlashWdgt->ptr2WdgtRam;
 368:Generated_Source\PSoC4/capsense_Processing.c **** 
 369:Generated_Source\PSoC4/capsense_Processing.c ****     /* Reset sensor id, row and col registers in data structure */
 370:Generated_Source\PSoC4/capsense_Processing.c ****     ptrRamWdgt->posRow   = capsense_MATRIX_POS_NONE;
 371:Generated_Source\PSoC4/capsense_Processing.c ****     ptrRamWdgt->posCol   = capsense_MATRIX_POS_NONE;
 372:Generated_Source\PSoC4/capsense_Processing.c ****     ptrRamWdgt->posSnsId = capsense_MATRIX_POS_NONE;
ARM GAS  C:\Users\ASUS\AppData\Local\Temp\ccuOUgOD.s 			page 8


 373:Generated_Source\PSoC4/capsense_Processing.c **** }
 374:Generated_Source\PSoC4/capsense_Processing.c **** #endif /* #if (0u != capsense_CSD_MATRIX_WIDGET_EN) */
 375:Generated_Source\PSoC4/capsense_Processing.c **** 
 376:Generated_Source\PSoC4/capsense_Processing.c **** /*******************************************************************************
 377:Generated_Source\PSoC4/capsense_Processing.c **** * Function Name: capsense_DpInitialize
 378:Generated_Source\PSoC4/capsense_Processing.c **** ****************************************************************************//**
 379:Generated_Source\PSoC4/capsense_Processing.c **** *
 380:Generated_Source\PSoC4/capsense_Processing.c **** * \brief
 381:Generated_Source\PSoC4/capsense_Processing.c **** *  Performs initialization of the data processing FW module:
 382:Generated_Source\PSoC4/capsense_Processing.c **** *   - Resets the de-bounce counters of all the widgets
 383:Generated_Source\PSoC4/capsense_Processing.c **** *   - Resets the position filter history for slider and touchpad widgets
 384:Generated_Source\PSoC4/capsense_Processing.c **** *   - Clears widget and sensor statuses
 385:Generated_Source\PSoC4/capsense_Processing.c **** *   - Enables all the widgets.
 386:Generated_Source\PSoC4/capsense_Processing.c **** *
 387:Generated_Source\PSoC4/capsense_Processing.c **** * \details
 388:Generated_Source\PSoC4/capsense_Processing.c **** *  The Button and Matrix Button widgets have individual de-bounce counter per
 389:Generated_Source\PSoC4/capsense_Processing.c **** *  sensor for the CSD widgets and per node for the CSX widgets.
 390:Generated_Source\PSoC4/capsense_Processing.c **** *
 391:Generated_Source\PSoC4/capsense_Processing.c **** *  The Slider and Touchpad widgets have a single de-bounce counter per widget.
 392:Generated_Source\PSoC4/capsense_Processing.c **** *
 393:Generated_Source\PSoC4/capsense_Processing.c **** *  The Proximity widget has two de-bounce counters per sensor. One for the
 394:Generated_Source\PSoC4/capsense_Processing.c **** *  proximity event and second for the touch event.
 395:Generated_Source\PSoC4/capsense_Processing.c **** *
 396:Generated_Source\PSoC4/capsense_Processing.c **** *  All debounce counters during initialization are set to the value of the
 397:Generated_Source\PSoC4/capsense_Processing.c **** *  onDebounce widget parameter.
 398:Generated_Source\PSoC4/capsense_Processing.c **** *
 399:Generated_Source\PSoC4/capsense_Processing.c **** *******************************************************************************/
 400:Generated_Source\PSoC4/capsense_Processing.c **** void capsense_DpInitialize(void)
 401:Generated_Source\PSoC4/capsense_Processing.c **** {
  28              		.loc 1 401 0
  29              		.cfi_startproc
  30              		@ args = 0, pretend = 0, frame = 0
  31              		@ frame_needed = 0, uses_anonymous_args = 0
  32 0000 70B5     		push	{r4, r5, r6, lr}
  33              		.cfi_def_cfa_offset 16
  34              		.cfi_offset 4, -16
  35              		.cfi_offset 5, -12
  36              		.cfi_offset 6, -8
  37              		.cfi_offset 14, -4
  38              	.LVL0:
 402:Generated_Source\PSoC4/capsense_Processing.c ****     uint32 wdgtId;
 403:Generated_Source\PSoC4/capsense_Processing.c ****     capsense_WD_TYPE_ENUM widgetType;
 404:Generated_Source\PSoC4/capsense_Processing.c ****     capsense_RAM_WD_BASE_STRUCT * ptrRamWdgt;
 405:Generated_Source\PSoC4/capsense_Processing.c ****     capsense_FLASH_WD_STRUCT const * ptrFlashWdgt;
 406:Generated_Source\PSoC4/capsense_Processing.c **** 
 407:Generated_Source\PSoC4/capsense_Processing.c ****     for (wdgtId = 0u; wdgtId < capsense_WDGT_STATUS_WORDS; wdgtId++)
  39              		.loc 1 407 0
  40 0002 0023     		movs	r3, #0
  41 0004 09E0     		b	.L2
  42              	.LVL1:
  43              	.L3:
 408:Generated_Source\PSoC4/capsense_Processing.c ****     {
 409:Generated_Source\PSoC4/capsense_Processing.c ****         /* Clear widget status */
 410:Generated_Source\PSoC4/capsense_Processing.c ****         capsense_dsRam.wdgtStatus[wdgtId] = 0u;
  44              		.loc 1 410 0 discriminator 3
  45 0006 1D49     		ldr	r1, .L13
  46 0008 1A1D     		adds	r2, r3, #4
ARM GAS  C:\Users\ASUS\AppData\Local\Temp\ccuOUgOD.s 			page 9


  47 000a 9200     		lsls	r2, r2, #2
  48 000c 8818     		adds	r0, r1, r2
  49 000e 0024     		movs	r4, #0
  50 0010 4460     		str	r4, [r0, #4]
 411:Generated_Source\PSoC4/capsense_Processing.c **** 
 412:Generated_Source\PSoC4/capsense_Processing.c ****         /* Enable all the widgets */
 413:Generated_Source\PSoC4/capsense_Processing.c ****         capsense_dsRam.wdgtEnable[wdgtId] = 0xFFFFFFFFLu;
  51              		.loc 1 413 0 discriminator 3
  52 0012 0120     		movs	r0, #1
  53 0014 4042     		rsbs	r0, r0, #0
  54 0016 5050     		str	r0, [r2, r1]
 407:Generated_Source\PSoC4/capsense_Processing.c ****     {
  55              		.loc 1 407 0 discriminator 3
  56 0018 0133     		adds	r3, r3, #1
  57              	.LVL2:
  58              	.L2:
 407:Generated_Source\PSoC4/capsense_Processing.c ****     {
  59              		.loc 1 407 0 is_stmt 0 discriminator 1
  60 001a 002B     		cmp	r3, #0
  61 001c F3D0     		beq	.L3
  62 001e 184C     		ldr	r4, .L13+4
  63 0020 0423     		movs	r3, #4
  64              	.LVL3:
  65 0022 27E0     		b	.L4
  66              	.LVL4:
  67              	.L11:
 414:Generated_Source\PSoC4/capsense_Processing.c **** 
 415:Generated_Source\PSoC4/capsense_Processing.c ****         /* Set all the widgets to working state if the Self-Test is not enabled */
 416:Generated_Source\PSoC4/capsense_Processing.c ****         #if (0u != capsense_SELF_TEST_EN)
 417:Generated_Source\PSoC4/capsense_Processing.c ****             capsense_dsRam.wdgtWorking[wdgtId] = 0xFFFFFFFFLu;
 418:Generated_Source\PSoC4/capsense_Processing.c ****         #endif /* #if (0u == capsense_SELF_TEST_EN) */
 419:Generated_Source\PSoC4/capsense_Processing.c ****     }
 420:Generated_Source\PSoC4/capsense_Processing.c **** 
 421:Generated_Source\PSoC4/capsense_Processing.c ****     ptrFlashWdgt = capsense_dsFlash.wdgtArray;
 422:Generated_Source\PSoC4/capsense_Processing.c **** 
 423:Generated_Source\PSoC4/capsense_Processing.c ****     for (wdgtId = capsense_TOTAL_WIDGETS; wdgtId-- > 0u; )
 424:Generated_Source\PSoC4/capsense_Processing.c ****     {
 425:Generated_Source\PSoC4/capsense_Processing.c ****         ptrRamWdgt = (capsense_RAM_WD_BASE_STRUCT *)ptrFlashWdgt->ptr2WdgtRam;
  68              		.loc 1 425 0 is_stmt 1
  69 0024 6668     		ldr	r6, [r4, #4]
  70              	.LVL5:
 426:Generated_Source\PSoC4/capsense_Processing.c ****         widgetType = (capsense_WD_TYPE_ENUM)ptrFlashWdgt->wdgtType;
  71              		.loc 1 426 0
  72 0026 A27E     		ldrb	r2, [r4, #26]
  73              	.LVL6:
 427:Generated_Source\PSoC4/capsense_Processing.c **** 
 428:Generated_Source\PSoC4/capsense_Processing.c ****         /* Clear all sensor statuses */
 429:Generated_Source\PSoC4/capsense_Processing.c ****         capsense_dsRam.snsStatus[wdgtId] = 0u;
  74              		.loc 1 429 0
  75 0028 144B     		ldr	r3, .L13
  76 002a 5B19     		adds	r3, r3, r5
  77 002c 0021     		movs	r1, #0
  78 002e 1976     		strb	r1, [r3, #24]
 430:Generated_Source\PSoC4/capsense_Processing.c **** 
 431:Generated_Source\PSoC4/capsense_Processing.c ****         /* Reset de-bounce counters */
 432:Generated_Source\PSoC4/capsense_Processing.c ****         switch (widgetType)
  79              		.loc 1 432 0
ARM GAS  C:\Users\ASUS\AppData\Local\Temp\ccuOUgOD.s 			page 10


  80 0030 012A     		cmp	r2, #1
  81 0032 04D0     		beq	.L6
  82 0034 002A     		cmp	r2, #0
  83 0036 1BD0     		beq	.L5
  84 0038 032A     		cmp	r2, #3
  85 003a 08D9     		bls	.L12
  86 003c 18E0     		b	.L5
  87              	.L6:
 433:Generated_Source\PSoC4/capsense_Processing.c ****         {
 434:Generated_Source\PSoC4/capsense_Processing.c ****         #if (0u != capsense_MATRIX_WIDGET_EN)
 435:Generated_Source\PSoC4/capsense_Processing.c ****             case capsense_WD_MATRIX_BUTTON_E:
 436:Generated_Source\PSoC4/capsense_Processing.c ****                 #if (0u != capsense_CSD_MATRIX_WIDGET_EN)
 437:Generated_Source\PSoC4/capsense_Processing.c ****                     if (capsense_SENSE_METHOD_CSD_E == capsense_GET_SENSE_METHOD(ptrFlashWdgt))
 438:Generated_Source\PSoC4/capsense_Processing.c ****                     {
 439:Generated_Source\PSoC4/capsense_Processing.c ****                         capsense_DpInitCsdMatrix(ptrFlashWdgt);
 440:Generated_Source\PSoC4/capsense_Processing.c ****                     }
 441:Generated_Source\PSoC4/capsense_Processing.c ****                 #endif /* #if (0u != capsense_CSD_MATRIX_WIDGET_EN) */
 442:Generated_Source\PSoC4/capsense_Processing.c **** 
 443:Generated_Source\PSoC4/capsense_Processing.c ****                 if (NULL != ptrFlashWdgt->ptr2DebounceArr)
 444:Generated_Source\PSoC4/capsense_Processing.c ****                 {
 445:Generated_Source\PSoC4/capsense_Processing.c ****                     /* Initialize array of debounce counters */
 446:Generated_Source\PSoC4/capsense_Processing.c ****                     (void)memset(ptrFlashWdgt->ptr2DebounceArr,
 447:Generated_Source\PSoC4/capsense_Processing.c ****                                  (int32)ptrRamWdgt->onDebounce,
 448:Generated_Source\PSoC4/capsense_Processing.c ****                                  (size_t)ptrFlashWdgt->totalNumSns);
 449:Generated_Source\PSoC4/capsense_Processing.c ****                 }
 450:Generated_Source\PSoC4/capsense_Processing.c ****                 break;
 451:Generated_Source\PSoC4/capsense_Processing.c ****         #endif /* #if (0u != capsense_MATRIX_WIDGET_EN) */
 452:Generated_Source\PSoC4/capsense_Processing.c **** 
 453:Generated_Source\PSoC4/capsense_Processing.c ****         #if (0u != capsense_BUTTON_WIDGET_EN)
 454:Generated_Source\PSoC4/capsense_Processing.c ****             case capsense_WD_BUTTON_E:
 455:Generated_Source\PSoC4/capsense_Processing.c ****                 if (NULL != ptrFlashWdgt->ptr2DebounceArr)
  88              		.loc 1 455 0
  89 003e 2069     		ldr	r0, [r4, #16]
  90 0040 0028     		cmp	r0, #0
  91 0042 15D0     		beq	.L5
 456:Generated_Source\PSoC4/capsense_Processing.c ****                 {
 457:Generated_Source\PSoC4/capsense_Processing.c ****                     /* Initialize array of debounce counters */
 458:Generated_Source\PSoC4/capsense_Processing.c ****                     (void)memset(ptrFlashWdgt->ptr2DebounceArr,
 459:Generated_Source\PSoC4/capsense_Processing.c ****                                  (int32)ptrRamWdgt->onDebounce,
  92              		.loc 1 459 0
  93 0044 F179     		ldrb	r1, [r6, #7]
 460:Generated_Source\PSoC4/capsense_Processing.c ****                                  (size_t)ptrFlashWdgt->totalNumSns);
  94              		.loc 1 460 0
  95 0046 228B     		ldrh	r2, [r4, #24]
  96              	.LVL7:
 458:Generated_Source\PSoC4/capsense_Processing.c ****                                  (int32)ptrRamWdgt->onDebounce,
  97              		.loc 1 458 0
  98 0048 FFF7FEFF 		bl	memset
  99              	.LVL8:
 100 004c 10E0     		b	.L5
 101              	.LVL9:
 102              	.L12:
 461:Generated_Source\PSoC4/capsense_Processing.c ****                 }
 462:Generated_Source\PSoC4/capsense_Processing.c ****                 break;
 463:Generated_Source\PSoC4/capsense_Processing.c ****         #endif /* #if (0u != capsense_BUTTON_WIDGET_EN) */
 464:Generated_Source\PSoC4/capsense_Processing.c **** 
 465:Generated_Source\PSoC4/capsense_Processing.c ****         #if (0u != capsense_SLIDER_WIDGET_EN)
ARM GAS  C:\Users\ASUS\AppData\Local\Temp\ccuOUgOD.s 			page 11


 466:Generated_Source\PSoC4/capsense_Processing.c ****             case capsense_WD_LINEAR_SLIDER_E:
 467:Generated_Source\PSoC4/capsense_Processing.c ****             case capsense_WD_RADIAL_SLIDER_E:
 468:Generated_Source\PSoC4/capsense_Processing.c ****                 if (NULL != ptrFlashWdgt->ptr2DebounceArr)
 103              		.loc 1 468 0
 104 004e 2369     		ldr	r3, [r4, #16]
 105 0050 002B     		cmp	r3, #0
 106 0052 01D0     		beq	.L8
 469:Generated_Source\PSoC4/capsense_Processing.c ****                 {
 470:Generated_Source\PSoC4/capsense_Processing.c ****                     /* Initialize single debounce counter of slider */
 471:Generated_Source\PSoC4/capsense_Processing.c ****                     *(uint8 *)(ptrFlashWdgt->ptr2DebounceArr) = ptrRamWdgt->onDebounce;
 107              		.loc 1 471 0
 108 0054 F279     		ldrb	r2, [r6, #7]
 109              	.LVL10:
 110 0056 1A70     		strb	r2, [r3]
 111              	.L8:
 112              	.LVL11:
 113              	.LBB6:
 114              	.LBB7:
 327:Generated_Source\PSoC4/capsense_Processing.c **** 
 115              		.loc 1 327 0
 116 0058 6168     		ldr	r1, [r4, #4]
 117              	.LVL12:
 330:Generated_Source\PSoC4/capsense_Processing.c ****     {
 118              		.loc 1 330 0
 119 005a 0023     		movs	r3, #0
 120 005c 06E0     		b	.L9
 121              	.LVL13:
 122              	.L10:
 332:Generated_Source\PSoC4/capsense_Processing.c **** 
 123              		.loc 1 332 0
 124 005e 1A00     		movs	r2, r3
 125 0060 0832     		adds	r2, r2, #8
 126 0062 5200     		lsls	r2, r2, #1
 127 0064 0120     		movs	r0, #1
 128 0066 4042     		rsbs	r0, r0, #0
 129 0068 5052     		strh	r0, [r2, r1]
 330:Generated_Source\PSoC4/capsense_Processing.c ****     {
 130              		.loc 1 330 0
 131 006a 0133     		adds	r3, r3, #1
 132              	.LVL14:
 133              	.L9:
 134 006c 002B     		cmp	r3, #0
 135 006e F6D0     		beq	.L10
 136              	.LVL15:
 137              	.L5:
 138              	.LBE7:
 139              	.LBE6:
 472:Generated_Source\PSoC4/capsense_Processing.c ****                 }
 473:Generated_Source\PSoC4/capsense_Processing.c **** 
 474:Generated_Source\PSoC4/capsense_Processing.c ****                 capsense_DpInitSlider(ptrFlashWdgt);
 475:Generated_Source\PSoC4/capsense_Processing.c **** 
 476:Generated_Source\PSoC4/capsense_Processing.c ****                 break;
 477:Generated_Source\PSoC4/capsense_Processing.c ****         #endif /* #if (0u != capsense_SLIDER_WIDGET_EN) */
 478:Generated_Source\PSoC4/capsense_Processing.c **** 
 479:Generated_Source\PSoC4/capsense_Processing.c ****         #if (0u != capsense_TOUCHPAD_WIDGET_EN)
 480:Generated_Source\PSoC4/capsense_Processing.c ****             case capsense_WD_TOUCHPAD_E:
 481:Generated_Source\PSoC4/capsense_Processing.c ****                 if (NULL != ptrFlashWdgt->ptr2DebounceArr)
ARM GAS  C:\Users\ASUS\AppData\Local\Temp\ccuOUgOD.s 			page 12


 482:Generated_Source\PSoC4/capsense_Processing.c ****                 {
 483:Generated_Source\PSoC4/capsense_Processing.c ****                     /* Initialize single debounce counter of touchpad */
 484:Generated_Source\PSoC4/capsense_Processing.c ****                     *(uint8 *)(ptrFlashWdgt->ptr2DebounceArr) = ptrRamWdgt->onDebounce;
 485:Generated_Source\PSoC4/capsense_Processing.c ****                 }
 486:Generated_Source\PSoC4/capsense_Processing.c **** 
 487:Generated_Source\PSoC4/capsense_Processing.c ****                 #if (0u != capsense_CSD_TOUCHPAD_WIDGET_EN)
 488:Generated_Source\PSoC4/capsense_Processing.c ****                     if (capsense_SENSE_METHOD_CSD_E == capsense_GET_SENSE_METHOD(ptrFlashWdgt))
 489:Generated_Source\PSoC4/capsense_Processing.c ****                     {
 490:Generated_Source\PSoC4/capsense_Processing.c ****                         capsense_DpInitCsdTouchpad(ptrFlashWdgt);
 491:Generated_Source\PSoC4/capsense_Processing.c ****                     }
 492:Generated_Source\PSoC4/capsense_Processing.c ****                 #endif /* #if (0u != capsense_CSD_TOUCHPAD_WIDGET_EN) */
 493:Generated_Source\PSoC4/capsense_Processing.c **** 
 494:Generated_Source\PSoC4/capsense_Processing.c ****                 #if (0u != capsense_CSX_TOUCHPAD_WIDGET_EN)
 495:Generated_Source\PSoC4/capsense_Processing.c ****                     if (capsense_SENSE_METHOD_CSX_E == capsense_GET_SENSE_METHOD(ptrFlashWdgt))
 496:Generated_Source\PSoC4/capsense_Processing.c ****                     {
 497:Generated_Source\PSoC4/capsense_Processing.c ****                         capsense_DpInitCsxTouchpad(ptrFlashWdgt);
 498:Generated_Source\PSoC4/capsense_Processing.c ****                     }
 499:Generated_Source\PSoC4/capsense_Processing.c ****                 #endif /* #if (0u != capsense_CSX_TOUCHPAD_WIDGET_EN) */
 500:Generated_Source\PSoC4/capsense_Processing.c **** 
 501:Generated_Source\PSoC4/capsense_Processing.c ****                 break;
 502:Generated_Source\PSoC4/capsense_Processing.c ****         #endif /* #if (0u != capsense_TOUCHPAD_WIDGET_EN) */
 503:Generated_Source\PSoC4/capsense_Processing.c **** 
 504:Generated_Source\PSoC4/capsense_Processing.c ****         #if (0u != capsense_PROXIMITY_WIDGET_EN)
 505:Generated_Source\PSoC4/capsense_Processing.c ****             case capsense_WD_PROXIMITY_E:
 506:Generated_Source\PSoC4/capsense_Processing.c ****                 if (NULL != ptrFlashWdgt->ptr2DebounceArr)
 507:Generated_Source\PSoC4/capsense_Processing.c ****                 {
 508:Generated_Source\PSoC4/capsense_Processing.c ****                     /* Proximity widgets have 2 de-bounce counters per sensor.
 509:Generated_Source\PSoC4/capsense_Processing.c ****                      * Therefore the number of sensors is multiplied by 2.
 510:Generated_Source\PSoC4/capsense_Processing.c ****                      */
 511:Generated_Source\PSoC4/capsense_Processing.c ****                    (void)memset(ptrFlashWdgt->ptr2DebounceArr,
 512:Generated_Source\PSoC4/capsense_Processing.c ****                                 (int32)ptrRamWdgt->onDebounce,
 513:Generated_Source\PSoC4/capsense_Processing.c ****                                 (size_t)ptrFlashWdgt->totalNumSns * 2u);
 514:Generated_Source\PSoC4/capsense_Processing.c ****                 }
 515:Generated_Source\PSoC4/capsense_Processing.c ****                 break;
 516:Generated_Source\PSoC4/capsense_Processing.c ****         #endif /* #if (0u != capsense_PROXIMITY_WIDGET_EN) */
 517:Generated_Source\PSoC4/capsense_Processing.c **** 
 518:Generated_Source\PSoC4/capsense_Processing.c ****         #if (0u != capsense_ENCODERDIAL_WIDGET_EN)
 519:Generated_Source\PSoC4/capsense_Processing.c ****             case capsense_WD_ENCODERDIAL_E:
 520:Generated_Source\PSoC4/capsense_Processing.c ****                 if (NULL != ptrFlashWdgt->ptr2DebounceArr)
 521:Generated_Source\PSoC4/capsense_Processing.c ****                 {
 522:Generated_Source\PSoC4/capsense_Processing.c ****                     /* Proximity widgets have 2 de-bounce counters per sensor.
 523:Generated_Source\PSoC4/capsense_Processing.c ****                      * Therefore the number of sensors is multiplied by 2.
 524:Generated_Source\PSoC4/capsense_Processing.c ****                      */
 525:Generated_Source\PSoC4/capsense_Processing.c ****                    (void)memset(ptrFlashWdgt->ptr2DebounceArr,
 526:Generated_Source\PSoC4/capsense_Processing.c ****                                 (int32)ptrRamWdgt->onDebounce,
 527:Generated_Source\PSoC4/capsense_Processing.c ****                                 (size_t)ptrFlashWdgt->totalNumSns);
 528:Generated_Source\PSoC4/capsense_Processing.c ****                 }
 529:Generated_Source\PSoC4/capsense_Processing.c ****                 break;
 530:Generated_Source\PSoC4/capsense_Processing.c ****         #endif /* (0u != capsense_ENCODERDIAL_WIDGET_EN) */
 531:Generated_Source\PSoC4/capsense_Processing.c ****             default:
 532:Generated_Source\PSoC4/capsense_Processing.c ****                 break;
 533:Generated_Source\PSoC4/capsense_Processing.c ****         }
 534:Generated_Source\PSoC4/capsense_Processing.c **** 
 535:Generated_Source\PSoC4/capsense_Processing.c ****         /* Move to next widget */
 536:Generated_Source\PSoC4/capsense_Processing.c ****         ptrFlashWdgt++;
 140              		.loc 1 536 0
 141 0070 2834     		adds	r4, r4, #40
ARM GAS  C:\Users\ASUS\AppData\Local\Temp\ccuOUgOD.s 			page 13


 142              	.LVL16:
 423:Generated_Source\PSoC4/capsense_Processing.c ****     {
 143              		.loc 1 423 0
 144 0072 2B00     		movs	r3, r5
 145              	.LVL17:
 146              	.L4:
 423:Generated_Source\PSoC4/capsense_Processing.c ****     {
 147              		.loc 1 423 0 is_stmt 0 discriminator 1
 148 0074 5D1E     		subs	r5, r3, #1
 149              	.LVL18:
 150 0076 002B     		cmp	r3, #0
 151 0078 D4D1     		bne	.L11
 537:Generated_Source\PSoC4/capsense_Processing.c ****     }
 538:Generated_Source\PSoC4/capsense_Processing.c **** }
 152              		.loc 1 538 0 is_stmt 1
 153              		@ sp needed
 154              	.LVL19:
 155              	.LVL20:
 156 007a 70BD     		pop	{r4, r5, r6, pc}
 157              	.L14:
 158              		.align	2
 159              	.L13:
 160 007c 00000000 		.word	capsense_dsRam
 161 0080 00000000 		.word	capsense_dsFlash
 162              		.cfi_endproc
 163              	.LFE2:
 164              		.size	capsense_DpInitialize, .-capsense_DpInitialize
 165              		.section	.text.capsense_DpUpdateDifferences,"ax",%progbits
 166              		.align	2
 167              		.global	capsense_DpUpdateDifferences
 168              		.code	16
 169              		.thumb_func
 170              		.type	capsense_DpUpdateDifferences, %function
 171              	capsense_DpUpdateDifferences:
 172              	.LFB9:
 539:Generated_Source\PSoC4/capsense_Processing.c **** 
 540:Generated_Source\PSoC4/capsense_Processing.c **** #if (0u != capsense_TOTAL_CSX_WIDGETS)
 541:Generated_Source\PSoC4/capsense_Processing.c **** /*******************************************************************************
 542:Generated_Source\PSoC4/capsense_Processing.c **** * Function Name: capsense_DpProcessCsxWidgetRawCounts
 543:Generated_Source\PSoC4/capsense_Processing.c **** ****************************************************************************//**
 544:Generated_Source\PSoC4/capsense_Processing.c **** *
 545:Generated_Source\PSoC4/capsense_Processing.c **** * \brief
 546:Generated_Source\PSoC4/capsense_Processing.c **** *  Performs default processing of the CSX raw counts.
 547:Generated_Source\PSoC4/capsense_Processing.c **** *
 548:Generated_Source\PSoC4/capsense_Processing.c **** * \details
 549:Generated_Source\PSoC4/capsense_Processing.c **** *  Performs default processing of the CSX raw counts:
 550:Generated_Source\PSoC4/capsense_Processing.c **** *   - Run Filters
 551:Generated_Source\PSoC4/capsense_Processing.c **** *   - Update Baselines
 552:Generated_Source\PSoC4/capsense_Processing.c **** *   - Update Differences
 553:Generated_Source\PSoC4/capsense_Processing.c **** *   - Update Status.
 554:Generated_Source\PSoC4/capsense_Processing.c **** *  The same process is applied to all the sensors of the specified widget.
 555:Generated_Source\PSoC4/capsense_Processing.c **** *
 556:Generated_Source\PSoC4/capsense_Processing.c **** * \param ptrFlashWdgt The pointer to the Flash widget structure.
 557:Generated_Source\PSoC4/capsense_Processing.c **** *
 558:Generated_Source\PSoC4/capsense_Processing.c **** * \return
 559:Generated_Source\PSoC4/capsense_Processing.c **** *  Returns the status of the specified widget processing operation:
 560:Generated_Source\PSoC4/capsense_Processing.c **** *  - CYRET_SUCCESS if operation was successfully completed;
ARM GAS  C:\Users\ASUS\AppData\Local\Temp\ccuOUgOD.s 			page 14


 561:Generated_Source\PSoC4/capsense_Processing.c **** *  - capsense_PROCESS_BASELINE_FAILED if baseline processing of any
 562:Generated_Source\PSoC4/capsense_Processing.c **** *    sensor of the specified widget failed. The result is concatenated with the index
 563:Generated_Source\PSoC4/capsense_Processing.c **** *    of failed sensor.
 564:Generated_Source\PSoC4/capsense_Processing.c **** *
 565:Generated_Source\PSoC4/capsense_Processing.c **** *******************************************************************************/
 566:Generated_Source\PSoC4/capsense_Processing.c **** uint32 capsense_DpProcessCsxWidgetRawCounts(capsense_FLASH_WD_STRUCT const *ptrFlashWdgt)
 567:Generated_Source\PSoC4/capsense_Processing.c **** {
 568:Generated_Source\PSoC4/capsense_Processing.c ****     uint32 result = CYRET_SUCCESS;
 569:Generated_Source\PSoC4/capsense_Processing.c ****     uint32 widgetType;
 570:Generated_Source\PSoC4/capsense_Processing.c ****     uint32 snsCount;
 571:Generated_Source\PSoC4/capsense_Processing.c ****     capsense_RAM_SNS_STRUCT *ptrSnsTmp;
 572:Generated_Source\PSoC4/capsense_Processing.c ****     capsense_RAM_WD_BASE_STRUCT *ptrRamWdgt;
 573:Generated_Source\PSoC4/capsense_Processing.c **** 
 574:Generated_Source\PSoC4/capsense_Processing.c ****     #if (capsense_ENABLE == capsense_RC_FILTER_EN)
 575:Generated_Source\PSoC4/capsense_Processing.c ****         capsense_PTR_FILTER_VARIANT fltrHistV;
 576:Generated_Source\PSoC4/capsense_Processing.c **** 
 577:Generated_Source\PSoC4/capsense_Processing.c ****         fltrHistV.ptr = ptrFlashWdgt->ptr2FltrHistory;
 578:Generated_Source\PSoC4/capsense_Processing.c ****     #endif /* #if (capsense_ENABLE == capsense_RC_FILTER_EN) */
 579:Generated_Source\PSoC4/capsense_Processing.c **** 
 580:Generated_Source\PSoC4/capsense_Processing.c ****     ptrSnsTmp = ptrFlashWdgt->ptr2SnsRam;
 581:Generated_Source\PSoC4/capsense_Processing.c ****     snsCount = ptrFlashWdgt->totalNumSns;
 582:Generated_Source\PSoC4/capsense_Processing.c ****     ptrRamWdgt = (capsense_RAM_WD_BASE_STRUCT *)ptrFlashWdgt->ptr2WdgtRam;
 583:Generated_Source\PSoC4/capsense_Processing.c ****     widgetType = ptrFlashWdgt->wdgtType;
 584:Generated_Source\PSoC4/capsense_Processing.c **** 
 585:Generated_Source\PSoC4/capsense_Processing.c ****     /* Run deconvolution algorithm for the widgets with multiphase TX support */
 586:Generated_Source\PSoC4/capsense_Processing.c ****     #if (0u != capsense_CSX_MULTIPHASE_TX_EN)
 587:Generated_Source\PSoC4/capsense_Processing.c ****         if (0u != (ptrFlashWdgt->staticConfig & capsense_MULTIPHASE_TX_MASK))
 588:Generated_Source\PSoC4/capsense_Processing.c ****         {
 589:Generated_Source\PSoC4/capsense_Processing.c ****             capsense_DpDeconvolution(ptrFlashWdgt);
 590:Generated_Source\PSoC4/capsense_Processing.c ****         }
 591:Generated_Source\PSoC4/capsense_Processing.c ****     #endif  /* #if (0u != capsense_CSX_MULTIPHASE_TX_EN) */
 592:Generated_Source\PSoC4/capsense_Processing.c **** 
 593:Generated_Source\PSoC4/capsense_Processing.c ****     for (;snsCount-- > 0u;)
 594:Generated_Source\PSoC4/capsense_Processing.c ****     {
 595:Generated_Source\PSoC4/capsense_Processing.c ****         #if (capsense_ENABLE == capsense_RC_FILTER_EN)
 596:Generated_Source\PSoC4/capsense_Processing.c ****             capsense_FtRunEnabledFiltersInternal(fltrHistV, ptrSnsTmp, widgetType);
 597:Generated_Source\PSoC4/capsense_Processing.c ****             #if (capsense_ALP_FILTER_EN)
 598:Generated_Source\PSoC4/capsense_Processing.c ****                 capsense_ConfigRunALPInternal(fltrHistV, ptrRamWdgt, ptrSnsTmp, widgetType);
 599:Generated_Source\PSoC4/capsense_Processing.c ****             #endif
 600:Generated_Source\PSoC4/capsense_Processing.c ****         #endif /* #if (capsense_ENABLE == capsense_RC_FILTER_EN) */
 601:Generated_Source\PSoC4/capsense_Processing.c **** 
 602:Generated_Source\PSoC4/capsense_Processing.c ****         result = capsense_FtUpdateBaseline(ptrRamWdgt, ptrSnsTmp, widgetType);
 603:Generated_Source\PSoC4/capsense_Processing.c **** 
 604:Generated_Source\PSoC4/capsense_Processing.c ****         #if (capsense_ENABLE == capsense_TST_BSLN_DUPLICATION_EN)
 605:Generated_Source\PSoC4/capsense_Processing.c ****             if (CYRET_SUCCESS != result)
 606:Generated_Source\PSoC4/capsense_Processing.c ****             {
 607:Generated_Source\PSoC4/capsense_Processing.c ****                 result = snsCount | capsense_PROCESS_BASELINE_FAILED;
 608:Generated_Source\PSoC4/capsense_Processing.c ****             }
 609:Generated_Source\PSoC4/capsense_Processing.c ****         #endif /* (capsense_ENABLE == capsense_TST_BSLN_DUPLICATION_EN) */
 610:Generated_Source\PSoC4/capsense_Processing.c **** 
 611:Generated_Source\PSoC4/capsense_Processing.c ****         capsense_DpUpdateDifferences(ptrRamWdgt, ptrSnsTmp);
 612:Generated_Source\PSoC4/capsense_Processing.c **** 
 613:Generated_Source\PSoC4/capsense_Processing.c ****         /* Move pointers to the next sensor and filter history objects */
 614:Generated_Source\PSoC4/capsense_Processing.c ****         ptrSnsTmp++;
 615:Generated_Source\PSoC4/capsense_Processing.c **** 
 616:Generated_Source\PSoC4/capsense_Processing.c ****         #if (capsense_ENABLE == capsense_RC_FILTER_EN)
 617:Generated_Source\PSoC4/capsense_Processing.c ****             capsense_INC_REG_FLTR_OBJ(fltrHistV);
ARM GAS  C:\Users\ASUS\AppData\Local\Temp\ccuOUgOD.s 			page 15


 618:Generated_Source\PSoC4/capsense_Processing.c ****         #endif /* #if (capsense_ENABLE == capsense_RC_FILTER_EN) */
 619:Generated_Source\PSoC4/capsense_Processing.c ****     }
 620:Generated_Source\PSoC4/capsense_Processing.c ****     return result;
 621:Generated_Source\PSoC4/capsense_Processing.c **** }
 622:Generated_Source\PSoC4/capsense_Processing.c **** 
 623:Generated_Source\PSoC4/capsense_Processing.c **** /*******************************************************************************
 624:Generated_Source\PSoC4/capsense_Processing.c **** * Function Name: capsense_DpProcessCsxSensorRawCountsExt
 625:Generated_Source\PSoC4/capsense_Processing.c **** ****************************************************************************//**
 626:Generated_Source\PSoC4/capsense_Processing.c **** *
 627:Generated_Source\PSoC4/capsense_Processing.c **** * \brief
 628:Generated_Source\PSoC4/capsense_Processing.c **** *   Performs customized processing of the CSX sensor raw counts.
 629:Generated_Source\PSoC4/capsense_Processing.c **** *
 630:Generated_Source\PSoC4/capsense_Processing.c **** * \details
 631:Generated_Source\PSoC4/capsense_Processing.c **** *   Performs customized processing of the CSX sensor raw counts.
 632:Generated_Source\PSoC4/capsense_Processing.c **** *
 633:Generated_Source\PSoC4/capsense_Processing.c **** *   If all bits are set at once the default processing order will take place.
 634:Generated_Source\PSoC4/capsense_Processing.c **** *   For the custom order this API can be called multiple times and execute one task at a time.
 635:Generated_Source\PSoC4/capsense_Processing.c **** *
 636:Generated_Source\PSoC4/capsense_Processing.c **** * \param ptrFlashWdgt The pointer to the Flash Widget Object.
 637:Generated_Source\PSoC4/capsense_Processing.c **** * \param curSnsPtr    The pointer to the specific RAM Sensor Object.
 638:Generated_Source\PSoC4/capsense_Processing.c **** * \param fltrHistV    The pointer to the Filter History Object in RAM associated with specific sens
 639:Generated_Source\PSoC4/capsense_Processing.c **** * \param mode         The bit-mask with the data processing tasks to be executed.
 640:Generated_Source\PSoC4/capsense_Processing.c **** *   The mode parameters can take the following values:
 641:Generated_Source\PSoC4/capsense_Processing.c **** *    - capsense_PROCESS_FILTER     (0x01) Run Firmware Filter
 642:Generated_Source\PSoC4/capsense_Processing.c **** *    - capsense_PROCESS_BASELINE   (0x02) Update Baselines
 643:Generated_Source\PSoC4/capsense_Processing.c **** *    - capsense_PROCESS_DIFFCOUNTS (0x04) Update Difference Counts
 644:Generated_Source\PSoC4/capsense_Processing.c **** *    - capsense_PROCESS_ALL               Execute all tasks
 645:Generated_Source\PSoC4/capsense_Processing.c **** *
 646:Generated_Source\PSoC4/capsense_Processing.c **** * \return
 647:Generated_Source\PSoC4/capsense_Processing.c **** *  Returns the status of the specified sensor processing operation:
 648:Generated_Source\PSoC4/capsense_Processing.c **** *  - CYRET_SUCCESS if operation was successfully completed;
 649:Generated_Source\PSoC4/capsense_Processing.c **** *  - capsense_PROCESS_BASELINE_FAILED if baseline processing of any
 650:Generated_Source\PSoC4/capsense_Processing.c **** *    sensor of the specified widget failed. The result is concatenated with the index
 651:Generated_Source\PSoC4/capsense_Processing.c **** *    of failed sensor.
 652:Generated_Source\PSoC4/capsense_Processing.c **** *
 653:Generated_Source\PSoC4/capsense_Processing.c **** *******************************************************************************/
 654:Generated_Source\PSoC4/capsense_Processing.c **** uint32 capsense_DpProcessCsxSensorRawCountsExt(
 655:Generated_Source\PSoC4/capsense_Processing.c ****                 capsense_FLASH_WD_STRUCT const *ptrFlashWdgt,
 656:Generated_Source\PSoC4/capsense_Processing.c ****                 capsense_RAM_SNS_STRUCT *curSnsPtr,
 657:Generated_Source\PSoC4/capsense_Processing.c ****                 capsense_PTR_FILTER_VARIANT fltrHistV,
 658:Generated_Source\PSoC4/capsense_Processing.c ****                 uint32 mode)
 659:Generated_Source\PSoC4/capsense_Processing.c **** {
 660:Generated_Source\PSoC4/capsense_Processing.c ****     uint32  result = CYRET_SUCCESS;
 661:Generated_Source\PSoC4/capsense_Processing.c ****     uint32  widgetType;
 662:Generated_Source\PSoC4/capsense_Processing.c ****     capsense_RAM_WD_BASE_STRUCT *ptrRamWdgt;
 663:Generated_Source\PSoC4/capsense_Processing.c **** 
 664:Generated_Source\PSoC4/capsense_Processing.c ****     widgetType = ptrFlashWdgt->wdgtType;
 665:Generated_Source\PSoC4/capsense_Processing.c ****     ptrRamWdgt = (capsense_RAM_WD_BASE_STRUCT *)ptrFlashWdgt->ptr2WdgtRam;
 666:Generated_Source\PSoC4/capsense_Processing.c **** 
 667:Generated_Source\PSoC4/capsense_Processing.c ****     #if (capsense_ENABLE == capsense_RC_FILTER_EN)
 668:Generated_Source\PSoC4/capsense_Processing.c ****         if (0u != (mode & capsense_PROCESS_FILTER))
 669:Generated_Source\PSoC4/capsense_Processing.c ****         {
 670:Generated_Source\PSoC4/capsense_Processing.c ****             capsense_FtRunEnabledFiltersInternal(fltrHistV, curSnsPtr, widgetType);
 671:Generated_Source\PSoC4/capsense_Processing.c ****             #if (capsense_ALP_FILTER_EN)
 672:Generated_Source\PSoC4/capsense_Processing.c ****                 capsense_ConfigRunALPInternal(fltrHistV, ptrRamWdgt, curSnsPtr, widgetType);
 673:Generated_Source\PSoC4/capsense_Processing.c ****             #endif
 674:Generated_Source\PSoC4/capsense_Processing.c ****         }
ARM GAS  C:\Users\ASUS\AppData\Local\Temp\ccuOUgOD.s 			page 16


 675:Generated_Source\PSoC4/capsense_Processing.c ****     #else
 676:Generated_Source\PSoC4/capsense_Processing.c ****         (void)fltrHistV; /* This parameter is unused in such configurations */
 677:Generated_Source\PSoC4/capsense_Processing.c ****     #endif /* #if (capsense_ENABLE == capsense_RC_FILTER_EN) */
 678:Generated_Source\PSoC4/capsense_Processing.c **** 
 679:Generated_Source\PSoC4/capsense_Processing.c ****     if (0u != (mode & capsense_PROCESS_BASELINE))
 680:Generated_Source\PSoC4/capsense_Processing.c ****     {
 681:Generated_Source\PSoC4/capsense_Processing.c ****         result = capsense_FtUpdateBaseline(ptrRamWdgt, curSnsPtr, widgetType);
 682:Generated_Source\PSoC4/capsense_Processing.c ****     }
 683:Generated_Source\PSoC4/capsense_Processing.c **** 
 684:Generated_Source\PSoC4/capsense_Processing.c ****     if (0u != (mode & capsense_PROCESS_DIFFCOUNTS))
 685:Generated_Source\PSoC4/capsense_Processing.c ****     {
 686:Generated_Source\PSoC4/capsense_Processing.c ****         capsense_DpUpdateDifferences(ptrRamWdgt, curSnsPtr);
 687:Generated_Source\PSoC4/capsense_Processing.c ****     }
 688:Generated_Source\PSoC4/capsense_Processing.c ****     return result;
 689:Generated_Source\PSoC4/capsense_Processing.c **** }
 690:Generated_Source\PSoC4/capsense_Processing.c **** 
 691:Generated_Source\PSoC4/capsense_Processing.c **** 
 692:Generated_Source\PSoC4/capsense_Processing.c **** /*******************************************************************************
 693:Generated_Source\PSoC4/capsense_Processing.c **** * Function Name: capsense_DpProcessCsxWidgetStatus
 694:Generated_Source\PSoC4/capsense_Processing.c **** ****************************************************************************//**
 695:Generated_Source\PSoC4/capsense_Processing.c **** *
 696:Generated_Source\PSoC4/capsense_Processing.c **** * \brief
 697:Generated_Source\PSoC4/capsense_Processing.c **** *   Updates the status of the CSX widget in the Data Structure.
 698:Generated_Source\PSoC4/capsense_Processing.c **** *
 699:Generated_Source\PSoC4/capsense_Processing.c **** * \details
 700:Generated_Source\PSoC4/capsense_Processing.c **** *  This API determines the type of widget and runs the appropriate function
 701:Generated_Source\PSoC4/capsense_Processing.c **** *  that implements the status update algorithm for this type of widget.
 702:Generated_Source\PSoC4/capsense_Processing.c **** *
 703:Generated_Source\PSoC4/capsense_Processing.c **** *  When the widget-specific processing completes this API updates the snsStatus
 704:Generated_Source\PSoC4/capsense_Processing.c **** *  and wdgtStatus registers in the data structure. The wdgtStatus register
 705:Generated_Source\PSoC4/capsense_Processing.c **** *  is a bitmask were each bit corresponds to the specific widget identified by
 706:Generated_Source\PSoC4/capsense_Processing.c **** *  the widget index. When the bit is set the widget is active (touched);
 707:Generated_Source\PSoC4/capsense_Processing.c **** *
 708:Generated_Source\PSoC4/capsense_Processing.c **** *  Depending on the type of widget the snsStatus register may contain either
 709:Generated_Source\PSoC4/capsense_Processing.c **** *  status of each widget node (active/non-active) or in case of the CSX Touchpad
 710:Generated_Source\PSoC4/capsense_Processing.c **** *  is contains the number of touches. In both cases 0 means that widget is not
 711:Generated_Source\PSoC4/capsense_Processing.c **** *  active.
 712:Generated_Source\PSoC4/capsense_Processing.c **** *
 713:Generated_Source\PSoC4/capsense_Processing.c **** * \param widgetId     The widget ID number.
 714:Generated_Source\PSoC4/capsense_Processing.c **** * \param ptrFlashWdgt The pointer to the Flash Widget Object.
 715:Generated_Source\PSoC4/capsense_Processing.c **** *
 716:Generated_Source\PSoC4/capsense_Processing.c **** *******************************************************************************/
 717:Generated_Source\PSoC4/capsense_Processing.c **** void capsense_DpProcessCsxWidgetStatus(uint32 widgetId, capsense_FLASH_WD_STRUCT const *ptrFlashWdg
 718:Generated_Source\PSoC4/capsense_Processing.c **** {
 719:Generated_Source\PSoC4/capsense_Processing.c ****     uint32 sensorStatus;
 720:Generated_Source\PSoC4/capsense_Processing.c ****     uint32 wdStatusIndex;
 721:Generated_Source\PSoC4/capsense_Processing.c ****     uint32 wdStatusMask;
 722:Generated_Source\PSoC4/capsense_Processing.c ****     capsense_WD_TYPE_ENUM widgetType;
 723:Generated_Source\PSoC4/capsense_Processing.c **** 
 724:Generated_Source\PSoC4/capsense_Processing.c ****     widgetType = (capsense_WD_TYPE_ENUM)ptrFlashWdgt->wdgtType;
 725:Generated_Source\PSoC4/capsense_Processing.c ****     sensorStatus = capsense_dsRam.snsStatus[widgetId];
 726:Generated_Source\PSoC4/capsense_Processing.c **** 
 727:Generated_Source\PSoC4/capsense_Processing.c ****     switch (widgetType)
 728:Generated_Source\PSoC4/capsense_Processing.c ****     {
 729:Generated_Source\PSoC4/capsense_Processing.c ****     #if (0u != capsense_BUTTON_WIDGET_EN)
 730:Generated_Source\PSoC4/capsense_Processing.c ****         case capsense_WD_BUTTON_E:
 731:Generated_Source\PSoC4/capsense_Processing.c ****             sensorStatus = capsense_DpProcessButton(sensorStatus, ptrFlashWdgt);
ARM GAS  C:\Users\ASUS\AppData\Local\Temp\ccuOUgOD.s 			page 17


 732:Generated_Source\PSoC4/capsense_Processing.c ****             break;
 733:Generated_Source\PSoC4/capsense_Processing.c ****     #endif /* #if (0u != capsense_BUTTON_WIDGET_EN) */
 734:Generated_Source\PSoC4/capsense_Processing.c **** 
 735:Generated_Source\PSoC4/capsense_Processing.c ****     #if (0u != capsense_CSX_MATRIX_WIDGET_EN)
 736:Generated_Source\PSoC4/capsense_Processing.c ****         case capsense_WD_MATRIX_BUTTON_E:
 737:Generated_Source\PSoC4/capsense_Processing.c ****             sensorStatus = capsense_DpProcessButton(sensorStatus, ptrFlashWdgt);
 738:Generated_Source\PSoC4/capsense_Processing.c ****             break;
 739:Generated_Source\PSoC4/capsense_Processing.c ****     #endif /* #if (0u != capsense_CSX_MATRIX_WIDGET_EN) */
 740:Generated_Source\PSoC4/capsense_Processing.c **** 
 741:Generated_Source\PSoC4/capsense_Processing.c ****     #if (0u != capsense_CSX_TOUCHPAD_WIDGET_EN)
 742:Generated_Source\PSoC4/capsense_Processing.c ****         case capsense_WD_TOUCHPAD_E:
 743:Generated_Source\PSoC4/capsense_Processing.c ****             sensorStatus = capsense_DpProcessCsxTouchpad(sensorStatus, ptrFlashWdgt);
 744:Generated_Source\PSoC4/capsense_Processing.c ****             break;
 745:Generated_Source\PSoC4/capsense_Processing.c ****     #endif /* #if (0u != capsense_CSX_TOUCHPAD_WIDGET_EN) */
 746:Generated_Source\PSoC4/capsense_Processing.c **** 
 747:Generated_Source\PSoC4/capsense_Processing.c ****     default:
 748:Generated_Source\PSoC4/capsense_Processing.c ****         CYASSERT(0u);
 749:Generated_Source\PSoC4/capsense_Processing.c ****         break;
 750:Generated_Source\PSoC4/capsense_Processing.c ****     }
 751:Generated_Source\PSoC4/capsense_Processing.c **** 
 752:Generated_Source\PSoC4/capsense_Processing.c ****     /* Update sensor status in the data structure */
 753:Generated_Source\PSoC4/capsense_Processing.c ****     capsense_dsRam.snsStatus[widgetId] = (capsense_SNS_STS_TYPE)sensorStatus;
 754:Generated_Source\PSoC4/capsense_Processing.c **** 
 755:Generated_Source\PSoC4/capsense_Processing.c ****     /* The next two lines calculate index and bitmask of the widget status bit in the wdgtStatus ar
 756:Generated_Source\PSoC4/capsense_Processing.c ****     wdStatusIndex = capsense_GET_WDGT_STATUS_INDEX(widgetId);
 757:Generated_Source\PSoC4/capsense_Processing.c ****     wdStatusMask = capsense_GET_WDGT_STATUS_MASK(widgetId);
 758:Generated_Source\PSoC4/capsense_Processing.c **** 
 759:Generated_Source\PSoC4/capsense_Processing.c ****     /* Check if there are active sensors and update widget status accordingly */
 760:Generated_Source\PSoC4/capsense_Processing.c ****     if (0u == sensorStatus)
 761:Generated_Source\PSoC4/capsense_Processing.c ****     {
 762:Generated_Source\PSoC4/capsense_Processing.c ****         capsense_dsRam.wdgtStatus[wdStatusIndex] &= ~wdStatusMask;
 763:Generated_Source\PSoC4/capsense_Processing.c ****     }
 764:Generated_Source\PSoC4/capsense_Processing.c ****     else
 765:Generated_Source\PSoC4/capsense_Processing.c ****     {
 766:Generated_Source\PSoC4/capsense_Processing.c ****         capsense_dsRam.wdgtStatus[wdStatusIndex] |= wdStatusMask;
 767:Generated_Source\PSoC4/capsense_Processing.c ****     }
 768:Generated_Source\PSoC4/capsense_Processing.c **** }
 769:Generated_Source\PSoC4/capsense_Processing.c **** #endif /* #if capsense_TOTAL_CSX_WIDGETS */
 770:Generated_Source\PSoC4/capsense_Processing.c **** 
 771:Generated_Source\PSoC4/capsense_Processing.c **** #if (0u != capsense_TOTAL_ISX_WIDGETS)
 772:Generated_Source\PSoC4/capsense_Processing.c **** /*******************************************************************************
 773:Generated_Source\PSoC4/capsense_Processing.c **** * Function Name: capsense_DpProcessIsxWidgetRawCounts
 774:Generated_Source\PSoC4/capsense_Processing.c **** ****************************************************************************//**
 775:Generated_Source\PSoC4/capsense_Processing.c **** *
 776:Generated_Source\PSoC4/capsense_Processing.c **** * \brief
 777:Generated_Source\PSoC4/capsense_Processing.c **** *  Performs default processing of the ISX raw counts.
 778:Generated_Source\PSoC4/capsense_Processing.c **** *
 779:Generated_Source\PSoC4/capsense_Processing.c **** * \details
 780:Generated_Source\PSoC4/capsense_Processing.c **** *  Performs default processing of the ISX raw counts:
 781:Generated_Source\PSoC4/capsense_Processing.c **** *   - Run Filters
 782:Generated_Source\PSoC4/capsense_Processing.c **** *   - Update Baselines
 783:Generated_Source\PSoC4/capsense_Processing.c **** *   - Update Differences
 784:Generated_Source\PSoC4/capsense_Processing.c **** *   - Update Status.
 785:Generated_Source\PSoC4/capsense_Processing.c **** *  The same process is applied to all the sensors of the specified widget.
 786:Generated_Source\PSoC4/capsense_Processing.c **** *
 787:Generated_Source\PSoC4/capsense_Processing.c **** * \param ptrFlashWdgt The pointer to the Flash widget structure.
 788:Generated_Source\PSoC4/capsense_Processing.c **** *
ARM GAS  C:\Users\ASUS\AppData\Local\Temp\ccuOUgOD.s 			page 18


 789:Generated_Source\PSoC4/capsense_Processing.c **** * \return
 790:Generated_Source\PSoC4/capsense_Processing.c **** *  Returns the status of the specified widget processing operation:
 791:Generated_Source\PSoC4/capsense_Processing.c **** *  - CYRET_SUCCESS if operation was successfully completed;
 792:Generated_Source\PSoC4/capsense_Processing.c **** *  - capsense_PROCESS_BASELINE_FAILED if baseline processing of any
 793:Generated_Source\PSoC4/capsense_Processing.c **** *    sensor of the specified widget failed. The result is concatenated with the index
 794:Generated_Source\PSoC4/capsense_Processing.c **** *    of failed sensor.
 795:Generated_Source\PSoC4/capsense_Processing.c **** *
 796:Generated_Source\PSoC4/capsense_Processing.c **** *******************************************************************************/
 797:Generated_Source\PSoC4/capsense_Processing.c **** uint32 capsense_DpProcessIsxWidgetRawCounts(capsense_FLASH_WD_STRUCT const *ptrFlashWdgt)
 798:Generated_Source\PSoC4/capsense_Processing.c **** {
 799:Generated_Source\PSoC4/capsense_Processing.c ****     uint32 result = CYRET_SUCCESS;
 800:Generated_Source\PSoC4/capsense_Processing.c ****     uint32 widgetType;
 801:Generated_Source\PSoC4/capsense_Processing.c ****     uint32 snsCount;
 802:Generated_Source\PSoC4/capsense_Processing.c ****     capsense_RAM_SNS_STRUCT *ptrSns;
 803:Generated_Source\PSoC4/capsense_Processing.c ****     capsense_RAM_WD_BASE_STRUCT *ptrRamWdgt;
 804:Generated_Source\PSoC4/capsense_Processing.c **** 
 805:Generated_Source\PSoC4/capsense_Processing.c ****     #if (capsense_ENABLE == capsense_RC_FILTER_EN)
 806:Generated_Source\PSoC4/capsense_Processing.c ****         capsense_PTR_FILTER_VARIANT fltrHistV;
 807:Generated_Source\PSoC4/capsense_Processing.c **** 
 808:Generated_Source\PSoC4/capsense_Processing.c ****         fltrHistV.ptr = ptrFlashWdgt->ptr2FltrHistory;
 809:Generated_Source\PSoC4/capsense_Processing.c ****     #endif /* #if (capsense_ENABLE == capsense_RC_FILTER_EN) */
 810:Generated_Source\PSoC4/capsense_Processing.c **** 
 811:Generated_Source\PSoC4/capsense_Processing.c ****     ptrSns = ptrFlashWdgt->ptr2SnsRam;
 812:Generated_Source\PSoC4/capsense_Processing.c ****     snsCount = ptrFlashWdgt->totalNumSns;
 813:Generated_Source\PSoC4/capsense_Processing.c ****     ptrRamWdgt = ptrFlashWdgt->ptr2WdgtRam;
 814:Generated_Source\PSoC4/capsense_Processing.c ****     widgetType = ptrFlashWdgt->wdgtType;
 815:Generated_Source\PSoC4/capsense_Processing.c **** 
 816:Generated_Source\PSoC4/capsense_Processing.c ****     #if (0u != capsense_ISX_SKIP_OVSMPL_SPECIFIC_NODES)
 817:Generated_Source\PSoC4/capsense_Processing.c ****         if (0u != ptrSns->resolution)
 818:Generated_Source\PSoC4/capsense_Processing.c ****     #endif
 819:Generated_Source\PSoC4/capsense_Processing.c ****     {
 820:Generated_Source\PSoC4/capsense_Processing.c ****         for(;snsCount-- > 0u;)
 821:Generated_Source\PSoC4/capsense_Processing.c ****         {
 822:Generated_Source\PSoC4/capsense_Processing.c ****             #if (capsense_ENABLE == capsense_RC_FILTER_EN)
 823:Generated_Source\PSoC4/capsense_Processing.c ****                 capsense_FtRunEnabledFiltersInternal(fltrHistV, ptrSns, widgetType);
 824:Generated_Source\PSoC4/capsense_Processing.c ****             #endif /* #if (capsense_ENABLE == capsense_RC_FILTER_EN) */
 825:Generated_Source\PSoC4/capsense_Processing.c **** 
 826:Generated_Source\PSoC4/capsense_Processing.c ****             result = capsense_FtUpdateBaseline(ptrRamWdgt, ptrSns, widgetType);
 827:Generated_Source\PSoC4/capsense_Processing.c **** 
 828:Generated_Source\PSoC4/capsense_Processing.c ****             #if (capsense_ENABLE == capsense_TST_BSLN_DUPLICATION_EN)
 829:Generated_Source\PSoC4/capsense_Processing.c ****                 if (CYRET_SUCCESS != result)
 830:Generated_Source\PSoC4/capsense_Processing.c ****                 {
 831:Generated_Source\PSoC4/capsense_Processing.c ****                     result = capsense_PROCESS_BASELINE_FAILED;
 832:Generated_Source\PSoC4/capsense_Processing.c ****                 }
 833:Generated_Source\PSoC4/capsense_Processing.c ****             #endif /* (capsense_ENABLE == capsense_TST_BSLN_DUPLICATION_EN) */
 834:Generated_Source\PSoC4/capsense_Processing.c **** 
 835:Generated_Source\PSoC4/capsense_Processing.c ****             capsense_DpUpdateDifferences(ptrRamWdgt, ptrSns);
 836:Generated_Source\PSoC4/capsense_Processing.c ****             ptrSns++;
 837:Generated_Source\PSoC4/capsense_Processing.c **** 
 838:Generated_Source\PSoC4/capsense_Processing.c ****             #if (capsense_ENABLE == capsense_RC_FILTER_EN)
 839:Generated_Source\PSoC4/capsense_Processing.c ****                 capsense_INC_FLTR_OBJ_VARIANT(0u, fltrHistV);
 840:Generated_Source\PSoC4/capsense_Processing.c ****             #endif /* #if (capsense_ENABLE == capsense_RC_FILTER_EN) */
 841:Generated_Source\PSoC4/capsense_Processing.c ****         }
 842:Generated_Source\PSoC4/capsense_Processing.c ****     }
 843:Generated_Source\PSoC4/capsense_Processing.c **** 
 844:Generated_Source\PSoC4/capsense_Processing.c ****     return result;
 845:Generated_Source\PSoC4/capsense_Processing.c **** }
ARM GAS  C:\Users\ASUS\AppData\Local\Temp\ccuOUgOD.s 			page 19


 846:Generated_Source\PSoC4/capsense_Processing.c **** 
 847:Generated_Source\PSoC4/capsense_Processing.c **** /*******************************************************************************
 848:Generated_Source\PSoC4/capsense_Processing.c **** * Function Name: capsense_DpProcessIsxSensorRawCountsExt
 849:Generated_Source\PSoC4/capsense_Processing.c **** ****************************************************************************//**
 850:Generated_Source\PSoC4/capsense_Processing.c **** *
 851:Generated_Source\PSoC4/capsense_Processing.c **** * \brief
 852:Generated_Source\PSoC4/capsense_Processing.c **** *   Performs customized processing of the ISX sensor raw counts.
 853:Generated_Source\PSoC4/capsense_Processing.c **** *
 854:Generated_Source\PSoC4/capsense_Processing.c **** * \details
 855:Generated_Source\PSoC4/capsense_Processing.c **** *   Performs customized processing of the ISX sensor raw counts.
 856:Generated_Source\PSoC4/capsense_Processing.c **** *
 857:Generated_Source\PSoC4/capsense_Processing.c **** *   If all bits are set at once the default processing order will take place.
 858:Generated_Source\PSoC4/capsense_Processing.c **** *   For the custom order this API can be called multiple times and execute one task at a time.
 859:Generated_Source\PSoC4/capsense_Processing.c **** *
 860:Generated_Source\PSoC4/capsense_Processing.c **** * \param ptrFlashWdgt The pointer to the Flash Widget Object.
 861:Generated_Source\PSoC4/capsense_Processing.c **** * \param ptrSns       The pointer to the specific RAM Sensor Object.
 862:Generated_Source\PSoC4/capsense_Processing.c **** * \param fltrHistV    The pointer to the Filter History Object in RAM associated with specific sens
 863:Generated_Source\PSoC4/capsense_Processing.c **** * \param mode         The bit-mask with the data processing tasks to be executed.
 864:Generated_Source\PSoC4/capsense_Processing.c **** *   The mode parameters can take the following values:
 865:Generated_Source\PSoC4/capsense_Processing.c **** *    - capsense_PROCESS_FILTER     (0x01) Run Firmware Filter
 866:Generated_Source\PSoC4/capsense_Processing.c **** *    - capsense_PROCESS_BASELINE   (0x02) Update Baselines
 867:Generated_Source\PSoC4/capsense_Processing.c **** *    - capsense_PROCESS_DIFFCOUNTS (0x04) Update Difference Counts
 868:Generated_Source\PSoC4/capsense_Processing.c **** *    - capsense_PROCESS_ALL               Execute all tasks
 869:Generated_Source\PSoC4/capsense_Processing.c **** *
 870:Generated_Source\PSoC4/capsense_Processing.c **** * \return
 871:Generated_Source\PSoC4/capsense_Processing.c **** *  Returns the status of the specified sensor processing operation:
 872:Generated_Source\PSoC4/capsense_Processing.c **** *  - CYRET_SUCCESS if operation was successfully completed;
 873:Generated_Source\PSoC4/capsense_Processing.c **** *  - capsense_PROCESS_BASELINE_FAILED if baseline processing of any
 874:Generated_Source\PSoC4/capsense_Processing.c **** *    sensor of the specified widget failed. The result is concatenated with the index
 875:Generated_Source\PSoC4/capsense_Processing.c **** *    of failed sensor.
 876:Generated_Source\PSoC4/capsense_Processing.c **** *
 877:Generated_Source\PSoC4/capsense_Processing.c **** *******************************************************************************/
 878:Generated_Source\PSoC4/capsense_Processing.c **** uint32 capsense_DpProcessIsxSensorRawCountsExt(
 879:Generated_Source\PSoC4/capsense_Processing.c ****                 capsense_FLASH_WD_STRUCT const *ptrFlashWdgt,
 880:Generated_Source\PSoC4/capsense_Processing.c ****                 capsense_RAM_SNS_STRUCT *ptrSns,
 881:Generated_Source\PSoC4/capsense_Processing.c ****                 capsense_PTR_FILTER_VARIANT fltrHistV,
 882:Generated_Source\PSoC4/capsense_Processing.c ****                 uint32 mode)
 883:Generated_Source\PSoC4/capsense_Processing.c **** {
 884:Generated_Source\PSoC4/capsense_Processing.c ****     uint32  result = CYRET_SUCCESS;
 885:Generated_Source\PSoC4/capsense_Processing.c ****     uint32  widgetType;
 886:Generated_Source\PSoC4/capsense_Processing.c ****     capsense_RAM_WD_BASE_STRUCT *ptrRamWdgt;
 887:Generated_Source\PSoC4/capsense_Processing.c **** 
 888:Generated_Source\PSoC4/capsense_Processing.c ****     widgetType = ptrFlashWdgt->wdgtType;
 889:Generated_Source\PSoC4/capsense_Processing.c ****     ptrRamWdgt = ptrFlashWdgt->ptr2WdgtRam;
 890:Generated_Source\PSoC4/capsense_Processing.c **** 
 891:Generated_Source\PSoC4/capsense_Processing.c ****     #if (capsense_ENABLE == capsense_RC_FILTER_EN)
 892:Generated_Source\PSoC4/capsense_Processing.c ****         if (0u != (mode & capsense_PROCESS_FILTER))
 893:Generated_Source\PSoC4/capsense_Processing.c ****         {
 894:Generated_Source\PSoC4/capsense_Processing.c ****             capsense_FtRunEnabledFiltersInternal(fltrHistV, ptrSns, widgetType);
 895:Generated_Source\PSoC4/capsense_Processing.c ****         }
 896:Generated_Source\PSoC4/capsense_Processing.c ****     #else
 897:Generated_Source\PSoC4/capsense_Processing.c ****         (void)fltrHistV; /* This parameter is unused in such configurations */
 898:Generated_Source\PSoC4/capsense_Processing.c ****     #endif /* #if (capsense_ENABLE == capsense_RC_FILTER_EN) */
 899:Generated_Source\PSoC4/capsense_Processing.c **** 
 900:Generated_Source\PSoC4/capsense_Processing.c ****     if (0u != (mode & capsense_PROCESS_BASELINE))
 901:Generated_Source\PSoC4/capsense_Processing.c ****     {
 902:Generated_Source\PSoC4/capsense_Processing.c ****         result = capsense_FtUpdateBaseline(ptrRamWdgt, ptrSns, widgetType);
ARM GAS  C:\Users\ASUS\AppData\Local\Temp\ccuOUgOD.s 			page 20


 903:Generated_Source\PSoC4/capsense_Processing.c ****     }
 904:Generated_Source\PSoC4/capsense_Processing.c **** 
 905:Generated_Source\PSoC4/capsense_Processing.c ****     if (0u != (mode & capsense_PROCESS_DIFFCOUNTS))
 906:Generated_Source\PSoC4/capsense_Processing.c ****     {
 907:Generated_Source\PSoC4/capsense_Processing.c ****         capsense_DpUpdateDifferences(ptrRamWdgt, ptrSns);
 908:Generated_Source\PSoC4/capsense_Processing.c ****     }
 909:Generated_Source\PSoC4/capsense_Processing.c ****     return result;
 910:Generated_Source\PSoC4/capsense_Processing.c **** }
 911:Generated_Source\PSoC4/capsense_Processing.c **** 
 912:Generated_Source\PSoC4/capsense_Processing.c **** 
 913:Generated_Source\PSoC4/capsense_Processing.c **** /*******************************************************************************
 914:Generated_Source\PSoC4/capsense_Processing.c **** * Function Name: capsense_DpProcessIsxWidgetStatus
 915:Generated_Source\PSoC4/capsense_Processing.c **** ****************************************************************************//**
 916:Generated_Source\PSoC4/capsense_Processing.c **** *
 917:Generated_Source\PSoC4/capsense_Processing.c **** * \brief
 918:Generated_Source\PSoC4/capsense_Processing.c **** *   Updates the status of the ISX widget in the Data Structure.
 919:Generated_Source\PSoC4/capsense_Processing.c **** *
 920:Generated_Source\PSoC4/capsense_Processing.c **** * \details
 921:Generated_Source\PSoC4/capsense_Processing.c **** *  This API determines the type of widget and runs the appropriate function
 922:Generated_Source\PSoC4/capsense_Processing.c **** *  that implements the status update algorithm for this type of widget.
 923:Generated_Source\PSoC4/capsense_Processing.c **** *
 924:Generated_Source\PSoC4/capsense_Processing.c **** *  When the widget-specific processing completes this API updates the snsStatus
 925:Generated_Source\PSoC4/capsense_Processing.c **** *  and wdgtStatus registers in the data structure. The wdgtStatus register
 926:Generated_Source\PSoC4/capsense_Processing.c **** *  is a bitmask were each bit corresponds to the specific widget identified by
 927:Generated_Source\PSoC4/capsense_Processing.c **** *  the widget index. When the bit is set the widget is active (touched);
 928:Generated_Source\PSoC4/capsense_Processing.c **** *
 929:Generated_Source\PSoC4/capsense_Processing.c **** *  Depending on the type of widget the snsStatus register may contain either
 930:Generated_Source\PSoC4/capsense_Processing.c **** *  status of each widget node (active/non-active) or in case of the ISX Touchpad
 931:Generated_Source\PSoC4/capsense_Processing.c **** *  is contains the number of touches. In both cases 0 means that widget is not
 932:Generated_Source\PSoC4/capsense_Processing.c **** *  active.
 933:Generated_Source\PSoC4/capsense_Processing.c **** *
 934:Generated_Source\PSoC4/capsense_Processing.c **** * \param wdgtId       The widget index number.
 935:Generated_Source\PSoC4/capsense_Processing.c **** * \param ptrFlashWdgt The pointer to the Flash Widget Object.
 936:Generated_Source\PSoC4/capsense_Processing.c **** *
 937:Generated_Source\PSoC4/capsense_Processing.c **** *******************************************************************************/
 938:Generated_Source\PSoC4/capsense_Processing.c **** void capsense_DpProcessIsxWidgetStatus(uint32 wdgtId, capsense_FLASH_WD_STRUCT const *ptrFlashWdgt)
 939:Generated_Source\PSoC4/capsense_Processing.c **** {
 940:Generated_Source\PSoC4/capsense_Processing.c ****     uint32 sensorStatus;
 941:Generated_Source\PSoC4/capsense_Processing.c ****     uint32 wdStatusIndex;
 942:Generated_Source\PSoC4/capsense_Processing.c ****     uint32 wdStatusMask;
 943:Generated_Source\PSoC4/capsense_Processing.c ****     capsense_WD_TYPE_ENUM widgetType;
 944:Generated_Source\PSoC4/capsense_Processing.c **** 
 945:Generated_Source\PSoC4/capsense_Processing.c ****     widgetType = (capsense_WD_TYPE_ENUM)ptrFlashWdgt->wdgtType;
 946:Generated_Source\PSoC4/capsense_Processing.c ****     sensorStatus = capsense_dsRam.snsStatus[wdgtId];
 947:Generated_Source\PSoC4/capsense_Processing.c **** 
 948:Generated_Source\PSoC4/capsense_Processing.c ****     switch (widgetType)
 949:Generated_Source\PSoC4/capsense_Processing.c ****     {
 950:Generated_Source\PSoC4/capsense_Processing.c ****     #if (0u != capsense_PROXIMITY_WIDGET_EN)
 951:Generated_Source\PSoC4/capsense_Processing.c ****         case capsense_WD_PROXIMITY_E:
 952:Generated_Source\PSoC4/capsense_Processing.c ****             sensorStatus = capsense_DpProcessProximity(sensorStatus, ptrFlashWdgt);
 953:Generated_Source\PSoC4/capsense_Processing.c ****             break;
 954:Generated_Source\PSoC4/capsense_Processing.c ****     #endif /* #if (0u != capsense_Proximity_WIDGET_EN) */
 955:Generated_Source\PSoC4/capsense_Processing.c ****     #if (0u != capsense_ENCODERDIAL_WIDGET_EN)
 956:Generated_Source\PSoC4/capsense_Processing.c ****         case capsense_WD_ENCODERDIAL_E:
 957:Generated_Source\PSoC4/capsense_Processing.c ****             sensorStatus = capsense_DpProcessEncoderDial(sensorStatus, ptrFlashWdgt);
 958:Generated_Source\PSoC4/capsense_Processing.c ****             break;
 959:Generated_Source\PSoC4/capsense_Processing.c ****     #endif /* #if (0u != capsense_Proximity_WIDGET_EN) */
ARM GAS  C:\Users\ASUS\AppData\Local\Temp\ccuOUgOD.s 			page 21


 960:Generated_Source\PSoC4/capsense_Processing.c ****     #if (0u != capsense_BUTTON_WIDGET_EN)
 961:Generated_Source\PSoC4/capsense_Processing.c ****         case capsense_WD_BUTTON_E:
 962:Generated_Source\PSoC4/capsense_Processing.c ****             sensorStatus = capsense_DpProcessButton(sensorStatus, ptrFlashWdgt);
 963:Generated_Source\PSoC4/capsense_Processing.c ****             break;
 964:Generated_Source\PSoC4/capsense_Processing.c ****     #endif /* #if (0u != capsense_Proximity_WIDGET_EN) */
 965:Generated_Source\PSoC4/capsense_Processing.c **** 
 966:Generated_Source\PSoC4/capsense_Processing.c ****     default:
 967:Generated_Source\PSoC4/capsense_Processing.c ****         CYASSERT(0u);
 968:Generated_Source\PSoC4/capsense_Processing.c ****         break;
 969:Generated_Source\PSoC4/capsense_Processing.c ****     }
 970:Generated_Source\PSoC4/capsense_Processing.c **** 
 971:Generated_Source\PSoC4/capsense_Processing.c ****     /* Update sensor status in the data structure */
 972:Generated_Source\PSoC4/capsense_Processing.c ****     capsense_dsRam.snsStatus[wdgtId] = (capsense_SNS_STS_TYPE)sensorStatus;
 973:Generated_Source\PSoC4/capsense_Processing.c **** 
 974:Generated_Source\PSoC4/capsense_Processing.c ****     /* The next two lines calculate index and bitmask of the widget status bit in the wdgtStatus ar
 975:Generated_Source\PSoC4/capsense_Processing.c ****     wdStatusIndex = capsense_GET_WDGT_STATUS_INDEX(wdgtId);
 976:Generated_Source\PSoC4/capsense_Processing.c ****     wdStatusMask = capsense_GET_WDGT_STATUS_MASK(wdgtId);
 977:Generated_Source\PSoC4/capsense_Processing.c **** 
 978:Generated_Source\PSoC4/capsense_Processing.c ****     /* Check if there are active sensors and update widget status accordingly */
 979:Generated_Source\PSoC4/capsense_Processing.c ****     if (0u == sensorStatus)
 980:Generated_Source\PSoC4/capsense_Processing.c ****     {
 981:Generated_Source\PSoC4/capsense_Processing.c ****         capsense_dsRam.wdgtStatus[wdStatusIndex] &= ~wdStatusMask;
 982:Generated_Source\PSoC4/capsense_Processing.c ****     }
 983:Generated_Source\PSoC4/capsense_Processing.c ****     else
 984:Generated_Source\PSoC4/capsense_Processing.c ****     {
 985:Generated_Source\PSoC4/capsense_Processing.c ****         capsense_dsRam.wdgtStatus[wdStatusIndex] |= wdStatusMask;
 986:Generated_Source\PSoC4/capsense_Processing.c ****     }
 987:Generated_Source\PSoC4/capsense_Processing.c **** }
 988:Generated_Source\PSoC4/capsense_Processing.c **** #endif /* #if capsense_TOTAL_ISX_WIDGETS */
 989:Generated_Source\PSoC4/capsense_Processing.c **** 
 990:Generated_Source\PSoC4/capsense_Processing.c **** #if (0u != capsense_TOTAL_CSD_WIDGETS)
 991:Generated_Source\PSoC4/capsense_Processing.c **** /*******************************************************************************
 992:Generated_Source\PSoC4/capsense_Processing.c **** * Function Name: capsense_DpProcessCsdWidgetRawCounts
 993:Generated_Source\PSoC4/capsense_Processing.c **** ****************************************************************************//**
 994:Generated_Source\PSoC4/capsense_Processing.c **** *
 995:Generated_Source\PSoC4/capsense_Processing.c **** * \brief
 996:Generated_Source\PSoC4/capsense_Processing.c **** *   Performs default processing for the CSD widget raw counts.
 997:Generated_Source\PSoC4/capsense_Processing.c **** *
 998:Generated_Source\PSoC4/capsense_Processing.c **** * \details
 999:Generated_Source\PSoC4/capsense_Processing.c **** *   Performs default processing for the CSD widget raw counts:
1000:Generated_Source\PSoC4/capsense_Processing.c **** *    - Run Filters
1001:Generated_Source\PSoC4/capsense_Processing.c **** *    - Update Thresholds (FW Auto-tuning)
1002:Generated_Source\PSoC4/capsense_Processing.c **** *    - Update Baselines
1003:Generated_Source\PSoC4/capsense_Processing.c **** *    - Update Differences.
1004:Generated_Source\PSoC4/capsense_Processing.c **** *   The process is applied to all widget's sensors.
1005:Generated_Source\PSoC4/capsense_Processing.c **** *
1006:Generated_Source\PSoC4/capsense_Processing.c **** * \param ptrFlashWdgt The pointer to the Flash Widget Object.
1007:Generated_Source\PSoC4/capsense_Processing.c **** *
1008:Generated_Source\PSoC4/capsense_Processing.c **** * \return
1009:Generated_Source\PSoC4/capsense_Processing.c **** *  Returns the status of the specified widget processing operation:
1010:Generated_Source\PSoC4/capsense_Processing.c **** *  - CYRET_SUCCESS if operation was successfully completed;
1011:Generated_Source\PSoC4/capsense_Processing.c **** *  - capsense_PROCESS_BASELINE_FAILED if baseline processing of any
1012:Generated_Source\PSoC4/capsense_Processing.c **** *    sensor of the specified widget failed. The result is concatenated with the index
1013:Generated_Source\PSoC4/capsense_Processing.c **** *    of failed sensor.
1014:Generated_Source\PSoC4/capsense_Processing.c **** *
1015:Generated_Source\PSoC4/capsense_Processing.c **** *******************************************************************************/
1016:Generated_Source\PSoC4/capsense_Processing.c **** uint32 capsense_DpProcessCsdWidgetRawCounts(capsense_FLASH_WD_STRUCT const *ptrFlashWdgt)
ARM GAS  C:\Users\ASUS\AppData\Local\Temp\ccuOUgOD.s 			page 22


1017:Generated_Source\PSoC4/capsense_Processing.c **** {
1018:Generated_Source\PSoC4/capsense_Processing.c ****     uint32  result = CYRET_SUCCESS;
1019:Generated_Source\PSoC4/capsense_Processing.c **** 
1020:Generated_Source\PSoC4/capsense_Processing.c ****     #if (capsense_ENABLE == capsense_TST_BSLN_DUPLICATION_EN)
1021:Generated_Source\PSoC4/capsense_Processing.c ****         uint32 bslnTstResult = CYRET_SUCCESS;
1022:Generated_Source\PSoC4/capsense_Processing.c ****     #endif /* (capsense_ENABLE == capsense_TST_BSLN_DUPLICATION_EN) */
1023:Generated_Source\PSoC4/capsense_Processing.c **** 
1024:Generated_Source\PSoC4/capsense_Processing.c ****     uint32  widgetType;
1025:Generated_Source\PSoC4/capsense_Processing.c ****     uint32  snsId;
1026:Generated_Source\PSoC4/capsense_Processing.c ****     capsense_RAM_SNS_STRUCT *ptrSnsTmp;
1027:Generated_Source\PSoC4/capsense_Processing.c ****     capsense_RAM_WD_BASE_STRUCT *ptrRamWdgt;
1028:Generated_Source\PSoC4/capsense_Processing.c **** 
1029:Generated_Source\PSoC4/capsense_Processing.c ****     #if (0u != (capsense_CSD_AUTOTUNE & capsense_CSD_SS_TH_EN))
1030:Generated_Source\PSoC4/capsense_Processing.c ****         /* The noise envelope data is available only when Full CSD Auto-Tuning is enabled */
1031:Generated_Source\PSoC4/capsense_Processing.c ****         SMARTSENSE_CSD_NOISE_ENVELOPE_STRUCT *ptrNoiseEnvelope;
1032:Generated_Source\PSoC4/capsense_Processing.c ****         #if (capsense_ENABLE == capsense_PROXIMITY_WIDGET_EN)
1033:Generated_Source\PSoC4/capsense_Processing.c ****             uint32  proximityThreshold;
1034:Generated_Source\PSoC4/capsense_Processing.c ****         #endif /* (0 != capsense_PROXIMITY_WIDGET_EN) */
1035:Generated_Source\PSoC4/capsense_Processing.c ****     #endif /* #if (0u != (capsense_CSD_AUTOTUNE & capsense_CSD_SS_TH_EN)) */
1036:Generated_Source\PSoC4/capsense_Processing.c **** 
1037:Generated_Source\PSoC4/capsense_Processing.c ****     #if (capsense_ENABLE == capsense_RC_FILTER_EN)
1038:Generated_Source\PSoC4/capsense_Processing.c ****         capsense_PTR_FILTER_VARIANT fltrHistV;
1039:Generated_Source\PSoC4/capsense_Processing.c **** 
1040:Generated_Source\PSoC4/capsense_Processing.c ****         /* Determine if widget type is proximity */
1041:Generated_Source\PSoC4/capsense_Processing.c ****         uint32 isProxWdgt = (capsense_GET_WIDGET_TYPE(ptrFlashWdgt) == capsense_WD_PROXIMITY_E) ? 1
1042:Generated_Source\PSoC4/capsense_Processing.c **** 
1043:Generated_Source\PSoC4/capsense_Processing.c ****         /* Get pointer to the filter history object */
1044:Generated_Source\PSoC4/capsense_Processing.c ****         fltrHistV.ptr = ptrFlashWdgt->ptr2FltrHistory;
1045:Generated_Source\PSoC4/capsense_Processing.c ****     #endif /* #if (capsense_ENABLE == capsense_RC_FILTER_EN) */
1046:Generated_Source\PSoC4/capsense_Processing.c **** 
1047:Generated_Source\PSoC4/capsense_Processing.c ****     ptrSnsTmp = ptrFlashWdgt->ptr2SnsRam;
1048:Generated_Source\PSoC4/capsense_Processing.c ****     ptrRamWdgt = (capsense_RAM_WD_BASE_STRUCT *)ptrFlashWdgt->ptr2WdgtRam;
1049:Generated_Source\PSoC4/capsense_Processing.c ****     widgetType = ptrFlashWdgt->wdgtType;
1050:Generated_Source\PSoC4/capsense_Processing.c **** 
1051:Generated_Source\PSoC4/capsense_Processing.c ****     #if (0u != (capsense_CSD_AUTOTUNE & capsense_CSD_SS_TH_EN))
1052:Generated_Source\PSoC4/capsense_Processing.c ****         ptrNoiseEnvelope = ptrFlashWdgt->ptr2NoiseEnvlp;
1053:Generated_Source\PSoC4/capsense_Processing.c ****     #endif /* #if (0u != (capsense_CSD_AUTOTUNE & capsense_CSD_SS_TH_EN)) */
1054:Generated_Source\PSoC4/capsense_Processing.c **** 
1055:Generated_Source\PSoC4/capsense_Processing.c ****     /* Iterate through all widget's sensors */
1056:Generated_Source\PSoC4/capsense_Processing.c ****     for(snsId = 0u; snsId < ptrFlashWdgt->totalNumSns; snsId++)
1057:Generated_Source\PSoC4/capsense_Processing.c ****     {
1058:Generated_Source\PSoC4/capsense_Processing.c ****         /* Run all enabled filter on specified widget's sensor */
1059:Generated_Source\PSoC4/capsense_Processing.c ****         #if (capsense_ENABLE == capsense_RC_FILTER_EN)
1060:Generated_Source\PSoC4/capsense_Processing.c ****             capsense_FtRunEnabledFiltersInternal(fltrHistV, ptrSnsTmp, widgetType);
1061:Generated_Source\PSoC4/capsense_Processing.c ****             #if (capsense_ALP_FILTER_EN)
1062:Generated_Source\PSoC4/capsense_Processing.c ****                 capsense_ConfigRunALPInternal(fltrHistV, ptrRamWdgt, ptrSnsTmp, widgetType);
1063:Generated_Source\PSoC4/capsense_Processing.c ****             #endif
1064:Generated_Source\PSoC4/capsense_Processing.c ****         #endif /* #if (capsense_ENABLE == capsense_RC_FILTER_EN) */
1065:Generated_Source\PSoC4/capsense_Processing.c **** 
1066:Generated_Source\PSoC4/capsense_Processing.c ****         /* Run auto-tuning activities */
1067:Generated_Source\PSoC4/capsense_Processing.c ****         #if (0u != (capsense_CSD_AUTOTUNE & capsense_CSD_SS_TH_EN))
1068:Generated_Source\PSoC4/capsense_Processing.c ****             SmartSense_RunNoiseEnvelope(ptrSnsTmp->raw[0u], ptrRamWdgt->sigPFC, ptrNoiseEnvelope);
1069:Generated_Source\PSoC4/capsense_Processing.c ****             capsense_DpUpdateThresholds(ptrRamWdgt, ptrNoiseEnvelope, snsId);
1070:Generated_Source\PSoC4/capsense_Processing.c **** 
1071:Generated_Source\PSoC4/capsense_Processing.c ****             /* Calculate Proximity Touch Threshold in SmartSense mode based on Finger Threshold and
1072:Generated_Source\PSoC4/capsense_Processing.c ****             #if (capsense_ENABLE == capsense_PROXIMITY_WIDGET_EN)
1073:Generated_Source\PSoC4/capsense_Processing.c ****                 if (capsense_WD_PROXIMITY_E == capsense_GET_WIDGET_TYPE(ptrFlashWdgt))
ARM GAS  C:\Users\ASUS\AppData\Local\Temp\ccuOUgOD.s 			page 23


1074:Generated_Source\PSoC4/capsense_Processing.c ****                 {
1075:Generated_Source\PSoC4/capsense_Processing.c ****                     proximityThreshold = ((uint32)ptrRamWdgt->fingerTh * capsense_PROX_TOUCH_COEFF)
1076:Generated_Source\PSoC4/capsense_Processing.c ****                     if ((((1Lu) << capsense_THRESHOLD_SIZE) - 1u) < proximityThreshold)
1077:Generated_Source\PSoC4/capsense_Processing.c ****                     {
1078:Generated_Source\PSoC4/capsense_Processing.c ****                         proximityThreshold = ((1Lu) << capsense_THRESHOLD_SIZE) - 1u;
1079:Generated_Source\PSoC4/capsense_Processing.c ****                     }
1080:Generated_Source\PSoC4/capsense_Processing.c ****                     ((capsense_RAM_WD_PROXIMITY_STRUCT *)ptrFlashWdgt->ptr2WdgtRam)->proxTouchTh =
1081:Generated_Source\PSoC4/capsense_Processing.c ****                         (capsense_THRESHOLD_TYPE)proximityThreshold;
1082:Generated_Source\PSoC4/capsense_Processing.c ****                 }
1083:Generated_Source\PSoC4/capsense_Processing.c ****             #endif /* (0 != capsense_PROXIMITY_WIDGET_EN) */
1084:Generated_Source\PSoC4/capsense_Processing.c **** 
1085:Generated_Source\PSoC4/capsense_Processing.c ****             /* Move to next noise-envelope object */
1086:Generated_Source\PSoC4/capsense_Processing.c ****             ptrNoiseEnvelope++;
1087:Generated_Source\PSoC4/capsense_Processing.c ****         #endif /* (0u != (capsense_CSD_AUTOTUNE & capsense_CSD_SS_TH_EN)) */
1088:Generated_Source\PSoC4/capsense_Processing.c **** 
1089:Generated_Source\PSoC4/capsense_Processing.c ****         #if (capsense_ENABLE == capsense_TST_BSLN_DUPLICATION_EN)
1090:Generated_Source\PSoC4/capsense_Processing.c ****             bslnTstResult = capsense_FtUpdateBaseline(ptrRamWdgt, ptrSnsTmp, widgetType);
1091:Generated_Source\PSoC4/capsense_Processing.c ****             if ((CYRET_SUCCESS != bslnTstResult) && (CYRET_SUCCESS == result))
1092:Generated_Source\PSoC4/capsense_Processing.c ****             {
1093:Generated_Source\PSoC4/capsense_Processing.c ****                 result = snsId | capsense_PROCESS_BASELINE_FAILED;
1094:Generated_Source\PSoC4/capsense_Processing.c ****             }
1095:Generated_Source\PSoC4/capsense_Processing.c ****         #else /* (capsense_ENABLE == capsense_TST_BSLN_DUPLICATION_EN) */
1096:Generated_Source\PSoC4/capsense_Processing.c ****             result = capsense_FtUpdateBaseline(ptrRamWdgt, ptrSnsTmp, widgetType);
1097:Generated_Source\PSoC4/capsense_Processing.c ****         #endif /* (capsense_ENABLE == capsense_TST_BSLN_DUPLICATION_EN) */
1098:Generated_Source\PSoC4/capsense_Processing.c **** 
1099:Generated_Source\PSoC4/capsense_Processing.c ****         capsense_DpUpdateDifferences(ptrRamWdgt, ptrSnsTmp);
1100:Generated_Source\PSoC4/capsense_Processing.c **** 
1101:Generated_Source\PSoC4/capsense_Processing.c ****         /* Move to next sensor object */
1102:Generated_Source\PSoC4/capsense_Processing.c ****         ptrSnsTmp++;
1103:Generated_Source\PSoC4/capsense_Processing.c **** 
1104:Generated_Source\PSoC4/capsense_Processing.c ****         #if (capsense_ENABLE == capsense_RC_FILTER_EN)
1105:Generated_Source\PSoC4/capsense_Processing.c ****             /* Move to the next filter history object */
1106:Generated_Source\PSoC4/capsense_Processing.c ****             capsense_INC_FLTR_OBJ_VARIANT(isProxWdgt, fltrHistV);
1107:Generated_Source\PSoC4/capsense_Processing.c ****         #endif /* #if (capsense_ENABLE == capsense_RC_FILTER_EN) */
1108:Generated_Source\PSoC4/capsense_Processing.c ****     }
1109:Generated_Source\PSoC4/capsense_Processing.c ****     return result;
1110:Generated_Source\PSoC4/capsense_Processing.c **** }
1111:Generated_Source\PSoC4/capsense_Processing.c **** 
1112:Generated_Source\PSoC4/capsense_Processing.c **** 
1113:Generated_Source\PSoC4/capsense_Processing.c **** /*******************************************************************************
1114:Generated_Source\PSoC4/capsense_Processing.c **** * Function Name: capsense_DpProcessCsdSensorRawCountsExt
1115:Generated_Source\PSoC4/capsense_Processing.c **** ****************************************************************************//**
1116:Generated_Source\PSoC4/capsense_Processing.c **** *
1117:Generated_Source\PSoC4/capsense_Processing.c **** * \brief
1118:Generated_Source\PSoC4/capsense_Processing.c **** *   Performs customized processing of the CSD sensor raw counts.
1119:Generated_Source\PSoC4/capsense_Processing.c **** *
1120:Generated_Source\PSoC4/capsense_Processing.c **** * \details
1121:Generated_Source\PSoC4/capsense_Processing.c **** *   Performs customized processing of the CSD sensor raw counts.
1122:Generated_Source\PSoC4/capsense_Processing.c **** *
1123:Generated_Source\PSoC4/capsense_Processing.c **** *   Note that this API updates data associated only with the sensor. It cannot be used to update
1124:Generated_Source\PSoC4/capsense_Processing.c **** *   widget status.
1125:Generated_Source\PSoC4/capsense_Processing.c **** *
1126:Generated_Source\PSoC4/capsense_Processing.c **** * \param ptrFlashWdgt The pointer to the Flash widget structure.
1127:Generated_Source\PSoC4/capsense_Processing.c **** * \param curSnsPtr    The pointer to the sensor object in RAM.
1128:Generated_Source\PSoC4/capsense_Processing.c **** * \param fltrHistV    The pointer to the Filter History Object in RAM.
1129:Generated_Source\PSoC4/capsense_Processing.c **** * \param mode         The bit-mask with the data processing tasks to be executed.
1130:Generated_Source\PSoC4/capsense_Processing.c **** *   The mode parameters can take the following values:
ARM GAS  C:\Users\ASUS\AppData\Local\Temp\ccuOUgOD.s 			page 24


1131:Generated_Source\PSoC4/capsense_Processing.c **** *    - capsense_PROCESS_FILTER     (0x01) Run Firmware Filter
1132:Generated_Source\PSoC4/capsense_Processing.c **** *    - capsense_PROCESS_BASELINE   (0x02) Update Baselines
1133:Generated_Source\PSoC4/capsense_Processing.c **** *    - capsense_PROCESS_DIFFCOUNTS (0x04) Update Difference Counts
1134:Generated_Source\PSoC4/capsense_Processing.c **** *    - capsense_PROCESS_CALC_NOISE (0x08) Calculate Noise (only if FW Tuning is enabled)
1135:Generated_Source\PSoC4/capsense_Processing.c **** *    - capsense_PROCESS_THRESHOLDS (0x10) Update Thresholds (only if FW Tuning is enabled)
1136:Generated_Source\PSoC4/capsense_Processing.c **** *    - capsense_PROCESS_ALL               Execute all tasks
1137:Generated_Source\PSoC4/capsense_Processing.c **** *
1138:Generated_Source\PSoC4/capsense_Processing.c **** * \return
1139:Generated_Source\PSoC4/capsense_Processing.c **** *  Returns the status of the specified sensor processing operation:
1140:Generated_Source\PSoC4/capsense_Processing.c **** *  - CYRET_SUCCESS if operation was successfully completed.
1141:Generated_Source\PSoC4/capsense_Processing.c **** *  - capsense_PROCESS_BASELINE_FAILED if baseline processing of any
1142:Generated_Source\PSoC4/capsense_Processing.c **** *    sensor of the specified widget failed. The result is concatenated with the index
1143:Generated_Source\PSoC4/capsense_Processing.c **** *    of failed sensor.
1144:Generated_Source\PSoC4/capsense_Processing.c **** *
1145:Generated_Source\PSoC4/capsense_Processing.c **** *******************************************************************************/
1146:Generated_Source\PSoC4/capsense_Processing.c **** uint32 capsense_DpProcessCsdSensorRawCountsExt(
1147:Generated_Source\PSoC4/capsense_Processing.c ****                 capsense_FLASH_WD_STRUCT const *ptrFlashWdgt,
1148:Generated_Source\PSoC4/capsense_Processing.c ****                 capsense_RAM_SNS_STRUCT *curSnsPtr,
1149:Generated_Source\PSoC4/capsense_Processing.c ****                 capsense_PTR_FILTER_VARIANT fltrHistV,
1150:Generated_Source\PSoC4/capsense_Processing.c ****                  uint32 mode)
1151:Generated_Source\PSoC4/capsense_Processing.c **** {
1152:Generated_Source\PSoC4/capsense_Processing.c ****     uint32 result = CYRET_SUCCESS;
1153:Generated_Source\PSoC4/capsense_Processing.c ****     uint32  widgetType;
1154:Generated_Source\PSoC4/capsense_Processing.c ****     capsense_RAM_WD_BASE_STRUCT *ptrRamWdgt;
1155:Generated_Source\PSoC4/capsense_Processing.c **** 
1156:Generated_Source\PSoC4/capsense_Processing.c ****     #if (0u != (capsense_CSD_AUTOTUNE & capsense_CSD_SS_TH_EN))
1157:Generated_Source\PSoC4/capsense_Processing.c ****         SMARTSENSE_CSD_NOISE_ENVELOPE_STRUCT *ptrNoiseEnvelope;
1158:Generated_Source\PSoC4/capsense_Processing.c ****         #if (capsense_ENABLE == capsense_PROXIMITY_WIDGET_EN)
1159:Generated_Source\PSoC4/capsense_Processing.c ****             uint32  proximityThreshold;
1160:Generated_Source\PSoC4/capsense_Processing.c ****         #endif /* (0 != capsense_PROXIMITY_WIDGET_EN) */
1161:Generated_Source\PSoC4/capsense_Processing.c **** 
1162:Generated_Source\PSoC4/capsense_Processing.c ****         /* Need to specify pointer to corresponding sensor's noise-envelope object.*/
1163:Generated_Source\PSoC4/capsense_Processing.c ****         ptrNoiseEnvelope = ptrFlashWdgt->ptr2NoiseEnvlp;
1164:Generated_Source\PSoC4/capsense_Processing.c ****     #endif /* (0u != (capsense_CSD_AUTOTUNE & capsense_CSD_SS_TH_EN)) */
1165:Generated_Source\PSoC4/capsense_Processing.c **** 
1166:Generated_Source\PSoC4/capsense_Processing.c ****     widgetType = ptrFlashWdgt->wdgtType;
1167:Generated_Source\PSoC4/capsense_Processing.c ****     ptrRamWdgt = (capsense_RAM_WD_BASE_STRUCT *)ptrFlashWdgt->ptr2WdgtRam;
1168:Generated_Source\PSoC4/capsense_Processing.c **** 
1169:Generated_Source\PSoC4/capsense_Processing.c ****     #if (capsense_ENABLE == capsense_RC_FILTER_EN)
1170:Generated_Source\PSoC4/capsense_Processing.c ****         if (0u != (mode & capsense_PROCESS_FILTER))
1171:Generated_Source\PSoC4/capsense_Processing.c ****         {
1172:Generated_Source\PSoC4/capsense_Processing.c ****             capsense_FtRunEnabledFiltersInternal(fltrHistV, curSnsPtr, widgetType);
1173:Generated_Source\PSoC4/capsense_Processing.c ****             #if (capsense_ALP_FILTER_EN)
1174:Generated_Source\PSoC4/capsense_Processing.c ****                 capsense_ConfigRunALPInternal(fltrHistV, ptrRamWdgt, curSnsPtr, widgetType);
1175:Generated_Source\PSoC4/capsense_Processing.c ****             #endif
1176:Generated_Source\PSoC4/capsense_Processing.c ****         }
1177:Generated_Source\PSoC4/capsense_Processing.c ****     #else
1178:Generated_Source\PSoC4/capsense_Processing.c ****         (void)fltrHistV; /* This parameter is unused in such configurations */
1179:Generated_Source\PSoC4/capsense_Processing.c ****     #endif /* #if (capsense_ENABLE == capsense_RC_FILTER_EN) */
1180:Generated_Source\PSoC4/capsense_Processing.c **** 
1181:Generated_Source\PSoC4/capsense_Processing.c ****     #if (0u != (capsense_CSD_AUTOTUNE & capsense_CSD_SS_TH_EN))
1182:Generated_Source\PSoC4/capsense_Processing.c ****         if (0u != (mode & capsense_PROCESS_CALC_NOISE))
1183:Generated_Source\PSoC4/capsense_Processing.c ****         {
1184:Generated_Source\PSoC4/capsense_Processing.c ****             SmartSense_RunNoiseEnvelope(curSnsPtr->raw[0u], ptrRamWdgt->sigPFC, ptrNoiseEnvelope);
1185:Generated_Source\PSoC4/capsense_Processing.c ****         }
1186:Generated_Source\PSoC4/capsense_Processing.c **** 
1187:Generated_Source\PSoC4/capsense_Processing.c ****         if (0u != (mode & capsense_PROCESS_THRESHOLDS))
ARM GAS  C:\Users\ASUS\AppData\Local\Temp\ccuOUgOD.s 			page 25


1188:Generated_Source\PSoC4/capsense_Processing.c ****         {
1189:Generated_Source\PSoC4/capsense_Processing.c ****             capsense_DpUpdateThresholds(ptrRamWdgt, ptrNoiseEnvelope, 0u);
1190:Generated_Source\PSoC4/capsense_Processing.c **** 
1191:Generated_Source\PSoC4/capsense_Processing.c ****             /* Calculate Proximity Touch Threshold in SmartSense mode based on Finger Threshold and
1192:Generated_Source\PSoC4/capsense_Processing.c ****             #if (capsense_ENABLE == capsense_PROXIMITY_WIDGET_EN)
1193:Generated_Source\PSoC4/capsense_Processing.c ****                 if (capsense_WD_PROXIMITY_E == capsense_GET_WIDGET_TYPE(ptrFlashWdgt))
1194:Generated_Source\PSoC4/capsense_Processing.c ****                 {
1195:Generated_Source\PSoC4/capsense_Processing.c ****                     proximityThreshold = ((uint32)ptrRamWdgt->fingerTh * capsense_PROX_TOUCH_COEFF)
1196:Generated_Source\PSoC4/capsense_Processing.c ****                     if ((((1Lu) << capsense_THRESHOLD_SIZE) - 1u) < proximityThreshold)
1197:Generated_Source\PSoC4/capsense_Processing.c ****                     {
1198:Generated_Source\PSoC4/capsense_Processing.c ****                         proximityThreshold = ((1Lu) << capsense_THRESHOLD_SIZE) - 1u;
1199:Generated_Source\PSoC4/capsense_Processing.c ****                     }
1200:Generated_Source\PSoC4/capsense_Processing.c ****                     ((capsense_RAM_WD_PROXIMITY_STRUCT *)ptrFlashWdgt->ptr2WdgtRam)->proxTouchTh =
1201:Generated_Source\PSoC4/capsense_Processing.c ****                         (capsense_THRESHOLD_TYPE)proximityThreshold;
1202:Generated_Source\PSoC4/capsense_Processing.c ****                 }
1203:Generated_Source\PSoC4/capsense_Processing.c ****             #endif /* (0 != capsense_PROXIMITY_WIDGET_EN) */
1204:Generated_Source\PSoC4/capsense_Processing.c ****         }
1205:Generated_Source\PSoC4/capsense_Processing.c ****     #endif /* #if (0u != (capsense_CSD_AUTOTUNE & capsense_CSD_SS_TH_EN)) */
1206:Generated_Source\PSoC4/capsense_Processing.c **** 
1207:Generated_Source\PSoC4/capsense_Processing.c ****     if (0u != (mode & capsense_PROCESS_BASELINE))
1208:Generated_Source\PSoC4/capsense_Processing.c ****     {
1209:Generated_Source\PSoC4/capsense_Processing.c ****         result = capsense_FtUpdateBaseline(ptrRamWdgt, curSnsPtr, widgetType);
1210:Generated_Source\PSoC4/capsense_Processing.c ****     }
1211:Generated_Source\PSoC4/capsense_Processing.c **** 
1212:Generated_Source\PSoC4/capsense_Processing.c ****     if (0u != (mode & capsense_PROCESS_DIFFCOUNTS))
1213:Generated_Source\PSoC4/capsense_Processing.c ****     {
1214:Generated_Source\PSoC4/capsense_Processing.c ****         capsense_DpUpdateDifferences(ptrRamWdgt, curSnsPtr);
1215:Generated_Source\PSoC4/capsense_Processing.c ****     }
1216:Generated_Source\PSoC4/capsense_Processing.c ****     return result;
1217:Generated_Source\PSoC4/capsense_Processing.c **** }
1218:Generated_Source\PSoC4/capsense_Processing.c **** 
1219:Generated_Source\PSoC4/capsense_Processing.c **** /*******************************************************************************
1220:Generated_Source\PSoC4/capsense_Processing.c **** * Function Name: capsense_DpProcessCsdWidgetStatus
1221:Generated_Source\PSoC4/capsense_Processing.c **** ****************************************************************************//**
1222:Generated_Source\PSoC4/capsense_Processing.c **** *
1223:Generated_Source\PSoC4/capsense_Processing.c **** * \brief
1224:Generated_Source\PSoC4/capsense_Processing.c **** *  Runs the status processing of the CSD widget and updates it in the Data Structure.
1225:Generated_Source\PSoC4/capsense_Processing.c **** *
1226:Generated_Source\PSoC4/capsense_Processing.c **** * \details
1227:Generated_Source\PSoC4/capsense_Processing.c **** *  This API determines the widget type and calls the appropriate low-level processing
1228:Generated_Source\PSoC4/capsense_Processing.c **** *  function. Based on the returned results it updates the widget and sensor
1229:Generated_Source\PSoC4/capsense_Processing.c **** *  status in the data structure. Any widget specific registers like the centroid
1230:Generated_Source\PSoC4/capsense_Processing.c **** *  position are updated directly in the low-level processing function.
1231:Generated_Source\PSoC4/capsense_Processing.c **** *
1232:Generated_Source\PSoC4/capsense_Processing.c **** *  When the widget-specific processing completes this API updates the snsStatus
1233:Generated_Source\PSoC4/capsense_Processing.c **** *  and wdgtStatus registers in the data structure. The wdgtStatus register
1234:Generated_Source\PSoC4/capsense_Processing.c **** *  is a bitmask were each bit corresponds to the specific widget identified by
1235:Generated_Source\PSoC4/capsense_Processing.c **** *  the widget index. When the bit is set the widget is active (touched);
1236:Generated_Source\PSoC4/capsense_Processing.c **** *
1237:Generated_Source\PSoC4/capsense_Processing.c **** *  The snsStatus register for CSD widgets contains status of each widget sensor
1238:Generated_Source\PSoC4/capsense_Processing.c **** *  (active/non-active). Each bit corresponds to one sensor. In case of the
1239:Generated_Source\PSoC4/capsense_Processing.c **** *  Proximity widget two bits are used per sensor: one for proximity status and
1240:Generated_Source\PSoC4/capsense_Processing.c **** *  second for the touch status.
1241:Generated_Source\PSoC4/capsense_Processing.c **** *
1242:Generated_Source\PSoC4/capsense_Processing.c **** * \param widgetId      The widget index number.
1243:Generated_Source\PSoC4/capsense_Processing.c **** * \param ptrFlashWdgt  The pointer to the Flash widget structure.
1244:Generated_Source\PSoC4/capsense_Processing.c **** *
ARM GAS  C:\Users\ASUS\AppData\Local\Temp\ccuOUgOD.s 			page 26


1245:Generated_Source\PSoC4/capsense_Processing.c **** *******************************************************************************/
1246:Generated_Source\PSoC4/capsense_Processing.c **** void capsense_DpProcessCsdWidgetStatus(uint32 widgetId, capsense_FLASH_WD_STRUCT const *ptrFlashWdg
1247:Generated_Source\PSoC4/capsense_Processing.c **** {
1248:Generated_Source\PSoC4/capsense_Processing.c ****     uint32 sensorStatus;
1249:Generated_Source\PSoC4/capsense_Processing.c ****     uint32 wdStatusIndex;
1250:Generated_Source\PSoC4/capsense_Processing.c ****     uint32 wdStatusMask;
1251:Generated_Source\PSoC4/capsense_Processing.c ****     capsense_WD_TYPE_ENUM widgetType;
1252:Generated_Source\PSoC4/capsense_Processing.c **** 
1253:Generated_Source\PSoC4/capsense_Processing.c ****     widgetType = (capsense_WD_TYPE_ENUM)ptrFlashWdgt->wdgtType;
1254:Generated_Source\PSoC4/capsense_Processing.c ****     sensorStatus = capsense_dsRam.snsStatus[widgetId];
1255:Generated_Source\PSoC4/capsense_Processing.c **** 
1256:Generated_Source\PSoC4/capsense_Processing.c ****     switch (widgetType)
1257:Generated_Source\PSoC4/capsense_Processing.c ****     {
1258:Generated_Source\PSoC4/capsense_Processing.c ****     #if (0u != capsense_BUTTON_WIDGET_EN)
1259:Generated_Source\PSoC4/capsense_Processing.c ****         case capsense_WD_BUTTON_E:
1260:Generated_Source\PSoC4/capsense_Processing.c ****             sensorStatus = capsense_DpProcessButton(sensorStatus, ptrFlashWdgt);
1261:Generated_Source\PSoC4/capsense_Processing.c ****             break;
1262:Generated_Source\PSoC4/capsense_Processing.c ****     #endif /* #if (0u != capsense_BUTTON_WIDGET_EN) */
1263:Generated_Source\PSoC4/capsense_Processing.c **** 
1264:Generated_Source\PSoC4/capsense_Processing.c ****     #if (0u != capsense_SLIDER_WIDGET_EN)
1265:Generated_Source\PSoC4/capsense_Processing.c ****         case capsense_WD_LINEAR_SLIDER_E:
1266:Generated_Source\PSoC4/capsense_Processing.c ****         case capsense_WD_RADIAL_SLIDER_E:
1267:Generated_Source\PSoC4/capsense_Processing.c ****             sensorStatus = capsense_DpProcessSlider(sensorStatus, ptrFlashWdgt);
1268:Generated_Source\PSoC4/capsense_Processing.c ****             break;
1269:Generated_Source\PSoC4/capsense_Processing.c ****     #endif /* #if (0u != capsense_SLIDER_WIDGET_EN) */
1270:Generated_Source\PSoC4/capsense_Processing.c **** 
1271:Generated_Source\PSoC4/capsense_Processing.c ****     #if (0u != capsense_CSD_MATRIX_WIDGET_EN)
1272:Generated_Source\PSoC4/capsense_Processing.c ****         case capsense_WD_MATRIX_BUTTON_E:
1273:Generated_Source\PSoC4/capsense_Processing.c ****             sensorStatus = capsense_DpProcessCsdMatrix(sensorStatus, ptrFlashWdgt);
1274:Generated_Source\PSoC4/capsense_Processing.c ****             break;
1275:Generated_Source\PSoC4/capsense_Processing.c ****     #endif /* #if (0u != capsense_CSD_MATRIX_WIDGET_EN) */
1276:Generated_Source\PSoC4/capsense_Processing.c **** 
1277:Generated_Source\PSoC4/capsense_Processing.c ****     #if (0u != capsense_CSD_TOUCHPAD_WIDGET_EN)
1278:Generated_Source\PSoC4/capsense_Processing.c ****         case capsense_WD_TOUCHPAD_E:
1279:Generated_Source\PSoC4/capsense_Processing.c ****             sensorStatus = capsense_DpProcessCsdTouchpad(sensorStatus, ptrFlashWdgt);
1280:Generated_Source\PSoC4/capsense_Processing.c ****             #if (0u != capsense_BALLISTIC_MULTIPLIER_EN)
1281:Generated_Source\PSoC4/capsense_Processing.c ****                 capsense_RunBallisticMultiplier(widgetId);
1282:Generated_Source\PSoC4/capsense_Processing.c ****             #endif /* (0u != capsense_BALLISTIC_MULTIPLIER_EN) */
1283:Generated_Source\PSoC4/capsense_Processing.c ****             break;
1284:Generated_Source\PSoC4/capsense_Processing.c ****     #endif /* #if (0u != capsense_CSD_TOUCHPAD_WIDGET_EN) */
1285:Generated_Source\PSoC4/capsense_Processing.c **** 
1286:Generated_Source\PSoC4/capsense_Processing.c ****     #if (0u != capsense_PROXIMITY_WIDGET_EN)
1287:Generated_Source\PSoC4/capsense_Processing.c ****         case capsense_WD_PROXIMITY_E:
1288:Generated_Source\PSoC4/capsense_Processing.c ****             sensorStatus = capsense_DpProcessProximity(sensorStatus, ptrFlashWdgt);
1289:Generated_Source\PSoC4/capsense_Processing.c ****             break;
1290:Generated_Source\PSoC4/capsense_Processing.c ****     #endif /* #if (0u != capsense_PROXIMITY_WIDGET_EN) */
1291:Generated_Source\PSoC4/capsense_Processing.c **** 
1292:Generated_Source\PSoC4/capsense_Processing.c ****     default:
1293:Generated_Source\PSoC4/capsense_Processing.c ****         CYASSERT(0u);
1294:Generated_Source\PSoC4/capsense_Processing.c ****         break;
1295:Generated_Source\PSoC4/capsense_Processing.c ****     }
1296:Generated_Source\PSoC4/capsense_Processing.c **** 
1297:Generated_Source\PSoC4/capsense_Processing.c ****     capsense_dsRam.snsStatus[widgetId] = (capsense_SNS_STS_TYPE)sensorStatus;
1298:Generated_Source\PSoC4/capsense_Processing.c **** 
1299:Generated_Source\PSoC4/capsense_Processing.c ****     /* The next two lines calculate index and bitmask of the widget status bit in the wdgtStatus ar
1300:Generated_Source\PSoC4/capsense_Processing.c ****     wdStatusIndex = capsense_GET_WDGT_STATUS_INDEX(widgetId);
1301:Generated_Source\PSoC4/capsense_Processing.c ****     wdStatusMask = capsense_GET_WDGT_STATUS_MASK(widgetId);
ARM GAS  C:\Users\ASUS\AppData\Local\Temp\ccuOUgOD.s 			page 27


1302:Generated_Source\PSoC4/capsense_Processing.c **** 
1303:Generated_Source\PSoC4/capsense_Processing.c ****     /* Check if there are active sensors and update widget status accordingly */
1304:Generated_Source\PSoC4/capsense_Processing.c ****     if (0u == sensorStatus)
1305:Generated_Source\PSoC4/capsense_Processing.c ****     {
1306:Generated_Source\PSoC4/capsense_Processing.c ****         capsense_dsRam.wdgtStatus[wdStatusIndex] &= ~wdStatusMask;
1307:Generated_Source\PSoC4/capsense_Processing.c ****     }
1308:Generated_Source\PSoC4/capsense_Processing.c ****     else
1309:Generated_Source\PSoC4/capsense_Processing.c ****     {
1310:Generated_Source\PSoC4/capsense_Processing.c ****         capsense_dsRam.wdgtStatus[wdStatusIndex] |= wdStatusMask;
1311:Generated_Source\PSoC4/capsense_Processing.c ****     }
1312:Generated_Source\PSoC4/capsense_Processing.c **** }
1313:Generated_Source\PSoC4/capsense_Processing.c **** #endif /* #if (0u != capsense_TOTAL_CSD_WIDGETS) */
1314:Generated_Source\PSoC4/capsense_Processing.c **** 
1315:Generated_Source\PSoC4/capsense_Processing.c **** 
1316:Generated_Source\PSoC4/capsense_Processing.c **** #if (0 != (capsense_CSD_AUTOTUNE & capsense_CSD_SS_TH_EN))
1317:Generated_Source\PSoC4/capsense_Processing.c **** /*******************************************************************************
1318:Generated_Source\PSoC4/capsense_Processing.c **** * Function Name: capsense_DpUpdateThresholds
1319:Generated_Source\PSoC4/capsense_Processing.c **** ****************************************************************************//**
1320:Generated_Source\PSoC4/capsense_Processing.c **** *
1321:Generated_Source\PSoC4/capsense_Processing.c **** * \brief
1322:Generated_Source\PSoC4/capsense_Processing.c **** *   Updates noise and finger thresholds for a specified widget.
1323:Generated_Source\PSoC4/capsense_Processing.c **** *
1324:Generated_Source\PSoC4/capsense_Processing.c **** * \details
1325:Generated_Source\PSoC4/capsense_Processing.c **** *   Updates noise and finger thresholds for a specified widget.
1326:Generated_Source\PSoC4/capsense_Processing.c **** *   This algorithm is a part of Auto-tuning feature.
1327:Generated_Source\PSoC4/capsense_Processing.c **** *
1328:Generated_Source\PSoC4/capsense_Processing.c **** * \param ptrRamWdgt       The pointer to the RAM widget object.
1329:Generated_Source\PSoC4/capsense_Processing.c **** * \param ptrNoiseEnvelope The pointer to the noise-envelope object in RAM.
1330:Generated_Source\PSoC4/capsense_Processing.c **** * \param startFlag        The flag indicates when new widget is processed.
1331:Generated_Source\PSoC4/capsense_Processing.c **** *
1332:Generated_Source\PSoC4/capsense_Processing.c **** *******************************************************************************/
1333:Generated_Source\PSoC4/capsense_Processing.c **** void capsense_DpUpdateThresholds(capsense_RAM_WD_BASE_STRUCT *ptrRamWdgt,
1334:Generated_Source\PSoC4/capsense_Processing.c ****                                          SMARTSENSE_CSD_NOISE_ENVELOPE_STRUCT *ptrNoiseEnvelope,
1335:Generated_Source\PSoC4/capsense_Processing.c ****                                          uint32 startFlag)
1336:Generated_Source\PSoC4/capsense_Processing.c **** {
1337:Generated_Source\PSoC4/capsense_Processing.c ****     SMARTSENSE_UPDATE_THRESHOLDS_STRUCT thresholds;
1338:Generated_Source\PSoC4/capsense_Processing.c ****     SMARTSENSE_UPDATE_THRESHOLDS_STRUCT *ptrThresholds = &thresholds;
1339:Generated_Source\PSoC4/capsense_Processing.c ****     ptrThresholds->fingerTh = ptrRamWdgt->fingerTh;
1340:Generated_Source\PSoC4/capsense_Processing.c **** 
1341:Generated_Source\PSoC4/capsense_Processing.c ****     SmartSense_UpdateThresholds(ptrNoiseEnvelope, ptrThresholds, ptrRamWdgt->sigPFC, startFlag);
1342:Generated_Source\PSoC4/capsense_Processing.c **** 
1343:Generated_Source\PSoC4/capsense_Processing.c ****     ptrRamWdgt->fingerTh = ptrThresholds->fingerTh;
1344:Generated_Source\PSoC4/capsense_Processing.c ****     ptrRamWdgt->noiseTh = ptrThresholds->noiseTh;
1345:Generated_Source\PSoC4/capsense_Processing.c ****     ptrRamWdgt->nNoiseTh = ptrThresholds->nNoiseTh;
1346:Generated_Source\PSoC4/capsense_Processing.c ****     ptrRamWdgt->hysteresis = ptrThresholds->hysteresis;
1347:Generated_Source\PSoC4/capsense_Processing.c **** }
1348:Generated_Source\PSoC4/capsense_Processing.c **** #endif /* #if (0u != (capsense_CSD_AUTOTUNE & capsense_CSD_SS_TH_EN)) */
1349:Generated_Source\PSoC4/capsense_Processing.c **** 
1350:Generated_Source\PSoC4/capsense_Processing.c **** 
1351:Generated_Source\PSoC4/capsense_Processing.c **** /*******************************************************************************
1352:Generated_Source\PSoC4/capsense_Processing.c **** * Function Name: capsense_DpUpdateDifferences
1353:Generated_Source\PSoC4/capsense_Processing.c **** ****************************************************************************//**
1354:Generated_Source\PSoC4/capsense_Processing.c **** *
1355:Generated_Source\PSoC4/capsense_Processing.c **** * \brief
1356:Generated_Source\PSoC4/capsense_Processing.c **** *   Calculates new difference values.
1357:Generated_Source\PSoC4/capsense_Processing.c **** *   Also, executes the multi-frequency scan algorithm if it is enabled.
1358:Generated_Source\PSoC4/capsense_Processing.c **** *
ARM GAS  C:\Users\ASUS\AppData\Local\Temp\ccuOUgOD.s 			page 28


1359:Generated_Source\PSoC4/capsense_Processing.c **** * \details
1360:Generated_Source\PSoC4/capsense_Processing.c **** *   This API calculates the difference between the baseline and raw counts.
1361:Generated_Source\PSoC4/capsense_Processing.c **** *   If the difference is positive (raw > baseline), and higher than the widget
1362:Generated_Source\PSoC4/capsense_Processing.c **** *   noise threshold, it is saved into the data structure for further processing.
1363:Generated_Source\PSoC4/capsense_Processing.c **** *   Otherwise the difference is set to zero. The final difference value is saved
1364:Generated_Source\PSoC4/capsense_Processing.c **** *   with the subtracted noise threshold value.
1365:Generated_Source\PSoC4/capsense_Processing.c **** *
1366:Generated_Source\PSoC4/capsense_Processing.c **** *   If the multi-frequency scan algorithm is enabled, the difference is calculated
1367:Generated_Source\PSoC4/capsense_Processing.c **** *   for the three sets of data available for each sensor. Then
1368:Generated_Source\PSoC4/capsense_Processing.c **** *   the median filter selects the final difference value.
1369:Generated_Source\PSoC4/capsense_Processing.c **** *
1370:Generated_Source\PSoC4/capsense_Processing.c **** * \param ptrRamWdgt The pointer to the RAR Widget Object.
1371:Generated_Source\PSoC4/capsense_Processing.c **** * \param curSnsPtr  The pointer to the sensor object in RAM.
1372:Generated_Source\PSoC4/capsense_Processing.c **** *
1373:Generated_Source\PSoC4/capsense_Processing.c **** *******************************************************************************/
1374:Generated_Source\PSoC4/capsense_Processing.c **** void capsense_DpUpdateDifferences(
1375:Generated_Source\PSoC4/capsense_Processing.c ****                         capsense_RAM_WD_BASE_STRUCT *ptrRamWdgt,
1376:Generated_Source\PSoC4/capsense_Processing.c ****                         capsense_RAM_SNS_STRUCT *curSnsPtr)
1377:Generated_Source\PSoC4/capsense_Processing.c **** {
 173              		.loc 1 1377 0
 174              		.cfi_startproc
 175              		@ args = 0, pretend = 0, frame = 0
 176              		@ frame_needed = 0, uses_anonymous_args = 0
 177              	.LVL21:
 178 0000 30B5     		push	{r4, r5, lr}
 179              		.cfi_def_cfa_offset 12
 180              		.cfi_offset 4, -12
 181              		.cfi_offset 5, -8
 182              		.cfi_offset 14, -4
 183              	.LVL22:
1378:Generated_Source\PSoC4/capsense_Processing.c ****     register int32 diffValue = 0;
1379:Generated_Source\PSoC4/capsense_Processing.c **** 
1380:Generated_Source\PSoC4/capsense_Processing.c ****     #if (0u != capsense_MULTI_FREQ_SCAN_EN)
1381:Generated_Source\PSoC4/capsense_Processing.c ****         register int32 diffValue_0 = 0;
1382:Generated_Source\PSoC4/capsense_Processing.c ****         register int32 diffValue_2 = 0;
1383:Generated_Source\PSoC4/capsense_Processing.c ****     #endif /* #if (0u != capsense_MULTI_FREQ_SCAN_EN) */
1384:Generated_Source\PSoC4/capsense_Processing.c **** 
1385:Generated_Source\PSoC4/capsense_Processing.c ****     /* Calculate difference */
1386:Generated_Source\PSoC4/capsense_Processing.c ****     diffValue = (int32)curSnsPtr->raw[0u] - (int32)curSnsPtr->bsln[0u];
 184              		.loc 1 1386 0
 185 0002 0B88     		ldrh	r3, [r1]
 186 0004 4A88     		ldrh	r2, [r1, #2]
 187 0006 9C1A     		subs	r4, r3, r2
 188              	.LVL23:
1387:Generated_Source\PSoC4/capsense_Processing.c **** 
1388:Generated_Source\PSoC4/capsense_Processing.c ****     #if (0u != capsense_MULTI_FREQ_SCAN_EN)
1389:Generated_Source\PSoC4/capsense_Processing.c ****         diffValue_0 = (int32)curSnsPtr->raw[1u] - (int32)curSnsPtr->bsln[1u];
1390:Generated_Source\PSoC4/capsense_Processing.c ****         diffValue_2 = (int32)curSnsPtr->raw[2u] - (int32)curSnsPtr->bsln[2u];
1391:Generated_Source\PSoC4/capsense_Processing.c **** 
1392:Generated_Source\PSoC4/capsense_Processing.c ****         /* Find median and put it into [0u] element */
1393:Generated_Source\PSoC4/capsense_Processing.c ****         if (diffValue_0 > diffValue)
1394:Generated_Source\PSoC4/capsense_Processing.c ****         {
1395:Generated_Source\PSoC4/capsense_Processing.c ****             register int32 swapv = diffValue_0;
1396:Generated_Source\PSoC4/capsense_Processing.c ****             diffValue_0 = diffValue;
1397:Generated_Source\PSoC4/capsense_Processing.c ****             diffValue = swapv;
1398:Generated_Source\PSoC4/capsense_Processing.c ****         }
1399:Generated_Source\PSoC4/capsense_Processing.c **** 
ARM GAS  C:\Users\ASUS\AppData\Local\Temp\ccuOUgOD.s 			page 29


1400:Generated_Source\PSoC4/capsense_Processing.c ****         if (diffValue > diffValue_2)
1401:Generated_Source\PSoC4/capsense_Processing.c ****         {
1402:Generated_Source\PSoC4/capsense_Processing.c ****             register int32 swapv = diffValue;
1403:Generated_Source\PSoC4/capsense_Processing.c ****             diffValue = diffValue_2;
1404:Generated_Source\PSoC4/capsense_Processing.c ****             diffValue_2 = swapv;
1405:Generated_Source\PSoC4/capsense_Processing.c ****         }
1406:Generated_Source\PSoC4/capsense_Processing.c **** 
1407:Generated_Source\PSoC4/capsense_Processing.c ****         if (diffValue_0 > diffValue)
1408:Generated_Source\PSoC4/capsense_Processing.c ****         {
1409:Generated_Source\PSoC4/capsense_Processing.c ****             register int32 swapv = diffValue_0;
1410:Generated_Source\PSoC4/capsense_Processing.c ****             diffValue_0 = diffValue;
1411:Generated_Source\PSoC4/capsense_Processing.c ****             diffValue = swapv;
1412:Generated_Source\PSoC4/capsense_Processing.c ****         }
1413:Generated_Source\PSoC4/capsense_Processing.c ****     #endif /* #if (0u != capsense_MULTI_FREQ_SCAN_EN) */
1414:Generated_Source\PSoC4/capsense_Processing.c **** 
1415:Generated_Source\PSoC4/capsense_Processing.c ****     curSnsPtr->diff = 0u;
 189              		.loc 1 1415 0
 190 0008 0025     		movs	r5, #0
 191 000a CD80     		strh	r5, [r1, #6]
1416:Generated_Source\PSoC4/capsense_Processing.c **** 
1417:Generated_Source\PSoC4/capsense_Processing.c ****     if (diffValue > (int32)ptrRamWdgt->noiseTh)
 192              		.loc 1 1417 0
 193 000c 0079     		ldrb	r0, [r0, #4]
 194              	.LVL24:
 195 000e 8442     		cmp	r4, r0
 196 0010 00DD     		ble	.L15
1418:Generated_Source\PSoC4/capsense_Processing.c ****     {
1419:Generated_Source\PSoC4/capsense_Processing.c ****         curSnsPtr->diff = (capsense_THRESHOLD_TYPE) diffValue;
 197              		.loc 1 1419 0
 198 0012 CC80     		strh	r4, [r1, #6]
 199              	.L15:
1420:Generated_Source\PSoC4/capsense_Processing.c ****     }
1421:Generated_Source\PSoC4/capsense_Processing.c **** }
 200              		.loc 1 1421 0
 201              		@ sp needed
 202              	.LVL25:
 203 0014 30BD     		pop	{r4, r5, pc}
 204              		.cfi_endproc
 205              	.LFE9:
 206              		.size	capsense_DpUpdateDifferences, .-capsense_DpUpdateDifferences
 207 0016 C046     		.section	.text.capsense_DpProcessCsxWidgetRawCounts,"ax",%progbits
 208              		.align	2
 209              		.global	capsense_DpProcessCsxWidgetRawCounts
 210              		.code	16
 211              		.thumb_func
 212              		.type	capsense_DpProcessCsxWidgetRawCounts, %function
 213              	capsense_DpProcessCsxWidgetRawCounts:
 214              	.LFB3:
 567:Generated_Source\PSoC4/capsense_Processing.c ****     uint32 result = CYRET_SUCCESS;
 215              		.loc 1 567 0
 216              		.cfi_startproc
 217              		@ args = 0, pretend = 0, frame = 8
 218              		@ frame_needed = 0, uses_anonymous_args = 0
 219              	.LVL26:
 220 0000 F0B5     		push	{r4, r5, r6, r7, lr}
 221              		.cfi_def_cfa_offset 20
 222              		.cfi_offset 4, -20
ARM GAS  C:\Users\ASUS\AppData\Local\Temp\ccuOUgOD.s 			page 30


 223              		.cfi_offset 5, -16
 224              		.cfi_offset 6, -12
 225              		.cfi_offset 7, -8
 226              		.cfi_offset 14, -4
 227 0002 83B0     		sub	sp, sp, #12
 228              		.cfi_def_cfa_offset 32
 229              	.LVL27:
 580:Generated_Source\PSoC4/capsense_Processing.c ****     snsCount = ptrFlashWdgt->totalNumSns;
 230              		.loc 1 580 0
 231 0004 8468     		ldr	r4, [r0, #8]
 232              	.LVL28:
 581:Generated_Source\PSoC4/capsense_Processing.c ****     ptrRamWdgt = (capsense_RAM_WD_BASE_STRUCT *)ptrFlashWdgt->ptr2WdgtRam;
 233              		.loc 1 581 0
 234 0006 038B     		ldrh	r3, [r0, #24]
 235              	.LVL29:
 582:Generated_Source\PSoC4/capsense_Processing.c ****     widgetType = ptrFlashWdgt->wdgtType;
 236              		.loc 1 582 0
 237 0008 4568     		ldr	r5, [r0, #4]
 238              	.LVL30:
 583:Generated_Source\PSoC4/capsense_Processing.c **** 
 239              		.loc 1 583 0
 240 000a 877E     		ldrb	r7, [r0, #26]
 241              	.LVL31:
 568:Generated_Source\PSoC4/capsense_Processing.c ****     uint32 widgetType;
 242              		.loc 1 568 0
 243 000c 0022     		movs	r2, #0
 244 000e 0192     		str	r2, [sp, #4]
 593:Generated_Source\PSoC4/capsense_Processing.c ****     {
 245              		.loc 1 593 0
 246 0010 0BE0     		b	.L18
 247              	.LVL32:
 248              	.L19:
 602:Generated_Source\PSoC4/capsense_Processing.c **** 
 249              		.loc 1 602 0
 250 0012 3A00     		movs	r2, r7
 251 0014 2100     		movs	r1, r4
 252 0016 2800     		movs	r0, r5
 253 0018 FFF7FEFF 		bl	capsense_FtUpdateBaseline
 254              	.LVL33:
 255 001c 0190     		str	r0, [sp, #4]
 256              	.LVL34:
 611:Generated_Source\PSoC4/capsense_Processing.c **** 
 257              		.loc 1 611 0
 258 001e 2100     		movs	r1, r4
 259 0020 2800     		movs	r0, r5
 260              	.LVL35:
 261 0022 FFF7FEFF 		bl	capsense_DpUpdateDifferences
 262              	.LVL36:
 614:Generated_Source\PSoC4/capsense_Processing.c **** 
 263              		.loc 1 614 0
 264 0026 0A34     		adds	r4, r4, #10
 265              	.LVL37:
 593:Generated_Source\PSoC4/capsense_Processing.c ****     {
 266              		.loc 1 593 0
 267 0028 3300     		movs	r3, r6
 268              	.LVL38:
 269              	.L18:
ARM GAS  C:\Users\ASUS\AppData\Local\Temp\ccuOUgOD.s 			page 31


 270 002a 5E1E     		subs	r6, r3, #1
 271              	.LVL39:
 272 002c 002B     		cmp	r3, #0
 273 002e F0D1     		bne	.L19
 621:Generated_Source\PSoC4/capsense_Processing.c **** 
 274              		.loc 1 621 0
 275 0030 0198     		ldr	r0, [sp, #4]
 276 0032 03B0     		add	sp, sp, #12
 277              		@ sp needed
 278              	.LVL40:
 279              	.LVL41:
 280              	.LVL42:
 281              	.LVL43:
 282 0034 F0BD     		pop	{r4, r5, r6, r7, pc}
 283              		.cfi_endproc
 284              	.LFE3:
 285              		.size	capsense_DpProcessCsxWidgetRawCounts, .-capsense_DpProcessCsxWidgetRawCounts
 286 0036 C046     		.section	.text.capsense_DpProcessCsxSensorRawCountsExt,"ax",%progbits
 287              		.align	2
 288              		.global	capsense_DpProcessCsxSensorRawCountsExt
 289              		.code	16
 290              		.thumb_func
 291              		.type	capsense_DpProcessCsxSensorRawCountsExt, %function
 292              	capsense_DpProcessCsxSensorRawCountsExt:
 293              	.LFB4:
 659:Generated_Source\PSoC4/capsense_Processing.c ****     uint32  result = CYRET_SUCCESS;
 294              		.loc 1 659 0
 295              		.cfi_startproc
 296              		@ args = 0, pretend = 0, frame = 0
 297              		@ frame_needed = 0, uses_anonymous_args = 0
 298              	.LVL44:
 299 0000 F8B5     		push	{r3, r4, r5, r6, r7, lr}
 300              		.cfi_def_cfa_offset 24
 301              		.cfi_offset 3, -24
 302              		.cfi_offset 4, -20
 303              		.cfi_offset 5, -16
 304              		.cfi_offset 6, -12
 305              		.cfi_offset 7, -8
 306              		.cfi_offset 14, -4
 307 0002 0E00     		movs	r6, r1
 308 0004 1C00     		movs	r4, r3
 309              	.LVL45:
 664:Generated_Source\PSoC4/capsense_Processing.c ****     ptrRamWdgt = (capsense_RAM_WD_BASE_STRUCT *)ptrFlashWdgt->ptr2WdgtRam;
 310              		.loc 1 664 0
 311 0006 827E     		ldrb	r2, [r0, #26]
 312              	.LVL46:
 665:Generated_Source\PSoC4/capsense_Processing.c **** 
 313              		.loc 1 665 0
 314 0008 4768     		ldr	r7, [r0, #4]
 315              	.LVL47:
 679:Generated_Source\PSoC4/capsense_Processing.c ****     {
 316              		.loc 1 679 0
 317 000a A307     		lsls	r3, r4, #30
 318 000c 04D5     		bpl	.L23
 319              	.LVL48:
 681:Generated_Source\PSoC4/capsense_Processing.c ****     }
 320              		.loc 1 681 0
ARM GAS  C:\Users\ASUS\AppData\Local\Temp\ccuOUgOD.s 			page 32


 321 000e 3800     		movs	r0, r7
 322              	.LVL49:
 323 0010 FFF7FEFF 		bl	capsense_FtUpdateBaseline
 324              	.LVL50:
 325 0014 0500     		movs	r5, r0
 326              	.LVL51:
 327 0016 00E0     		b	.L21
 328              	.LVL52:
 329              	.L23:
 660:Generated_Source\PSoC4/capsense_Processing.c ****     uint32  widgetType;
 330              		.loc 1 660 0
 331 0018 0025     		movs	r5, #0
 332              	.LVL53:
 333              	.L21:
 684:Generated_Source\PSoC4/capsense_Processing.c ****     {
 334              		.loc 1 684 0
 335 001a 6307     		lsls	r3, r4, #29
 336 001c 03D5     		bpl	.L22
 686:Generated_Source\PSoC4/capsense_Processing.c ****     }
 337              		.loc 1 686 0
 338 001e 3100     		movs	r1, r6
 339 0020 3800     		movs	r0, r7
 340 0022 FFF7FEFF 		bl	capsense_DpUpdateDifferences
 341              	.LVL54:
 342              	.L22:
 689:Generated_Source\PSoC4/capsense_Processing.c **** 
 343              		.loc 1 689 0
 344 0026 2800     		movs	r0, r5
 345              		@ sp needed
 346              	.LVL55:
 347              	.LVL56:
 348              	.LVL57:
 349              	.LVL58:
 350 0028 F8BD     		pop	{r3, r4, r5, r6, r7, pc}
 351              		.cfi_endproc
 352              	.LFE4:
 353              		.size	capsense_DpProcessCsxSensorRawCountsExt, .-capsense_DpProcessCsxSensorRawCountsExt
 354 002a C046     		.section	.text.capsense_DpProcessCsdWidgetRawCounts,"ax",%progbits
 355              		.align	2
 356              		.global	capsense_DpProcessCsdWidgetRawCounts
 357              		.code	16
 358              		.thumb_func
 359              		.type	capsense_DpProcessCsdWidgetRawCounts, %function
 360              	capsense_DpProcessCsdWidgetRawCounts:
 361              	.LFB6:
1017:Generated_Source\PSoC4/capsense_Processing.c ****     uint32  result = CYRET_SUCCESS;
 362              		.loc 1 1017 0
 363              		.cfi_startproc
 364              		@ args = 0, pretend = 0, frame = 8
 365              		@ frame_needed = 0, uses_anonymous_args = 0
 366              	.LVL59:
 367 0000 F0B5     		push	{r4, r5, r6, r7, lr}
 368              		.cfi_def_cfa_offset 20
 369              		.cfi_offset 4, -20
 370              		.cfi_offset 5, -16
 371              		.cfi_offset 6, -12
 372              		.cfi_offset 7, -8
ARM GAS  C:\Users\ASUS\AppData\Local\Temp\ccuOUgOD.s 			page 33


 373              		.cfi_offset 14, -4
 374 0002 83B0     		sub	sp, sp, #12
 375              		.cfi_def_cfa_offset 32
 376 0004 0700     		movs	r7, r0
 377              	.LVL60:
1047:Generated_Source\PSoC4/capsense_Processing.c ****     ptrRamWdgt = (capsense_RAM_WD_BASE_STRUCT *)ptrFlashWdgt->ptr2WdgtRam;
 378              		.loc 1 1047 0
 379 0006 8468     		ldr	r4, [r0, #8]
 380              	.LVL61:
1048:Generated_Source\PSoC4/capsense_Processing.c ****     widgetType = ptrFlashWdgt->wdgtType;
 381              		.loc 1 1048 0
 382 0008 4568     		ldr	r5, [r0, #4]
 383              	.LVL62:
1049:Generated_Source\PSoC4/capsense_Processing.c **** 
 384              		.loc 1 1049 0
 385 000a 837E     		ldrb	r3, [r0, #26]
 386 000c 0193     		str	r3, [sp, #4]
 387              	.LVL63:
1056:Generated_Source\PSoC4/capsense_Processing.c ****     {
 388              		.loc 1 1056 0
 389 000e 0026     		movs	r6, #0
1018:Generated_Source\PSoC4/capsense_Processing.c **** 
 390              		.loc 1 1018 0
 391 0010 0023     		movs	r3, #0
 392              	.LVL64:
 393 0012 0093     		str	r3, [sp]
1056:Generated_Source\PSoC4/capsense_Processing.c ****     {
 394              		.loc 1 1056 0
 395 0014 0BE0     		b	.L25
 396              	.LVL65:
 397              	.L26:
1096:Generated_Source\PSoC4/capsense_Processing.c ****         #endif /* (capsense_ENABLE == capsense_TST_BSLN_DUPLICATION_EN) */
 398              		.loc 1 1096 0 discriminator 3
 399 0016 019A     		ldr	r2, [sp, #4]
 400 0018 2100     		movs	r1, r4
 401 001a 2800     		movs	r0, r5
 402 001c FFF7FEFF 		bl	capsense_FtUpdateBaseline
 403              	.LVL66:
 404 0020 0090     		str	r0, [sp]
 405              	.LVL67:
1099:Generated_Source\PSoC4/capsense_Processing.c **** 
 406              		.loc 1 1099 0 discriminator 3
 407 0022 2100     		movs	r1, r4
 408 0024 2800     		movs	r0, r5
 409              	.LVL68:
 410 0026 FFF7FEFF 		bl	capsense_DpUpdateDifferences
 411              	.LVL69:
1102:Generated_Source\PSoC4/capsense_Processing.c **** 
 412              		.loc 1 1102 0 discriminator 3
 413 002a 0A34     		adds	r4, r4, #10
 414              	.LVL70:
1056:Generated_Source\PSoC4/capsense_Processing.c ****     {
 415              		.loc 1 1056 0 discriminator 3
 416 002c 0136     		adds	r6, r6, #1
 417              	.LVL71:
 418              	.L25:
1056:Generated_Source\PSoC4/capsense_Processing.c ****     {
ARM GAS  C:\Users\ASUS\AppData\Local\Temp\ccuOUgOD.s 			page 34


 419              		.loc 1 1056 0 is_stmt 0 discriminator 1
 420 002e 3B8B     		ldrh	r3, [r7, #24]
 421 0030 9E42     		cmp	r6, r3
 422 0032 F0D3     		bcc	.L26
1110:Generated_Source\PSoC4/capsense_Processing.c **** 
 423              		.loc 1 1110 0 is_stmt 1
 424 0034 0098     		ldr	r0, [sp]
 425 0036 03B0     		add	sp, sp, #12
 426              	.LVL72:
 427              		@ sp needed
 428              	.LVL73:
 429              	.LVL74:
 430              	.LVL75:
 431              	.LVL76:
 432 0038 F0BD     		pop	{r4, r5, r6, r7, pc}
 433              		.cfi_endproc
 434              	.LFE6:
 435              		.size	capsense_DpProcessCsdWidgetRawCounts, .-capsense_DpProcessCsdWidgetRawCounts
 436 003a C046     		.section	.text.capsense_DpProcessCsdSensorRawCountsExt,"ax",%progbits
 437              		.align	2
 438              		.global	capsense_DpProcessCsdSensorRawCountsExt
 439              		.code	16
 440              		.thumb_func
 441              		.type	capsense_DpProcessCsdSensorRawCountsExt, %function
 442              	capsense_DpProcessCsdSensorRawCountsExt:
 443              	.LFB7:
1151:Generated_Source\PSoC4/capsense_Processing.c ****     uint32 result = CYRET_SUCCESS;
 444              		.loc 1 1151 0
 445              		.cfi_startproc
 446              		@ args = 0, pretend = 0, frame = 0
 447              		@ frame_needed = 0, uses_anonymous_args = 0
 448              	.LVL77:
 449 0000 F8B5     		push	{r3, r4, r5, r6, r7, lr}
 450              		.cfi_def_cfa_offset 24
 451              		.cfi_offset 3, -24
 452              		.cfi_offset 4, -20
 453              		.cfi_offset 5, -16
 454              		.cfi_offset 6, -12
 455              		.cfi_offset 7, -8
 456              		.cfi_offset 14, -4
 457 0002 0E00     		movs	r6, r1
 458 0004 1C00     		movs	r4, r3
 459              	.LVL78:
1166:Generated_Source\PSoC4/capsense_Processing.c ****     ptrRamWdgt = (capsense_RAM_WD_BASE_STRUCT *)ptrFlashWdgt->ptr2WdgtRam;
 460              		.loc 1 1166 0
 461 0006 827E     		ldrb	r2, [r0, #26]
 462              	.LVL79:
1167:Generated_Source\PSoC4/capsense_Processing.c **** 
 463              		.loc 1 1167 0
 464 0008 4768     		ldr	r7, [r0, #4]
 465              	.LVL80:
1207:Generated_Source\PSoC4/capsense_Processing.c ****     {
 466              		.loc 1 1207 0
 467 000a A307     		lsls	r3, r4, #30
 468 000c 04D5     		bpl	.L30
 469              	.LVL81:
1209:Generated_Source\PSoC4/capsense_Processing.c ****     }
ARM GAS  C:\Users\ASUS\AppData\Local\Temp\ccuOUgOD.s 			page 35


 470              		.loc 1 1209 0
 471 000e 3800     		movs	r0, r7
 472              	.LVL82:
 473 0010 FFF7FEFF 		bl	capsense_FtUpdateBaseline
 474              	.LVL83:
 475 0014 0500     		movs	r5, r0
 476              	.LVL84:
 477 0016 00E0     		b	.L28
 478              	.LVL85:
 479              	.L30:
1152:Generated_Source\PSoC4/capsense_Processing.c ****     uint32  widgetType;
 480              		.loc 1 1152 0
 481 0018 0025     		movs	r5, #0
 482              	.LVL86:
 483              	.L28:
1212:Generated_Source\PSoC4/capsense_Processing.c ****     {
 484              		.loc 1 1212 0
 485 001a 6307     		lsls	r3, r4, #29
 486 001c 03D5     		bpl	.L29
1214:Generated_Source\PSoC4/capsense_Processing.c ****     }
 487              		.loc 1 1214 0
 488 001e 3100     		movs	r1, r6
 489 0020 3800     		movs	r0, r7
 490 0022 FFF7FEFF 		bl	capsense_DpUpdateDifferences
 491              	.LVL87:
 492              	.L29:
1217:Generated_Source\PSoC4/capsense_Processing.c **** 
 493              		.loc 1 1217 0
 494 0026 2800     		movs	r0, r5
 495              		@ sp needed
 496              	.LVL88:
 497              	.LVL89:
 498              	.LVL90:
 499              	.LVL91:
 500 0028 F8BD     		pop	{r3, r4, r5, r6, r7, pc}
 501              		.cfi_endproc
 502              	.LFE7:
 503              		.size	capsense_DpProcessCsdSensorRawCountsExt, .-capsense_DpProcessCsdSensorRawCountsExt
 504 002a C046     		.section	.text.capsense_DpProcessButton,"ax",%progbits
 505              		.align	2
 506              		.global	capsense_DpProcessButton
 507              		.code	16
 508              		.thumb_func
 509              		.type	capsense_DpProcessButton, %function
 510              	capsense_DpProcessButton:
 511              	.LFB10:
1422:Generated_Source\PSoC4/capsense_Processing.c **** 
1423:Generated_Source\PSoC4/capsense_Processing.c **** 
1424:Generated_Source\PSoC4/capsense_Processing.c **** #if ((0u != capsense_BUTTON_WIDGET_EN) || (0u != capsense_CSX_MATRIX_WIDGET_EN))
1425:Generated_Source\PSoC4/capsense_Processing.c **** /*******************************************************************************
1426:Generated_Source\PSoC4/capsense_Processing.c **** * Function Name: capsense_DpProcessButton
1427:Generated_Source\PSoC4/capsense_Processing.c **** ****************************************************************************//**
1428:Generated_Source\PSoC4/capsense_Processing.c **** *
1429:Generated_Source\PSoC4/capsense_Processing.c **** * \brief
1430:Generated_Source\PSoC4/capsense_Processing.c **** *   Processes the status of the Button widget.
1431:Generated_Source\PSoC4/capsense_Processing.c **** *
1432:Generated_Source\PSoC4/capsense_Processing.c **** * \details
ARM GAS  C:\Users\ASUS\AppData\Local\Temp\ccuOUgOD.s 			page 36


1433:Generated_Source\PSoC4/capsense_Processing.c **** *   This API processes the status of the CSD/CSX Button widget and
1434:Generated_Source\PSoC4/capsense_Processing.c **** *   CSX Matrix Button widget. It applies the hysteresis and de-bounce algorithm
1435:Generated_Source\PSoC4/capsense_Processing.c **** *   to each sensor difference value. This API is expected to be called
1436:Generated_Source\PSoC4/capsense_Processing.c **** *   after each new widget scan. If it is called multiple times for the same
1437:Generated_Source\PSoC4/capsense_Processing.c **** *   scan data, the de-bounce algorithm will not work properly.
1438:Generated_Source\PSoC4/capsense_Processing.c **** *
1439:Generated_Source\PSoC4/capsense_Processing.c **** *   This API does not update any Data Structure registers
1440:Generated_Source\PSoC4/capsense_Processing.c **** *   except the de-bounce counters.
1441:Generated_Source\PSoC4/capsense_Processing.c **** *
1442:Generated_Source\PSoC4/capsense_Processing.c **** * \param currStatus   The current status of the widget sensors.
1443:Generated_Source\PSoC4/capsense_Processing.c **** * \param ptrFlashWdgt The pointer to the Flash Widget Object.
1444:Generated_Source\PSoC4/capsense_Processing.c **** *
1445:Generated_Source\PSoC4/capsense_Processing.c **** * \return Returns the status of the widget's sensors. Bit #0 - corresponds to Sensor #0.
1446:Generated_Source\PSoC4/capsense_Processing.c **** *
1447:Generated_Source\PSoC4/capsense_Processing.c **** *******************************************************************************/
1448:Generated_Source\PSoC4/capsense_Processing.c **** uint32 capsense_DpProcessButton(uint32 currStatus, capsense_FLASH_WD_STRUCT const *ptrFlashWdgt)
1449:Generated_Source\PSoC4/capsense_Processing.c **** {
 512              		.loc 1 1449 0
 513              		.cfi_startproc
 514              		@ args = 0, pretend = 0, frame = 0
 515              		@ frame_needed = 0, uses_anonymous_args = 0
 516              	.LVL92:
 517 0000 F0B5     		push	{r4, r5, r6, r7, lr}
 518              		.cfi_def_cfa_offset 20
 519              		.cfi_offset 4, -20
 520              		.cfi_offset 5, -16
 521              		.cfi_offset 6, -12
 522              		.cfi_offset 7, -8
 523              		.cfi_offset 14, -4
1450:Generated_Source\PSoC4/capsense_Processing.c ****     uint32 snsCnt;
1451:Generated_Source\PSoC4/capsense_Processing.c ****     uint32 snsMask;
1452:Generated_Source\PSoC4/capsense_Processing.c ****     uint32 newStatus;
1453:Generated_Source\PSoC4/capsense_Processing.c ****     uint32 touchTh;
1454:Generated_Source\PSoC4/capsense_Processing.c ****     capsense_RAM_SNS_STRUCT *ptrSnsTmp;
1455:Generated_Source\PSoC4/capsense_Processing.c ****     capsense_RAM_WD_BASE_STRUCT *ptrRamWdgt;
1456:Generated_Source\PSoC4/capsense_Processing.c ****     uint8 * ptrDebounceCnt;
1457:Generated_Source\PSoC4/capsense_Processing.c **** 
1458:Generated_Source\PSoC4/capsense_Processing.c ****     snsCnt = ptrFlashWdgt->totalNumSns;
 524              		.loc 1 1458 0
 525 0002 0A8B     		ldrh	r2, [r1, #24]
 526              	.LVL93:
1459:Generated_Source\PSoC4/capsense_Processing.c ****     ptrSnsTmp = ptrFlashWdgt->ptr2SnsRam;
 527              		.loc 1 1459 0
 528 0004 8D68     		ldr	r5, [r1, #8]
 529              	.LVL94:
1460:Generated_Source\PSoC4/capsense_Processing.c ****     ptrRamWdgt = (capsense_RAM_WD_BASE_STRUCT *)ptrFlashWdgt->ptr2WdgtRam;
 530              		.loc 1 1460 0
 531 0006 4F68     		ldr	r7, [r1, #4]
 532              	.LVL95:
1461:Generated_Source\PSoC4/capsense_Processing.c ****     ptrDebounceCnt = ptrFlashWdgt->ptr2DebounceArr;
 533              		.loc 1 1461 0
 534 0008 0B69     		ldr	r3, [r1, #16]
 535              	.LVL96:
1462:Generated_Source\PSoC4/capsense_Processing.c **** 
1463:Generated_Source\PSoC4/capsense_Processing.c ****     /* Go through all widget's sensors */
1464:Generated_Source\PSoC4/capsense_Processing.c ****     snsMask = 1Lu;
 536              		.loc 1 1464 0
ARM GAS  C:\Users\ASUS\AppData\Local\Temp\ccuOUgOD.s 			page 37


 537 000a 0121     		movs	r1, #1
 538              	.LVL97:
1465:Generated_Source\PSoC4/capsense_Processing.c ****     for (; snsCnt-- > 0u; )
 539              		.loc 1 1465 0
 540 000c 25E0     		b	.L32
 541              	.LVL98:
 542              	.L40:
1466:Generated_Source\PSoC4/capsense_Processing.c ****     {
1467:Generated_Source\PSoC4/capsense_Processing.c ****         /* Calculate touch threshold taking into account hysteresis
1468:Generated_Source\PSoC4/capsense_Processing.c ****            and current sensor state. */
1469:Generated_Source\PSoC4/capsense_Processing.c ****         touchTh = (0u == (currStatus & snsMask)) ?
 543              		.loc 1 1469 0
 544 000e 0C00     		movs	r4, r1
 545              	.LVL99:
 546 0010 0440     		ands	r4, r0
1470:Generated_Source\PSoC4/capsense_Processing.c ****                   ((uint32)ptrRamWdgt->fingerTh + ptrRamWdgt->hysteresis) :
 547              		.loc 1 1470 0
 548 0012 03D1     		bne	.L33
 549              		.loc 1 1470 0 is_stmt 0 discriminator 1
 550 0014 7E88     		ldrh	r6, [r7, #2]
 551 0016 BA79     		ldrb	r2, [r7, #6]
 552 0018 B218     		adds	r2, r6, r2
 553 001a 02E0     		b	.L34
 554              	.L33:
1471:Generated_Source\PSoC4/capsense_Processing.c ****                   ((uint32)ptrRamWdgt->fingerTh - ptrRamWdgt->hysteresis);
 555              		.loc 1 1471 0 is_stmt 1 discriminator 2
 556 001c 7A88     		ldrh	r2, [r7, #2]
 557 001e BE79     		ldrb	r6, [r7, #6]
1470:Generated_Source\PSoC4/capsense_Processing.c ****                   ((uint32)ptrRamWdgt->fingerTh + ptrRamWdgt->hysteresis) :
 558              		.loc 1 1470 0 discriminator 2
 559 0020 921B     		subs	r2, r2, r6
 560              	.L34:
 561              	.LVL100:
1472:Generated_Source\PSoC4/capsense_Processing.c **** 
1473:Generated_Source\PSoC4/capsense_Processing.c ****         /* Determine new potential sensor state */
1474:Generated_Source\PSoC4/capsense_Processing.c ****         newStatus = (ptrSnsTmp->diff > touchTh) ? snsMask : 0u;
 562              		.loc 1 1474 0
 563 0022 EE88     		ldrh	r6, [r5, #6]
 564 0024 B242     		cmp	r2, r6
 565 0026 01D3     		bcc	.L41
 566 0028 0022     		movs	r2, #0
 567              	.LVL101:
 568 002a 00E0     		b	.L35
 569              	.LVL102:
 570              	.L41:
 571 002c 0A00     		movs	r2, r1
 572              	.LVL103:
 573              	.L35:
1475:Generated_Source\PSoC4/capsense_Processing.c **** 
1476:Generated_Source\PSoC4/capsense_Processing.c ****         /* Sensor state changed ? */
1477:Generated_Source\PSoC4/capsense_Processing.c ****         if (newStatus != (currStatus & snsMask))
 574              		.loc 1 1477 0 discriminator 4
 575 002e A242     		cmp	r2, r4
 576 0030 02D0     		beq	.L36
1478:Generated_Source\PSoC4/capsense_Processing.c ****         {
1479:Generated_Source\PSoC4/capsense_Processing.c ****             /* Decrement de-bounce counter */
1480:Generated_Source\PSoC4/capsense_Processing.c ****             (*ptrDebounceCnt)--;
ARM GAS  C:\Users\ASUS\AppData\Local\Temp\ccuOUgOD.s 			page 38


 577              		.loc 1 1480 0
 578 0032 1E78     		ldrb	r6, [r3]
 579 0034 013E     		subs	r6, r6, #1
 580 0036 1E70     		strb	r6, [r3]
 581              	.L36:
1481:Generated_Source\PSoC4/capsense_Processing.c ****         }
1482:Generated_Source\PSoC4/capsense_Processing.c **** 
1483:Generated_Source\PSoC4/capsense_Processing.c ****         /*
1484:Generated_Source\PSoC4/capsense_Processing.c ****         *  This piece of code has two objectives:
1485:Generated_Source\PSoC4/capsense_Processing.c ****         *  1. Reset de-bounce counter if the sensor state did not change.
1486:Generated_Source\PSoC4/capsense_Processing.c ****         *     (It is possible that during previous processing cycles sensor
1487:Generated_Source\PSoC4/capsense_Processing.c ****         *     was active and de-bounce counter was decremented.)
1488:Generated_Source\PSoC4/capsense_Processing.c ****         *  2. Set new sensor state after successful de-bounce.
1489:Generated_Source\PSoC4/capsense_Processing.c ****         */
1490:Generated_Source\PSoC4/capsense_Processing.c ****         if ((newStatus == (currStatus & snsMask)) || (0u == (*ptrDebounceCnt)))
 582              		.loc 1 1490 0
 583 0038 A242     		cmp	r2, r4
 584 003a 02D0     		beq	.L37
 585              		.loc 1 1490 0 is_stmt 0 discriminator 1
 586 003c 1C78     		ldrb	r4, [r3]
 587 003e 002C     		cmp	r4, #0
 588 0040 07D1     		bne	.L38
 589              	.L37:
1491:Generated_Source\PSoC4/capsense_Processing.c ****         {
1492:Generated_Source\PSoC4/capsense_Processing.c ****             /* Set new sensor status */
1493:Generated_Source\PSoC4/capsense_Processing.c ****             currStatus &= ~snsMask;
 590              		.loc 1 1493 0 is_stmt 1
 591 0042 8843     		bics	r0, r1
 592              	.LVL104:
1494:Generated_Source\PSoC4/capsense_Processing.c ****             currStatus |= newStatus;
 593              		.loc 1 1494 0
 594 0044 1043     		orrs	r0, r2
 595              	.LVL105:
1495:Generated_Source\PSoC4/capsense_Processing.c **** 
1496:Generated_Source\PSoC4/capsense_Processing.c ****             /* Reset de-bounce counter */
1497:Generated_Source\PSoC4/capsense_Processing.c ****             #if (0u != capsense_OFF_DEBOUNCE_EN)
1498:Generated_Source\PSoC4/capsense_Processing.c ****                 *ptrDebounceCnt = (0Lu == newStatus) ? ptrRamWdgt->onDebounce : ptrRamWdgt->offDebo
1499:Generated_Source\PSoC4/capsense_Processing.c ****             #else
1500:Generated_Source\PSoC4/capsense_Processing.c ****                 *ptrDebounceCnt = (0Lu == newStatus) ? ptrRamWdgt->onDebounce : DEFAULT_OFF_DEBOUNC
 596              		.loc 1 1500 0
 597 0046 002A     		cmp	r2, #0
 598 0048 01D1     		bne	.L42
 599              		.loc 1 1500 0 is_stmt 0 discriminator 1
 600 004a FA79     		ldrb	r2, [r7, #7]
 601              	.LVL106:
 602 004c 00E0     		b	.L39
 603              	.LVL107:
 604              	.L42:
 605              		.loc 1 1500 0
 606 004e 0122     		movs	r2, #1
 607              	.LVL108:
 608              	.L39:
 609              		.loc 1 1500 0 discriminator 4
 610 0050 1A70     		strb	r2, [r3]
 611              	.L38:
1501:Generated_Source\PSoC4/capsense_Processing.c ****             #endif /* #if (0u != capsense_OFF_DEBOUNCE_EN) */
1502:Generated_Source\PSoC4/capsense_Processing.c ****         }
ARM GAS  C:\Users\ASUS\AppData\Local\Temp\ccuOUgOD.s 			page 39


1503:Generated_Source\PSoC4/capsense_Processing.c **** 
1504:Generated_Source\PSoC4/capsense_Processing.c ****         /* Move mask to the next sensor */
1505:Generated_Source\PSoC4/capsense_Processing.c ****         snsMask <<= 1u;
 612              		.loc 1 1505 0 is_stmt 1
 613 0052 4900     		lsls	r1, r1, #1
 614              	.LVL109:
1506:Generated_Source\PSoC4/capsense_Processing.c **** 
1507:Generated_Source\PSoC4/capsense_Processing.c ****         ptrSnsTmp++;
 615              		.loc 1 1507 0
 616 0054 0A35     		adds	r5, r5, #10
 617              	.LVL110:
1508:Generated_Source\PSoC4/capsense_Processing.c ****         ptrDebounceCnt++;
 618              		.loc 1 1508 0
 619 0056 0133     		adds	r3, r3, #1
 620              	.LVL111:
1465:Generated_Source\PSoC4/capsense_Processing.c ****     {
 621              		.loc 1 1465 0
 622 0058 6246     		mov	r2, ip
 623              	.LVL112:
 624              	.L32:
 625 005a 541E     		subs	r4, r2, #1
 626 005c A446     		mov	ip, r4
 627              	.LVL113:
 628 005e 002A     		cmp	r2, #0
 629 0060 D5D1     		bne	.L40
1509:Generated_Source\PSoC4/capsense_Processing.c ****     }
1510:Generated_Source\PSoC4/capsense_Processing.c **** 
1511:Generated_Source\PSoC4/capsense_Processing.c ****     return currStatus;
1512:Generated_Source\PSoC4/capsense_Processing.c **** }
 630              		.loc 1 1512 0
 631              		@ sp needed
 632              	.LVL114:
 633              	.LVL115:
 634              	.LVL116:
 635 0062 F0BD     		pop	{r4, r5, r6, r7, pc}
 636              		.cfi_endproc
 637              	.LFE10:
 638              		.size	capsense_DpProcessButton, .-capsense_DpProcessButton
 639              		.section	.text.capsense_DpProcessCsxWidgetStatus,"ax",%progbits
 640              		.align	2
 641              		.global	capsense_DpProcessCsxWidgetStatus
 642              		.code	16
 643              		.thumb_func
 644              		.type	capsense_DpProcessCsxWidgetStatus, %function
 645              	capsense_DpProcessCsxWidgetStatus:
 646              	.LFB5:
 718:Generated_Source\PSoC4/capsense_Processing.c ****     uint32 sensorStatus;
 647              		.loc 1 718 0
 648              		.cfi_startproc
 649              		@ args = 0, pretend = 0, frame = 0
 650              		@ frame_needed = 0, uses_anonymous_args = 0
 651              	.LVL117:
 652 0000 70B5     		push	{r4, r5, r6, lr}
 653              		.cfi_def_cfa_offset 16
 654              		.cfi_offset 4, -16
 655              		.cfi_offset 5, -12
 656              		.cfi_offset 6, -8
ARM GAS  C:\Users\ASUS\AppData\Local\Temp\ccuOUgOD.s 			page 40


 657              		.cfi_offset 14, -4
 658 0002 0400     		movs	r4, r0
 724:Generated_Source\PSoC4/capsense_Processing.c ****     sensorStatus = capsense_dsRam.snsStatus[widgetId];
 659              		.loc 1 724 0
 660 0004 8A7E     		ldrb	r2, [r1, #26]
 661              	.LVL118:
 725:Generated_Source\PSoC4/capsense_Processing.c **** 
 662              		.loc 1 725 0
 663 0006 134B     		ldr	r3, .L50
 664 0008 1B18     		adds	r3, r3, r0
 665 000a 1D7E     		ldrb	r5, [r3, #24]
 666              	.LVL119:
 727:Generated_Source\PSoC4/capsense_Processing.c ****     {
 667              		.loc 1 727 0
 668 000c 012A     		cmp	r2, #1
 669 000e 04D1     		bne	.L49
 731:Generated_Source\PSoC4/capsense_Processing.c ****             break;
 670              		.loc 1 731 0
 671 0010 2800     		movs	r0, r5
 672              	.LVL120:
 673 0012 FFF7FEFF 		bl	capsense_DpProcessButton
 674              	.LVL121:
 675 0016 0500     		movs	r5, r0
 676              	.LVL122:
 732:Generated_Source\PSoC4/capsense_Processing.c ****     #endif /* #if (0u != capsense_BUTTON_WIDGET_EN) */
 677              		.loc 1 732 0
 678 0018 02E0     		b	.L46
 679              	.LVL123:
 680              	.L49:
 748:Generated_Source\PSoC4/capsense_Processing.c ****         break;
 681              		.loc 1 748 0 discriminator 1
 682 001a 0020     		movs	r0, #0
 683              	.LVL124:
 684 001c FFF7FEFF 		bl	CyHalt
 685              	.LVL125:
 686              	.L46:
 753:Generated_Source\PSoC4/capsense_Processing.c **** 
 687              		.loc 1 753 0
 688 0020 0C4B     		ldr	r3, .L50
 689 0022 1B19     		adds	r3, r3, r4
 690 0024 1D76     		strb	r5, [r3, #24]
 756:Generated_Source\PSoC4/capsense_Processing.c ****     wdStatusMask = capsense_GET_WDGT_STATUS_MASK(widgetId);
 691              		.loc 1 756 0
 692 0026 6309     		lsrs	r3, r4, #5
 693              	.LVL126:
 757:Generated_Source\PSoC4/capsense_Processing.c **** 
 694              		.loc 1 757 0
 695 0028 1F22     		movs	r2, #31
 696 002a 1440     		ands	r4, r2
 697              	.LVL127:
 698 002c 1E3A     		subs	r2, r2, #30
 699 002e A240     		lsls	r2, r2, r4
 700              	.LVL128:
 760:Generated_Source\PSoC4/capsense_Processing.c ****     {
 701              		.loc 1 760 0
 702 0030 002D     		cmp	r5, #0
 703 0032 07D1     		bne	.L47
ARM GAS  C:\Users\ASUS\AppData\Local\Temp\ccuOUgOD.s 			page 41


 762:Generated_Source\PSoC4/capsense_Processing.c ****     }
 704              		.loc 1 762 0
 705 0034 0433     		adds	r3, r3, #4
 706              	.LVL129:
 707 0036 9B00     		lsls	r3, r3, #2
 708              	.LVL130:
 709 0038 0649     		ldr	r1, .L50
 710 003a CB18     		adds	r3, r1, r3
 711 003c 5968     		ldr	r1, [r3, #4]
 712 003e 9143     		bics	r1, r2
 713 0040 5960     		str	r1, [r3, #4]
 714 0042 06E0     		b	.L43
 715              	.LVL131:
 716              	.L47:
 766:Generated_Source\PSoC4/capsense_Processing.c ****     }
 717              		.loc 1 766 0
 718 0044 0433     		adds	r3, r3, #4
 719              	.LVL132:
 720 0046 9B00     		lsls	r3, r3, #2
 721              	.LVL133:
 722 0048 0249     		ldr	r1, .L50
 723 004a CB18     		adds	r3, r1, r3
 724 004c 5968     		ldr	r1, [r3, #4]
 725 004e 0A43     		orrs	r2, r1
 726              	.LVL134:
 727 0050 5A60     		str	r2, [r3, #4]
 728              	.L43:
 768:Generated_Source\PSoC4/capsense_Processing.c **** #endif /* #if capsense_TOTAL_CSX_WIDGETS */
 729              		.loc 1 768 0
 730              		@ sp needed
 731              	.LVL135:
 732              	.LVL136:
 733 0052 70BD     		pop	{r4, r5, r6, pc}
 734              	.L51:
 735              		.align	2
 736              	.L50:
 737 0054 00000000 		.word	capsense_dsRam
 738              		.cfi_endproc
 739              	.LFE5:
 740              		.size	capsense_DpProcessCsxWidgetStatus, .-capsense_DpProcessCsxWidgetStatus
 741              		.section	.text.capsense_DpProcessSlider,"ax",%progbits
 742              		.align	2
 743              		.global	capsense_DpProcessSlider
 744              		.code	16
 745              		.thumb_func
 746              		.type	capsense_DpProcessSlider, %function
 747              	capsense_DpProcessSlider:
 748              	.LFB11:
1513:Generated_Source\PSoC4/capsense_Processing.c **** #endif /* #if ((0u != capsense_BUTTON_WIDGET_EN) || (0u != capsense_CSX_MATRIX_WIDGET_EN)) */
1514:Generated_Source\PSoC4/capsense_Processing.c **** 
1515:Generated_Source\PSoC4/capsense_Processing.c **** 
1516:Generated_Source\PSoC4/capsense_Processing.c **** #if (0u != capsense_PROXIMITY_WIDGET_EN)
1517:Generated_Source\PSoC4/capsense_Processing.c **** /*******************************************************************************
1518:Generated_Source\PSoC4/capsense_Processing.c **** * Function Name: capsense_DpProcessProximity
1519:Generated_Source\PSoC4/capsense_Processing.c **** ****************************************************************************//**
1520:Generated_Source\PSoC4/capsense_Processing.c **** *
1521:Generated_Source\PSoC4/capsense_Processing.c **** * \brief
ARM GAS  C:\Users\ASUS\AppData\Local\Temp\ccuOUgOD.s 			page 42


1522:Generated_Source\PSoC4/capsense_Processing.c **** *   Processes the status of the Proximity widget.
1523:Generated_Source\PSoC4/capsense_Processing.c **** *
1524:Generated_Source\PSoC4/capsense_Processing.c **** * \details
1525:Generated_Source\PSoC4/capsense_Processing.c **** *   This API processes the status of the CSD Proximity widget. It applies the
1526:Generated_Source\PSoC4/capsense_Processing.c **** *   hysteresis and debounce algorithm to each sensor difference value.
1527:Generated_Source\PSoC4/capsense_Processing.c **** *   The proximity and touch events are considered independently so debounce and
1528:Generated_Source\PSoC4/capsense_Processing.c **** *   hysteresis are also applied independently.
1529:Generated_Source\PSoC4/capsense_Processing.c **** *
1530:Generated_Source\PSoC4/capsense_Processing.c **** *   This API is expected to be called after each new widget scan. If it is
1531:Generated_Source\PSoC4/capsense_Processing.c **** *   called multiple times for the same scan data the debounce algorithm
1532:Generated_Source\PSoC4/capsense_Processing.c **** *   will not work properly.
1533:Generated_Source\PSoC4/capsense_Processing.c **** *
1534:Generated_Source\PSoC4/capsense_Processing.c **** *   This API does not update any Data Structure registers
1535:Generated_Source\PSoC4/capsense_Processing.c **** *   except the debounce counters.
1536:Generated_Source\PSoC4/capsense_Processing.c **** *
1537:Generated_Source\PSoC4/capsense_Processing.c **** * \param currStatus   The value with the current widget status.
1538:Generated_Source\PSoC4/capsense_Processing.c **** * \param ptrFlashWdgt The pointer to the Flash Widget Object.
1539:Generated_Source\PSoC4/capsense_Processing.c **** *
1540:Generated_Source\PSoC4/capsense_Processing.c **** * \return
1541:Generated_Source\PSoC4/capsense_Processing.c **** *  Returns the status of the proximity sensors. Each sensor is represented by two bits
1542:Generated_Source\PSoC4/capsense_Processing.c **** *  that can take the following values:
1543:Generated_Source\PSoC4/capsense_Processing.c **** *   - 00b not active
1544:Generated_Source\PSoC4/capsense_Processing.c **** *   - 01b proximity is detected (signal is above finger threshold)
1545:Generated_Source\PSoC4/capsense_Processing.c **** *   - 11b finger touch is detected (signal is above the touch threshold)
1546:Generated_Source\PSoC4/capsense_Processing.c **** *
1547:Generated_Source\PSoC4/capsense_Processing.c **** *******************************************************************************/
1548:Generated_Source\PSoC4/capsense_Processing.c **** uint32 capsense_DpProcessProximity(uint32 currStatus, capsense_FLASH_WD_STRUCT const *ptrFlashWdgt)
1549:Generated_Source\PSoC4/capsense_Processing.c **** {
1550:Generated_Source\PSoC4/capsense_Processing.c ****     uint32 currTh;
1551:Generated_Source\PSoC4/capsense_Processing.c ****     uint32 snsCnt;
1552:Generated_Source\PSoC4/capsense_Processing.c ****     uint32 snsMask;
1553:Generated_Source\PSoC4/capsense_Processing.c ****     uint32 newStatus;
1554:Generated_Source\PSoC4/capsense_Processing.c ****     uint32 difference;
1555:Generated_Source\PSoC4/capsense_Processing.c **** 
1556:Generated_Source\PSoC4/capsense_Processing.c ****     uint8 *ptrDebounceCnt;
1557:Generated_Source\PSoC4/capsense_Processing.c ****     capsense_RAM_SNS_STRUCT *ptrSnsTmp;
1558:Generated_Source\PSoC4/capsense_Processing.c ****     capsense_RAM_WD_PROXIMITY_STRUCT *ptrRamWdgt;
1559:Generated_Source\PSoC4/capsense_Processing.c **** 
1560:Generated_Source\PSoC4/capsense_Processing.c ****     /* Mask for proximity status bits. (All odd bits.) */
1561:Generated_Source\PSoC4/capsense_Processing.c ****     const uint32 proxMask = UINT32_ODD_BITS_CONST;
1562:Generated_Source\PSoC4/capsense_Processing.c **** 
1563:Generated_Source\PSoC4/capsense_Processing.c ****     ptrSnsTmp = ptrFlashWdgt->ptr2SnsRam;
1564:Generated_Source\PSoC4/capsense_Processing.c ****     ptrRamWdgt = (capsense_RAM_WD_PROXIMITY_STRUCT *)ptrFlashWdgt->ptr2WdgtRam;
1565:Generated_Source\PSoC4/capsense_Processing.c ****     ptrDebounceCnt = ptrFlashWdgt->ptr2DebounceArr;
1566:Generated_Source\PSoC4/capsense_Processing.c **** 
1567:Generated_Source\PSoC4/capsense_Processing.c ****     /* Get number of sensors and multiply it by 2 - proximity and touch statuses per sensor. */
1568:Generated_Source\PSoC4/capsense_Processing.c ****     snsCnt = (uint32)ptrFlashWdgt->totalNumSns << 1u;
1569:Generated_Source\PSoC4/capsense_Processing.c **** 
1570:Generated_Source\PSoC4/capsense_Processing.c ****     /* Go through all sensor's status bits */
1571:Generated_Source\PSoC4/capsense_Processing.c ****     snsMask = 1Lu;
1572:Generated_Source\PSoC4/capsense_Processing.c ****     for (; snsCnt-- > 0u;)
1573:Generated_Source\PSoC4/capsense_Processing.c ****     {
1574:Generated_Source\PSoC4/capsense_Processing.c ****         difference = ptrSnsTmp->diff;
1575:Generated_Source\PSoC4/capsense_Processing.c **** 
1576:Generated_Source\PSoC4/capsense_Processing.c ****         /* Determine current event (proximity - odd; touch - even) and get appropriate threshold. *
1577:Generated_Source\PSoC4/capsense_Processing.c ****         currTh = ptrRamWdgt->fingerTh;
1578:Generated_Source\PSoC4/capsense_Processing.c **** 
ARM GAS  C:\Users\ASUS\AppData\Local\Temp\ccuOUgOD.s 			page 43


1579:Generated_Source\PSoC4/capsense_Processing.c ****         if (0u == (snsMask & proxMask))
1580:Generated_Source\PSoC4/capsense_Processing.c ****         {
1581:Generated_Source\PSoC4/capsense_Processing.c ****             currTh = ptrRamWdgt->proxTouchTh;
1582:Generated_Source\PSoC4/capsense_Processing.c ****             ptrSnsTmp++;
1583:Generated_Source\PSoC4/capsense_Processing.c ****         }
1584:Generated_Source\PSoC4/capsense_Processing.c **** 
1585:Generated_Source\PSoC4/capsense_Processing.c ****         /* Calculate finger threshold applying hysteresis based on current sensor state. */
1586:Generated_Source\PSoC4/capsense_Processing.c ****         currTh = (0u == (currStatus & snsMask)) ? (currTh + ptrRamWdgt->hysteresis) : (currTh - ptr
1587:Generated_Source\PSoC4/capsense_Processing.c **** 
1588:Generated_Source\PSoC4/capsense_Processing.c ****         /* Determine new potential sensor state before de-bounce */
1589:Generated_Source\PSoC4/capsense_Processing.c ****         newStatus = (difference > currTh) ? snsMask : 0Lu;
1590:Generated_Source\PSoC4/capsense_Processing.c **** 
1591:Generated_Source\PSoC4/capsense_Processing.c ****         /* Sensor state changed ? */
1592:Generated_Source\PSoC4/capsense_Processing.c ****         if (newStatus != (currStatus & snsMask))
1593:Generated_Source\PSoC4/capsense_Processing.c ****         {
1594:Generated_Source\PSoC4/capsense_Processing.c ****             /* Decrement de-bounce counter */
1595:Generated_Source\PSoC4/capsense_Processing.c ****             (*ptrDebounceCnt)--;
1596:Generated_Source\PSoC4/capsense_Processing.c ****         }
1597:Generated_Source\PSoC4/capsense_Processing.c **** 
1598:Generated_Source\PSoC4/capsense_Processing.c ****         /*
1599:Generated_Source\PSoC4/capsense_Processing.c ****         *  This piece of code has two objectives:
1600:Generated_Source\PSoC4/capsense_Processing.c ****         *  1. Reset de-bounce counter if new sensor state has not changed.
1601:Generated_Source\PSoC4/capsense_Processing.c ****         *     (It is possible that during previous processing cycles the sensor
1602:Generated_Source\PSoC4/capsense_Processing.c ****         *     state was different which caused de-bounce counter change.)
1603:Generated_Source\PSoC4/capsense_Processing.c ****         *  2. Set new sensor state after successful de-bounce.
1604:Generated_Source\PSoC4/capsense_Processing.c ****         */
1605:Generated_Source\PSoC4/capsense_Processing.c ****         if ((newStatus == (currStatus & snsMask)) || (0u == (*ptrDebounceCnt)))
1606:Generated_Source\PSoC4/capsense_Processing.c ****         {
1607:Generated_Source\PSoC4/capsense_Processing.c ****             /* Set new sensor status */
1608:Generated_Source\PSoC4/capsense_Processing.c ****             currStatus &= ~snsMask;
1609:Generated_Source\PSoC4/capsense_Processing.c ****             currStatus |= newStatus;
1610:Generated_Source\PSoC4/capsense_Processing.c **** 
1611:Generated_Source\PSoC4/capsense_Processing.c ****             /* Reset de-bounce counter */
1612:Generated_Source\PSoC4/capsense_Processing.c ****             #if (0u != capsense_OFF_DEBOUNCE_EN)
1613:Generated_Source\PSoC4/capsense_Processing.c ****                 *ptrDebounceCnt = (0Lu == newStatus) ? ptrRamWdgt->onDebounce : ptrRamWdgt->offDebo
1614:Generated_Source\PSoC4/capsense_Processing.c ****             #else
1615:Generated_Source\PSoC4/capsense_Processing.c ****                 *ptrDebounceCnt = (0Lu == newStatus) ? ptrRamWdgt->onDebounce : DEFAULT_OFF_DEBOUNC
1616:Generated_Source\PSoC4/capsense_Processing.c ****             #endif /* #if (0u != capsense_OFF_DEBOUNCE_EN) */
1617:Generated_Source\PSoC4/capsense_Processing.c ****         }
1618:Generated_Source\PSoC4/capsense_Processing.c **** 
1619:Generated_Source\PSoC4/capsense_Processing.c ****         ptrDebounceCnt++;
1620:Generated_Source\PSoC4/capsense_Processing.c **** 
1621:Generated_Source\PSoC4/capsense_Processing.c ****         /* Move sensor mask to the next sensor */
1622:Generated_Source\PSoC4/capsense_Processing.c ****         snsMask <<= 1u;
1623:Generated_Source\PSoC4/capsense_Processing.c ****     }
1624:Generated_Source\PSoC4/capsense_Processing.c **** 
1625:Generated_Source\PSoC4/capsense_Processing.c ****     return currStatus;
1626:Generated_Source\PSoC4/capsense_Processing.c **** }
1627:Generated_Source\PSoC4/capsense_Processing.c **** #endif /* (0u != capsense_PROXIMITY_WIDGET_EN) */
1628:Generated_Source\PSoC4/capsense_Processing.c **** 
1629:Generated_Source\PSoC4/capsense_Processing.c **** 
1630:Generated_Source\PSoC4/capsense_Processing.c **** #if (0u != capsense_ENCODERDIAL_WIDGET_EN)
1631:Generated_Source\PSoC4/capsense_Processing.c **** /*******************************************************************************
1632:Generated_Source\PSoC4/capsense_Processing.c **** * Function Name: capsense_DpProcessEncoderDial
1633:Generated_Source\PSoC4/capsense_Processing.c **** ****************************************************************************//**
1634:Generated_Source\PSoC4/capsense_Processing.c **** *
1635:Generated_Source\PSoC4/capsense_Processing.c **** * \brief
ARM GAS  C:\Users\ASUS\AppData\Local\Temp\ccuOUgOD.s 			page 44


1636:Generated_Source\PSoC4/capsense_Processing.c **** *   Processes the status of the Encoder Dial widget.
1637:Generated_Source\PSoC4/capsense_Processing.c **** *
1638:Generated_Source\PSoC4/capsense_Processing.c **** * \details
1639:Generated_Source\PSoC4/capsense_Processing.c **** *   This API processes the status of the Encoder Dial Widget. It applies the
1640:Generated_Source\PSoC4/capsense_Processing.c **** *   hysteresis and debounce algorithm to each sensor difference value.
1641:Generated_Source\PSoC4/capsense_Processing.c **** *
1642:Generated_Source\PSoC4/capsense_Processing.c **** *   This API is expected to be called after each new widget scan. If it is
1643:Generated_Source\PSoC4/capsense_Processing.c **** *   called multiple times for the same scan data the debounce algorithm
1644:Generated_Source\PSoC4/capsense_Processing.c **** *   will not work properly.
1645:Generated_Source\PSoC4/capsense_Processing.c **** *
1646:Generated_Source\PSoC4/capsense_Processing.c **** *   This function updates the position and numTurns data structure members.
1647:Generated_Source\PSoC4/capsense_Processing.c **** *
1648:Generated_Source\PSoC4/capsense_Processing.c **** * \param currStatus   The value with the current widget status.
1649:Generated_Source\PSoC4/capsense_Processing.c **** * \param ptrFlashWdgt The pointer to the Flash Widget Object.
1650:Generated_Source\PSoC4/capsense_Processing.c **** *
1651:Generated_Source\PSoC4/capsense_Processing.c **** * \return Returns the 4-bit status of the widget.
1652:Generated_Source\PSoC4/capsense_Processing.c **** *
1653:Generated_Source\PSoC4/capsense_Processing.c **** *******************************************************************************/
1654:Generated_Source\PSoC4/capsense_Processing.c **** uint32 capsense_DpProcessEncoderDial(uint32 currStatus, capsense_FLASH_WD_STRUCT const *ptrFlashWdg
1655:Generated_Source\PSoC4/capsense_Processing.c **** {
1656:Generated_Source\PSoC4/capsense_Processing.c ****     uint32 currTh;
1657:Generated_Source\PSoC4/capsense_Processing.c ****     uint32 snsCnt;
1658:Generated_Source\PSoC4/capsense_Processing.c ****     uint32 snsMask;
1659:Generated_Source\PSoC4/capsense_Processing.c ****     uint32 newStatus;
1660:Generated_Source\PSoC4/capsense_Processing.c ****     uint32 difference;
1661:Generated_Source\PSoC4/capsense_Processing.c ****     uint32 historicStatus;
1662:Generated_Source\PSoC4/capsense_Processing.c **** 
1663:Generated_Source\PSoC4/capsense_Processing.c ****     uint8 *ptrDebounceCnt;
1664:Generated_Source\PSoC4/capsense_Processing.c ****     capsense_RAM_SNS_STRUCT *ptrSnsTmp;
1665:Generated_Source\PSoC4/capsense_Processing.c ****     capsense_RAM_WD_ENCODERDIAL_STRUCT *ptrRamWdgt;
1666:Generated_Source\PSoC4/capsense_Processing.c **** 
1667:Generated_Source\PSoC4/capsense_Processing.c ****     ptrSnsTmp = ptrFlashWdgt->ptr2SnsRam;
1668:Generated_Source\PSoC4/capsense_Processing.c ****     ptrRamWdgt = (capsense_RAM_WD_ENCODERDIAL_STRUCT *)ptrFlashWdgt->ptr2WdgtRam;
1669:Generated_Source\PSoC4/capsense_Processing.c ****     ptrDebounceCnt = ptrFlashWdgt->ptr2DebounceArr;
1670:Generated_Source\PSoC4/capsense_Processing.c **** 
1671:Generated_Source\PSoC4/capsense_Processing.c ****     /* Get number of sensors. */
1672:Generated_Source\PSoC4/capsense_Processing.c ****     snsCnt = (uint32)ptrFlashWdgt->totalNumSns;
1673:Generated_Source\PSoC4/capsense_Processing.c **** 
1674:Generated_Source\PSoC4/capsense_Processing.c ****     /* Put current status in encoder history position */
1675:Generated_Source\PSoC4/capsense_Processing.c ****     currStatus = currStatus & 0x3u;
1676:Generated_Source\PSoC4/capsense_Processing.c ****     historicStatus = currStatus << 2u;
1677:Generated_Source\PSoC4/capsense_Processing.c ****     /* Go through all sensors' status bits */
1678:Generated_Source\PSoC4/capsense_Processing.c ****     snsMask = 1Lu;
1679:Generated_Source\PSoC4/capsense_Processing.c ****     for (; snsCnt-- > 0u;)
1680:Generated_Source\PSoC4/capsense_Processing.c ****     {
1681:Generated_Source\PSoC4/capsense_Processing.c ****         difference = ptrSnsTmp->diff;
1682:Generated_Source\PSoC4/capsense_Processing.c **** 
1683:Generated_Source\PSoC4/capsense_Processing.c ****         /* Determine current threshold. */
1684:Generated_Source\PSoC4/capsense_Processing.c ****         currTh = ptrRamWdgt->fingerTh;
1685:Generated_Source\PSoC4/capsense_Processing.c **** 
1686:Generated_Source\PSoC4/capsense_Processing.c ****         /* Calculate finger threshold applying hysteresis based on current sensor state. */
1687:Generated_Source\PSoC4/capsense_Processing.c ****         currTh = (0u == (currStatus & snsMask)) ? (currTh + ptrRamWdgt->hysteresis) : (currTh - ptr
1688:Generated_Source\PSoC4/capsense_Processing.c **** 
1689:Generated_Source\PSoC4/capsense_Processing.c ****         /* Determine new potential sensor state before de-bounce */
1690:Generated_Source\PSoC4/capsense_Processing.c ****         newStatus = (difference > currTh) ? snsMask : 0Lu;
1691:Generated_Source\PSoC4/capsense_Processing.c **** 
1692:Generated_Source\PSoC4/capsense_Processing.c ****         /* Sensor state changed ? */
ARM GAS  C:\Users\ASUS\AppData\Local\Temp\ccuOUgOD.s 			page 45


1693:Generated_Source\PSoC4/capsense_Processing.c ****         if (newStatus != (currStatus & snsMask))
1694:Generated_Source\PSoC4/capsense_Processing.c ****         {
1695:Generated_Source\PSoC4/capsense_Processing.c ****             /* Decrement de-bounce counter */
1696:Generated_Source\PSoC4/capsense_Processing.c ****             (*ptrDebounceCnt)--;
1697:Generated_Source\PSoC4/capsense_Processing.c ****         }
1698:Generated_Source\PSoC4/capsense_Processing.c **** 
1699:Generated_Source\PSoC4/capsense_Processing.c ****         /*
1700:Generated_Source\PSoC4/capsense_Processing.c ****         *  This piece of code has two objectives:
1701:Generated_Source\PSoC4/capsense_Processing.c ****         *  1. Reset de-bounce counter if new sensor state has not changed.
1702:Generated_Source\PSoC4/capsense_Processing.c ****         *     (It is possible that during previous processing cycles the sensor
1703:Generated_Source\PSoC4/capsense_Processing.c ****         *     state was different which caused de-bounce counter change.)
1704:Generated_Source\PSoC4/capsense_Processing.c ****         *  2. Set new sensor state after successful de-bounce.
1705:Generated_Source\PSoC4/capsense_Processing.c ****         */
1706:Generated_Source\PSoC4/capsense_Processing.c ****         if ((newStatus == (currStatus & snsMask)) || (0u == (*ptrDebounceCnt)))
1707:Generated_Source\PSoC4/capsense_Processing.c ****         {
1708:Generated_Source\PSoC4/capsense_Processing.c ****             /* Set new sensor status */
1709:Generated_Source\PSoC4/capsense_Processing.c ****             currStatus &= ~snsMask;
1710:Generated_Source\PSoC4/capsense_Processing.c ****             currStatus |= newStatus;
1711:Generated_Source\PSoC4/capsense_Processing.c **** 
1712:Generated_Source\PSoC4/capsense_Processing.c ****             /* Reset de-bounce counter */
1713:Generated_Source\PSoC4/capsense_Processing.c ****             #if (0u != capsense_OFF_DEBOUNCE_EN)
1714:Generated_Source\PSoC4/capsense_Processing.c ****                 *ptrDebounceCnt = (0Lu == newStatus) ? ptrRamWdgt->onDebounce : ptrRamWdgt->offDebo
1715:Generated_Source\PSoC4/capsense_Processing.c ****             #else
1716:Generated_Source\PSoC4/capsense_Processing.c ****                 *ptrDebounceCnt = ptrRamWdgt->onDebounce;
1717:Generated_Source\PSoC4/capsense_Processing.c ****             #endif /* #if (0u != capsense_OFF_DEBOUNCE_EN) */
1718:Generated_Source\PSoC4/capsense_Processing.c ****         }
1719:Generated_Source\PSoC4/capsense_Processing.c **** 
1720:Generated_Source\PSoC4/capsense_Processing.c ****         ptrDebounceCnt++;
1721:Generated_Source\PSoC4/capsense_Processing.c **** 
1722:Generated_Source\PSoC4/capsense_Processing.c ****         /* Move sensor mask to the next sensor */
1723:Generated_Source\PSoC4/capsense_Processing.c ****         snsMask <<= 1u;
1724:Generated_Source\PSoC4/capsense_Processing.c ****         ptrSnsTmp++;
1725:Generated_Source\PSoC4/capsense_Processing.c ****     }
1726:Generated_Source\PSoC4/capsense_Processing.c **** 
1727:Generated_Source\PSoC4/capsense_Processing.c ****     currStatus |= historicStatus;
1728:Generated_Source\PSoC4/capsense_Processing.c **** 
1729:Generated_Source\PSoC4/capsense_Processing.c ****     /* Update dial position based on status */
1730:Generated_Source\PSoC4/capsense_Processing.c ****     switch (currStatus)
1731:Generated_Source\PSoC4/capsense_Processing.c ****     {
1732:Generated_Source\PSoC4/capsense_Processing.c ****     /* Clockwise rotations */
1733:Generated_Source\PSoC4/capsense_Processing.c ****     case capsense_DIALTRANSITION_CW0:
1734:Generated_Source\PSoC4/capsense_Processing.c ****     case capsense_DIALTRANSITION_CW1:
1735:Generated_Source\PSoC4/capsense_Processing.c ****     case capsense_DIALTRANSITION_CW2:
1736:Generated_Source\PSoC4/capsense_Processing.c ****     case capsense_DIALTRANSITION_CW3:
1737:Generated_Source\PSoC4/capsense_Processing.c **** 
1738:Generated_Source\PSoC4/capsense_Processing.c ****         /* Decrement angle by 90/numTargs */
1739:Generated_Source\PSoC4/capsense_Processing.c ****         if(ptrRamWdgt->position[0] == 0u)
1740:Generated_Source\PSoC4/capsense_Processing.c ****         {
1741:Generated_Source\PSoC4/capsense_Processing.c ****             ptrRamWdgt->position[0] = 0xffffu; /* Underflow without setting flag */
1742:Generated_Source\PSoC4/capsense_Processing.c ****         }
1743:Generated_Source\PSoC4/capsense_Processing.c ****         else
1744:Generated_Source\PSoC4/capsense_Processing.c ****         {
1745:Generated_Source\PSoC4/capsense_Processing.c ****             ptrRamWdgt->position[0] -= 1u;
1746:Generated_Source\PSoC4/capsense_Processing.c ****         }
1747:Generated_Source\PSoC4/capsense_Processing.c ****         break;
1748:Generated_Source\PSoC4/capsense_Processing.c ****     /* Counterclockwise rotations */
1749:Generated_Source\PSoC4/capsense_Processing.c ****     case capsense_DIALTRANSITION_CCW0:
ARM GAS  C:\Users\ASUS\AppData\Local\Temp\ccuOUgOD.s 			page 46


1750:Generated_Source\PSoC4/capsense_Processing.c ****     case capsense_DIALTRANSITION_CCW1:
1751:Generated_Source\PSoC4/capsense_Processing.c ****     case capsense_DIALTRANSITION_CCW2:
1752:Generated_Source\PSoC4/capsense_Processing.c ****     case capsense_DIALTRANSITION_CCW3:
1753:Generated_Source\PSoC4/capsense_Processing.c **** 
1754:Generated_Source\PSoC4/capsense_Processing.c ****         /* Increment angle by 90/numTargs */
1755:Generated_Source\PSoC4/capsense_Processing.c ****         if(ptrRamWdgt->position[0] == 0xffffu)
1756:Generated_Source\PSoC4/capsense_Processing.c ****         {
1757:Generated_Source\PSoC4/capsense_Processing.c ****             ptrRamWdgt->position[0] = 0u; /* Overflow without setting flag */
1758:Generated_Source\PSoC4/capsense_Processing.c ****         }
1759:Generated_Source\PSoC4/capsense_Processing.c ****         else
1760:Generated_Source\PSoC4/capsense_Processing.c ****         {
1761:Generated_Source\PSoC4/capsense_Processing.c ****             ptrRamWdgt->position[0] += 1u;
1762:Generated_Source\PSoC4/capsense_Processing.c ****         }
1763:Generated_Source\PSoC4/capsense_Processing.c ****         break;
1764:Generated_Source\PSoC4/capsense_Processing.c ****     /* No rotation */
1765:Generated_Source\PSoC4/capsense_Processing.c ****     default:
1766:Generated_Source\PSoC4/capsense_Processing.c ****         break;
1767:Generated_Source\PSoC4/capsense_Processing.c ****     }
1768:Generated_Source\PSoC4/capsense_Processing.c ****     return currStatus;
1769:Generated_Source\PSoC4/capsense_Processing.c **** }
1770:Generated_Source\PSoC4/capsense_Processing.c **** #endif /* #if (0u != capsense_ENCODERDIAL_WIDGET_EN) */
1771:Generated_Source\PSoC4/capsense_Processing.c **** 
1772:Generated_Source\PSoC4/capsense_Processing.c **** #if (0u != capsense_SLIDER_WIDGET_EN)
1773:Generated_Source\PSoC4/capsense_Processing.c **** /*******************************************************************************
1774:Generated_Source\PSoC4/capsense_Processing.c **** * Function Name: capsense_DpProcessSlider
1775:Generated_Source\PSoC4/capsense_Processing.c **** ****************************************************************************//**
1776:Generated_Source\PSoC4/capsense_Processing.c **** *
1777:Generated_Source\PSoC4/capsense_Processing.c **** * \brief
1778:Generated_Source\PSoC4/capsense_Processing.c **** *   Processes the status of the Linear/Radial Slider widget.
1779:Generated_Source\PSoC4/capsense_Processing.c **** *   The process involves running the Linear/Radial Centroid algorithm.
1780:Generated_Source\PSoC4/capsense_Processing.c **** *
1781:Generated_Source\PSoC4/capsense_Processing.c **** * \details
1782:Generated_Source\PSoC4/capsense_Processing.c **** *   This API processes the status of the CSD Slider widget (Linear and Radial).
1783:Generated_Source\PSoC4/capsense_Processing.c **** *   It applies the hysteresis and de-bounce algorithm to the widget ignoring
1784:Generated_Source\PSoC4/capsense_Processing.c **** *   the individual states of the sensors.
1785:Generated_Source\PSoC4/capsense_Processing.c **** *
1786:Generated_Source\PSoC4/capsense_Processing.c **** *   This API is expected to be called after each new widget scan. If it is
1787:Generated_Source\PSoC4/capsense_Processing.c **** *   called multiple times for the same scan data, the debounce algorithm
1788:Generated_Source\PSoC4/capsense_Processing.c **** *   will not work properly.
1789:Generated_Source\PSoC4/capsense_Processing.c **** *
1790:Generated_Source\PSoC4/capsense_Processing.c **** *   Slider widgets do not support the ON to OFF debounce.
1791:Generated_Source\PSoC4/capsense_Processing.c **** *
1792:Generated_Source\PSoC4/capsense_Processing.c **** *   This API does not update any Data Structure registers
1793:Generated_Source\PSoC4/capsense_Processing.c **** *   except the debounce counters.
1794:Generated_Source\PSoC4/capsense_Processing.c **** *
1795:Generated_Source\PSoC4/capsense_Processing.c **** * \param currStatus   The current sensor status of the Slider widget.
1796:Generated_Source\PSoC4/capsense_Processing.c **** * \param ptrFlashWdgt The pointer to the Flash Widget Object.
1797:Generated_Source\PSoC4/capsense_Processing.c **** *
1798:Generated_Source\PSoC4/capsense_Processing.c **** * \return Returns the status of the widget's sensors. Bit #0 - corresponds to Sensor #0.
1799:Generated_Source\PSoC4/capsense_Processing.c **** *
1800:Generated_Source\PSoC4/capsense_Processing.c **** *******************************************************************************/
1801:Generated_Source\PSoC4/capsense_Processing.c **** uint32 capsense_DpProcessSlider(uint32 currStatus, capsense_FLASH_WD_STRUCT const *ptrFlashWdgt)
1802:Generated_Source\PSoC4/capsense_Processing.c **** {
 749              		.loc 1 1802 0
 750              		.cfi_startproc
 751              		@ args = 0, pretend = 0, frame = 8
 752              		@ frame_needed = 0, uses_anonymous_args = 0
ARM GAS  C:\Users\ASUS\AppData\Local\Temp\ccuOUgOD.s 			page 47


 753              	.LVL137:
 754 0000 F0B5     		push	{r4, r5, r6, r7, lr}
 755              		.cfi_def_cfa_offset 20
 756              		.cfi_offset 4, -20
 757              		.cfi_offset 5, -16
 758              		.cfi_offset 6, -12
 759              		.cfi_offset 7, -8
 760              		.cfi_offset 14, -4
 761 0002 4746     		mov	r7, r8
 762 0004 80B4     		push	{r7}
 763              		.cfi_def_cfa_offset 24
 764              		.cfi_offset 8, -24
 765 0006 82B0     		sub	sp, sp, #8
 766              		.cfi_def_cfa_offset 32
 767 0008 8446     		mov	ip, r0
 768 000a 0F00     		movs	r7, r1
 769              	.LVL138:
1803:Generated_Source\PSoC4/capsense_Processing.c ****     uint32 snsCnt;
1804:Generated_Source\PSoC4/capsense_Processing.c ****     uint32 snsMask;
1805:Generated_Source\PSoC4/capsense_Processing.c ****     uint32 touchTh;
1806:Generated_Source\PSoC4/capsense_Processing.c ****     uint32 newStatus = 0Lu;
1807:Generated_Source\PSoC4/capsense_Processing.c ****     uint8 * ptrDebounceCnt;
1808:Generated_Source\PSoC4/capsense_Processing.c ****     capsense_RAM_SNS_STRUCT *ptrSnsTmp;
1809:Generated_Source\PSoC4/capsense_Processing.c ****     capsense_RAM_WD_SLIDER_STRUCT *ptrRamWdgt;
1810:Generated_Source\PSoC4/capsense_Processing.c **** 
1811:Generated_Source\PSoC4/capsense_Processing.c ****     #if (0u != capsense_POSITION_FILTER_EN)
1812:Generated_Source\PSoC4/capsense_Processing.c ****         capsense_SLIDER_POS_HISTORY_STRUCT *ptrHistory;
1813:Generated_Source\PSoC4/capsense_Processing.c ****     #endif /* #if (0u != capsense_POSITION_FILTER_EN) */
1814:Generated_Source\PSoC4/capsense_Processing.c **** 
1815:Generated_Source\PSoC4/capsense_Processing.c ****     uint32 touchIdx;
1816:Generated_Source\PSoC4/capsense_Processing.c ****     uint32 touchCnt = 0Lu;
1817:Generated_Source\PSoC4/capsense_Processing.c ****     uint16 newPos[capsense_NUM_CENTROIDS];
1818:Generated_Source\PSoC4/capsense_Processing.c **** 
1819:Generated_Source\PSoC4/capsense_Processing.c ****     snsCnt = ptrFlashWdgt->totalNumSns;
 770              		.loc 1 1819 0
 771 000c 0B8B     		ldrh	r3, [r1, #24]
 772              	.LVL139:
1820:Generated_Source\PSoC4/capsense_Processing.c ****     ptrSnsTmp = ptrFlashWdgt->ptr2SnsRam;
 773              		.loc 1 1820 0
 774 000e 8A68     		ldr	r2, [r1, #8]
 775              	.LVL140:
1821:Generated_Source\PSoC4/capsense_Processing.c ****     ptrRamWdgt = (capsense_RAM_WD_SLIDER_STRUCT *)ptrFlashWdgt->ptr2WdgtRam;
 776              		.loc 1 1821 0
 777 0010 4D68     		ldr	r5, [r1, #4]
 778              	.LVL141:
1822:Generated_Source\PSoC4/capsense_Processing.c ****     ptrDebounceCnt = ptrFlashWdgt->ptr2DebounceArr;
 779              		.loc 1 1822 0
 780 0012 0969     		ldr	r1, [r1, #16]
 781              	.LVL142:
 782 0014 8846     		mov	r8, r1
 783              	.LVL143:
1823:Generated_Source\PSoC4/capsense_Processing.c **** 
1824:Generated_Source\PSoC4/capsense_Processing.c ****     #if (0u != capsense_POSITION_FILTER_EN)
1825:Generated_Source\PSoC4/capsense_Processing.c ****         ptrHistory = ptrFlashWdgt->ptr2PosHistory;
1826:Generated_Source\PSoC4/capsense_Processing.c ****     #endif /* #if (0u != capsense_POSITION_FILTER_EN) */
1827:Generated_Source\PSoC4/capsense_Processing.c **** 
1828:Generated_Source\PSoC4/capsense_Processing.c ****     /* Calculate touch threshold based on current slider state */
ARM GAS  C:\Users\ASUS\AppData\Local\Temp\ccuOUgOD.s 			page 48


1829:Generated_Source\PSoC4/capsense_Processing.c ****     touchTh = (0Lu == currStatus ) ?
1830:Generated_Source\PSoC4/capsense_Processing.c ****               ((uint32)ptrRamWdgt->fingerTh + ptrRamWdgt->hysteresis) :
 784              		.loc 1 1830 0
 785 0016 0028     		cmp	r0, #0
 786 0018 03D1     		bne	.L53
 787              		.loc 1 1830 0 is_stmt 0 discriminator 1
 788 001a 6888     		ldrh	r0, [r5, #2]
 789              	.LVL144:
 790 001c A979     		ldrb	r1, [r5, #6]
 791              	.LVL145:
 792 001e 4018     		adds	r0, r0, r1
 793 0020 02E0     		b	.L54
 794              	.LVL146:
 795              	.L53:
1831:Generated_Source\PSoC4/capsense_Processing.c ****               ((uint32)ptrRamWdgt->fingerTh - ptrRamWdgt->hysteresis);
 796              		.loc 1 1831 0 is_stmt 1 discriminator 2
 797 0022 6988     		ldrh	r1, [r5, #2]
 798              	.LVL147:
 799 0024 A879     		ldrb	r0, [r5, #6]
 800              	.LVL148:
1830:Generated_Source\PSoC4/capsense_Processing.c ****               ((uint32)ptrRamWdgt->fingerTh - ptrRamWdgt->hysteresis);
 801              		.loc 1 1830 0 discriminator 2
 802 0026 081A     		subs	r0, r1, r0
 803              	.L54:
 804              	.LVL149:
1806:Generated_Source\PSoC4/capsense_Processing.c ****     uint8 * ptrDebounceCnt;
 805              		.loc 1 1806 0
 806 0028 0024     		movs	r4, #0
1832:Generated_Source\PSoC4/capsense_Processing.c **** 
1833:Generated_Source\PSoC4/capsense_Processing.c ****     /* Go through all widget's sensors */
1834:Generated_Source\PSoC4/capsense_Processing.c ****     snsMask = 1Lu;
 807              		.loc 1 1834 0
 808 002a 0121     		movs	r1, #1
1835:Generated_Source\PSoC4/capsense_Processing.c ****     for (; snsCnt-- > 0Lu; )
 809              		.loc 1 1835 0
 810 002c 09E0     		b	.L55
 811              	.LVL150:
 812              	.L57:
1836:Generated_Source\PSoC4/capsense_Processing.c ****     {
1837:Generated_Source\PSoC4/capsense_Processing.c ****         /* Determine new potential sensor state */
1838:Generated_Source\PSoC4/capsense_Processing.c ****         newStatus |= (ptrSnsTmp->diff > touchTh) ? snsMask : 0Lu;
 813              		.loc 1 1838 0
 814 002e D388     		ldrh	r3, [r2, #6]
 815 0030 9842     		cmp	r0, r3
 816 0032 01D3     		bcc	.L67
 817 0034 0023     		movs	r3, #0
 818 0036 00E0     		b	.L56
 819              	.L67:
 820 0038 0B00     		movs	r3, r1
 821              	.L56:
 822              		.loc 1 1838 0 is_stmt 0 discriminator 4
 823 003a 1C43     		orrs	r4, r3
 824              	.LVL151:
1839:Generated_Source\PSoC4/capsense_Processing.c ****         ptrSnsTmp++;
 825              		.loc 1 1839 0 is_stmt 1 discriminator 4
 826 003c 0A32     		adds	r2, r2, #10
 827              	.LVL152:
ARM GAS  C:\Users\ASUS\AppData\Local\Temp\ccuOUgOD.s 			page 49


1840:Generated_Source\PSoC4/capsense_Processing.c **** 
1841:Generated_Source\PSoC4/capsense_Processing.c ****         snsMask <<= 1u;
 828              		.loc 1 1841 0 discriminator 4
 829 003e 4900     		lsls	r1, r1, #1
 830              	.LVL153:
1835:Generated_Source\PSoC4/capsense_Processing.c ****     {
 831              		.loc 1 1835 0 discriminator 4
 832 0040 3300     		movs	r3, r6
 833              	.LVL154:
 834              	.L55:
1835:Generated_Source\PSoC4/capsense_Processing.c ****     {
 835              		.loc 1 1835 0 is_stmt 0
 836 0042 5E1E     		subs	r6, r3, #1
 837              	.LVL155:
 838 0044 002B     		cmp	r3, #0
 839 0046 F2D1     		bne	.L57
1842:Generated_Source\PSoC4/capsense_Processing.c ****     }
1843:Generated_Source\PSoC4/capsense_Processing.c **** 
1844:Generated_Source\PSoC4/capsense_Processing.c ****     /* If widget is active, check whether debounce is needed */
1845:Generated_Source\PSoC4/capsense_Processing.c ****     if (0Lu != newStatus)
 840              		.loc 1 1845 0 is_stmt 1
 841 0048 002C     		cmp	r4, #0
 842 004a 0CD0     		beq	.L58
1846:Generated_Source\PSoC4/capsense_Processing.c ****     {
1847:Generated_Source\PSoC4/capsense_Processing.c ****         if (0u < (*ptrDebounceCnt))
 843              		.loc 1 1847 0
 844 004c 4346     		mov	r3, r8
 845 004e 1B78     		ldrb	r3, [r3]
 846 0050 002B     		cmp	r3, #0
 847 0052 02D0     		beq	.L59
1848:Generated_Source\PSoC4/capsense_Processing.c ****         {
1849:Generated_Source\PSoC4/capsense_Processing.c ****             /* Decrement debounce counter */
1850:Generated_Source\PSoC4/capsense_Processing.c ****             (*ptrDebounceCnt)--;
 848              		.loc 1 1850 0
 849 0054 013B     		subs	r3, r3, #1
 850 0056 4246     		mov	r2, r8
 851              	.LVL156:
 852 0058 1370     		strb	r3, [r2]
 853              	.L59:
1851:Generated_Source\PSoC4/capsense_Processing.c ****         }
1852:Generated_Source\PSoC4/capsense_Processing.c **** 
1853:Generated_Source\PSoC4/capsense_Processing.c ****         if (0u == (*ptrDebounceCnt))
 854              		.loc 1 1853 0
 855 005a 4346     		mov	r3, r8
 856 005c 1B78     		ldrb	r3, [r3]
 857 005e 002B     		cmp	r3, #0
 858 0060 04D0     		beq	.L60
 859 0062 6446     		mov	r4, ip
 860              	.LVL157:
 861 0064 02E0     		b	.L60
 862              	.LVL158:
 863              	.L58:
1854:Generated_Source\PSoC4/capsense_Processing.c ****         {
1855:Generated_Source\PSoC4/capsense_Processing.c ****             /* Update slider sensor state when debounce completes */
1856:Generated_Source\PSoC4/capsense_Processing.c ****             currStatus = newStatus;
1857:Generated_Source\PSoC4/capsense_Processing.c ****         }
1858:Generated_Source\PSoC4/capsense_Processing.c ****     }
ARM GAS  C:\Users\ASUS\AppData\Local\Temp\ccuOUgOD.s 			page 50


1859:Generated_Source\PSoC4/capsense_Processing.c ****     else
1860:Generated_Source\PSoC4/capsense_Processing.c ****     {
1861:Generated_Source\PSoC4/capsense_Processing.c ****         /* Reset debounce counter */
1862:Generated_Source\PSoC4/capsense_Processing.c ****         *ptrDebounceCnt = ptrRamWdgt->onDebounce;
 864              		.loc 1 1862 0
 865 0066 EB79     		ldrb	r3, [r5, #7]
 866 0068 4246     		mov	r2, r8
 867              	.LVL159:
 868 006a 1370     		strb	r3, [r2]
 869              	.LVL160:
 870              	.L60:
1863:Generated_Source\PSoC4/capsense_Processing.c **** 
1864:Generated_Source\PSoC4/capsense_Processing.c ****         /* Clear slider sensor state */
1865:Generated_Source\PSoC4/capsense_Processing.c ****         currStatus = 0Lu;
1866:Generated_Source\PSoC4/capsense_Processing.c ****     }
1867:Generated_Source\PSoC4/capsense_Processing.c **** 
1868:Generated_Source\PSoC4/capsense_Processing.c ****     /* Centroid processing */
1869:Generated_Source\PSoC4/capsense_Processing.c ****     /* If there are active sensors after debounce run the centroid algorithm */
1870:Generated_Source\PSoC4/capsense_Processing.c ****     if (0u != currStatus)
 871              		.loc 1 1870 0
 872 006c 002C     		cmp	r4, #0
 873 006e 0AD0     		beq	.L68
1871:Generated_Source\PSoC4/capsense_Processing.c ****     {
1872:Generated_Source\PSoC4/capsense_Processing.c ****         /* Centroid always uses the lowest finger threshold (minus hysteresis)
1873:Generated_Source\PSoC4/capsense_Processing.c ****          * to produce same results for first and all consecutive invocations */
1874:Generated_Source\PSoC4/capsense_Processing.c ****         touchTh = (uint32)ptrRamWdgt->fingerTh - ptrRamWdgt->hysteresis;
 874              		.loc 1 1874 0
 875 0070 6B88     		ldrh	r3, [r5, #2]
 876 0072 AA79     		ldrb	r2, [r5, #6]
 877 0074 9A1A     		subs	r2, r3, r2
 878              	.LVL161:
1875:Generated_Source\PSoC4/capsense_Processing.c ****         snsCnt = ptrFlashWdgt->totalNumSns;
 879              		.loc 1 1875 0
 880 0076 3E8B     		ldrh	r6, [r7, #24]
 881              	.LVL162:
1876:Generated_Source\PSoC4/capsense_Processing.c **** 
1877:Generated_Source\PSoC4/capsense_Processing.c ****         #if (0u != capsense_TOTAL_DIPLEXED_SLIDERS)
1878:Generated_Source\PSoC4/capsense_Processing.c ****             if ((0u != (ptrFlashWdgt->staticConfig & capsense_DIPLEXING_MASK)))
1879:Generated_Source\PSoC4/capsense_Processing.c ****             {
1880:Generated_Source\PSoC4/capsense_Processing.c ****                 /* Run local maximum search for duplexed slider */
1881:Generated_Source\PSoC4/capsense_Processing.c ****                 touchCnt = capsense_DpFindLocalMaxDiplex(
1882:Generated_Source\PSoC4/capsense_Processing.c ****                                 ptrFlashWdgt->ptr2SnsRam, snsCnt, ptrFlashWdgt->ptr2DiplexTable, to
1883:Generated_Source\PSoC4/capsense_Processing.c **** 
1884:Generated_Source\PSoC4/capsense_Processing.c ****                 /* Centroid calculation API requires double sensor count for the diplexed sliders. 
1885:Generated_Source\PSoC4/capsense_Processing.c ****                 snsCnt *= 2u;
1886:Generated_Source\PSoC4/capsense_Processing.c ****             }
1887:Generated_Source\PSoC4/capsense_Processing.c ****             else
1888:Generated_Source\PSoC4/capsense_Processing.c ****             {
1889:Generated_Source\PSoC4/capsense_Processing.c ****                 /* Run local maximum search for NON-duplexed slider */
1890:Generated_Source\PSoC4/capsense_Processing.c ****                 #if (capsense_ENABLE == capsense_4PTS_LOCAL_MAX_EN)
1891:Generated_Source\PSoC4/capsense_Processing.c ****                     touchCnt = capsense_DpFindLocalMaxSd4pts(ptrFlashWdgt, ptrFlashWdgt->ptr2SnsRam
1892:Generated_Source\PSoC4/capsense_Processing.c ****                 #else
1893:Generated_Source\PSoC4/capsense_Processing.c ****                     touchCnt = capsense_DpFindLocalMaxSd(ptrFlashWdgt->ptr2SnsRam, snsCnt, touchTh)
1894:Generated_Source\PSoC4/capsense_Processing.c ****                 #endif
1895:Generated_Source\PSoC4/capsense_Processing.c ****             }
1896:Generated_Source\PSoC4/capsense_Processing.c ****         #else
1897:Generated_Source\PSoC4/capsense_Processing.c ****             /* Run local maximum search for NON-duplexed slider */
ARM GAS  C:\Users\ASUS\AppData\Local\Temp\ccuOUgOD.s 			page 51


1898:Generated_Source\PSoC4/capsense_Processing.c ****             #if (capsense_ENABLE == capsense_4PTS_LOCAL_MAX_EN)
1899:Generated_Source\PSoC4/capsense_Processing.c ****                 touchCnt = capsense_DpFindLocalMaxSd4pts(ptrFlashWdgt, ptrFlashWdgt->ptr2SnsRam, sn
1900:Generated_Source\PSoC4/capsense_Processing.c ****             #else
1901:Generated_Source\PSoC4/capsense_Processing.c ****                 touchCnt = capsense_DpFindLocalMaxSd(ptrFlashWdgt->ptr2SnsRam, snsCnt, touchTh);
 882              		.loc 1 1901 0
 883 0078 3100     		movs	r1, r6
 884              	.LVL163:
 885 007a B868     		ldr	r0, [r7, #8]
 886 007c FFF7FEFF 		bl	capsense_DpFindLocalMaxSd
 887              	.LVL164:
1902:Generated_Source\PSoC4/capsense_Processing.c ****             #endif
1903:Generated_Source\PSoC4/capsense_Processing.c ****         #endif /* #if (0u != capsense_TOTAL_DIPLEXED_SLIDERS) */
1904:Generated_Source\PSoC4/capsense_Processing.c **** 
1905:Generated_Source\PSoC4/capsense_Processing.c ****         /* If at least one touch is detected */
1906:Generated_Source\PSoC4/capsense_Processing.c ****         if (0u != touchCnt)
 888              		.loc 1 1906 0
 889 0080 0028     		cmp	r0, #0
 890 0082 02D1     		bne	.L62
 891 0084 21E0     		b	.L63
 892              	.LVL165:
 893              	.L68:
1816:Generated_Source\PSoC4/capsense_Processing.c ****     uint16 newPos[capsense_NUM_CENTROIDS];
 894              		.loc 1 1816 0
 895 0086 0020     		movs	r0, #0
 896              	.LVL166:
 897 0088 1FE0     		b	.L63
 898              	.LVL167:
 899              	.L62:
1907:Generated_Source\PSoC4/capsense_Processing.c ****         {
1908:Generated_Source\PSoC4/capsense_Processing.c ****             /* Determine slider type and calculate new position(s) */
1909:Generated_Source\PSoC4/capsense_Processing.c ****             #if (0u != capsense_TOTAL_LINEAR_SLIDERS)
1910:Generated_Source\PSoC4/capsense_Processing.c ****                 if ((capsense_WD_TYPE_ENUM)ptrFlashWdgt->wdgtType == capsense_WD_LINEAR_SLIDER_E)
 900              		.loc 1 1910 0
 901 008a BB7E     		ldrb	r3, [r7, #26]
 902 008c 022B     		cmp	r3, #2
 903 008e 1CD1     		bne	.L63
1911:Generated_Source\PSoC4/capsense_Processing.c ****                 {
1912:Generated_Source\PSoC4/capsense_Processing.c ****                     #if (capsense_ENABLE == capsense_SLIDER_MULT_METHOD)
1913:Generated_Source\PSoC4/capsense_Processing.c ****                         touchCnt = capsense_DpCalcLinearCentroid(newPos, (uint32)ptrFlashWdgt->xCen
1914:Generated_Source\PSoC4/capsense_Processing.c ****                                     snsCnt, (uint32)(ptrFlashWdgt->xCentroidMultiplier >> 1));
1915:Generated_Source\PSoC4/capsense_Processing.c ****                     #else
1916:Generated_Source\PSoC4/capsense_Processing.c ****                         touchCnt = capsense_DpCalcLinearCentroid(
1917:Generated_Source\PSoC4/capsense_Processing.c ****                                         newPos, (uint32)ptrFlashWdgt->xCentroidMultiplier, snsCnt, 
 904              		.loc 1 1917 0
 905 0090 396A     		ldr	r1, [r7, #32]
1916:Generated_Source\PSoC4/capsense_Processing.c ****                                         newPos, (uint32)ptrFlashWdgt->xCentroidMultiplier, snsCnt, 
 906              		.loc 1 1916 0
 907 0092 0023     		movs	r3, #0
 908 0094 3200     		movs	r2, r6
 909 0096 01A8     		add	r0, sp, #4
 910              	.LVL168:
 911 0098 FFF7FEFF 		bl	capsense_DpCalcLinearCentroid
 912              	.LVL169:
 913              	.LBB8:
 914              	.LBB9:
1918:Generated_Source\PSoC4/capsense_Processing.c ****                     #endif
1919:Generated_Source\PSoC4/capsense_Processing.c ****                     DpUpdateLinSlider(newPos, touchCnt, ptrFlashWdgt, ptrRamWdgt);
ARM GAS  C:\Users\ASUS\AppData\Local\Temp\ccuOUgOD.s 			page 52


1920:Generated_Source\PSoC4/capsense_Processing.c ****                 }
1921:Generated_Source\PSoC4/capsense_Processing.c ****             #endif /* #if (0u != capsense_TOTAL_LINEAR_SLIDERS) */
1922:Generated_Source\PSoC4/capsense_Processing.c **** 
1923:Generated_Source\PSoC4/capsense_Processing.c ****             #if (0u != capsense_TOTAL_RADIAL_SLIDERS)
1924:Generated_Source\PSoC4/capsense_Processing.c ****                 if ((capsense_WD_TYPE_ENUM)ptrFlashWdgt->wdgtType == capsense_WD_RADIAL_SLIDER_E)
1925:Generated_Source\PSoC4/capsense_Processing.c ****                 {
1926:Generated_Source\PSoC4/capsense_Processing.c ****                     touchCnt = capsense_DpCalcRadialCentroid(
1927:Generated_Source\PSoC4/capsense_Processing.c ****                                     newPos, (uint32)ptrFlashWdgt->xCentroidMultiplier, snsCnt);
1928:Generated_Source\PSoC4/capsense_Processing.c ****                     DpUpdateRadSlider(newPos, touchCnt, ptrFlashWdgt, ptrRamWdgt);
1929:Generated_Source\PSoC4/capsense_Processing.c ****                 }
1930:Generated_Source\PSoC4/capsense_Processing.c ****             #endif /* #if (0u != capsense_TOTAL_RADIAL_SLIDERS) */
1931:Generated_Source\PSoC4/capsense_Processing.c ****         }
1932:Generated_Source\PSoC4/capsense_Processing.c ****     }
1933:Generated_Source\PSoC4/capsense_Processing.c **** 
1934:Generated_Source\PSoC4/capsense_Processing.c ****     /* Clear not active position data slots */
1935:Generated_Source\PSoC4/capsense_Processing.c ****     for (touchIdx = touchCnt; touchIdx < capsense_NUM_CENTROIDS; touchIdx++)
1936:Generated_Source\PSoC4/capsense_Processing.c ****     {
1937:Generated_Source\PSoC4/capsense_Processing.c ****         ptrRamWdgt->position[touchIdx] = capsense_SLIDER_POS_NONE;
1938:Generated_Source\PSoC4/capsense_Processing.c **** 
1939:Generated_Source\PSoC4/capsense_Processing.c ****         #if (0u != capsense_POSITION_FILTER_EN)
1940:Generated_Source\PSoC4/capsense_Processing.c ****             if (NULL != ptrHistory)
1941:Generated_Source\PSoC4/capsense_Processing.c ****             {
1942:Generated_Source\PSoC4/capsense_Processing.c ****                 capsense_InitPosFiltersSd(&ptrHistory[touchIdx], capsense_SLIDER_POS_NONE);
1943:Generated_Source\PSoC4/capsense_Processing.c ****             }
1944:Generated_Source\PSoC4/capsense_Processing.c ****         #endif /* #if (0u != capsense_POSITION_FILTER_EN) */
1945:Generated_Source\PSoC4/capsense_Processing.c ****     }
1946:Generated_Source\PSoC4/capsense_Processing.c **** 
1947:Generated_Source\PSoC4/capsense_Processing.c ****     return currStatus;
1948:Generated_Source\PSoC4/capsense_Processing.c **** }
1949:Generated_Source\PSoC4/capsense_Processing.c **** #endif /* #if (0u != capsense_SLIDER_WIDGET_EN) */
1950:Generated_Source\PSoC4/capsense_Processing.c **** 
1951:Generated_Source\PSoC4/capsense_Processing.c **** #if (0u != capsense_TOTAL_LINEAR_SLIDERS)
1952:Generated_Source\PSoC4/capsense_Processing.c **** /*******************************************************************************
1953:Generated_Source\PSoC4/capsense_Processing.c **** * Function Name: DpUpdateLinSlider
1954:Generated_Source\PSoC4/capsense_Processing.c **** ****************************************************************************//**
1955:Generated_Source\PSoC4/capsense_Processing.c **** *
1956:Generated_Source\PSoC4/capsense_Processing.c **** * \brief
1957:Generated_Source\PSoC4/capsense_Processing.c **** *   Updates the touch status of the Linear Slider widget.
1958:Generated_Source\PSoC4/capsense_Processing.c **** *
1959:Generated_Source\PSoC4/capsense_Processing.c **** * \details
1960:Generated_Source\PSoC4/capsense_Processing.c **** *   This function updates the position data of the Linear Slider
1961:Generated_Source\PSoC4/capsense_Processing.c **** *   in the Data Structure. Also, this function runs position filters for the
1962:Generated_Source\PSoC4/capsense_Processing.c **** *   position data if any enabled.
1963:Generated_Source\PSoC4/capsense_Processing.c **** *
1964:Generated_Source\PSoC4/capsense_Processing.c **** * \param newPos       The pointer to the array with the new finger position coordinates.
1965:Generated_Source\PSoC4/capsense_Processing.c **** * \param numTouches   The number of the coordinates in the newPos array.
1966:Generated_Source\PSoC4/capsense_Processing.c **** * \param ptrFlashWdgt The pointer to the Flash Widget Object.
1967:Generated_Source\PSoC4/capsense_Processing.c **** * \param ptrRamWdgt   The pointer to the RAM Widget Object.
1968:Generated_Source\PSoC4/capsense_Processing.c **** *
1969:Generated_Source\PSoC4/capsense_Processing.c **** *******************************************************************************/
1970:Generated_Source\PSoC4/capsense_Processing.c **** static CY_INLINE void DpUpdateLinSlider(
1971:Generated_Source\PSoC4/capsense_Processing.c ****                         const uint16 newPos[],
1972:Generated_Source\PSoC4/capsense_Processing.c ****                         uint32 numTouches,
1973:Generated_Source\PSoC4/capsense_Processing.c ****                         capsense_FLASH_WD_STRUCT const *ptrFlashWdgt,
1974:Generated_Source\PSoC4/capsense_Processing.c ****                         capsense_RAM_WD_SLIDER_STRUCT *ptrRamWdgt)
1975:Generated_Source\PSoC4/capsense_Processing.c **** {
1976:Generated_Source\PSoC4/capsense_Processing.c ****     uint32 touchIdx;
ARM GAS  C:\Users\ASUS\AppData\Local\Temp\ccuOUgOD.s 			page 53


1977:Generated_Source\PSoC4/capsense_Processing.c **** 
1978:Generated_Source\PSoC4/capsense_Processing.c ****     #if (0u != capsense_POS_AVERAGE_FILTER_EN)
1979:Generated_Source\PSoC4/capsense_Processing.c ****         uint16 tempPosition;
1980:Generated_Source\PSoC4/capsense_Processing.c ****     #endif /* (0u != capsense_POS_AVERAGE_FILTER_EN) */
1981:Generated_Source\PSoC4/capsense_Processing.c **** 
1982:Generated_Source\PSoC4/capsense_Processing.c ****     #if (0u == capsense_POSITION_FILTER_EN)
1983:Generated_Source\PSoC4/capsense_Processing.c ****         /* This parameter is unused in such configurations */
1984:Generated_Source\PSoC4/capsense_Processing.c ****         (void)ptrFlashWdgt;
1985:Generated_Source\PSoC4/capsense_Processing.c ****     #else
1986:Generated_Source\PSoC4/capsense_Processing.c ****         uint16 filteredPosition;
1987:Generated_Source\PSoC4/capsense_Processing.c ****         /* Get bitmask with the enabled filters */
1988:Generated_Source\PSoC4/capsense_Processing.c ****         uint32 filterConfig = (uint32)ptrFlashWdgt->staticConfig;
1989:Generated_Source\PSoC4/capsense_Processing.c ****         /* Get pointer to the position filter history */
1990:Generated_Source\PSoC4/capsense_Processing.c ****         capsense_SLIDER_POS_HISTORY_STRUCT *ptrHistory = ptrFlashWdgt->ptr2PosHistory;
1991:Generated_Source\PSoC4/capsense_Processing.c ****     #endif /* #if (0u == capsense_POSITION_FILTER_EN) */
1992:Generated_Source\PSoC4/capsense_Processing.c **** 
1993:Generated_Source\PSoC4/capsense_Processing.c ****     #if (0u != capsense_POS_ADAPTIVE_IIR_FILTER_EN)
1994:Generated_Source\PSoC4/capsense_Processing.c ****         ADAPTIVE_FILTER_CONTEXT_STRUCT contextAIIR;
1995:Generated_Source\PSoC4/capsense_Processing.c ****         uint16 emptyPosition = 0;
1996:Generated_Source\PSoC4/capsense_Processing.c ****     #endif /* (0u != capsense_POS_ADAPTIVE_IIR_FILTER_EN) */
1997:Generated_Source\PSoC4/capsense_Processing.c **** 
1998:Generated_Source\PSoC4/capsense_Processing.c ****     /* Run Filter and update the position registers with the filtered data */
1999:Generated_Source\PSoC4/capsense_Processing.c ****     for (touchIdx = 0u; touchIdx < numTouches; touchIdx++)
 915              		.loc 1 1999 0
 916 009c 0022     		movs	r2, #0
 917 009e 0AE0     		b	.L64
 918              	.LVL170:
 919              	.L65:
2000:Generated_Source\PSoC4/capsense_Processing.c ****     {
2001:Generated_Source\PSoC4/capsense_Processing.c ****         #if (0u == capsense_POSITION_FILTER_EN)
2002:Generated_Source\PSoC4/capsense_Processing.c ****             /* If filters are not enabled just copy the position data */
2003:Generated_Source\PSoC4/capsense_Processing.c ****             ptrRamWdgt->position[touchIdx] = newPos[touchIdx];
 920              		.loc 1 2003 0
 921 00a0 5300     		lsls	r3, r2, #1
 922 00a2 02A9     		add	r1, sp, #8
 923 00a4 8C46     		mov	ip, r1
 924 00a6 6344     		add	r3, r3, ip
 925 00a8 043B     		subs	r3, r3, #4
 926 00aa 1988     		ldrh	r1, [r3]
 927 00ac 1300     		movs	r3, r2
 928 00ae 0833     		adds	r3, r3, #8
 929 00b0 5B00     		lsls	r3, r3, #1
 930 00b2 5953     		strh	r1, [r3, r5]
1999:Generated_Source\PSoC4/capsense_Processing.c ****     {
 931              		.loc 1 1999 0
 932 00b4 0132     		adds	r2, r2, #1
 933              	.LVL171:
 934              	.L64:
 935 00b6 9042     		cmp	r0, r2
 936 00b8 F2D8     		bhi	.L65
 937 00ba 06E0     		b	.L63
 938              	.LVL172:
 939              	.L66:
 940              	.LBE9:
 941              	.LBE8:
1937:Generated_Source\PSoC4/capsense_Processing.c **** 
 942              		.loc 1 1937 0 discriminator 3
ARM GAS  C:\Users\ASUS\AppData\Local\Temp\ccuOUgOD.s 			page 54


 943 00bc 0300     		movs	r3, r0
 944 00be 0833     		adds	r3, r3, #8
 945 00c0 5B00     		lsls	r3, r3, #1
 946 00c2 0122     		movs	r2, #1
 947 00c4 5242     		rsbs	r2, r2, #0
 948 00c6 5A53     		strh	r2, [r3, r5]
1935:Generated_Source\PSoC4/capsense_Processing.c ****     {
 949              		.loc 1 1935 0 discriminator 3
 950 00c8 0130     		adds	r0, r0, #1
 951              	.LVL173:
 952              	.L63:
1935:Generated_Source\PSoC4/capsense_Processing.c ****     {
 953              		.loc 1 1935 0 is_stmt 0 discriminator 1
 954 00ca 0028     		cmp	r0, #0
 955 00cc F6D0     		beq	.L66
1948:Generated_Source\PSoC4/capsense_Processing.c **** #endif /* #if (0u != capsense_SLIDER_WIDGET_EN) */
 956              		.loc 1 1948 0 is_stmt 1
 957 00ce 2000     		movs	r0, r4
 958              	.LVL174:
 959 00d0 02B0     		add	sp, sp, #8
 960              		@ sp needed
 961              	.LVL175:
 962              	.LVL176:
 963              	.LVL177:
 964              	.LVL178:
 965              	.LVL179:
 966 00d2 04BC     		pop	{r2}
 967 00d4 9046     		mov	r8, r2
 968 00d6 F0BD     		pop	{r4, r5, r6, r7, pc}
 969              		.cfi_endproc
 970              	.LFE11:
 971              		.size	capsense_DpProcessSlider, .-capsense_DpProcessSlider
 972              		.section	.text.capsense_DpProcessCsdWidgetStatus,"ax",%progbits
 973              		.align	2
 974              		.global	capsense_DpProcessCsdWidgetStatus
 975              		.code	16
 976              		.thumb_func
 977              		.type	capsense_DpProcessCsdWidgetStatus, %function
 978              	capsense_DpProcessCsdWidgetStatus:
 979              	.LFB8:
1247:Generated_Source\PSoC4/capsense_Processing.c ****     uint32 sensorStatus;
 980              		.loc 1 1247 0
 981              		.cfi_startproc
 982              		@ args = 0, pretend = 0, frame = 0
 983              		@ frame_needed = 0, uses_anonymous_args = 0
 984              	.LVL180:
 985 0000 70B5     		push	{r4, r5, r6, lr}
 986              		.cfi_def_cfa_offset 16
 987              		.cfi_offset 4, -16
 988              		.cfi_offset 5, -12
 989              		.cfi_offset 6, -8
 990              		.cfi_offset 14, -4
 991 0002 0400     		movs	r4, r0
1253:Generated_Source\PSoC4/capsense_Processing.c ****     sensorStatus = capsense_dsRam.snsStatus[widgetId];
 992              		.loc 1 1253 0
 993 0004 8A7E     		ldrb	r2, [r1, #26]
 994              	.LVL181:
ARM GAS  C:\Users\ASUS\AppData\Local\Temp\ccuOUgOD.s 			page 55


1254:Generated_Source\PSoC4/capsense_Processing.c **** 
 995              		.loc 1 1254 0
 996 0006 184B     		ldr	r3, .L77
 997 0008 1B18     		adds	r3, r3, r0
 998 000a 1D7E     		ldrb	r5, [r3, #24]
 999              	.LVL182:
1256:Generated_Source\PSoC4/capsense_Processing.c ****     {
 1000              		.loc 1 1256 0
 1001 000c 012A     		cmp	r2, #1
 1002 000e 04D0     		beq	.L71
 1003 0010 002A     		cmp	r2, #0
 1004 0012 0CD0     		beq	.L70
 1005 0014 032A     		cmp	r2, #3
 1006 0016 05D9     		bls	.L76
 1007 0018 09E0     		b	.L70
 1008              	.L71:
1260:Generated_Source\PSoC4/capsense_Processing.c ****             break;
 1009              		.loc 1 1260 0
 1010 001a 2800     		movs	r0, r5
 1011              	.LVL183:
 1012 001c FFF7FEFF 		bl	capsense_DpProcessButton
 1013              	.LVL184:
 1014 0020 0500     		movs	r5, r0
 1015              	.LVL185:
1261:Generated_Source\PSoC4/capsense_Processing.c ****     #endif /* #if (0u != capsense_BUTTON_WIDGET_EN) */
 1016              		.loc 1 1261 0
 1017 0022 07E0     		b	.L73
 1018              	.LVL186:
 1019              	.L76:
1267:Generated_Source\PSoC4/capsense_Processing.c ****             break;
 1020              		.loc 1 1267 0
 1021 0024 2800     		movs	r0, r5
 1022              	.LVL187:
 1023 0026 FFF7FEFF 		bl	capsense_DpProcessSlider
 1024              	.LVL188:
 1025 002a 0500     		movs	r5, r0
 1026              	.LVL189:
1268:Generated_Source\PSoC4/capsense_Processing.c ****     #endif /* #if (0u != capsense_SLIDER_WIDGET_EN) */
 1027              		.loc 1 1268 0
 1028 002c 02E0     		b	.L73
 1029              	.LVL190:
 1030              	.L70:
1293:Generated_Source\PSoC4/capsense_Processing.c ****         break;
 1031              		.loc 1 1293 0 discriminator 1
 1032 002e 0020     		movs	r0, #0
 1033              	.LVL191:
 1034 0030 FFF7FEFF 		bl	CyHalt
 1035              	.LVL192:
 1036              	.L73:
1297:Generated_Source\PSoC4/capsense_Processing.c **** 
 1037              		.loc 1 1297 0
 1038 0034 0C4B     		ldr	r3, .L77
 1039 0036 1B19     		adds	r3, r3, r4
 1040 0038 1D76     		strb	r5, [r3, #24]
1300:Generated_Source\PSoC4/capsense_Processing.c ****     wdStatusMask = capsense_GET_WDGT_STATUS_MASK(widgetId);
 1041              		.loc 1 1300 0
 1042 003a 6309     		lsrs	r3, r4, #5
ARM GAS  C:\Users\ASUS\AppData\Local\Temp\ccuOUgOD.s 			page 56


 1043              	.LVL193:
1301:Generated_Source\PSoC4/capsense_Processing.c **** 
 1044              		.loc 1 1301 0
 1045 003c 1F22     		movs	r2, #31
 1046 003e 1440     		ands	r4, r2
 1047              	.LVL194:
 1048 0040 1E3A     		subs	r2, r2, #30
 1049 0042 A240     		lsls	r2, r2, r4
 1050              	.LVL195:
1304:Generated_Source\PSoC4/capsense_Processing.c ****     {
 1051              		.loc 1 1304 0
 1052 0044 002D     		cmp	r5, #0
 1053 0046 07D1     		bne	.L74
1306:Generated_Source\PSoC4/capsense_Processing.c ****     }
 1054              		.loc 1 1306 0
 1055 0048 0433     		adds	r3, r3, #4
 1056              	.LVL196:
 1057 004a 9B00     		lsls	r3, r3, #2
 1058              	.LVL197:
 1059 004c 0649     		ldr	r1, .L77
 1060 004e CB18     		adds	r3, r1, r3
 1061 0050 5968     		ldr	r1, [r3, #4]
 1062 0052 9143     		bics	r1, r2
 1063 0054 5960     		str	r1, [r3, #4]
 1064 0056 06E0     		b	.L69
 1065              	.LVL198:
 1066              	.L74:
1310:Generated_Source\PSoC4/capsense_Processing.c ****     }
 1067              		.loc 1 1310 0
 1068 0058 0433     		adds	r3, r3, #4
 1069              	.LVL199:
 1070 005a 9B00     		lsls	r3, r3, #2
 1071              	.LVL200:
 1072 005c 0249     		ldr	r1, .L77
 1073 005e CB18     		adds	r3, r1, r3
 1074 0060 5968     		ldr	r1, [r3, #4]
 1075 0062 0A43     		orrs	r2, r1
 1076              	.LVL201:
 1077 0064 5A60     		str	r2, [r3, #4]
 1078              	.L69:
1312:Generated_Source\PSoC4/capsense_Processing.c **** #endif /* #if (0u != capsense_TOTAL_CSD_WIDGETS) */
 1079              		.loc 1 1312 0
 1080              		@ sp needed
 1081              	.LVL202:
 1082              	.LVL203:
 1083 0066 70BD     		pop	{r4, r5, r6, pc}
 1084              	.L78:
 1085              		.align	2
 1086              	.L77:
 1087 0068 00000000 		.word	capsense_dsRam
 1088              		.cfi_endproc
 1089              	.LFE8:
 1090              		.size	capsense_DpProcessCsdWidgetStatus, .-capsense_DpProcessCsdWidgetStatus
 1091              		.text
 1092              	.Letext0:
 1093              		.file 2 "Generated_Source\\PSoC4\\cytypes.h"
 1094              		.file 3 "c:\\program files (x86)\\cypress\\psoc creator\\4.4\\psoc creator\\import\\gnu\\arm\\5.4.
ARM GAS  C:\Users\ASUS\AppData\Local\Temp\ccuOUgOD.s 			page 57


 1095              		.file 4 "Generated_Source\\PSoC4\\capsense_Configuration.h"
 1096              		.file 5 "Generated_Source\\PSoC4\\capsense_Structure.h"
 1097              		.file 6 "c:\\program files (x86)\\cypress\\psoc creator\\4.4\\psoc creator\\import\\gnu\\arm\\5.4.
 1098              		.file 7 "Generated_Source\\PSoC4\\capsense_Filter.h"
 1099              		.file 8 "Generated_Source\\PSoC4\\CyLib.h"
 1100              		.file 9 "Generated_Source\\PSoC4\\capsense_Centroid_LL.h"