ARM GAS  C:\Users\ASUS\AppData\Local\Temp\cckKkMXZ.s 			page 1


   1              		.syntax unified
   2              		.cpu cortex-m0
   3              		.fpu softvfp
   4              		.eabi_attribute 20, 1
   5              		.eabi_attribute 21, 1
   6              		.eabi_attribute 23, 3
   7              		.eabi_attribute 24, 1
   8              		.eabi_attribute 25, 1
   9              		.eabi_attribute 26, 1
  10              		.eabi_attribute 30, 1
  11              		.eabi_attribute 34, 0
  12              		.eabi_attribute 18, 4
  13              		.thumb
  14              		.syntax unified
  15              		.file	"amux.c"
  16              		.text
  17              	.Ltext0:
  18              		.cfi_sections	.debug_frame
  19              		.section	.text.amux_Start,"ax",%progbits
  20              		.align	2
  21              		.global	amux_Start
  22              		.code	16
  23              		.thumb_func
  24              		.type	amux_Start, %function
  25              	amux_Start:
  26              	.LFB0:
  27              		.file 1 "Generated_Source\\PSoC4\\amux.c"
   1:Generated_Source\PSoC4/amux.c **** /*******************************************************************************
   2:Generated_Source\PSoC4/amux.c **** * File Name: amux.c
   3:Generated_Source\PSoC4/amux.c **** * Version 1.80
   4:Generated_Source\PSoC4/amux.c **** *
   5:Generated_Source\PSoC4/amux.c **** *  Description:
   6:Generated_Source\PSoC4/amux.c **** *    This file contains all functions required for the analog multiplexer
   7:Generated_Source\PSoC4/amux.c **** *    AMux User Module.
   8:Generated_Source\PSoC4/amux.c **** *
   9:Generated_Source\PSoC4/amux.c **** *   Note:
  10:Generated_Source\PSoC4/amux.c **** *
  11:Generated_Source\PSoC4/amux.c **** *******************************************************************************
  12:Generated_Source\PSoC4/amux.c **** * Copyright 2008-2010, Cypress Semiconductor Corporation.  All rights reserved.
  13:Generated_Source\PSoC4/amux.c **** * You may use this file only in accordance with the license, terms, conditions, 
  14:Generated_Source\PSoC4/amux.c **** * disclaimers, and limitations in the end user license agreement accompanying 
  15:Generated_Source\PSoC4/amux.c **** * the software package with which this file was provided.
  16:Generated_Source\PSoC4/amux.c **** ********************************************************************************/
  17:Generated_Source\PSoC4/amux.c **** 
  18:Generated_Source\PSoC4/amux.c **** #include "amux.h"
  19:Generated_Source\PSoC4/amux.c **** 
  20:Generated_Source\PSoC4/amux.c **** static uint8 amux_lastChannel = amux_NULL_CHANNEL;
  21:Generated_Source\PSoC4/amux.c **** 
  22:Generated_Source\PSoC4/amux.c **** 
  23:Generated_Source\PSoC4/amux.c **** /*******************************************************************************
  24:Generated_Source\PSoC4/amux.c **** * Function Name: amux_Start
  25:Generated_Source\PSoC4/amux.c **** ********************************************************************************
  26:Generated_Source\PSoC4/amux.c **** * Summary:
  27:Generated_Source\PSoC4/amux.c **** *  Disconnect all channels.
  28:Generated_Source\PSoC4/amux.c **** *
  29:Generated_Source\PSoC4/amux.c **** * Parameters:
  30:Generated_Source\PSoC4/amux.c **** *  void
ARM GAS  C:\Users\ASUS\AppData\Local\Temp\cckKkMXZ.s 			page 2


  31:Generated_Source\PSoC4/amux.c **** *
  32:Generated_Source\PSoC4/amux.c **** * Return:
  33:Generated_Source\PSoC4/amux.c **** *  void
  34:Generated_Source\PSoC4/amux.c **** *
  35:Generated_Source\PSoC4/amux.c **** *******************************************************************************/
  36:Generated_Source\PSoC4/amux.c **** void amux_Start(void) 
  37:Generated_Source\PSoC4/amux.c **** {
  28              		.loc 1 37 0
  29              		.cfi_startproc
  30              		@ args = 0, pretend = 0, frame = 0
  31              		@ frame_needed = 0, uses_anonymous_args = 0
  32 0000 10B5     		push	{r4, lr}
  33              		.cfi_def_cfa_offset 8
  34              		.cfi_offset 4, -8
  35              		.cfi_offset 14, -4
  36              	.LVL0:
  38:Generated_Source\PSoC4/amux.c ****     uint8 chan;
  39:Generated_Source\PSoC4/amux.c **** 
  40:Generated_Source\PSoC4/amux.c ****     for(chan = 0u; chan < amux_CHANNELS ; chan++)
  37              		.loc 1 40 0
  38 0002 0024     		movs	r4, #0
  39 0004 04E0     		b	.L2
  40              	.LVL1:
  41              	.L3:
  41:Generated_Source\PSoC4/amux.c ****     {
  42:Generated_Source\PSoC4/amux.c **** #if (amux_MUXTYPE == amux_MUX_SINGLE)
  43:Generated_Source\PSoC4/amux.c ****         amux_Unset(chan);
  42              		.loc 1 43 0 discriminator 3
  43 0006 2000     		movs	r0, r4
  44 0008 FFF7FEFF 		bl	amux_Unset
  45              	.LVL2:
  40:Generated_Source\PSoC4/amux.c ****     {
  46              		.loc 1 40 0 discriminator 3
  47 000c 0134     		adds	r4, r4, #1
  48              	.LVL3:
  49 000e E4B2     		uxtb	r4, r4
  50              	.LVL4:
  51              	.L2:
  40:Generated_Source\PSoC4/amux.c ****     {
  52              		.loc 1 40 0 is_stmt 0 discriminator 1
  53 0010 032C     		cmp	r4, #3
  54 0012 F8D9     		bls	.L3
  44:Generated_Source\PSoC4/amux.c **** #else
  45:Generated_Source\PSoC4/amux.c ****         amux_CYAMUXSIDE_A_Unset(chan);
  46:Generated_Source\PSoC4/amux.c ****         amux_CYAMUXSIDE_B_Unset(chan);
  47:Generated_Source\PSoC4/amux.c **** #endif
  48:Generated_Source\PSoC4/amux.c ****     }
  49:Generated_Source\PSoC4/amux.c **** 
  50:Generated_Source\PSoC4/amux.c ****     amux_lastChannel = amux_NULL_CHANNEL;
  55              		.loc 1 50 0 is_stmt 1
  56 0014 FF22     		movs	r2, #255
  57 0016 014B     		ldr	r3, .L4
  58 0018 1A70     		strb	r2, [r3]
  51:Generated_Source\PSoC4/amux.c **** }
  59              		.loc 1 51 0
  60              		@ sp needed
  61              	.LVL5:
ARM GAS  C:\Users\ASUS\AppData\Local\Temp\cckKkMXZ.s 			page 3


  62 001a 10BD     		pop	{r4, pc}
  63              	.L5:
  64              		.align	2
  65              	.L4:
  66 001c 00000000 		.word	.LANCHOR0
  67              		.cfi_endproc
  68              	.LFE0:
  69              		.size	amux_Start, .-amux_Start
  70              		.section	.text.amux_FastSelect,"ax",%progbits
  71              		.align	2
  72              		.global	amux_FastSelect
  73              		.code	16
  74              		.thumb_func
  75              		.type	amux_FastSelect, %function
  76              	amux_FastSelect:
  77              	.LFB1:
  52:Generated_Source\PSoC4/amux.c **** 
  53:Generated_Source\PSoC4/amux.c **** 
  54:Generated_Source\PSoC4/amux.c **** #if (!amux_ATMOSTONE)
  55:Generated_Source\PSoC4/amux.c **** /*******************************************************************************
  56:Generated_Source\PSoC4/amux.c **** * Function Name: amux_Select
  57:Generated_Source\PSoC4/amux.c **** ********************************************************************************
  58:Generated_Source\PSoC4/amux.c **** * Summary:
  59:Generated_Source\PSoC4/amux.c **** *  This functions first disconnects all channels then connects the given
  60:Generated_Source\PSoC4/amux.c **** *  channel.
  61:Generated_Source\PSoC4/amux.c **** *
  62:Generated_Source\PSoC4/amux.c **** * Parameters:
  63:Generated_Source\PSoC4/amux.c **** *  channel:  The channel to connect to the common terminal.
  64:Generated_Source\PSoC4/amux.c **** *
  65:Generated_Source\PSoC4/amux.c **** * Return:
  66:Generated_Source\PSoC4/amux.c **** *  void
  67:Generated_Source\PSoC4/amux.c **** *
  68:Generated_Source\PSoC4/amux.c **** *******************************************************************************/
  69:Generated_Source\PSoC4/amux.c **** void amux_Select(uint8 channel) 
  70:Generated_Source\PSoC4/amux.c **** {
  71:Generated_Source\PSoC4/amux.c ****     amux_DisconnectAll();        /* Disconnect all previous connections */
  72:Generated_Source\PSoC4/amux.c ****     amux_Connect(channel);       /* Make the given selection */
  73:Generated_Source\PSoC4/amux.c ****     amux_lastChannel = channel;  /* Update last channel */
  74:Generated_Source\PSoC4/amux.c **** }
  75:Generated_Source\PSoC4/amux.c **** #endif
  76:Generated_Source\PSoC4/amux.c **** 
  77:Generated_Source\PSoC4/amux.c **** 
  78:Generated_Source\PSoC4/amux.c **** /*******************************************************************************
  79:Generated_Source\PSoC4/amux.c **** * Function Name: amux_FastSelect
  80:Generated_Source\PSoC4/amux.c **** ********************************************************************************
  81:Generated_Source\PSoC4/amux.c **** * Summary:
  82:Generated_Source\PSoC4/amux.c **** *  This function first disconnects the last connection made with FastSelect or
  83:Generated_Source\PSoC4/amux.c **** *  Select, then connects the given channel. The FastSelect function is similar
  84:Generated_Source\PSoC4/amux.c **** *  to the Select function, except it is faster since it only disconnects the
  85:Generated_Source\PSoC4/amux.c **** *  last channel selected rather than all channels.
  86:Generated_Source\PSoC4/amux.c **** *
  87:Generated_Source\PSoC4/amux.c **** * Parameters:
  88:Generated_Source\PSoC4/amux.c **** *  channel:  The channel to connect to the common terminal.
  89:Generated_Source\PSoC4/amux.c **** *
  90:Generated_Source\PSoC4/amux.c **** * Return:
  91:Generated_Source\PSoC4/amux.c **** *  void
  92:Generated_Source\PSoC4/amux.c **** *
ARM GAS  C:\Users\ASUS\AppData\Local\Temp\cckKkMXZ.s 			page 4


  93:Generated_Source\PSoC4/amux.c **** *******************************************************************************/
  94:Generated_Source\PSoC4/amux.c **** void amux_FastSelect(uint8 channel) 
  95:Generated_Source\PSoC4/amux.c **** {
  78              		.loc 1 95 0
  79              		.cfi_startproc
  80              		@ args = 0, pretend = 0, frame = 0
  81              		@ frame_needed = 0, uses_anonymous_args = 0
  82              	.LVL6:
  83 0000 10B5     		push	{r4, lr}
  84              		.cfi_def_cfa_offset 8
  85              		.cfi_offset 4, -8
  86              		.cfi_offset 14, -4
  87 0002 0400     		movs	r4, r0
  96:Generated_Source\PSoC4/amux.c ****     /* Disconnect the last valid channel */
  97:Generated_Source\PSoC4/amux.c ****     if( amux_lastChannel != amux_NULL_CHANNEL)
  88              		.loc 1 97 0
  89 0004 054B     		ldr	r3, .L8
  90 0006 1878     		ldrb	r0, [r3]
  91              	.LVL7:
  92 0008 FF28     		cmp	r0, #255
  93 000a 01D0     		beq	.L7
  98:Generated_Source\PSoC4/amux.c ****     {
  99:Generated_Source\PSoC4/amux.c ****         amux_Disconnect(amux_lastChannel);
  94              		.loc 1 99 0
  95 000c FFF7FEFF 		bl	amux_Unset
  96              	.LVL8:
  97              	.L7:
 100:Generated_Source\PSoC4/amux.c ****     }
 101:Generated_Source\PSoC4/amux.c **** 
 102:Generated_Source\PSoC4/amux.c ****     /* Make the new channel connection */
 103:Generated_Source\PSoC4/amux.c **** #if (amux_MUXTYPE == amux_MUX_SINGLE)
 104:Generated_Source\PSoC4/amux.c ****     amux_Set(channel);
  98              		.loc 1 104 0
  99 0010 2000     		movs	r0, r4
 100 0012 FFF7FEFF 		bl	amux_Set
 101              	.LVL9:
 105:Generated_Source\PSoC4/amux.c **** #else
 106:Generated_Source\PSoC4/amux.c ****     amux_CYAMUXSIDE_A_Set(channel);
 107:Generated_Source\PSoC4/amux.c ****     amux_CYAMUXSIDE_B_Set(channel);
 108:Generated_Source\PSoC4/amux.c **** #endif
 109:Generated_Source\PSoC4/amux.c **** 
 110:Generated_Source\PSoC4/amux.c **** 
 111:Generated_Source\PSoC4/amux.c ****     amux_lastChannel = channel;   /* Update last channel */
 102              		.loc 1 111 0
 103 0016 014B     		ldr	r3, .L8
 104 0018 1C70     		strb	r4, [r3]
 112:Generated_Source\PSoC4/amux.c **** }
 105              		.loc 1 112 0
 106              		@ sp needed
 107 001a 10BD     		pop	{r4, pc}
 108              	.L9:
 109              		.align	2
 110              	.L8:
 111 001c 00000000 		.word	.LANCHOR0
 112              		.cfi_endproc
 113              	.LFE1:
 114              		.size	amux_FastSelect, .-amux_FastSelect
ARM GAS  C:\Users\ASUS\AppData\Local\Temp\cckKkMXZ.s 			page 5


 115              		.section	.text.amux_DisconnectAll,"ax",%progbits
 116              		.align	2
 117              		.global	amux_DisconnectAll
 118              		.code	16
 119              		.thumb_func
 120              		.type	amux_DisconnectAll, %function
 121              	amux_DisconnectAll:
 122              	.LFB2:
 113:Generated_Source\PSoC4/amux.c **** 
 114:Generated_Source\PSoC4/amux.c **** 
 115:Generated_Source\PSoC4/amux.c **** #if (amux_MUXTYPE == amux_MUX_DIFF)
 116:Generated_Source\PSoC4/amux.c **** #if (!amux_ATMOSTONE)
 117:Generated_Source\PSoC4/amux.c **** /*******************************************************************************
 118:Generated_Source\PSoC4/amux.c **** * Function Name: amux_Connect
 119:Generated_Source\PSoC4/amux.c **** ********************************************************************************
 120:Generated_Source\PSoC4/amux.c **** * Summary:
 121:Generated_Source\PSoC4/amux.c **** *  This function connects the given channel without affecting other connections.
 122:Generated_Source\PSoC4/amux.c **** *
 123:Generated_Source\PSoC4/amux.c **** * Parameters:
 124:Generated_Source\PSoC4/amux.c **** *  channel:  The channel to connect to the common terminal.
 125:Generated_Source\PSoC4/amux.c **** *
 126:Generated_Source\PSoC4/amux.c **** * Return:
 127:Generated_Source\PSoC4/amux.c **** *  void
 128:Generated_Source\PSoC4/amux.c **** *
 129:Generated_Source\PSoC4/amux.c **** *******************************************************************************/
 130:Generated_Source\PSoC4/amux.c **** void amux_Connect(uint8 channel) 
 131:Generated_Source\PSoC4/amux.c **** {
 132:Generated_Source\PSoC4/amux.c ****     amux_CYAMUXSIDE_A_Set(channel);
 133:Generated_Source\PSoC4/amux.c ****     amux_CYAMUXSIDE_B_Set(channel);
 134:Generated_Source\PSoC4/amux.c **** }
 135:Generated_Source\PSoC4/amux.c **** #endif
 136:Generated_Source\PSoC4/amux.c **** 
 137:Generated_Source\PSoC4/amux.c **** /*******************************************************************************
 138:Generated_Source\PSoC4/amux.c **** * Function Name: amux_Disconnect
 139:Generated_Source\PSoC4/amux.c **** ********************************************************************************
 140:Generated_Source\PSoC4/amux.c **** * Summary:
 141:Generated_Source\PSoC4/amux.c **** *  This function disconnects the given channel from the common or output
 142:Generated_Source\PSoC4/amux.c **** *  terminal without affecting other connections.
 143:Generated_Source\PSoC4/amux.c **** *
 144:Generated_Source\PSoC4/amux.c **** * Parameters:
 145:Generated_Source\PSoC4/amux.c **** *  channel:  The channel to disconnect from the common terminal.
 146:Generated_Source\PSoC4/amux.c **** *
 147:Generated_Source\PSoC4/amux.c **** * Return:
 148:Generated_Source\PSoC4/amux.c **** *  void
 149:Generated_Source\PSoC4/amux.c **** *
 150:Generated_Source\PSoC4/amux.c **** *******************************************************************************/
 151:Generated_Source\PSoC4/amux.c **** void amux_Disconnect(uint8 channel) 
 152:Generated_Source\PSoC4/amux.c **** {
 153:Generated_Source\PSoC4/amux.c ****     amux_CYAMUXSIDE_A_Unset(channel);
 154:Generated_Source\PSoC4/amux.c ****     amux_CYAMUXSIDE_B_Unset(channel);
 155:Generated_Source\PSoC4/amux.c **** }
 156:Generated_Source\PSoC4/amux.c **** #endif
 157:Generated_Source\PSoC4/amux.c **** 
 158:Generated_Source\PSoC4/amux.c **** #if (amux_ATMOSTONE)
 159:Generated_Source\PSoC4/amux.c **** /*******************************************************************************
 160:Generated_Source\PSoC4/amux.c **** * Function Name: amux_DisconnectAll
 161:Generated_Source\PSoC4/amux.c **** ********************************************************************************
ARM GAS  C:\Users\ASUS\AppData\Local\Temp\cckKkMXZ.s 			page 6


 162:Generated_Source\PSoC4/amux.c **** * Summary:
 163:Generated_Source\PSoC4/amux.c **** *  This function disconnects all channels.
 164:Generated_Source\PSoC4/amux.c **** *
 165:Generated_Source\PSoC4/amux.c **** * Parameters:
 166:Generated_Source\PSoC4/amux.c **** *  void
 167:Generated_Source\PSoC4/amux.c **** *
 168:Generated_Source\PSoC4/amux.c **** * Return:
 169:Generated_Source\PSoC4/amux.c **** *  void
 170:Generated_Source\PSoC4/amux.c **** *
 171:Generated_Source\PSoC4/amux.c **** *******************************************************************************/
 172:Generated_Source\PSoC4/amux.c **** void amux_DisconnectAll(void) 
 173:Generated_Source\PSoC4/amux.c **** {
 123              		.loc 1 173 0
 124              		.cfi_startproc
 125              		@ args = 0, pretend = 0, frame = 0
 126              		@ frame_needed = 0, uses_anonymous_args = 0
 127 0000 10B5     		push	{r4, lr}
 128              		.cfi_def_cfa_offset 8
 129              		.cfi_offset 4, -8
 130              		.cfi_offset 14, -4
 174:Generated_Source\PSoC4/amux.c ****     if(amux_lastChannel != amux_NULL_CHANNEL) 
 131              		.loc 1 174 0
 132 0002 054B     		ldr	r3, .L12
 133 0004 1878     		ldrb	r0, [r3]
 134 0006 FF28     		cmp	r0, #255
 135 0008 04D0     		beq	.L10
 175:Generated_Source\PSoC4/amux.c ****     {
 176:Generated_Source\PSoC4/amux.c ****         amux_Disconnect(amux_lastChannel);
 136              		.loc 1 176 0
 137 000a FFF7FEFF 		bl	amux_Unset
 138              	.LVL10:
 177:Generated_Source\PSoC4/amux.c ****         amux_lastChannel = amux_NULL_CHANNEL;
 139              		.loc 1 177 0
 140 000e FF22     		movs	r2, #255
 141 0010 014B     		ldr	r3, .L12
 142 0012 1A70     		strb	r2, [r3]
 143              	.L10:
 178:Generated_Source\PSoC4/amux.c ****     }
 179:Generated_Source\PSoC4/amux.c **** }
 144              		.loc 1 179 0
 145              		@ sp needed
 146 0014 10BD     		pop	{r4, pc}
 147              	.L13:
 148 0016 C046     		.align	2
 149              	.L12:
 150 0018 00000000 		.word	.LANCHOR0
 151              		.cfi_endproc
 152              	.LFE2:
 153              		.size	amux_DisconnectAll, .-amux_DisconnectAll
 154              		.data
 155              		.set	.LANCHOR0,. + 0
 156              		.type	amux_lastChannel, %object
 157              		.size	amux_lastChannel, 1
 158              	amux_lastChannel:
 159 0000 FF       		.byte	-1
 160              		.text
 161              	.Letext0:
ARM GAS  C:\Users\ASUS\AppData\Local\Temp\cckKkMXZ.s 			page 7


 162              		.file 2 "Generated_Source\\PSoC4\\cyfitter_cfg.h"
 163              		.file 3 "Generated_Source\\PSoC4\\cytypes.h"