ARM GAS  C:\Users\ASUS\AppData\Local\Temp\cc79g56I.s 			page 1


   1              		.syntax unified
   2              		.cpu cortex-m0plus
   3              		.fpu softvfp
   4              		.eabi_attribute 20, 1
   5              		.eabi_attribute 21, 1
   6              		.eabi_attribute 23, 3
   7              		.eabi_attribute 24, 1
   8              		.eabi_attribute 25, 1
   9              		.eabi_attribute 26, 1
  10              		.eabi_attribute 30, 1
  11              		.eabi_attribute 34, 0
  12              		.eabi_attribute 18, 4
  13              		.thumb
  14              		.syntax unified
  15              		.file	"main.c"
  16              		.text
  17              	.Ltext0:
  18              		.cfi_sections	.debug_frame
  19              		.section	.text.main__init,"ax",%progbits
  20              		.align	2
  21              		.global	main__init
  22              		.code	16
  23              		.thumb_func
  24              		.type	main__init, %function
  25              	main__init:
  26              	.LFB33:
  27              		.file 1 "main.c"
   1:main.c        **** // This C code was automatically generated by Aixt Project
   2:main.c        **** //     https://github.com/fermarsan/aixt
   3:main.c        **** // Device = CY8CKIT-145
   4:main.c        **** // Board = CY8CKIT-145-40XX
   5:main.c        **** // Backend = c
   6:main.c        **** 
   7:main.c        **** #include <stdint.h>
   8:main.c        **** #include <stdbool.h>
   9:main.c        **** typedef int8_t i8;
  10:main.c        **** typedef int16_t i16;
  11:main.c        **** typedef int32_t i32;
  12:main.c        **** typedef int64_t i64;
  13:main.c        **** typedef int32_t isize;
  14:main.c        **** typedef int32_t int_literal;
  15:main.c        **** typedef uint8_t u8;
  16:main.c        **** typedef uint16_t u16;
  17:main.c        **** typedef uint32_t u32;
  18:main.c        **** typedef uint64_t u64;
  19:main.c        **** typedef uint32_t usize;
  20:main.c        **** typedef float f32;
  21:main.c        **** typedef double f64;
  22:main.c        **** typedef double float_literal;
  23:main.c        **** typedef char rune;
  24:main.c        **** 
  25:main.c        **** #define _const_main__cpu_freq_mhz	_const_main__cpu_freq/1000000
  26:main.c        **** #define _const_main__cpu_freq  20000000
  27:main.c        **** 
  28:main.c        **** #include "project.h"
  29:main.c        **** 
  30:main.c        **** #define INIT_INTERRUPTS()   CyGlobalIntEnable
ARM GAS  C:\Users\ASUS\AppData\Local\Temp\cc79g56I.s 			page 2


  31:main.c        **** 
  32:main.c        **** void  main__init();
  33:main.c        **** void  pwm__init();
  34:main.c        **** 
  35:main.c        **** #define _const_main__led1 led1
  36:main.c        **** #define _const_main__led4 led4
  37:main.c        **** #define _const_main__led5 led5
  38:main.c        **** #define _const_main__led6 led6
  39:main.c        **** #define _const_main__led7 led7
  40:main.c        **** #define _const_main__led8 led8
  41:main.c        **** #define _const_main__led9 led9
  42:main.c        **** #define _const_main__led10 led10
  43:main.c        **** #define _const_main__led11 led11
  44:main.c        **** #define _const_main__do0 12
  45:main.c        **** #define _const_main__do1 13
  46:main.c        **** #define _const_main__do2 14
  47:main.c        **** #define _const_main__sw2 sw2
  48:main.c        **** #define _const_main__di0 20
  49:main.c        **** #define _const_main__di1 21
  50:main.c        **** #define _const_main__di2 22
  51:main.c        **** #define _const_main__btn0 23
  52:main.c        **** #define _const_main__btn1 24
  53:main.c        **** #define _const_main__btn2 25
  54:main.c        **** #define _const_main__sld0 26
  55:main.c        **** #define _const_main__sld1 27
  56:main.c        **** #define _const_main__sld2 28
  57:main.c        **** #define _const_main__sld3 29
  58:main.c        **** #define _const_main__sld4 30
  59:main.c        **** 
  60:main.c        ****  void  main__init() {
  28              		.loc 1 60 0
  29              		.cfi_startproc
  30              		@ args = 0, pretend = 0, frame = 0
  31              		@ frame_needed = 0, uses_anonymous_args = 0
  32              		@ link register save eliminated.
  61:main.c        **** 	INIT_INTERRUPTS(); 
  33              		.loc 1 61 0
  34              		.syntax divided
  35              	@ 61 "main.c" 1
  36 0000 62B6     		CPSIE   i
  37              	@ 0 "" 2
  62:main.c        **** }
  38              		.loc 1 62 0
  39              		.thumb
  40              		.syntax unified
  41              		@ sp needed
  42 0002 7047     		bx	lr
  43              		.cfi_endproc
  44              	.LFE33:
  45              		.size	main__init, .-main__init
  46              		.section	.text.pwm__init,"ax",%progbits
  47              		.align	2
  48              		.global	pwm__init
  49              		.code	16
  50              		.thumb_func
  51              		.type	pwm__init, %function
  52              	pwm__init:
ARM GAS  C:\Users\ASUS\AppData\Local\Temp\cc79g56I.s 			page 3


  53              	.LFB34:
  63:main.c        **** 
  64:main.c        **** #define _const_pwm__ch0 17
  65:main.c        **** #define _const_pwm__ch1 15
  66:main.c        **** #define _const_pwm__ch2 16
  67:main.c        **** 
  68:main.c        ****  void  pwm__init() {
  54              		.loc 1 68 0
  55              		.cfi_startproc
  56              		@ args = 0, pretend = 0, frame = 0
  57              		@ frame_needed = 0, uses_anonymous_args = 0
  58 0000 10B5     		push	{r4, lr}
  59              		.cfi_def_cfa_offset 8
  60              		.cfi_offset 4, -8
  61              		.cfi_offset 14, -4
  69:main.c        **** 	pwm1_Start(); 
  62              		.loc 1 69 0
  63 0002 FFF7FEFF 		bl	pwm1_Start
  64              	.LVL0:
  70:main.c        **** 	pwm2_Start(); 
  65              		.loc 1 70 0
  66 0006 FFF7FEFF 		bl	pwm2_Start
  67              	.LVL1:
  71:main.c        **** 	pwm0_Start(); 
  68              		.loc 1 71 0
  69 000a FFF7FEFF 		bl	pwm0_Start
  70              	.LVL2:
  72:main.c        **** 	clock_Start(); 
  71              		.loc 1 72 0
  72 000e FF20     		movs	r0, #255
  73 0010 FFF7FEFF 		bl	clock_StartEx
  74              	.LVL3:
  73:main.c        **** }
  75              		.loc 1 73 0
  76              		@ sp needed
  77 0014 10BD     		pop	{r4, pc}
  78              		.cfi_endproc
  79              	.LFE34:
  80              		.size	pwm__init, .-pwm__init
  81 0016 C046     		.section	.text.main,"ax",%progbits
  82              		.align	2
  83              		.global	main
  84              		.code	16
  85              		.thumb_func
  86              		.type	main, %function
  87              	main:
  88              	.LFB35:
  74:main.c        **** 
  75:main.c        **** #define pwm__write(channel, val) \
  76:main.c        **** switch (channel) { \
  77:main.c        **** 	case _const_pwm__ch0: \
  78:main.c        **** 	{ \
  79:main.c        **** 		pwm0_WriteCompare(val);  \
  80:main.c        **** 		break; \
  81:main.c        **** 	}  \
  82:main.c        **** 	case _const_pwm__ch1: \
  83:main.c        **** 	{ \
ARM GAS  C:\Users\ASUS\AppData\Local\Temp\cc79g56I.s 			page 4


  84:main.c        **** 		pwm1_WriteCompare(val);  \
  85:main.c        **** 		break; \
  86:main.c        **** 	}  \
  87:main.c        **** 	case _const_pwm__ch2: \
  88:main.c        **** 	{ \
  89:main.c        **** 		pwm2_WriteCompare(val);  \
  90:main.c        **** 		break; \
  91:main.c        **** 	}  \
  92:main.c        **** 	default: { \
  93:main.c        **** 		break; \
  94:main.c        **** 	}  \
  95:main.c        **** }; \
  96:main.c        **** // end #define
  97:main.c        **** 
  98:main.c        **** #define time__sleep_ms(tms) CyDelay(tms)
  99:main.c        **** 
 100:main.c        **** #define time__sleep_us(tus) CyDelayUs(tus)
 101:main.c        **** 
 102:main.c        ****  int main() {
  89              		.loc 1 102 0
  90              		.cfi_startproc
  91              		@ Volatile: function does not return.
  92              		@ args = 0, pretend = 0, frame = 0
  93              		@ frame_needed = 0, uses_anonymous_args = 0
  94 0000 10B5     		push	{r4, lr}
  95              		.cfi_def_cfa_offset 8
  96              		.cfi_offset 4, -8
  97              		.cfi_offset 14, -4
 103:main.c        **** 	main__init();
  98              		.loc 1 103 0
  99 0002 FFF7FEFF 		bl	main__init
 100              	.LVL4:
 104:main.c        **** 	pwm__init();
 101              		.loc 1 104 0
 102 0006 FFF7FEFF 		bl	pwm__init
 103              	.LVL5:
 104              	.L4:
 105:main.c        **** 	while( true ) {
 106:main.c        **** 		pwm__write(_const_pwm__ch1, 10000); 
 105              		.loc 1 106 0 discriminator 1
 106 000a 0A48     		ldr	r0, .L5
 107 000c FFF7FEFF 		bl	pwm1_WriteCompare
 108              	.LVL6:
 107:main.c        **** 		time__sleep_ms(500); 
 109              		.loc 1 107 0 discriminator 1
 110 0010 FA24     		movs	r4, #250
 111 0012 6400     		lsls	r4, r4, #1
 112 0014 2000     		movs	r0, r4
 113 0016 FFF7FEFF 		bl	CyDelay
 114              	.LVL7:
 108:main.c        **** 		pwm__write(_const_pwm__ch1, 5000); 
 115              		.loc 1 108 0 discriminator 1
 116 001a 0748     		ldr	r0, .L5+4
 117 001c FFF7FEFF 		bl	pwm1_WriteCompare
 118              	.LVL8:
 109:main.c        **** 		time__sleep_ms(500); 
 119              		.loc 1 109 0 discriminator 1
ARM GAS  C:\Users\ASUS\AppData\Local\Temp\cc79g56I.s 			page 5


 120 0020 2000     		movs	r0, r4
 121 0022 FFF7FEFF 		bl	CyDelay
 122              	.LVL9:
 110:main.c        **** 		pwm__write(_const_pwm__ch1, 0); 
 123              		.loc 1 110 0 discriminator 1
 124 0026 0020     		movs	r0, #0
 125 0028 FFF7FEFF 		bl	pwm1_WriteCompare
 126              	.LVL10:
 111:main.c        **** 		time__sleep_ms(500); 
 127              		.loc 1 111 0 discriminator 1
 128 002c 2000     		movs	r0, r4
 129 002e FFF7FEFF 		bl	CyDelay
 130              	.LVL11:
 131 0032 EAE7     		b	.L4
 132              	.L6:
 133              		.align	2
 134              	.L5:
 135 0034 10270000 		.word	10000
 136 0038 88130000 		.word	5000
 137              		.cfi_endproc
 138              	.LFE35:
 139              		.size	main, .-main
 140              		.text
 141              	.Letext0:
 142              		.file 2 "Generated_Source\\PSoC4/pwm1.h"
 143              		.file 3 "Generated_Source\\PSoC4/pwm2.h"
 144              		.file 4 "Generated_Source\\PSoC4/pwm0.h"
 145              		.file 5 "Generated_Source\\PSoC4/clock.h"
 146              		.file 6 "Generated_Source\\PSoC4/CyLib.h"