ARM GAS  C:\Users\ASUS\AppData\Local\Temp\ccmno2My.s 			page 1


   1              		.syntax unified
   2              		.cpu cortex-m0plus
   3              		.fpu softvfp
   4              		.eabi_attribute 20, 1
   5              		.eabi_attribute 21, 1
   6              		.eabi_attribute 23, 3
   7              		.eabi_attribute 24, 1
   8              		.eabi_attribute 25, 1
   9              		.eabi_attribute 26, 1
  10              		.eabi_attribute 30, 1
  11              		.eabi_attribute 34, 0
  12              		.eabi_attribute 18, 4
  13              		.thumb
  14              		.syntax unified
  15              		.file	"uart.c"
  16              		.text
  17              	.Ltext0:
  18              		.cfi_sections	.debug_frame
  19              		.section	.text.uart_ScbModePostEnable,"ax",%progbits
  20              		.align	2
  21              		.code	16
  22              		.thumb_func
  23              		.type	uart_ScbModePostEnable, %function
  24              	uart_ScbModePostEnable:
  25              	.LFB8:
  26              		.file 1 "Generated_Source\\PSoC4\\uart.c"
   1:Generated_Source\PSoC4/uart.c **** /***************************************************************************//**
   2:Generated_Source\PSoC4/uart.c **** * \file uart.c
   3:Generated_Source\PSoC4/uart.c **** * \version 4.0
   4:Generated_Source\PSoC4/uart.c **** *
   5:Generated_Source\PSoC4/uart.c **** * \brief
   6:Generated_Source\PSoC4/uart.c **** *  This file provides the source code to the API for the SCB Component.
   7:Generated_Source\PSoC4/uart.c **** *
   8:Generated_Source\PSoC4/uart.c **** * Note:
   9:Generated_Source\PSoC4/uart.c **** *
  10:Generated_Source\PSoC4/uart.c **** *******************************************************************************
  11:Generated_Source\PSoC4/uart.c **** * \copyright
  12:Generated_Source\PSoC4/uart.c **** * Copyright 2013-2017, Cypress Semiconductor Corporation.  All rights reserved.
  13:Generated_Source\PSoC4/uart.c **** * You may use this file only in accordance with the license, terms, conditions,
  14:Generated_Source\PSoC4/uart.c **** * disclaimers, and limitations in the end user license agreement accompanying
  15:Generated_Source\PSoC4/uart.c **** * the software package with which this file was provided.
  16:Generated_Source\PSoC4/uart.c **** *******************************************************************************/
  17:Generated_Source\PSoC4/uart.c **** 
  18:Generated_Source\PSoC4/uart.c **** #include "uart_PVT.h"
  19:Generated_Source\PSoC4/uart.c **** 
  20:Generated_Source\PSoC4/uart.c **** #if (uart_SCB_MODE_I2C_INC)
  21:Generated_Source\PSoC4/uart.c ****     #include "uart_I2C_PVT.h"
  22:Generated_Source\PSoC4/uart.c **** #endif /* (uart_SCB_MODE_I2C_INC) */
  23:Generated_Source\PSoC4/uart.c **** 
  24:Generated_Source\PSoC4/uart.c **** #if (uart_SCB_MODE_EZI2C_INC)
  25:Generated_Source\PSoC4/uart.c ****     #include "uart_EZI2C_PVT.h"
  26:Generated_Source\PSoC4/uart.c **** #endif /* (uart_SCB_MODE_EZI2C_INC) */
  27:Generated_Source\PSoC4/uart.c **** 
  28:Generated_Source\PSoC4/uart.c **** #if (uart_SCB_MODE_SPI_INC || uart_SCB_MODE_UART_INC)
  29:Generated_Source\PSoC4/uart.c ****     #include "uart_SPI_UART_PVT.h"
  30:Generated_Source\PSoC4/uart.c **** #endif /* (uart_SCB_MODE_SPI_INC || uart_SCB_MODE_UART_INC) */
  31:Generated_Source\PSoC4/uart.c **** 
ARM GAS  C:\Users\ASUS\AppData\Local\Temp\ccmno2My.s 			page 2


  32:Generated_Source\PSoC4/uart.c **** 
  33:Generated_Source\PSoC4/uart.c **** /***************************************
  34:Generated_Source\PSoC4/uart.c **** *    Run Time Configuration Vars
  35:Generated_Source\PSoC4/uart.c **** ***************************************/
  36:Generated_Source\PSoC4/uart.c **** 
  37:Generated_Source\PSoC4/uart.c **** /* Stores internal component configuration for Unconfigured mode */
  38:Generated_Source\PSoC4/uart.c **** #if (uart_SCB_MODE_UNCONFIG_CONST_CFG)
  39:Generated_Source\PSoC4/uart.c ****     /* Common configuration variables */
  40:Generated_Source\PSoC4/uart.c ****     uint8 uart_scbMode = uart_SCB_MODE_UNCONFIG;
  41:Generated_Source\PSoC4/uart.c ****     uint8 uart_scbEnableWake;
  42:Generated_Source\PSoC4/uart.c ****     uint8 uart_scbEnableIntr;
  43:Generated_Source\PSoC4/uart.c **** 
  44:Generated_Source\PSoC4/uart.c ****     /* I2C configuration variables */
  45:Generated_Source\PSoC4/uart.c ****     uint8 uart_mode;
  46:Generated_Source\PSoC4/uart.c ****     uint8 uart_acceptAddr;
  47:Generated_Source\PSoC4/uart.c **** 
  48:Generated_Source\PSoC4/uart.c ****     /* SPI/UART configuration variables */
  49:Generated_Source\PSoC4/uart.c ****     volatile uint8 * uart_rxBuffer;
  50:Generated_Source\PSoC4/uart.c ****     uint8  uart_rxDataBits;
  51:Generated_Source\PSoC4/uart.c ****     uint32 uart_rxBufferSize;
  52:Generated_Source\PSoC4/uart.c **** 
  53:Generated_Source\PSoC4/uart.c ****     volatile uint8 * uart_txBuffer;
  54:Generated_Source\PSoC4/uart.c ****     uint8  uart_txDataBits;
  55:Generated_Source\PSoC4/uart.c ****     uint32 uart_txBufferSize;
  56:Generated_Source\PSoC4/uart.c **** 
  57:Generated_Source\PSoC4/uart.c ****     /* EZI2C configuration variables */
  58:Generated_Source\PSoC4/uart.c ****     uint8 uart_numberOfAddr;
  59:Generated_Source\PSoC4/uart.c ****     uint8 uart_subAddrSize;
  60:Generated_Source\PSoC4/uart.c **** #endif /* (uart_SCB_MODE_UNCONFIG_CONST_CFG) */
  61:Generated_Source\PSoC4/uart.c **** 
  62:Generated_Source\PSoC4/uart.c **** 
  63:Generated_Source\PSoC4/uart.c **** /***************************************
  64:Generated_Source\PSoC4/uart.c **** *     Common SCB Vars
  65:Generated_Source\PSoC4/uart.c **** ***************************************/
  66:Generated_Source\PSoC4/uart.c **** /**
  67:Generated_Source\PSoC4/uart.c **** * \addtogroup group_general
  68:Generated_Source\PSoC4/uart.c **** * \{
  69:Generated_Source\PSoC4/uart.c **** */
  70:Generated_Source\PSoC4/uart.c **** 
  71:Generated_Source\PSoC4/uart.c **** /** uart_initVar indicates whether the uart 
  72:Generated_Source\PSoC4/uart.c **** *  component has been initialized. The variable is initialized to 0 
  73:Generated_Source\PSoC4/uart.c **** *  and set to 1 the first time SCB_Start() is called. This allows 
  74:Generated_Source\PSoC4/uart.c **** *  the component to restart without reinitialization after the first 
  75:Generated_Source\PSoC4/uart.c **** *  call to the uart_Start() routine.
  76:Generated_Source\PSoC4/uart.c **** *
  77:Generated_Source\PSoC4/uart.c **** *  If re-initialization of the component is required, then the 
  78:Generated_Source\PSoC4/uart.c **** *  uart_Init() function can be called before the 
  79:Generated_Source\PSoC4/uart.c **** *  uart_Start() or uart_Enable() function.
  80:Generated_Source\PSoC4/uart.c **** */
  81:Generated_Source\PSoC4/uart.c **** uint8 uart_initVar = 0u;
  82:Generated_Source\PSoC4/uart.c **** 
  83:Generated_Source\PSoC4/uart.c **** 
  84:Generated_Source\PSoC4/uart.c **** #if (! (uart_SCB_MODE_I2C_CONST_CFG || \
  85:Generated_Source\PSoC4/uart.c ****         uart_SCB_MODE_EZI2C_CONST_CFG))
  86:Generated_Source\PSoC4/uart.c ****     /** This global variable stores TX interrupt sources after 
  87:Generated_Source\PSoC4/uart.c ****     * uart_Stop() is called. Only these TX interrupt sources 
  88:Generated_Source\PSoC4/uart.c ****     * will be restored on a subsequent uart_Enable() call.
ARM GAS  C:\Users\ASUS\AppData\Local\Temp\ccmno2My.s 			page 3


  89:Generated_Source\PSoC4/uart.c ****     */
  90:Generated_Source\PSoC4/uart.c ****     uint16 uart_IntrTxMask = 0u;
  91:Generated_Source\PSoC4/uart.c **** #endif /* (! (uart_SCB_MODE_I2C_CONST_CFG || \
  92:Generated_Source\PSoC4/uart.c ****               uart_SCB_MODE_EZI2C_CONST_CFG)) */
  93:Generated_Source\PSoC4/uart.c **** /** \} globals */
  94:Generated_Source\PSoC4/uart.c **** 
  95:Generated_Source\PSoC4/uart.c **** #if (uart_SCB_IRQ_INTERNAL)
  96:Generated_Source\PSoC4/uart.c **** #if !defined (CY_REMOVE_uart_CUSTOM_INTR_HANDLER)
  97:Generated_Source\PSoC4/uart.c ****     void (*uart_customIntrHandler)(void) = NULL;
  98:Generated_Source\PSoC4/uart.c **** #endif /* !defined (CY_REMOVE_uart_CUSTOM_INTR_HANDLER) */
  99:Generated_Source\PSoC4/uart.c **** #endif /* (uart_SCB_IRQ_INTERNAL) */
 100:Generated_Source\PSoC4/uart.c **** 
 101:Generated_Source\PSoC4/uart.c **** 
 102:Generated_Source\PSoC4/uart.c **** /***************************************
 103:Generated_Source\PSoC4/uart.c **** *    Private Function Prototypes
 104:Generated_Source\PSoC4/uart.c **** ***************************************/
 105:Generated_Source\PSoC4/uart.c **** 
 106:Generated_Source\PSoC4/uart.c **** static void uart_ScbEnableIntr(void);
 107:Generated_Source\PSoC4/uart.c **** static void uart_ScbModeStop(void);
 108:Generated_Source\PSoC4/uart.c **** static void uart_ScbModePostEnable(void);
 109:Generated_Source\PSoC4/uart.c **** 
 110:Generated_Source\PSoC4/uart.c **** 
 111:Generated_Source\PSoC4/uart.c **** /*******************************************************************************
 112:Generated_Source\PSoC4/uart.c **** * Function Name: uart_Init
 113:Generated_Source\PSoC4/uart.c **** ****************************************************************************//**
 114:Generated_Source\PSoC4/uart.c **** *
 115:Generated_Source\PSoC4/uart.c **** *  Initializes the uart component to operate in one of the selected
 116:Generated_Source\PSoC4/uart.c **** *  configurations: I2C, SPI, UART or EZI2C.
 117:Generated_Source\PSoC4/uart.c **** *  When the configuration is set to "Unconfigured SCB", this function does
 118:Generated_Source\PSoC4/uart.c **** *  not do any initialization. Use mode-specific initialization APIs instead:
 119:Generated_Source\PSoC4/uart.c **** *  uart_I2CInit, uart_SpiInit, 
 120:Generated_Source\PSoC4/uart.c **** *  uart_UartInit or uart_EzI2CInit.
 121:Generated_Source\PSoC4/uart.c **** *
 122:Generated_Source\PSoC4/uart.c **** *******************************************************************************/
 123:Generated_Source\PSoC4/uart.c **** void uart_Init(void)
 124:Generated_Source\PSoC4/uart.c **** {
 125:Generated_Source\PSoC4/uart.c **** #if (uart_SCB_MODE_UNCONFIG_CONST_CFG)
 126:Generated_Source\PSoC4/uart.c ****     if (uart_SCB_MODE_UNCONFIG_RUNTM_CFG)
 127:Generated_Source\PSoC4/uart.c ****     {
 128:Generated_Source\PSoC4/uart.c ****         uart_initVar = 0u;
 129:Generated_Source\PSoC4/uart.c ****     }
 130:Generated_Source\PSoC4/uart.c ****     else
 131:Generated_Source\PSoC4/uart.c ****     {
 132:Generated_Source\PSoC4/uart.c ****         /* Initialization was done before this function call */
 133:Generated_Source\PSoC4/uart.c ****     }
 134:Generated_Source\PSoC4/uart.c **** 
 135:Generated_Source\PSoC4/uart.c **** #elif (uart_SCB_MODE_I2C_CONST_CFG)
 136:Generated_Source\PSoC4/uart.c ****     uart_I2CInit();
 137:Generated_Source\PSoC4/uart.c **** 
 138:Generated_Source\PSoC4/uart.c **** #elif (uart_SCB_MODE_SPI_CONST_CFG)
 139:Generated_Source\PSoC4/uart.c ****     uart_SpiInit();
 140:Generated_Source\PSoC4/uart.c **** 
 141:Generated_Source\PSoC4/uart.c **** #elif (uart_SCB_MODE_UART_CONST_CFG)
 142:Generated_Source\PSoC4/uart.c ****     uart_UartInit();
 143:Generated_Source\PSoC4/uart.c **** 
 144:Generated_Source\PSoC4/uart.c **** #elif (uart_SCB_MODE_EZI2C_CONST_CFG)
 145:Generated_Source\PSoC4/uart.c ****     uart_EzI2CInit();
ARM GAS  C:\Users\ASUS\AppData\Local\Temp\ccmno2My.s 			page 4


 146:Generated_Source\PSoC4/uart.c **** 
 147:Generated_Source\PSoC4/uart.c **** #endif /* (uart_SCB_MODE_UNCONFIG_CONST_CFG) */
 148:Generated_Source\PSoC4/uart.c **** }
 149:Generated_Source\PSoC4/uart.c **** 
 150:Generated_Source\PSoC4/uart.c **** 
 151:Generated_Source\PSoC4/uart.c **** /*******************************************************************************
 152:Generated_Source\PSoC4/uart.c **** * Function Name: uart_Enable
 153:Generated_Source\PSoC4/uart.c **** ****************************************************************************//**
 154:Generated_Source\PSoC4/uart.c **** *
 155:Generated_Source\PSoC4/uart.c **** *  Enables uart component operation: activates the hardware and 
 156:Generated_Source\PSoC4/uart.c **** *  internal interrupt. It also restores TX interrupt sources disabled after the 
 157:Generated_Source\PSoC4/uart.c **** *  uart_Stop() function was called (note that level-triggered TX 
 158:Generated_Source\PSoC4/uart.c **** *  interrupt sources remain disabled to not cause code lock-up).
 159:Generated_Source\PSoC4/uart.c **** *  For I2C and EZI2C modes the interrupt is internal and mandatory for 
 160:Generated_Source\PSoC4/uart.c **** *  operation. For SPI and UART modes the interrupt can be configured as none, 
 161:Generated_Source\PSoC4/uart.c **** *  internal or external.
 162:Generated_Source\PSoC4/uart.c **** *  The uart configuration should be not changed when the component
 163:Generated_Source\PSoC4/uart.c **** *  is enabled. Any configuration changes should be made after disabling the 
 164:Generated_Source\PSoC4/uart.c **** *  component.
 165:Generated_Source\PSoC4/uart.c **** *  When configuration is set to “Unconfigured uart”, the component 
 166:Generated_Source\PSoC4/uart.c **** *  must first be initialized to operate in one of the following configurations: 
 167:Generated_Source\PSoC4/uart.c **** *  I2C, SPI, UART or EZ I2C, using the mode-specific initialization API. 
 168:Generated_Source\PSoC4/uart.c **** *  Otherwise this function does not enable the component.
 169:Generated_Source\PSoC4/uart.c **** *
 170:Generated_Source\PSoC4/uart.c **** *******************************************************************************/
 171:Generated_Source\PSoC4/uart.c **** void uart_Enable(void)
 172:Generated_Source\PSoC4/uart.c **** {
 173:Generated_Source\PSoC4/uart.c **** #if (uart_SCB_MODE_UNCONFIG_CONST_CFG)
 174:Generated_Source\PSoC4/uart.c ****     /* Enable SCB block, only if it is already configured */
 175:Generated_Source\PSoC4/uart.c ****     if (!uart_SCB_MODE_UNCONFIG_RUNTM_CFG)
 176:Generated_Source\PSoC4/uart.c ****     {
 177:Generated_Source\PSoC4/uart.c ****         uart_CTRL_REG |= uart_CTRL_ENABLED;
 178:Generated_Source\PSoC4/uart.c **** 
 179:Generated_Source\PSoC4/uart.c ****         uart_ScbEnableIntr();
 180:Generated_Source\PSoC4/uart.c **** 
 181:Generated_Source\PSoC4/uart.c ****         /* Call PostEnable function specific to current operation mode */
 182:Generated_Source\PSoC4/uart.c ****         uart_ScbModePostEnable();
 183:Generated_Source\PSoC4/uart.c ****     }
 184:Generated_Source\PSoC4/uart.c **** #else
 185:Generated_Source\PSoC4/uart.c ****     uart_CTRL_REG |= uart_CTRL_ENABLED;
 186:Generated_Source\PSoC4/uart.c **** 
 187:Generated_Source\PSoC4/uart.c ****     uart_ScbEnableIntr();
 188:Generated_Source\PSoC4/uart.c **** 
 189:Generated_Source\PSoC4/uart.c ****     /* Call PostEnable function specific to current operation mode */
 190:Generated_Source\PSoC4/uart.c ****     uart_ScbModePostEnable();
 191:Generated_Source\PSoC4/uart.c **** #endif /* (uart_SCB_MODE_UNCONFIG_CONST_CFG) */
 192:Generated_Source\PSoC4/uart.c **** }
 193:Generated_Source\PSoC4/uart.c **** 
 194:Generated_Source\PSoC4/uart.c **** 
 195:Generated_Source\PSoC4/uart.c **** /*******************************************************************************
 196:Generated_Source\PSoC4/uart.c **** * Function Name: uart_Start
 197:Generated_Source\PSoC4/uart.c **** ****************************************************************************//**
 198:Generated_Source\PSoC4/uart.c **** *
 199:Generated_Source\PSoC4/uart.c **** *  Invokes uart_Init() and uart_Enable().
 200:Generated_Source\PSoC4/uart.c **** *  After this function call, the component is enabled and ready for operation.
 201:Generated_Source\PSoC4/uart.c **** *  When configuration is set to "Unconfigured SCB", the component must first be
 202:Generated_Source\PSoC4/uart.c **** *  initialized to operate in one of the following configurations: I2C, SPI, UART
ARM GAS  C:\Users\ASUS\AppData\Local\Temp\ccmno2My.s 			page 5


 203:Generated_Source\PSoC4/uart.c **** *  or EZI2C. Otherwise this function does not enable the component.
 204:Generated_Source\PSoC4/uart.c **** *
 205:Generated_Source\PSoC4/uart.c **** * \globalvars
 206:Generated_Source\PSoC4/uart.c **** *  uart_initVar - used to check initial configuration, modified
 207:Generated_Source\PSoC4/uart.c **** *  on first function call.
 208:Generated_Source\PSoC4/uart.c **** *
 209:Generated_Source\PSoC4/uart.c **** *******************************************************************************/
 210:Generated_Source\PSoC4/uart.c **** void uart_Start(void)
 211:Generated_Source\PSoC4/uart.c **** {
 212:Generated_Source\PSoC4/uart.c ****     if (0u == uart_initVar)
 213:Generated_Source\PSoC4/uart.c ****     {
 214:Generated_Source\PSoC4/uart.c ****         uart_Init();
 215:Generated_Source\PSoC4/uart.c ****         uart_initVar = 1u; /* Component was initialized */
 216:Generated_Source\PSoC4/uart.c ****     }
 217:Generated_Source\PSoC4/uart.c **** 
 218:Generated_Source\PSoC4/uart.c ****     uart_Enable();
 219:Generated_Source\PSoC4/uart.c **** }
 220:Generated_Source\PSoC4/uart.c **** 
 221:Generated_Source\PSoC4/uart.c **** 
 222:Generated_Source\PSoC4/uart.c **** /*******************************************************************************
 223:Generated_Source\PSoC4/uart.c **** * Function Name: uart_Stop
 224:Generated_Source\PSoC4/uart.c **** ****************************************************************************//**
 225:Generated_Source\PSoC4/uart.c **** *
 226:Generated_Source\PSoC4/uart.c **** *  Disables the uart component: disable the hardware and internal 
 227:Generated_Source\PSoC4/uart.c **** *  interrupt. It also disables all TX interrupt sources so as not to cause an 
 228:Generated_Source\PSoC4/uart.c **** *  unexpected interrupt trigger because after the component is enabled, the 
 229:Generated_Source\PSoC4/uart.c **** *  TX FIFO is empty.
 230:Generated_Source\PSoC4/uart.c **** *  Refer to the function uart_Enable() for the interrupt 
 231:Generated_Source\PSoC4/uart.c **** *  configuration details.
 232:Generated_Source\PSoC4/uart.c **** *  This function disables the SCB component without checking to see if 
 233:Generated_Source\PSoC4/uart.c **** *  communication is in progress. Before calling this function it may be 
 234:Generated_Source\PSoC4/uart.c **** *  necessary to check the status of communication to make sure communication 
 235:Generated_Source\PSoC4/uart.c **** *  is complete. If this is not done then communication could be stopped mid 
 236:Generated_Source\PSoC4/uart.c **** *  byte and corrupted data could result.
 237:Generated_Source\PSoC4/uart.c **** *
 238:Generated_Source\PSoC4/uart.c **** *******************************************************************************/
 239:Generated_Source\PSoC4/uart.c **** void uart_Stop(void)
 240:Generated_Source\PSoC4/uart.c **** {
 241:Generated_Source\PSoC4/uart.c **** #if (uart_SCB_IRQ_INTERNAL)
 242:Generated_Source\PSoC4/uart.c ****     uart_DisableInt();
 243:Generated_Source\PSoC4/uart.c **** #endif /* (uart_SCB_IRQ_INTERNAL) */
 244:Generated_Source\PSoC4/uart.c **** 
 245:Generated_Source\PSoC4/uart.c ****     /* Call Stop function specific to current operation mode */
 246:Generated_Source\PSoC4/uart.c ****     uart_ScbModeStop();
 247:Generated_Source\PSoC4/uart.c **** 
 248:Generated_Source\PSoC4/uart.c ****     /* Disable SCB IP */
 249:Generated_Source\PSoC4/uart.c ****     uart_CTRL_REG &= (uint32) ~uart_CTRL_ENABLED;
 250:Generated_Source\PSoC4/uart.c **** 
 251:Generated_Source\PSoC4/uart.c ****     /* Disable all TX interrupt sources so as not to cause an unexpected
 252:Generated_Source\PSoC4/uart.c ****     * interrupt trigger after the component will be enabled because the 
 253:Generated_Source\PSoC4/uart.c ****     * TX FIFO is empty.
 254:Generated_Source\PSoC4/uart.c ****     * For SCB IP v0, it is critical as it does not mask-out interrupt
 255:Generated_Source\PSoC4/uart.c ****     * sources when it is disabled. This can cause a code lock-up in the
 256:Generated_Source\PSoC4/uart.c ****     * interrupt handler because TX FIFO cannot be loaded after the block
 257:Generated_Source\PSoC4/uart.c ****     * is disabled.
 258:Generated_Source\PSoC4/uart.c ****     */
 259:Generated_Source\PSoC4/uart.c ****     uart_SetTxInterruptMode(uart_NO_INTR_SOURCES);
ARM GAS  C:\Users\ASUS\AppData\Local\Temp\ccmno2My.s 			page 6


 260:Generated_Source\PSoC4/uart.c **** 
 261:Generated_Source\PSoC4/uart.c **** #if (uart_SCB_IRQ_INTERNAL)
 262:Generated_Source\PSoC4/uart.c ****     uart_ClearPendingInt();
 263:Generated_Source\PSoC4/uart.c **** #endif /* (uart_SCB_IRQ_INTERNAL) */
 264:Generated_Source\PSoC4/uart.c **** }
 265:Generated_Source\PSoC4/uart.c **** 
 266:Generated_Source\PSoC4/uart.c **** 
 267:Generated_Source\PSoC4/uart.c **** /*******************************************************************************
 268:Generated_Source\PSoC4/uart.c **** * Function Name: uart_SetRxFifoLevel
 269:Generated_Source\PSoC4/uart.c **** ****************************************************************************//**
 270:Generated_Source\PSoC4/uart.c **** *
 271:Generated_Source\PSoC4/uart.c **** *  Sets level in the RX FIFO to generate a RX level interrupt.
 272:Generated_Source\PSoC4/uart.c **** *  When the RX FIFO has more entries than the RX FIFO level an RX level
 273:Generated_Source\PSoC4/uart.c **** *  interrupt request is generated.
 274:Generated_Source\PSoC4/uart.c **** *
 275:Generated_Source\PSoC4/uart.c **** *  \param level: Level in the RX FIFO to generate RX level interrupt.
 276:Generated_Source\PSoC4/uart.c **** *   The range of valid level values is between 0 and RX FIFO depth - 1.
 277:Generated_Source\PSoC4/uart.c **** *
 278:Generated_Source\PSoC4/uart.c **** *******************************************************************************/
 279:Generated_Source\PSoC4/uart.c **** void uart_SetRxFifoLevel(uint32 level)
 280:Generated_Source\PSoC4/uart.c **** {
 281:Generated_Source\PSoC4/uart.c ****     uint32 rxFifoCtrl;
 282:Generated_Source\PSoC4/uart.c **** 
 283:Generated_Source\PSoC4/uart.c ****     rxFifoCtrl = uart_RX_FIFO_CTRL_REG;
 284:Generated_Source\PSoC4/uart.c **** 
 285:Generated_Source\PSoC4/uart.c ****     rxFifoCtrl &= ((uint32) ~uart_RX_FIFO_CTRL_TRIGGER_LEVEL_MASK); /* Clear level mask bits */
 286:Generated_Source\PSoC4/uart.c ****     rxFifoCtrl |= ((uint32) (uart_RX_FIFO_CTRL_TRIGGER_LEVEL_MASK & level));
 287:Generated_Source\PSoC4/uart.c **** 
 288:Generated_Source\PSoC4/uart.c ****     uart_RX_FIFO_CTRL_REG = rxFifoCtrl;
 289:Generated_Source\PSoC4/uart.c **** }
 290:Generated_Source\PSoC4/uart.c **** 
 291:Generated_Source\PSoC4/uart.c **** 
 292:Generated_Source\PSoC4/uart.c **** /*******************************************************************************
 293:Generated_Source\PSoC4/uart.c **** * Function Name: uart_SetTxFifoLevel
 294:Generated_Source\PSoC4/uart.c **** ****************************************************************************//**
 295:Generated_Source\PSoC4/uart.c **** *
 296:Generated_Source\PSoC4/uart.c **** *  Sets level in the TX FIFO to generate a TX level interrupt.
 297:Generated_Source\PSoC4/uart.c **** *  When the TX FIFO has less entries than the TX FIFO level an TX level
 298:Generated_Source\PSoC4/uart.c **** *  interrupt request is generated.
 299:Generated_Source\PSoC4/uart.c **** *
 300:Generated_Source\PSoC4/uart.c **** *  \param level: Level in the TX FIFO to generate TX level interrupt.
 301:Generated_Source\PSoC4/uart.c **** *   The range of valid level values is between 0 and TX FIFO depth - 1.
 302:Generated_Source\PSoC4/uart.c **** *
 303:Generated_Source\PSoC4/uart.c **** *******************************************************************************/
 304:Generated_Source\PSoC4/uart.c **** void uart_SetTxFifoLevel(uint32 level)
 305:Generated_Source\PSoC4/uart.c **** {
 306:Generated_Source\PSoC4/uart.c ****     uint32 txFifoCtrl;
 307:Generated_Source\PSoC4/uart.c **** 
 308:Generated_Source\PSoC4/uart.c ****     txFifoCtrl = uart_TX_FIFO_CTRL_REG;
 309:Generated_Source\PSoC4/uart.c **** 
 310:Generated_Source\PSoC4/uart.c ****     txFifoCtrl &= ((uint32) ~uart_TX_FIFO_CTRL_TRIGGER_LEVEL_MASK); /* Clear level mask bits */
 311:Generated_Source\PSoC4/uart.c ****     txFifoCtrl |= ((uint32) (uart_TX_FIFO_CTRL_TRIGGER_LEVEL_MASK & level));
 312:Generated_Source\PSoC4/uart.c **** 
 313:Generated_Source\PSoC4/uart.c ****     uart_TX_FIFO_CTRL_REG = txFifoCtrl;
 314:Generated_Source\PSoC4/uart.c **** }
 315:Generated_Source\PSoC4/uart.c **** 
 316:Generated_Source\PSoC4/uart.c **** 
ARM GAS  C:\Users\ASUS\AppData\Local\Temp\ccmno2My.s 			page 7


 317:Generated_Source\PSoC4/uart.c **** #if (uart_SCB_IRQ_INTERNAL)
 318:Generated_Source\PSoC4/uart.c ****     /*******************************************************************************
 319:Generated_Source\PSoC4/uart.c ****     * Function Name: uart_SetCustomInterruptHandler
 320:Generated_Source\PSoC4/uart.c ****     ****************************************************************************//**
 321:Generated_Source\PSoC4/uart.c ****     *
 322:Generated_Source\PSoC4/uart.c ****     *  Registers a function to be called by the internal interrupt handler.
 323:Generated_Source\PSoC4/uart.c ****     *  First the function that is registered is called, then the internal interrupt
 324:Generated_Source\PSoC4/uart.c ****     *  handler performs any operation such as software buffer management functions
 325:Generated_Source\PSoC4/uart.c ****     *  before the interrupt returns.  It is the user's responsibility not to break
 326:Generated_Source\PSoC4/uart.c ****     *  the software buffer operations. Only one custom handler is supported, which
 327:Generated_Source\PSoC4/uart.c ****     *  is the function provided by the most recent call.
 328:Generated_Source\PSoC4/uart.c ****     *  At the initialization time no custom handler is registered.
 329:Generated_Source\PSoC4/uart.c ****     *
 330:Generated_Source\PSoC4/uart.c ****     *  \param func: Pointer to the function to register.
 331:Generated_Source\PSoC4/uart.c ****     *        The value NULL indicates to remove the current custom interrupt
 332:Generated_Source\PSoC4/uart.c ****     *        handler.
 333:Generated_Source\PSoC4/uart.c ****     *
 334:Generated_Source\PSoC4/uart.c ****     *******************************************************************************/
 335:Generated_Source\PSoC4/uart.c ****     void uart_SetCustomInterruptHandler(void (*func)(void))
 336:Generated_Source\PSoC4/uart.c ****     {
 337:Generated_Source\PSoC4/uart.c ****     #if !defined (CY_REMOVE_uart_CUSTOM_INTR_HANDLER)
 338:Generated_Source\PSoC4/uart.c ****         uart_customIntrHandler = func; /* Register interrupt handler */
 339:Generated_Source\PSoC4/uart.c ****     #else
 340:Generated_Source\PSoC4/uart.c ****         if (NULL != func)
 341:Generated_Source\PSoC4/uart.c ****         {
 342:Generated_Source\PSoC4/uart.c ****             /* Suppress compiler warning */
 343:Generated_Source\PSoC4/uart.c ****         }
 344:Generated_Source\PSoC4/uart.c ****     #endif /* !defined (CY_REMOVE_uart_CUSTOM_INTR_HANDLER) */
 345:Generated_Source\PSoC4/uart.c ****     }
 346:Generated_Source\PSoC4/uart.c **** #endif /* (uart_SCB_IRQ_INTERNAL) */
 347:Generated_Source\PSoC4/uart.c **** 
 348:Generated_Source\PSoC4/uart.c **** 
 349:Generated_Source\PSoC4/uart.c **** /*******************************************************************************
 350:Generated_Source\PSoC4/uart.c **** * Function Name: uart_ScbModeEnableIntr
 351:Generated_Source\PSoC4/uart.c **** ****************************************************************************//**
 352:Generated_Source\PSoC4/uart.c **** *
 353:Generated_Source\PSoC4/uart.c **** *  Enables an interrupt for a specific mode.
 354:Generated_Source\PSoC4/uart.c **** *
 355:Generated_Source\PSoC4/uart.c **** *******************************************************************************/
 356:Generated_Source\PSoC4/uart.c **** static void uart_ScbEnableIntr(void)
 357:Generated_Source\PSoC4/uart.c **** {
 358:Generated_Source\PSoC4/uart.c **** #if (uart_SCB_IRQ_INTERNAL)
 359:Generated_Source\PSoC4/uart.c ****     /* Enable interrupt in NVIC */
 360:Generated_Source\PSoC4/uart.c ****     #if (uart_SCB_MODE_UNCONFIG_CONST_CFG)
 361:Generated_Source\PSoC4/uart.c ****         if (0u != uart_scbEnableIntr)
 362:Generated_Source\PSoC4/uart.c ****         {
 363:Generated_Source\PSoC4/uart.c ****             uart_EnableInt();
 364:Generated_Source\PSoC4/uart.c ****         }
 365:Generated_Source\PSoC4/uart.c **** 
 366:Generated_Source\PSoC4/uart.c ****     #else
 367:Generated_Source\PSoC4/uart.c ****         uart_EnableInt();
 368:Generated_Source\PSoC4/uart.c **** 
 369:Generated_Source\PSoC4/uart.c ****     #endif /* (uart_SCB_MODE_UNCONFIG_CONST_CFG) */
 370:Generated_Source\PSoC4/uart.c **** #endif /* (uart_SCB_IRQ_INTERNAL) */
 371:Generated_Source\PSoC4/uart.c **** }
 372:Generated_Source\PSoC4/uart.c **** 
 373:Generated_Source\PSoC4/uart.c **** 
ARM GAS  C:\Users\ASUS\AppData\Local\Temp\ccmno2My.s 			page 8


 374:Generated_Source\PSoC4/uart.c **** /*******************************************************************************
 375:Generated_Source\PSoC4/uart.c **** * Function Name: uart_ScbModePostEnable
 376:Generated_Source\PSoC4/uart.c **** ****************************************************************************//**
 377:Generated_Source\PSoC4/uart.c **** *
 378:Generated_Source\PSoC4/uart.c **** *  Calls the PostEnable function for a specific operation mode.
 379:Generated_Source\PSoC4/uart.c **** *
 380:Generated_Source\PSoC4/uart.c **** *******************************************************************************/
 381:Generated_Source\PSoC4/uart.c **** static void uart_ScbModePostEnable(void)
 382:Generated_Source\PSoC4/uart.c **** {
  27              		.loc 1 382 0
  28              		.cfi_startproc
  29              		@ args = 0, pretend = 0, frame = 0
  30              		@ frame_needed = 0, uses_anonymous_args = 0
  31 0000 10B5     		push	{r4, lr}
  32              		.cfi_def_cfa_offset 8
  33              		.cfi_offset 4, -8
  34              		.cfi_offset 14, -4
 383:Generated_Source\PSoC4/uart.c **** #if (uart_SCB_MODE_UNCONFIG_CONST_CFG)
 384:Generated_Source\PSoC4/uart.c **** #if (!uart_CY_SCBIP_V1)
 385:Generated_Source\PSoC4/uart.c ****     if (uart_SCB_MODE_SPI_RUNTM_CFG)
 386:Generated_Source\PSoC4/uart.c ****     {
 387:Generated_Source\PSoC4/uart.c ****         uart_SpiPostEnable();
 388:Generated_Source\PSoC4/uart.c ****     }
 389:Generated_Source\PSoC4/uart.c ****     else if (uart_SCB_MODE_UART_RUNTM_CFG)
 390:Generated_Source\PSoC4/uart.c ****     {
 391:Generated_Source\PSoC4/uart.c ****         uart_UartPostEnable();
 392:Generated_Source\PSoC4/uart.c ****     }
 393:Generated_Source\PSoC4/uart.c ****     else
 394:Generated_Source\PSoC4/uart.c ****     {
 395:Generated_Source\PSoC4/uart.c ****         /* Unknown mode: do nothing */
 396:Generated_Source\PSoC4/uart.c ****     }
 397:Generated_Source\PSoC4/uart.c **** #endif /* (!uart_CY_SCBIP_V1) */
 398:Generated_Source\PSoC4/uart.c **** 
 399:Generated_Source\PSoC4/uart.c **** #elif (uart_SCB_MODE_SPI_CONST_CFG)
 400:Generated_Source\PSoC4/uart.c ****     uart_SpiPostEnable();
 401:Generated_Source\PSoC4/uart.c **** 
 402:Generated_Source\PSoC4/uart.c **** #elif (uart_SCB_MODE_UART_CONST_CFG)
 403:Generated_Source\PSoC4/uart.c ****     uart_UartPostEnable();
  35              		.loc 1 403 0
  36 0002 FFF7FEFF 		bl	uart_UartPostEnable
  37              	.LVL0:
 404:Generated_Source\PSoC4/uart.c **** 
 405:Generated_Source\PSoC4/uart.c **** #else
 406:Generated_Source\PSoC4/uart.c ****     /* Unknown mode: do nothing */
 407:Generated_Source\PSoC4/uart.c **** #endif /* (uart_SCB_MODE_UNCONFIG_CONST_CFG) */
 408:Generated_Source\PSoC4/uart.c **** }
  38              		.loc 1 408 0
  39              		@ sp needed
  40 0006 10BD     		pop	{r4, pc}
  41              		.cfi_endproc
  42              	.LFE8:
  43              		.size	uart_ScbModePostEnable, .-uart_ScbModePostEnable
  44              		.section	.text.uart_ScbModeStop,"ax",%progbits
  45              		.align	2
  46              		.code	16
  47              		.thumb_func
  48              		.type	uart_ScbModeStop, %function
ARM GAS  C:\Users\ASUS\AppData\Local\Temp\ccmno2My.s 			page 9


  49              	uart_ScbModeStop:
  50              	.LFB9:
 409:Generated_Source\PSoC4/uart.c **** 
 410:Generated_Source\PSoC4/uart.c **** 
 411:Generated_Source\PSoC4/uart.c **** /*******************************************************************************
 412:Generated_Source\PSoC4/uart.c **** * Function Name: uart_ScbModeStop
 413:Generated_Source\PSoC4/uart.c **** ****************************************************************************//**
 414:Generated_Source\PSoC4/uart.c **** *
 415:Generated_Source\PSoC4/uart.c **** *  Calls the Stop function for a specific operation mode.
 416:Generated_Source\PSoC4/uart.c **** *
 417:Generated_Source\PSoC4/uart.c **** *******************************************************************************/
 418:Generated_Source\PSoC4/uart.c **** static void uart_ScbModeStop(void)
 419:Generated_Source\PSoC4/uart.c **** {
  51              		.loc 1 419 0
  52              		.cfi_startproc
  53              		@ args = 0, pretend = 0, frame = 0
  54              		@ frame_needed = 0, uses_anonymous_args = 0
  55 0000 10B5     		push	{r4, lr}
  56              		.cfi_def_cfa_offset 8
  57              		.cfi_offset 4, -8
  58              		.cfi_offset 14, -4
 420:Generated_Source\PSoC4/uart.c **** #if (uart_SCB_MODE_UNCONFIG_CONST_CFG)
 421:Generated_Source\PSoC4/uart.c ****     if (uart_SCB_MODE_I2C_RUNTM_CFG)
 422:Generated_Source\PSoC4/uart.c ****     {
 423:Generated_Source\PSoC4/uart.c ****         uart_I2CStop();
 424:Generated_Source\PSoC4/uart.c ****     }
 425:Generated_Source\PSoC4/uart.c ****     else if (uart_SCB_MODE_EZI2C_RUNTM_CFG)
 426:Generated_Source\PSoC4/uart.c ****     {
 427:Generated_Source\PSoC4/uart.c ****         uart_EzI2CStop();
 428:Generated_Source\PSoC4/uart.c ****     }
 429:Generated_Source\PSoC4/uart.c **** #if (!uart_CY_SCBIP_V1)
 430:Generated_Source\PSoC4/uart.c ****     else if (uart_SCB_MODE_SPI_RUNTM_CFG)
 431:Generated_Source\PSoC4/uart.c ****     {
 432:Generated_Source\PSoC4/uart.c ****         uart_SpiStop();
 433:Generated_Source\PSoC4/uart.c ****     }
 434:Generated_Source\PSoC4/uart.c ****     else if (uart_SCB_MODE_UART_RUNTM_CFG)
 435:Generated_Source\PSoC4/uart.c ****     {
 436:Generated_Source\PSoC4/uart.c ****         uart_UartStop();
 437:Generated_Source\PSoC4/uart.c ****     }
 438:Generated_Source\PSoC4/uart.c **** #endif /* (!uart_CY_SCBIP_V1) */
 439:Generated_Source\PSoC4/uart.c ****     else
 440:Generated_Source\PSoC4/uart.c ****     {
 441:Generated_Source\PSoC4/uart.c ****         /* Unknown mode: do nothing */
 442:Generated_Source\PSoC4/uart.c ****     }
 443:Generated_Source\PSoC4/uart.c **** #elif (uart_SCB_MODE_I2C_CONST_CFG)
 444:Generated_Source\PSoC4/uart.c ****     uart_I2CStop();
 445:Generated_Source\PSoC4/uart.c **** 
 446:Generated_Source\PSoC4/uart.c **** #elif (uart_SCB_MODE_EZI2C_CONST_CFG)
 447:Generated_Source\PSoC4/uart.c ****     uart_EzI2CStop();
 448:Generated_Source\PSoC4/uart.c **** 
 449:Generated_Source\PSoC4/uart.c **** #elif (uart_SCB_MODE_SPI_CONST_CFG)
 450:Generated_Source\PSoC4/uart.c ****     uart_SpiStop();
 451:Generated_Source\PSoC4/uart.c **** 
 452:Generated_Source\PSoC4/uart.c **** #elif (uart_SCB_MODE_UART_CONST_CFG)
 453:Generated_Source\PSoC4/uart.c ****     uart_UartStop();
  59              		.loc 1 453 0
  60 0002 FFF7FEFF 		bl	uart_UartStop
ARM GAS  C:\Users\ASUS\AppData\Local\Temp\ccmno2My.s 			page 10


  61              	.LVL1:
 454:Generated_Source\PSoC4/uart.c **** 
 455:Generated_Source\PSoC4/uart.c **** #else
 456:Generated_Source\PSoC4/uart.c ****     /* Unknown mode: do nothing */
 457:Generated_Source\PSoC4/uart.c **** #endif /* (uart_SCB_MODE_UNCONFIG_CONST_CFG) */
 458:Generated_Source\PSoC4/uart.c **** }
  62              		.loc 1 458 0
  63              		@ sp needed
  64 0006 10BD     		pop	{r4, pc}
  65              		.cfi_endproc
  66              	.LFE9:
  67              		.size	uart_ScbModeStop, .-uart_ScbModeStop
  68              		.section	.text.uart_Init,"ax",%progbits
  69              		.align	2
  70              		.global	uart_Init
  71              		.code	16
  72              		.thumb_func
  73              		.type	uart_Init, %function
  74              	uart_Init:
  75              	.LFB1:
 124:Generated_Source\PSoC4/uart.c **** #if (uart_SCB_MODE_UNCONFIG_CONST_CFG)
  76              		.loc 1 124 0
  77              		.cfi_startproc
  78              		@ args = 0, pretend = 0, frame = 0
  79              		@ frame_needed = 0, uses_anonymous_args = 0
  80 0000 10B5     		push	{r4, lr}
  81              		.cfi_def_cfa_offset 8
  82              		.cfi_offset 4, -8
  83              		.cfi_offset 14, -4
 142:Generated_Source\PSoC4/uart.c **** 
  84              		.loc 1 142 0
  85 0002 FFF7FEFF 		bl	uart_UartInit
  86              	.LVL2:
 148:Generated_Source\PSoC4/uart.c **** 
  87              		.loc 1 148 0
  88              		@ sp needed
  89 0006 10BD     		pop	{r4, pc}
  90              		.cfi_endproc
  91              	.LFE1:
  92              		.size	uart_Init, .-uart_Init
  93              		.section	.text.uart_Enable,"ax",%progbits
  94              		.align	2
  95              		.global	uart_Enable
  96              		.code	16
  97              		.thumb_func
  98              		.type	uart_Enable, %function
  99              	uart_Enable:
 100              	.LFB2:
 172:Generated_Source\PSoC4/uart.c **** #if (uart_SCB_MODE_UNCONFIG_CONST_CFG)
 101              		.loc 1 172 0
 102              		.cfi_startproc
 103              		@ args = 0, pretend = 0, frame = 0
 104              		@ frame_needed = 0, uses_anonymous_args = 0
 105 0000 10B5     		push	{r4, lr}
 106              		.cfi_def_cfa_offset 8
 107              		.cfi_offset 4, -8
 108              		.cfi_offset 14, -4
ARM GAS  C:\Users\ASUS\AppData\Local\Temp\ccmno2My.s 			page 11


 185:Generated_Source\PSoC4/uart.c **** 
 109              		.loc 1 185 0
 110 0002 044A     		ldr	r2, .L5
 111 0004 1368     		ldr	r3, [r2]
 112 0006 8021     		movs	r1, #128
 113 0008 0906     		lsls	r1, r1, #24
 114 000a 0B43     		orrs	r3, r1
 115 000c 1360     		str	r3, [r2]
 190:Generated_Source\PSoC4/uart.c **** #endif /* (uart_SCB_MODE_UNCONFIG_CONST_CFG) */
 116              		.loc 1 190 0
 117 000e FFF7FEFF 		bl	uart_ScbModePostEnable
 118              	.LVL3:
 192:Generated_Source\PSoC4/uart.c **** 
 119              		.loc 1 192 0
 120              		@ sp needed
 121 0012 10BD     		pop	{r4, pc}
 122              	.L6:
 123              		.align	2
 124              	.L5:
 125 0014 00000940 		.word	1074331648
 126              		.cfi_endproc
 127              	.LFE2:
 128              		.size	uart_Enable, .-uart_Enable
 129              		.section	.text.uart_Start,"ax",%progbits
 130              		.align	2
 131              		.global	uart_Start
 132              		.code	16
 133              		.thumb_func
 134              		.type	uart_Start, %function
 135              	uart_Start:
 136              	.LFB3:
 211:Generated_Source\PSoC4/uart.c ****     if (0u == uart_initVar)
 137              		.loc 1 211 0
 138              		.cfi_startproc
 139              		@ args = 0, pretend = 0, frame = 0
 140              		@ frame_needed = 0, uses_anonymous_args = 0
 141 0000 10B5     		push	{r4, lr}
 142              		.cfi_def_cfa_offset 8
 143              		.cfi_offset 4, -8
 144              		.cfi_offset 14, -4
 212:Generated_Source\PSoC4/uart.c ****     {
 145              		.loc 1 212 0
 146 0002 064B     		ldr	r3, .L9
 147 0004 1B78     		ldrb	r3, [r3]
 148 0006 002B     		cmp	r3, #0
 149 0008 04D1     		bne	.L8
 214:Generated_Source\PSoC4/uart.c ****         uart_initVar = 1u; /* Component was initialized */
 150              		.loc 1 214 0
 151 000a FFF7FEFF 		bl	uart_Init
 152              	.LVL4:
 215:Generated_Source\PSoC4/uart.c ****     }
 153              		.loc 1 215 0
 154 000e 0122     		movs	r2, #1
 155 0010 024B     		ldr	r3, .L9
 156 0012 1A70     		strb	r2, [r3]
 157              	.L8:
 218:Generated_Source\PSoC4/uart.c **** }
ARM GAS  C:\Users\ASUS\AppData\Local\Temp\ccmno2My.s 			page 12


 158              		.loc 1 218 0
 159 0014 FFF7FEFF 		bl	uart_Enable
 160              	.LVL5:
 219:Generated_Source\PSoC4/uart.c **** 
 161              		.loc 1 219 0
 162              		@ sp needed
 163 0018 10BD     		pop	{r4, pc}
 164              	.L10:
 165 001a C046     		.align	2
 166              	.L9:
 167 001c 00000000 		.word	.LANCHOR0
 168              		.cfi_endproc
 169              	.LFE3:
 170              		.size	uart_Start, .-uart_Start
 171              		.section	.text.uart_Stop,"ax",%progbits
 172              		.align	2
 173              		.global	uart_Stop
 174              		.code	16
 175              		.thumb_func
 176              		.type	uart_Stop, %function
 177              	uart_Stop:
 178              	.LFB4:
 240:Generated_Source\PSoC4/uart.c **** #if (uart_SCB_IRQ_INTERNAL)
 179              		.loc 1 240 0
 180              		.cfi_startproc
 181              		@ args = 0, pretend = 0, frame = 0
 182              		@ frame_needed = 0, uses_anonymous_args = 0
 183 0000 10B5     		push	{r4, lr}
 184              		.cfi_def_cfa_offset 8
 185              		.cfi_offset 4, -8
 186              		.cfi_offset 14, -4
 246:Generated_Source\PSoC4/uart.c **** 
 187              		.loc 1 246 0
 188 0002 FFF7FEFF 		bl	uart_ScbModeStop
 189              	.LVL6:
 249:Generated_Source\PSoC4/uart.c **** 
 190              		.loc 1 249 0
 191 0006 044A     		ldr	r2, .L12
 192 0008 1368     		ldr	r3, [r2]
 193 000a 5B00     		lsls	r3, r3, #1
 194 000c 5B08     		lsrs	r3, r3, #1
 195 000e 1360     		str	r3, [r2]
 259:Generated_Source\PSoC4/uart.c **** 
 196              		.loc 1 259 0
 197 0010 0022     		movs	r2, #0
 198 0012 024B     		ldr	r3, .L12+4
 199 0014 1A60     		str	r2, [r3]
 264:Generated_Source\PSoC4/uart.c **** 
 200              		.loc 1 264 0
 201              		@ sp needed
 202 0016 10BD     		pop	{r4, pc}
 203              	.L13:
 204              		.align	2
 205              	.L12:
 206 0018 00000940 		.word	1074331648
 207 001c 880F0940 		.word	1074335624
 208              		.cfi_endproc
ARM GAS  C:\Users\ASUS\AppData\Local\Temp\ccmno2My.s 			page 13


 209              	.LFE4:
 210              		.size	uart_Stop, .-uart_Stop
 211              		.section	.text.uart_SetRxFifoLevel,"ax",%progbits
 212              		.align	2
 213              		.global	uart_SetRxFifoLevel
 214              		.code	16
 215              		.thumb_func
 216              		.type	uart_SetRxFifoLevel, %function
 217              	uart_SetRxFifoLevel:
 218              	.LFB5:
 280:Generated_Source\PSoC4/uart.c ****     uint32 rxFifoCtrl;
 219              		.loc 1 280 0
 220              		.cfi_startproc
 221              		@ args = 0, pretend = 0, frame = 0
 222              		@ frame_needed = 0, uses_anonymous_args = 0
 223              		@ link register save eliminated.
 224              	.LVL7:
 283:Generated_Source\PSoC4/uart.c **** 
 225              		.loc 1 283 0
 226 0000 034A     		ldr	r2, .L15
 227 0002 1368     		ldr	r3, [r2]
 228              	.LVL8:
 285:Generated_Source\PSoC4/uart.c ****     rxFifoCtrl |= ((uint32) (uart_RX_FIFO_CTRL_TRIGGER_LEVEL_MASK & level));
 229              		.loc 1 285 0
 230 0004 0F21     		movs	r1, #15
 231 0006 8B43     		bics	r3, r1
 232              	.LVL9:
 286:Generated_Source\PSoC4/uart.c **** 
 233              		.loc 1 286 0
 234 0008 0840     		ands	r0, r1
 235              	.LVL10:
 236 000a 1843     		orrs	r0, r3
 237              	.LVL11:
 288:Generated_Source\PSoC4/uart.c **** }
 238              		.loc 1 288 0
 239 000c 1060     		str	r0, [r2]
 289:Generated_Source\PSoC4/uart.c **** 
 240              		.loc 1 289 0
 241              		@ sp needed
 242 000e 7047     		bx	lr
 243              	.L16:
 244              		.align	2
 245              	.L15:
 246 0010 04030940 		.word	1074332420
 247              		.cfi_endproc
 248              	.LFE5:
 249              		.size	uart_SetRxFifoLevel, .-uart_SetRxFifoLevel
 250              		.section	.text.uart_SetTxFifoLevel,"ax",%progbits
 251              		.align	2
 252              		.global	uart_SetTxFifoLevel
 253              		.code	16
 254              		.thumb_func
 255              		.type	uart_SetTxFifoLevel, %function
 256              	uart_SetTxFifoLevel:
 257              	.LFB6:
 305:Generated_Source\PSoC4/uart.c ****     uint32 txFifoCtrl;
 258              		.loc 1 305 0
ARM GAS  C:\Users\ASUS\AppData\Local\Temp\ccmno2My.s 			page 14


 259              		.cfi_startproc
 260              		@ args = 0, pretend = 0, frame = 0
 261              		@ frame_needed = 0, uses_anonymous_args = 0
 262              		@ link register save eliminated.
 263              	.LVL12:
 308:Generated_Source\PSoC4/uart.c **** 
 264              		.loc 1 308 0
 265 0000 034A     		ldr	r2, .L18
 266 0002 1368     		ldr	r3, [r2]
 267              	.LVL13:
 310:Generated_Source\PSoC4/uart.c ****     txFifoCtrl |= ((uint32) (uart_TX_FIFO_CTRL_TRIGGER_LEVEL_MASK & level));
 268              		.loc 1 310 0
 269 0004 0F21     		movs	r1, #15
 270 0006 8B43     		bics	r3, r1
 271              	.LVL14:
 311:Generated_Source\PSoC4/uart.c **** 
 272              		.loc 1 311 0
 273 0008 0840     		ands	r0, r1
 274              	.LVL15:
 275 000a 1843     		orrs	r0, r3
 276              	.LVL16:
 313:Generated_Source\PSoC4/uart.c **** }
 277              		.loc 1 313 0
 278 000c 1060     		str	r0, [r2]
 314:Generated_Source\PSoC4/uart.c **** 
 279              		.loc 1 314 0
 280              		@ sp needed
 281 000e 7047     		bx	lr
 282              	.L19:
 283              		.align	2
 284              	.L18:
 285 0010 04020940 		.word	1074332164
 286              		.cfi_endproc
 287              	.LFE6:
 288              		.size	uart_SetTxFifoLevel, .-uart_SetTxFifoLevel
 289              		.global	uart_IntrTxMask
 290              		.global	uart_initVar
 291              		.bss
 292              		.align	1
 293              		.set	.LANCHOR0,. + 0
 294              		.type	uart_initVar, %object
 295              		.size	uart_initVar, 1
 296              	uart_initVar:
 297 0000 00       		.space	1
 298 0001 00       		.space	1
 299              		.type	uart_IntrTxMask, %object
 300              		.size	uart_IntrTxMask, 2
 301              	uart_IntrTxMask:
 302 0002 0000     		.space	2
 303              		.text
 304              	.Letext0:
 305              		.file 2 "Generated_Source\\PSoC4/cytypes.h"
 306              		.file 3 "Generated_Source\\PSoC4\\uart_SPI_UART_PVT.h"