
blinking_CH573F.elf:     file format elf32-littleriscv
blinking_CH573F.elf
architecture: riscv:rv32, flags 0x00000112:
EXEC_P, HAS_SYMS, D_PAGED
start address 0x00000000

Program Header:
    LOAD off    0x00001000 vaddr 0x00000000 paddr 0x00000000 align 2**12
         filesz 0x00000004 memsz 0x00000004 flags r-x
    LOAD off    0x00001800 vaddr 0x20003800 paddr 0x00000004 align 2**12
         filesz 0x0000064c memsz 0x0000064c flags r-x
    LOAD off    0x00002650 vaddr 0x00000650 paddr 0x00000650 align 2**12
         filesz 0x000001a0 memsz 0x000001a0 flags r-x
    LOAD off    0x00002e4c vaddr 0x20003e4c paddr 0x000007f0 align 2**12
         filesz 0x00000000 memsz 0x000001b4 flags rw-

Sections:
Idx Name            Size      VMA       LMA       File off  Algn  Flags
  0 .init           00000004  00000000  00000000  00001000  2**1  CONTENTS, ALLOC, LOAD, READONLY, CODE
  1 .highcodelalign 00000000  00000004  00000004  000027f0  2**0  CONTENTS
  2 .highcode       0000064c  20003800  00000004  00001800  2**1  CONTENTS, ALLOC, LOAD, READONLY, CODE
  3 .text           000001a0  00000650  00000650  00002650  2**2  CONTENTS, ALLOC, LOAD, READONLY, CODE
  4 .fini           00000000  000007f0  000007f0  000027f0  2**0  CONTENTS, ALLOC, LOAD, CODE
  5 .dalign         000001b4  20003e4c  000007f0  00002e4c  2**0  ALLOC
  6 .dlalign        00000000  000007f0  000007f0  000027f0  2**0  CONTENTS
  7 .data           00000000  20004000  20004000  000027f0  2**0  CONTENTS, ALLOC, LOAD, DATA
  8 .bss            00000000  20004000  000009a4  00000000  2**0  ALLOC
  9 .stack          00000000  20008000  20008000  000027f0  2**0  CONTENTS
 10 .debug_info     00002bfc  00000000  00000000  000027f0  2**0  CONTENTS, READONLY, DEBUGGING
 11 .debug_abbrev   00000824  00000000  00000000  000053ec  2**0  CONTENTS, READONLY, DEBUGGING
 12 .debug_aranges  00000130  00000000  00000000  00005c10  2**3  CONTENTS, READONLY, DEBUGGING
 13 .debug_ranges   000000f8  00000000  00000000  00005d40  2**3  CONTENTS, READONLY, DEBUGGING
 14 .debug_line     0000190e  00000000  00000000  00005e38  2**0  CONTENTS, READONLY, DEBUGGING
 15 .debug_str      00000c44  00000000  00000000  00007746  2**0  CONTENTS, READONLY, DEBUGGING
 16 .comment        00000033  00000000  00000000  0000838a  2**0  CONTENTS, READONLY
 17 .debug_frame    000001dc  00000000  00000000  000083c0  2**2  CONTENTS, READONLY, DEBUGGING
 18 .debug_loc      000005b0  00000000  00000000  0000859c  2**0  CONTENTS, READONLY, DEBUGGING
SYMBOL TABLE:
00000000 l    d  .init	00000000 .init
00000004 l    d  .highcodelalign	00000000 .highcodelalign
20003800 l    d  .highcode	00000000 .highcode
00000650 l    d  .text	00000000 .text
000007f0 l    d  .fini	00000000 .fini
20003e4c l    d  .dalign	00000000 .dalign
000007f0 l    d  .dlalign	00000000 .dlalign
20004000 l    d  .data	00000000 .data
20004000 l    d  .bss	00000000 .bss
20008000 l    d  .stack	00000000 .stack
00000000 l    d  .debug_info	00000000 .debug_info
00000000 l    d  .debug_abbrev	00000000 .debug_abbrev
00000000 l    d  .debug_aranges	00000000 .debug_aranges
00000000 l    d  .debug_ranges	00000000 .debug_ranges
00000000 l    d  .debug_line	00000000 .debug_line
00000000 l    d  .debug_str	00000000 .debug_str
00000000 l    d  .comment	00000000 .comment
00000000 l    d  .debug_frame	00000000 .debug_frame
00000000 l    d  .debug_loc	00000000 .debug_loc
00000000 l    df *ABS*	00000000 ./Startup/startup_CH573.o
20003800 l       .highcode	00000000 _vector_base
00000000 l    df *ABS*	00000000 CH57x_sys.c
00000000 l    df *ABS*	00000000 ISP573.c
20003a6e l       .highcode	00000000 .loop18
20003a7c l       .highcode	00000000 .loop29
20003a8a l       .highcode	00000000 .loop40
20003d0a l       .highcode	00000000 .loop401
00000000 l    df *ABS*	00000000 Main.c
00000000 l    df *ABS*	00000000 CH57x_gpio.c
20003a8a g     F .highcode	0000000e FLASH_ROM_OUT
20004800 g       .data	00000000 __global_pointer$
20003a26 g     F .highcode	0000000e mDelayuS
200039f0  w    F .highcode	00000036 HardFault_Handler
2000389c  w      .highcode	00000000 GPIOB_IRQHandler
2000389a  w      .highcode	00000000 GPIOA_IRQHandler
20003894  w      .highcode	00000000 SysTick_Handler
20003890  w      .highcode	00000000 NMI_Handler
200038ac  w      .highcode	00000000 UART1_IRQHandler
20004000 g       .bss	00000000 _sbss
20003a7c g     F .highcode	0000000e FLASH_ROM_IN
200038aa  w      .highcode	00000000 UART0_IRQHandler
00000004 g       .init	00000000 _einit
200038a0  w      .highcode	00000000 BB_IRQHandler
20003b18 g     F .highcode	00000332 FLASH_EEPROM_CMD
20003898  w      .highcode	00000000 TMR0_IRQHandler
20003a5c g     F .highcode	00000012 FLASH_ROM_BEG
20003a34 g     F .highcode	00000028 mDelaymS
20003a98 g     F .highcode	00000048 FLASH_ROM_ADDR
200038ae  w      .highcode	00000000 RTC_IRQHandler
20004000 g       .bss	00000000 _ebss
20003ae0 g     F .highcode	00000038 FLASH_ROM_WAIT
200038b6  w      .highcode	00000000 UART2_IRQHandler
200038b2  w      .highcode	00000000 PWMX_IRQHandler
00000000 g       .init	00000000 _start
200038b0  w      .highcode	00000000 ADC_IRQHandler
20003800 g       .highcode	00000000 _highcode_vma_start
200038a8  w      .highcode	00000000 TMR2_IRQHandler
20004000 g       .data	00000000 _data_vma
200038bc g     F .highcode	000000fc SetSysClock
200038a4  w      .highcode	00000000 USB_IRQHandler
000006f6 g     F .text	00000044 main
00000004 g       .highcodelalign	00000000 _highcode_lma
200038a2  w      .highcode	00000000 LLE_IRQHandler
00000000 g       .init	00000000 _sinit
200038ba  w      .highcode	00000000 WDOG_BAT_IRQHandler
200038b4  w      .highcode	00000000 TMR3_IRQHandler
20008000 g       .stack	00000000 _eusrstack
20003896  w      .highcode	00000000 SW_Handler
0000073a g     F .text	000000a2 GPIOA_ModeCfg
20004000 g       .data	00000000 _edata
2000389e  w      .highcode	00000000 SPI0_IRQHandler
20003e4c g       .highcode	00000000 _highcode_vma_end
000007f0 g       .dlalign	00000000 _data_lma
00000650  w      .text	00000000 handle_reset
200038b8  w      .highcode	00000000 UART3_IRQHandler
20003a6e g     F .highcode	0000000e FLASH_ROM_END
200038a6  w      .highcode	00000000 TMR1_IRQHandler
200039b8 g     F .highcode	00000038 SYS_ResetExecute



Disassembly of section .init:

00000000 <_sinit>:
_start():
C:\Users\USER\repos\aixt_ccgg\ports\WCH\CH573F-mini-BLE\projects\blinking_CH573F\obj/../Startup/startup_CH573.S:15

	.section	.init,"ax",@progbits
	.global	_start
	.align	1
_start:
	j	handle_reset
   0:	6500006f          	j	650 <handle_reset>

Disassembly of section .highcode:

20003800 <_highcode_vma_start>:
	...
_vector_base():
C:\Users\USER\repos\aixt_ccgg\ports\WCH\CH573F-mini-BLE\projects\blinking_CH573F\obj/../Startup/startup_CH573.S:23
    .align  1
_vector_base:
    .option norvc;
    .word   0
    .word   0
        j   NMI_Handler                 /* NMI Handler */
20003808:	0880006f          	j	20003890 <NMI_Handler>
C:\Users\USER\repos\aixt_ccgg\ports\WCH\CH573F-mini-BLE\projects\blinking_CH573F\obj/../Startup/startup_CH573.S:24
        j   HardFault_Handler           /* Hard Fault Handler */
2000380c:	1e40006f          	j	200039f0 <HardFault_Handler>
	...
C:\Users\USER\repos\aixt_ccgg\ports\WCH\CH573F-mini-BLE\projects\blinking_CH573F\obj/../Startup/startup_CH573.S:33
    .word   0
    .word   0
    .word   0
    .word   0
    .word   0
        j   SysTick_Handler            /* SysTick Handler */
20003830:	0640006f          	j	20003894 <SysTick_Handler>
20003834:	0000                	unimp
20003836:	0000                	unimp
C:\Users\USER\repos\aixt_ccgg\ports\WCH\CH573F-mini-BLE\projects\blinking_CH573F\obj/../Startup/startup_CH573.S:35
    .word   0
        j   SW_Handler                 /* SW Handler */
20003838:	05e0006f          	j	20003896 <SW_Handler>
2000383c:	0000                	unimp
2000383e:	0000                	unimp
C:\Users\USER\repos\aixt_ccgg\ports\WCH\CH573F-mini-BLE\projects\blinking_CH573F\obj/../Startup/startup_CH573.S:38
    .word   0
    /* External Interrupts */
        j   TMR0_IRQHandler            /* 0:  TMR0 */
20003840:	0580006f          	j	20003898 <TMR0_IRQHandler>
C:\Users\USER\repos\aixt_ccgg\ports\WCH\CH573F-mini-BLE\projects\blinking_CH573F\obj/../Startup/startup_CH573.S:39
        j   GPIOA_IRQHandler           /* GPIOA */
20003844:	0560006f          	j	2000389a <GPIOA_IRQHandler>
C:\Users\USER\repos\aixt_ccgg\ports\WCH\CH573F-mini-BLE\projects\blinking_CH573F\obj/../Startup/startup_CH573.S:40
        j   GPIOB_IRQHandler           /* GPIOB */
20003848:	0540006f          	j	2000389c <GPIOB_IRQHandler>
C:\Users\USER\repos\aixt_ccgg\ports\WCH\CH573F-mini-BLE\projects\blinking_CH573F\obj/../Startup/startup_CH573.S:41
        j   SPI0_IRQHandler            /* SPI0 */
2000384c:	0520006f          	j	2000389e <SPI0_IRQHandler>
C:\Users\USER\repos\aixt_ccgg\ports\WCH\CH573F-mini-BLE\projects\blinking_CH573F\obj/../Startup/startup_CH573.S:42
        j   BB_IRQHandler              /* BLEB */
20003850:	0500006f          	j	200038a0 <BB_IRQHandler>
C:\Users\USER\repos\aixt_ccgg\ports\WCH\CH573F-mini-BLE\projects\blinking_CH573F\obj/../Startup/startup_CH573.S:43
        j   LLE_IRQHandler             /* BLEL */
20003854:	04e0006f          	j	200038a2 <LLE_IRQHandler>
C:\Users\USER\repos\aixt_ccgg\ports\WCH\CH573F-mini-BLE\projects\blinking_CH573F\obj/../Startup/startup_CH573.S:44
        j   USB_IRQHandler             /* USB */
20003858:	04c0006f          	j	200038a4 <USB_IRQHandler>
2000385c:	0000                	unimp
2000385e:	0000                	unimp
C:\Users\USER\repos\aixt_ccgg\ports\WCH\CH573F-mini-BLE\projects\blinking_CH573F\obj/../Startup/startup_CH573.S:46
        .word   0
        j   TMR1_IRQHandler            /* TMR1 */
20003860:	0460006f          	j	200038a6 <TMR1_IRQHandler>
C:\Users\USER\repos\aixt_ccgg\ports\WCH\CH573F-mini-BLE\projects\blinking_CH573F\obj/../Startup/startup_CH573.S:47
        j   TMR2_IRQHandler            /* TMR2 */
20003864:	0440006f          	j	200038a8 <TMR2_IRQHandler>
C:\Users\USER\repos\aixt_ccgg\ports\WCH\CH573F-mini-BLE\projects\blinking_CH573F\obj/../Startup/startup_CH573.S:48
        j   UART0_IRQHandler           /* UART0 */
20003868:	0420006f          	j	200038aa <UART0_IRQHandler>
C:\Users\USER\repos\aixt_ccgg\ports\WCH\CH573F-mini-BLE\projects\blinking_CH573F\obj/../Startup/startup_CH573.S:49
        j   UART1_IRQHandler           /* UART1 */
2000386c:	0400006f          	j	200038ac <UART1_IRQHandler>
C:\Users\USER\repos\aixt_ccgg\ports\WCH\CH573F-mini-BLE\projects\blinking_CH573F\obj/../Startup/startup_CH573.S:50
        j   RTC_IRQHandler             /* RTC */
20003870:	03e0006f          	j	200038ae <RTC_IRQHandler>
C:\Users\USER\repos\aixt_ccgg\ports\WCH\CH573F-mini-BLE\projects\blinking_CH573F\obj/../Startup/startup_CH573.S:51
        j   ADC_IRQHandler             /* ADC */
20003874:	03c0006f          	j	200038b0 <ADC_IRQHandler>
20003878:	0000                	unimp
2000387a:	0000                	unimp
C:\Users\USER\repos\aixt_ccgg\ports\WCH\CH573F-mini-BLE\projects\blinking_CH573F\obj/../Startup/startup_CH573.S:53
        .word   0
        j   PWMX_IRQHandler            /* PWMX */
2000387c:	0360006f          	j	200038b2 <PWMX_IRQHandler>
C:\Users\USER\repos\aixt_ccgg\ports\WCH\CH573F-mini-BLE\projects\blinking_CH573F\obj/../Startup/startup_CH573.S:54
        j   TMR3_IRQHandler            /* TMR3 */
20003880:	0340006f          	j	200038b4 <TMR3_IRQHandler>
C:\Users\USER\repos\aixt_ccgg\ports\WCH\CH573F-mini-BLE\projects\blinking_CH573F\obj/../Startup/startup_CH573.S:55
        j   UART2_IRQHandler           /* UART2 */
20003884:	0320006f          	j	200038b6 <UART2_IRQHandler>
C:\Users\USER\repos\aixt_ccgg\ports\WCH\CH573F-mini-BLE\projects\blinking_CH573F\obj/../Startup/startup_CH573.S:56
        j   UART3_IRQHandler           /* UART3 */
20003888:	0300006f          	j	200038b8 <UART3_IRQHandler>
C:\Users\USER\repos\aixt_ccgg\ports\WCH\CH573F-mini-BLE\projects\blinking_CH573F\obj/../Startup/startup_CH573.S:57
        j   WDOG_BAT_IRQHandler        /* WDOG_BAT */
2000388c:	02e0006f          	j	200038ba <WDOG_BAT_IRQHandler>

20003890 <NMI_Handler>:
NMI_Handler():
C:\Users\USER\repos\aixt_ccgg\ports\WCH\CH573F-mini-BLE\projects\blinking_CH573F\obj/../Startup/startup_CH573.S:85
    .weak   TMR3_IRQHandler
    .weak   UART2_IRQHandler
    .weak   UART3_IRQHandler
    .weak   WDOG_BAT_IRQHandler

NMI_Handler:  1:  j 1b
20003890:	a001                	j	20003890 <NMI_Handler>
C:\Users\USER\repos\aixt_ccgg\ports\WCH\CH573F-mini-BLE\projects\blinking_CH573F\obj/../Startup/startup_CH573.S:86
HardFault_Handler:  1:  j 1b
20003892:	a001                	j	20003892 <NMI_Handler+0x2>

20003894 <SysTick_Handler>:
SysTick_Handler():
C:\Users\USER\repos\aixt_ccgg\ports\WCH\CH573F-mini-BLE\projects\blinking_CH573F\obj/../Startup/startup_CH573.S:87
SysTick_Handler:  1:  j 1b
20003894:	a001                	j	20003894 <SysTick_Handler>

20003896 <SW_Handler>:
SW_Handler():
C:\Users\USER\repos\aixt_ccgg\ports\WCH\CH573F-mini-BLE\projects\blinking_CH573F\obj/../Startup/startup_CH573.S:88
SW_Handler:  1:  j 1b
20003896:	a001                	j	20003896 <SW_Handler>

20003898 <TMR0_IRQHandler>:
TMR0_IRQHandler():
C:\Users\USER\repos\aixt_ccgg\ports\WCH\CH573F-mini-BLE\projects\blinking_CH573F\obj/../Startup/startup_CH573.S:89
TMR0_IRQHandler:  1:  j 1b
20003898:	a001                	j	20003898 <TMR0_IRQHandler>

2000389a <GPIOA_IRQHandler>:
GPIOA_IRQHandler():
C:\Users\USER\repos\aixt_ccgg\ports\WCH\CH573F-mini-BLE\projects\blinking_CH573F\obj/../Startup/startup_CH573.S:90
GPIOA_IRQHandler:  1:  j 1b
2000389a:	a001                	j	2000389a <GPIOA_IRQHandler>

2000389c <GPIOB_IRQHandler>:
GPIOB_IRQHandler():
C:\Users\USER\repos\aixt_ccgg\ports\WCH\CH573F-mini-BLE\projects\blinking_CH573F\obj/../Startup/startup_CH573.S:91
GPIOB_IRQHandler:  1:  j 1b
2000389c:	a001                	j	2000389c <GPIOB_IRQHandler>

2000389e <SPI0_IRQHandler>:
SPI0_IRQHandler():
C:\Users\USER\repos\aixt_ccgg\ports\WCH\CH573F-mini-BLE\projects\blinking_CH573F\obj/../Startup/startup_CH573.S:92
SPI0_IRQHandler:  1:  j 1b
2000389e:	a001                	j	2000389e <SPI0_IRQHandler>

200038a0 <BB_IRQHandler>:
BB_IRQHandler():
C:\Users\USER\repos\aixt_ccgg\ports\WCH\CH573F-mini-BLE\projects\blinking_CH573F\obj/../Startup/startup_CH573.S:93
BB_IRQHandler:  1:  j 1b
200038a0:	a001                	j	200038a0 <BB_IRQHandler>

200038a2 <LLE_IRQHandler>:
LLE_IRQHandler():
C:\Users\USER\repos\aixt_ccgg\ports\WCH\CH573F-mini-BLE\projects\blinking_CH573F\obj/../Startup/startup_CH573.S:94
LLE_IRQHandler:  1:  j 1b
200038a2:	a001                	j	200038a2 <LLE_IRQHandler>

200038a4 <USB_IRQHandler>:
USB_IRQHandler():
C:\Users\USER\repos\aixt_ccgg\ports\WCH\CH573F-mini-BLE\projects\blinking_CH573F\obj/../Startup/startup_CH573.S:95
USB_IRQHandler:  1:  j 1b
200038a4:	a001                	j	200038a4 <USB_IRQHandler>

200038a6 <TMR1_IRQHandler>:
TMR1_IRQHandler():
C:\Users\USER\repos\aixt_ccgg\ports\WCH\CH573F-mini-BLE\projects\blinking_CH573F\obj/../Startup/startup_CH573.S:96
TMR1_IRQHandler:  1:  j 1b
200038a6:	a001                	j	200038a6 <TMR1_IRQHandler>

200038a8 <TMR2_IRQHandler>:
TMR2_IRQHandler():
C:\Users\USER\repos\aixt_ccgg\ports\WCH\CH573F-mini-BLE\projects\blinking_CH573F\obj/../Startup/startup_CH573.S:97
TMR2_IRQHandler:  1:  j 1b
200038a8:	a001                	j	200038a8 <TMR2_IRQHandler>

200038aa <UART0_IRQHandler>:
UART0_IRQHandler():
C:\Users\USER\repos\aixt_ccgg\ports\WCH\CH573F-mini-BLE\projects\blinking_CH573F\obj/../Startup/startup_CH573.S:98
UART0_IRQHandler:  1:  j 1b
200038aa:	a001                	j	200038aa <UART0_IRQHandler>

200038ac <UART1_IRQHandler>:
UART1_IRQHandler():
C:\Users\USER\repos\aixt_ccgg\ports\WCH\CH573F-mini-BLE\projects\blinking_CH573F\obj/../Startup/startup_CH573.S:99
UART1_IRQHandler:  1:  j 1b
200038ac:	a001                	j	200038ac <UART1_IRQHandler>

200038ae <RTC_IRQHandler>:
RTC_IRQHandler():
C:\Users\USER\repos\aixt_ccgg\ports\WCH\CH573F-mini-BLE\projects\blinking_CH573F\obj/../Startup/startup_CH573.S:100
RTC_IRQHandler:  1:  j 1b
200038ae:	a001                	j	200038ae <RTC_IRQHandler>

200038b0 <ADC_IRQHandler>:
ADC_IRQHandler():
C:\Users\USER\repos\aixt_ccgg\ports\WCH\CH573F-mini-BLE\projects\blinking_CH573F\obj/../Startup/startup_CH573.S:101
ADC_IRQHandler:  1:  j 1b
200038b0:	a001                	j	200038b0 <ADC_IRQHandler>

200038b2 <PWMX_IRQHandler>:
PWMX_IRQHandler():
C:\Users\USER\repos\aixt_ccgg\ports\WCH\CH573F-mini-BLE\projects\blinking_CH573F\obj/../Startup/startup_CH573.S:102
PWMX_IRQHandler:  1:  j 1b
200038b2:	a001                	j	200038b2 <PWMX_IRQHandler>

200038b4 <TMR3_IRQHandler>:
TMR3_IRQHandler():
C:\Users\USER\repos\aixt_ccgg\ports\WCH\CH573F-mini-BLE\projects\blinking_CH573F\obj/../Startup/startup_CH573.S:103
TMR3_IRQHandler:  1:  j 1b
200038b4:	a001                	j	200038b4 <TMR3_IRQHandler>

200038b6 <UART2_IRQHandler>:
UART2_IRQHandler():
C:\Users\USER\repos\aixt_ccgg\ports\WCH\CH573F-mini-BLE\projects\blinking_CH573F\obj/../Startup/startup_CH573.S:104
UART2_IRQHandler:  1:  j 1b
200038b6:	a001                	j	200038b6 <UART2_IRQHandler>

200038b8 <UART3_IRQHandler>:
UART3_IRQHandler():
C:\Users\USER\repos\aixt_ccgg\ports\WCH\CH573F-mini-BLE\projects\blinking_CH573F\obj/../Startup/startup_CH573.S:105
UART3_IRQHandler:  1:  j 1b
200038b8:	a001                	j	200038b8 <UART3_IRQHandler>

200038ba <WDOG_BAT_IRQHandler>:
WDOG_BAT_IRQHandler():
C:\Users\USER\repos\aixt_ccgg\ports\WCH\CH573F-mini-BLE\projects\blinking_CH573F\obj/../Startup/startup_CH573.S:106
WDOG_BAT_IRQHandler:  1:  j 1b
200038ba:	a001                	j	200038ba <WDOG_BAT_IRQHandler>

200038bc <SetSysClock>:
SetSysClock():
C:\Users\USER\repos\aixt_ccgg\ports\WCH\CH573F-mini-BLE\projects\blinking_CH573F\obj/../StdPeriphDriver/CH57x_sys.c:26
 */
__attribute__((section(".highcode")))
void SetSysClock(SYS_CLKTypeDef sc)
{
    uint32_t i;
    R8_SAFE_ACCESS_SIG = SAFE_ACCESS_SIG1;
200038bc:	400017b7          	lui	a5,0x40001
200038c0:	05700693          	li	a3,87
200038c4:	04d78023          	sb	a3,64(a5) # 40001040 <_eusrstack+0x1fff9040>
C:\Users\USER\repos\aixt_ccgg\ports\WCH\CH573F-mini-BLE\projects\blinking_CH573F\obj/../StdPeriphDriver/CH57x_sys.c:27
    R8_SAFE_ACCESS_SIG = SAFE_ACCESS_SIG2;
200038c8:	fa800713          	li	a4,-88
200038cc:	04e78023          	sb	a4,64(a5)
C:\Users\USER\repos\aixt_ccgg\ports\WCH\CH573F-mini-BLE\projects\blinking_CH573F\obj/../StdPeriphDriver/CH57x_sys.c:28
    R8_PLL_CONFIG &= ~(1 << 5); //
200038d0:	04b7c603          	lbu	a2,75(a5)
200038d4:	0df67613          	andi	a2,a2,223
200038d8:	04c785a3          	sb	a2,75(a5)
C:\Users\USER\repos\aixt_ccgg\ports\WCH\CH573F-mini-BLE\projects\blinking_CH573F\obj/../StdPeriphDriver/CH57x_sys.c:29
    R8_SAFE_ACCESS_SIG = 0;
200038dc:	04078023          	sb	zero,64(a5)
C:\Users\USER\repos\aixt_ccgg\ports\WCH\CH573F-mini-BLE\projects\blinking_CH573F\obj/../StdPeriphDriver/CH57x_sys.c:30
    if(sc & 0x20)
200038e0:	02057613          	andi	a2,a0,32
200038e4:	c62d                	beqz	a2,2000394e <SetSysClock+0x92>
C:\Users\USER\repos\aixt_ccgg\ports\WCH\CH573F-mini-BLE\projects\blinking_CH573F\obj/../StdPeriphDriver/CH57x_sys.c:32
    { // HSE div
        if(!(R8_HFCK_PWR_CTRL & RB_CLK_XT32M_PON))
200038e6:	00a7c603          	lbu	a2,10(a5)
200038ea:	8a11                	andi	a2,a2,4
200038ec:	e20d                	bnez	a2,2000390e <SetSysClock+0x52>
C:\Users\USER\repos\aixt_ccgg\ports\WCH\CH573F-mini-BLE\projects\blinking_CH573F\obj/../StdPeriphDriver/CH57x_sys.c:34
        {
            R8_SAFE_ACCESS_SIG = SAFE_ACCESS_SIG1;
200038ee:	04d78023          	sb	a3,64(a5)
C:\Users\USER\repos\aixt_ccgg\ports\WCH\CH573F-mini-BLE\projects\blinking_CH573F\obj/../StdPeriphDriver/CH57x_sys.c:35
            R8_SAFE_ACCESS_SIG = SAFE_ACCESS_SIG2;
200038f2:	04e78023          	sb	a4,64(a5)
C:\Users\USER\repos\aixt_ccgg\ports\WCH\CH573F-mini-BLE\projects\blinking_CH573F\obj/../StdPeriphDriver/CH57x_sys.c:36
            R8_HFCK_PWR_CTRL |= RB_CLK_XT32M_PON; // HSE power on
200038f6:	00a7c703          	lbu	a4,10(a5)
200038fa:	00476713          	ori	a4,a4,4
200038fe:	00e78523          	sb	a4,10(a5)
20003902:	4b000793          	li	a5,1200
C:\Users\USER\repos\aixt_ccgg\ports\WCH\CH573F-mini-BLE\projects\blinking_CH573F\obj/../StdPeriphDriver/CH57x_sys.c:39 (discriminator 3)
            for(i = 0; i < 1200; i++)
            {
                __nop();
20003906:	0001                	nop
C:\Users\USER\repos\aixt_ccgg\ports\WCH\CH573F-mini-BLE\projects\blinking_CH573F\obj/../StdPeriphDriver/CH57x_sys.c:40 (discriminator 3)
                __nop();
20003908:	0001                	nop
2000390a:	17fd                	addi	a5,a5,-1
C:\Users\USER\repos\aixt_ccgg\ports\WCH\CH573F-mini-BLE\projects\blinking_CH573F\obj/../StdPeriphDriver/CH57x_sys.c:37 (discriminator 3)
            for(i = 0; i < 1200; i++)
2000390c:	ffed                	bnez	a5,20003906 <SetSysClock+0x4a>
C:\Users\USER\repos\aixt_ccgg\ports\WCH\CH573F-mini-BLE\projects\blinking_CH573F\obj/../StdPeriphDriver/CH57x_sys.c:44
            }
        }

        R8_SAFE_ACCESS_SIG = SAFE_ACCESS_SIG1;
2000390e:	400017b7          	lui	a5,0x40001
20003912:	05700693          	li	a3,87
20003916:	04d78023          	sb	a3,64(a5) # 40001040 <_eusrstack+0x1fff9040>
C:\Users\USER\repos\aixt_ccgg\ports\WCH\CH573F-mini-BLE\projects\blinking_CH573F\obj/../StdPeriphDriver/CH57x_sys.c:45
        R8_SAFE_ACCESS_SIG = SAFE_ACCESS_SIG2;
2000391a:	fa800713          	li	a4,-88
2000391e:	04e78023          	sb	a4,64(a5)
C:\Users\USER\repos\aixt_ccgg\ports\WCH\CH573F-mini-BLE\projects\blinking_CH573F\obj/../StdPeriphDriver/CH57x_sys.c:46
        R16_CLK_SYS_CFG = (0 << 6) | (sc & 0x1f);
20003922:	897d                	andi	a0,a0,31
20003924:	00a79423          	sh	a0,8(a5)
C:\Users\USER\repos\aixt_ccgg\ports\WCH\CH573F-mini-BLE\projects\blinking_CH573F\obj/../StdPeriphDriver/CH57x_sys.c:47
        __nop();
20003928:	0001                	nop
C:\Users\USER\repos\aixt_ccgg\ports\WCH\CH573F-mini-BLE\projects\blinking_CH573F\obj/../StdPeriphDriver/CH57x_sys.c:48
        __nop();
2000392a:	0001                	nop
C:\Users\USER\repos\aixt_ccgg\ports\WCH\CH573F-mini-BLE\projects\blinking_CH573F\obj/../StdPeriphDriver/CH57x_sys.c:49
        __nop();
2000392c:	0001                	nop
C:\Users\USER\repos\aixt_ccgg\ports\WCH\CH573F-mini-BLE\projects\blinking_CH573F\obj/../StdPeriphDriver/CH57x_sys.c:50
        __nop();
2000392e:	0001                	nop
C:\Users\USER\repos\aixt_ccgg\ports\WCH\CH573F-mini-BLE\projects\blinking_CH573F\obj/../StdPeriphDriver/CH57x_sys.c:51
        R8_SAFE_ACCESS_SIG = 0;
20003930:	04078023          	sb	zero,64(a5)
C:\Users\USER\repos\aixt_ccgg\ports\WCH\CH573F-mini-BLE\projects\blinking_CH573F\obj/../StdPeriphDriver/CH57x_sys.c:52
        R8_SAFE_ACCESS_SIG = SAFE_ACCESS_SIG1;
20003934:	04d78023          	sb	a3,64(a5)
C:\Users\USER\repos\aixt_ccgg\ports\WCH\CH573F-mini-BLE\projects\blinking_CH573F\obj/../StdPeriphDriver/CH57x_sys.c:53
        R8_SAFE_ACCESS_SIG = SAFE_ACCESS_SIG2;
20003938:	04e78023          	sb	a4,64(a5)
C:\Users\USER\repos\aixt_ccgg\ports\WCH\CH573F-mini-BLE\projects\blinking_CH573F\obj/../StdPeriphDriver/CH57x_sys.c:54
        R8_FLASH_CFG = 0X51;
2000393c:	05100693          	li	a3,81
20003940:	40002737          	lui	a4,0x40002
C:\Users\USER\repos\aixt_ccgg\ports\WCH\CH573F-mini-BLE\projects\blinking_CH573F\obj/../StdPeriphDriver/CH57x_sys.c:81
        __nop();
        __nop();
        R8_SAFE_ACCESS_SIG = 0;
        R8_SAFE_ACCESS_SIG = SAFE_ACCESS_SIG1;
        R8_SAFE_ACCESS_SIG = SAFE_ACCESS_SIG2;
        R8_FLASH_CFG = 0X53;
20003944:	80d703a3          	sb	a3,-2041(a4) # 40001807 <_eusrstack+0x1fff9807>
C:\Users\USER\repos\aixt_ccgg\ports\WCH\CH573F-mini-BLE\projects\blinking_CH573F\obj/../StdPeriphDriver/CH57x_sys.c:82
        R8_SAFE_ACCESS_SIG = 0;
20003948:	04078023          	sb	zero,64(a5)
C:\Users\USER\repos\aixt_ccgg\ports\WCH\CH573F-mini-BLE\projects\blinking_CH573F\obj/../StdPeriphDriver/CH57x_sys.c:84
    }
}
2000394c:	8082                	ret
C:\Users\USER\repos\aixt_ccgg\ports\WCH\CH573F-mini-BLE\projects\blinking_CH573F\obj/../StdPeriphDriver/CH57x_sys.c:58
    else if(sc & 0x40)
2000394e:	04057613          	andi	a2,a0,64
20003952:	de6d                	beqz	a2,2000394c <SetSysClock+0x90>
C:\Users\USER\repos\aixt_ccgg\ports\WCH\CH573F-mini-BLE\projects\blinking_CH573F\obj/../StdPeriphDriver/CH57x_sys.c:60
        if(!(R8_HFCK_PWR_CTRL & RB_CLK_PLL_PON))
20003954:	00a7c603          	lbu	a2,10(a5)
20003958:	8a41                	andi	a2,a2,16
2000395a:	e20d                	bnez	a2,2000397c <SetSysClock+0xc0>
C:\Users\USER\repos\aixt_ccgg\ports\WCH\CH573F-mini-BLE\projects\blinking_CH573F\obj/../StdPeriphDriver/CH57x_sys.c:62
            R8_SAFE_ACCESS_SIG = SAFE_ACCESS_SIG1;
2000395c:	04d78023          	sb	a3,64(a5)
C:\Users\USER\repos\aixt_ccgg\ports\WCH\CH573F-mini-BLE\projects\blinking_CH573F\obj/../StdPeriphDriver/CH57x_sys.c:63
            R8_SAFE_ACCESS_SIG = SAFE_ACCESS_SIG2;
20003960:	04e78023          	sb	a4,64(a5)
C:\Users\USER\repos\aixt_ccgg\ports\WCH\CH573F-mini-BLE\projects\blinking_CH573F\obj/../StdPeriphDriver/CH57x_sys.c:64
            R8_HFCK_PWR_CTRL |= RB_CLK_PLL_PON; // PLL power on
20003964:	00a7c703          	lbu	a4,10(a5)
20003968:	01076713          	ori	a4,a4,16
2000396c:	00e78523          	sb	a4,10(a5)
20003970:	7d000793          	li	a5,2000
C:\Users\USER\repos\aixt_ccgg\ports\WCH\CH573F-mini-BLE\projects\blinking_CH573F\obj/../StdPeriphDriver/CH57x_sys.c:67 (discriminator 3)
                __nop();
20003974:	0001                	nop
C:\Users\USER\repos\aixt_ccgg\ports\WCH\CH573F-mini-BLE\projects\blinking_CH573F\obj/../StdPeriphDriver/CH57x_sys.c:68 (discriminator 3)
                __nop();
20003976:	0001                	nop
20003978:	17fd                	addi	a5,a5,-1
C:\Users\USER\repos\aixt_ccgg\ports\WCH\CH573F-mini-BLE\projects\blinking_CH573F\obj/../StdPeriphDriver/CH57x_sys.c:65 (discriminator 3)
            for(i = 0; i < 2000; i++)
2000397a:	ffed                	bnez	a5,20003974 <SetSysClock+0xb8>
C:\Users\USER\repos\aixt_ccgg\ports\WCH\CH573F-mini-BLE\projects\blinking_CH573F\obj/../StdPeriphDriver/CH57x_sys.c:71
        R8_SAFE_ACCESS_SIG = SAFE_ACCESS_SIG1;
2000397c:	400017b7          	lui	a5,0x40001
20003980:	05700693          	li	a3,87
20003984:	04d78023          	sb	a3,64(a5) # 40001040 <_eusrstack+0x1fff9040>
C:\Users\USER\repos\aixt_ccgg\ports\WCH\CH573F-mini-BLE\projects\blinking_CH573F\obj/../StdPeriphDriver/CH57x_sys.c:72
        R8_SAFE_ACCESS_SIG = SAFE_ACCESS_SIG2;
20003988:	fa800713          	li	a4,-88
C:\Users\USER\repos\aixt_ccgg\ports\WCH\CH573F-mini-BLE\projects\blinking_CH573F\obj/../StdPeriphDriver/CH57x_sys.c:73
        R16_CLK_SYS_CFG = (1 << 6) | (sc & 0x1f);
2000398c:	897d                	andi	a0,a0,31
C:\Users\USER\repos\aixt_ccgg\ports\WCH\CH573F-mini-BLE\projects\blinking_CH573F\obj/../StdPeriphDriver/CH57x_sys.c:72
        R8_SAFE_ACCESS_SIG = SAFE_ACCESS_SIG2;
2000398e:	04e78023          	sb	a4,64(a5)
C:\Users\USER\repos\aixt_ccgg\ports\WCH\CH573F-mini-BLE\projects\blinking_CH573F\obj/../StdPeriphDriver/CH57x_sys.c:73
        R16_CLK_SYS_CFG = (1 << 6) | (sc & 0x1f);
20003992:	04056513          	ori	a0,a0,64
20003996:	00a79423          	sh	a0,8(a5)
C:\Users\USER\repos\aixt_ccgg\ports\WCH\CH573F-mini-BLE\projects\blinking_CH573F\obj/../StdPeriphDriver/CH57x_sys.c:74
        __nop();
2000399a:	0001                	nop
C:\Users\USER\repos\aixt_ccgg\ports\WCH\CH573F-mini-BLE\projects\blinking_CH573F\obj/../StdPeriphDriver/CH57x_sys.c:75
        __nop();
2000399c:	0001                	nop
C:\Users\USER\repos\aixt_ccgg\ports\WCH\CH573F-mini-BLE\projects\blinking_CH573F\obj/../StdPeriphDriver/CH57x_sys.c:76
        __nop();
2000399e:	0001                	nop
C:\Users\USER\repos\aixt_ccgg\ports\WCH\CH573F-mini-BLE\projects\blinking_CH573F\obj/../StdPeriphDriver/CH57x_sys.c:77
        __nop();
200039a0:	0001                	nop
C:\Users\USER\repos\aixt_ccgg\ports\WCH\CH573F-mini-BLE\projects\blinking_CH573F\obj/../StdPeriphDriver/CH57x_sys.c:78
        R8_SAFE_ACCESS_SIG = 0;
200039a2:	04078023          	sb	zero,64(a5)
C:\Users\USER\repos\aixt_ccgg\ports\WCH\CH573F-mini-BLE\projects\blinking_CH573F\obj/../StdPeriphDriver/CH57x_sys.c:79
        R8_SAFE_ACCESS_SIG = SAFE_ACCESS_SIG1;
200039a6:	04d78023          	sb	a3,64(a5)
C:\Users\USER\repos\aixt_ccgg\ports\WCH\CH573F-mini-BLE\projects\blinking_CH573F\obj/../StdPeriphDriver/CH57x_sys.c:80
        R8_SAFE_ACCESS_SIG = SAFE_ACCESS_SIG2;
200039aa:	04e78023          	sb	a4,64(a5)
C:\Users\USER\repos\aixt_ccgg\ports\WCH\CH573F-mini-BLE\projects\blinking_CH573F\obj/../StdPeriphDriver/CH57x_sys.c:81
        R8_FLASH_CFG = 0X53;
200039ae:	05300693          	li	a3,83
200039b2:	40002737          	lui	a4,0x40002
200039b6:	b779                	j	20003944 <SetSysClock+0x88>

200039b8 <SYS_ResetExecute>:
SYS_ResetExecute():
C:\Users\USER\repos\aixt_ccgg\ports\WCH\CH573F-mini-BLE\projects\blinking_CH573F\obj/../StdPeriphDriver/CH57x_sys.c:146
 *
 * @return  none
 */
__attribute__((section(".highcode")))
void SYS_ResetExecute(void)
{
200039b8:	1141                	addi	sp,sp,-16
C:\Users\USER\repos\aixt_ccgg\ports\WCH\CH573F-mini-BLE\projects\blinking_CH573F\obj/../StdPeriphDriver/CH57x_sys.c:147
    FLASH_ROM_SW_RESET();
200039ba:	4681                	li	a3,0
200039bc:	4601                	li	a2,0
200039be:	4581                	li	a1,0
200039c0:	4511                	li	a0,4
C:\Users\USER\repos\aixt_ccgg\ports\WCH\CH573F-mini-BLE\projects\blinking_CH573F\obj/../StdPeriphDriver/CH57x_sys.c:146
{
200039c2:	c606                	sw	ra,12(sp)
C:\Users\USER\repos\aixt_ccgg\ports\WCH\CH573F-mini-BLE\projects\blinking_CH573F\obj/../StdPeriphDriver/CH57x_sys.c:147
    FLASH_ROM_SW_RESET();
200039c4:	2a91                	jal	20003b18 <FLASH_EEPROM_CMD>
C:\Users\USER\repos\aixt_ccgg\ports\WCH\CH573F-mini-BLE\projects\blinking_CH573F\obj/../StdPeriphDriver/CH57x_sys.c:148
    R8_SAFE_ACCESS_SIG = SAFE_ACCESS_SIG1;
200039c6:	400017b7          	lui	a5,0x40001
200039ca:	05700713          	li	a4,87
200039ce:	04e78023          	sb	a4,64(a5) # 40001040 <_eusrstack+0x1fff9040>
C:\Users\USER\repos\aixt_ccgg\ports\WCH\CH573F-mini-BLE\projects\blinking_CH573F\obj/../StdPeriphDriver/CH57x_sys.c:149
    R8_SAFE_ACCESS_SIG = SAFE_ACCESS_SIG2;
200039d2:	fa800713          	li	a4,-88
200039d6:	04e78023          	sb	a4,64(a5)
C:\Users\USER\repos\aixt_ccgg\ports\WCH\CH573F-mini-BLE\projects\blinking_CH573F\obj/../StdPeriphDriver/CH57x_sys.c:150
    R8_RST_WDOG_CTRL |= RB_SOFTWARE_RESET;
200039da:	0467c703          	lbu	a4,70(a5)
200039de:	00176713          	ori	a4,a4,1
200039e2:	04e78323          	sb	a4,70(a5)
C:\Users\USER\repos\aixt_ccgg\ports\WCH\CH573F-mini-BLE\projects\blinking_CH573F\obj/../StdPeriphDriver/CH57x_sys.c:151
    R8_SAFE_ACCESS_SIG = 0;
200039e6:	04078023          	sb	zero,64(a5)
C:\Users\USER\repos\aixt_ccgg\ports\WCH\CH573F-mini-BLE\projects\blinking_CH573F\obj/../StdPeriphDriver/CH57x_sys.c:152
}
200039ea:	40b2                	lw	ra,12(sp)
200039ec:	0141                	addi	sp,sp,16
200039ee:	8082                	ret

200039f0 <HardFault_Handler>:
HardFault_Handler():
C:\Users\USER\repos\aixt_ccgg\ports\WCH\CH573F-mini-BLE\projects\blinking_CH573F\obj/../StdPeriphDriver/CH57x_sys.c:281
__attribute__((interrupt("WCH-Interrupt-fast")))
__attribute__((section(".highcode")))
__attribute__((weak))
void HardFault_Handler(void)
{
    FLASH_ROM_SW_RESET();
200039f0:	4681                	li	a3,0
200039f2:	4601                	li	a2,0
200039f4:	4581                	li	a1,0
200039f6:	4511                	li	a0,4
200039f8:	2205                	jal	20003b18 <FLASH_EEPROM_CMD>
C:\Users\USER\repos\aixt_ccgg\ports\WCH\CH573F-mini-BLE\projects\blinking_CH573F\obj/../StdPeriphDriver/CH57x_sys.c:282
    R8_SAFE_ACCESS_SIG = SAFE_ACCESS_SIG1;
200039fa:	400017b7          	lui	a5,0x40001
200039fe:	05700713          	li	a4,87
20003a02:	04e78023          	sb	a4,64(a5) # 40001040 <_eusrstack+0x1fff9040>
C:\Users\USER\repos\aixt_ccgg\ports\WCH\CH573F-mini-BLE\projects\blinking_CH573F\obj/../StdPeriphDriver/CH57x_sys.c:283
    R8_SAFE_ACCESS_SIG = SAFE_ACCESS_SIG2;
20003a06:	fa800713          	li	a4,-88
20003a0a:	04e78023          	sb	a4,64(a5)
C:\Users\USER\repos\aixt_ccgg\ports\WCH\CH573F-mini-BLE\projects\blinking_CH573F\obj/../StdPeriphDriver/CH57x_sys.c:284
    R16_INT32K_TUNE = 0xFFFF;
20003a0e:	577d                	li	a4,-1
20003a10:	02e79623          	sh	a4,44(a5)
C:\Users\USER\repos\aixt_ccgg\ports\WCH\CH573F-mini-BLE\projects\blinking_CH573F\obj/../StdPeriphDriver/CH57x_sys.c:285
    R8_RST_WDOG_CTRL |= RB_SOFTWARE_RESET;
20003a14:	0467c703          	lbu	a4,70(a5)
20003a18:	00176713          	ori	a4,a4,1
20003a1c:	04e78323          	sb	a4,70(a5)
C:\Users\USER\repos\aixt_ccgg\ports\WCH\CH573F-mini-BLE\projects\blinking_CH573F\obj/../StdPeriphDriver/CH57x_sys.c:286
    R8_SAFE_ACCESS_SIG = 0;
20003a20:	04078023          	sb	zero,64(a5)
C:\Users\USER\repos\aixt_ccgg\ports\WCH\CH573F-mini-BLE\projects\blinking_CH573F\obj/../StdPeriphDriver/CH57x_sys.c:287 (discriminator 1)
    while(1);
20003a24:	a001                	j	20003a24 <HardFault_Handler+0x34>

20003a26 <mDelayuS>:
mDelayuS():
C:\Users\USER\repos\aixt_ccgg\ports\WCH\CH573F-mini-BLE\projects\blinking_CH573F\obj/../StdPeriphDriver/CH57x_sys.c:304
__attribute__((section(".highcode")))
void mDelayuS(uint16_t t)
{
    uint32_t i;
#if(FREQ_SYS == 60000000)
    i = t * 15;
20003a26:	47bd                	li	a5,15
20003a28:	02f50533          	mul	a0,a0,a5
C:\Users\USER\repos\aixt_ccgg\ports\WCH\CH573F-mini-BLE\projects\blinking_CH573F\obj/../StdPeriphDriver/CH57x_sys.c:326 (discriminator 1)
#elif(FREQ_SYS == 1000000)
    i = t >> 2;
#endif
    do
    {
        __nop();
20003a2c:	0001                	nop
C:\Users\USER\repos\aixt_ccgg\ports\WCH\CH573F-mini-BLE\projects\blinking_CH573F\obj/../StdPeriphDriver/CH57x_sys.c:327 (discriminator 1)
    } while(--i);
20003a2e:	157d                	addi	a0,a0,-1
20003a30:	fd75                	bnez	a0,20003a2c <mDelayuS+0x6>
C:\Users\USER\repos\aixt_ccgg\ports\WCH\CH573F-mini-BLE\projects\blinking_CH573F\obj/../StdPeriphDriver/CH57x_sys.c:328
}
20003a32:	8082                	ret

20003a34 <mDelaymS>:
mDelaymS():
C:\Users\USER\repos\aixt_ccgg\ports\WCH\CH573F-mini-BLE\projects\blinking_CH573F\obj/../StdPeriphDriver/CH57x_sys.c:341
 *
 * @return  none
 */
__attribute__((section(".highcode")))
void mDelaymS(uint16_t t)
{
20003a34:	1141                	addi	sp,sp,-16
20003a36:	c422                	sw	s0,8(sp)
20003a38:	c226                	sw	s1,4(sp)
20003a3a:	c606                	sw	ra,12(sp)
20003a3c:	84aa                	mv	s1,a0
C:\Users\USER\repos\aixt_ccgg\ports\WCH\CH573F-mini-BLE\projects\blinking_CH573F\obj/../StdPeriphDriver/CH57x_sys.c:344
    uint16_t i;

    for(i = 0; i < t; i++)
20003a3e:	4401                	li	s0,0
C:\Users\USER\repos\aixt_ccgg\ports\WCH\CH573F-mini-BLE\projects\blinking_CH573F\obj/../StdPeriphDriver/CH57x_sys.c:344 (discriminator 1)
20003a40:	00941763          	bne	s0,s1,20003a4e <mDelaymS+0x1a>
C:\Users\USER\repos\aixt_ccgg\ports\WCH\CH573F-mini-BLE\projects\blinking_CH573F\obj/../StdPeriphDriver/CH57x_sys.c:348
    {
        mDelayuS(1000);
    }
}
20003a44:	40b2                	lw	ra,12(sp)
20003a46:	4422                	lw	s0,8(sp)
20003a48:	4492                	lw	s1,4(sp)
20003a4a:	0141                	addi	sp,sp,16
20003a4c:	8082                	ret
C:\Users\USER\repos\aixt_ccgg\ports\WCH\CH573F-mini-BLE\projects\blinking_CH573F\obj/../StdPeriphDriver/CH57x_sys.c:344 (discriminator 3)
    for(i = 0; i < t; i++)
20003a4e:	0405                	addi	s0,s0,1
C:\Users\USER\repos\aixt_ccgg\ports\WCH\CH573F-mini-BLE\projects\blinking_CH573F\obj/../StdPeriphDriver/CH57x_sys.c:346 (discriminator 3)
        mDelayuS(1000);
20003a50:	3e800513          	li	a0,1000
C:\Users\USER\repos\aixt_ccgg\ports\WCH\CH573F-mini-BLE\projects\blinking_CH573F\obj/../StdPeriphDriver/CH57x_sys.c:344 (discriminator 3)
    for(i = 0; i < t; i++)
20003a54:	0442                	slli	s0,s0,0x10
C:\Users\USER\repos\aixt_ccgg\ports\WCH\CH573F-mini-BLE\projects\blinking_CH573F\obj/../StdPeriphDriver/CH57x_sys.c:346 (discriminator 3)
        mDelayuS(1000);
20003a56:	3fc1                	jal	20003a26 <mDelayuS>
C:\Users\USER\repos\aixt_ccgg\ports\WCH\CH573F-mini-BLE\projects\blinking_CH573F\obj/../StdPeriphDriver/CH57x_sys.c:344 (discriminator 3)
    for(i = 0; i < t; i++)
20003a58:	8041                	srli	s0,s0,0x10
20003a5a:	b7dd                	j	20003a40 <mDelaymS+0xc>

20003a5c <FLASH_ROM_BEG>:
FLASH_ROM_BEG():
20003a5c:	80040323          	sb	zero,-2042(s0)
20003a60:	4715                	li	a4,5
20003a62:	80e40323          	sb	a4,-2042(s0)
20003a66:	0001                	nop
20003a68:	80a40223          	sb	a0,-2044(s0)
20003a6c:	8082                	ret

20003a6e <FLASH_ROM_END>:
FLASH_ROM_END():
20003a6e:	80640783          	lb	a5,-2042(s0)
20003a72:	fe07cee3          	bltz	a5,20003a6e <FLASH_ROM_END>
20003a76:	80040323          	sb	zero,-2042(s0)
20003a7a:	8082                	ret

20003a7c <FLASH_ROM_IN>:
FLASH_ROM_IN():
20003a7c:	80640783          	lb	a5,-2042(s0)
20003a80:	fe07cee3          	bltz	a5,20003a7c <FLASH_ROM_IN>
20003a84:	80444503          	lbu	a0,-2044(s0)
20003a88:	8082                	ret

20003a8a <FLASH_ROM_OUT>:
FLASH_ROM_OUT():
20003a8a:	80640783          	lb	a5,-2042(s0)
20003a8e:	fe07cee3          	bltz	a5,20003a8a <FLASH_ROM_OUT>
20003a92:	80a40223          	sb	a0,-2044(s0)
20003a96:	8082                	ret

20003a98 <FLASH_ROM_ADDR>:
FLASH_ROM_ADDR():
20003a98:	1141                	addi	sp,sp,-16
20003a9a:	c426                	sw	s1,8(sp)
20003a9c:	c24a                	sw	s2,4(sp)
20003a9e:	c04e                	sw	s3,0(sp)
20003aa0:	c606                	sw	ra,12(sp)
20003aa2:	0bf57713          	andi	a4,a0,191
20003aa6:	47ad                	li	a5,11
20003aa8:	89aa                	mv	s3,a0
20003aaa:	892e                	mv	s2,a1
20003aac:	4495                	li	s1,5
20003aae:	00f70663          	beq	a4,a5,20003aba <FLASH_ROM_ADDR+0x22>
20003ab2:	4519                	li	a0,6
20003ab4:	3765                	jal	20003a5c <FLASH_ROM_BEG>
20003ab6:	3f65                	jal	20003a6e <FLASH_ROM_END>
20003ab8:	448d                	li	s1,3
20003aba:	854e                	mv	a0,s3
20003abc:	3745                	jal	20003a5c <FLASH_ROM_BEG>
20003abe:	59fd                	li	s3,-1
20003ac0:	14fd                	addi	s1,s1,-1
20003ac2:	01349863          	bne	s1,s3,20003ad2 <FLASH_ROM_ADDR+0x3a>
20003ac6:	40b2                	lw	ra,12(sp)
20003ac8:	44a2                	lw	s1,8(sp)
20003aca:	4912                	lw	s2,4(sp)
20003acc:	4982                	lw	s3,0(sp)
20003ace:	0141                	addi	sp,sp,16
20003ad0:	8082                	ret
20003ad2:	01095513          	srli	a0,s2,0x10
20003ad6:	0ff57513          	andi	a0,a0,255
20003ada:	3f45                	jal	20003a8a <FLASH_ROM_OUT>
20003adc:	0922                	slli	s2,s2,0x8
20003ade:	b7cd                	j	20003ac0 <FLASH_ROM_ADDR+0x28>

20003ae0 <FLASH_ROM_WAIT>:
FLASH_ROM_WAIT():
20003ae0:	1101                	addi	sp,sp,-32
20003ae2:	cc26                	sw	s1,24(sp)
20003ae4:	ce06                	sw	ra,28(sp)
20003ae6:	000804b7          	lui	s1,0x80
20003aea:	3751                	jal	20003a6e <FLASH_ROM_END>
20003aec:	4515                	li	a0,5
20003aee:	37bd                	jal	20003a5c <FLASH_ROM_BEG>
20003af0:	3771                	jal	20003a7c <FLASH_ROM_IN>
20003af2:	3769                	jal	20003a7c <FLASH_ROM_IN>
20003af4:	c62a                	sw	a0,12(sp)
20003af6:	3fa5                	jal	20003a6e <FLASH_ROM_END>
20003af8:	4532                	lw	a0,12(sp)
20003afa:	00157793          	andi	a5,a0,1
20003afe:	eb89                	bnez	a5,20003b10 <FLASH_ROM_WAIT+0x30>
20003b00:	00156513          	ori	a0,a0,1
20003b04:	0ff57513          	andi	a0,a0,255
20003b08:	40f2                	lw	ra,28(sp)
20003b0a:	44e2                	lw	s1,24(sp)
20003b0c:	6105                	addi	sp,sp,32
20003b0e:	8082                	ret
20003b10:	14fd                	addi	s1,s1,-1
20003b12:	fce9                	bnez	s1,20003aec <FLASH_ROM_WAIT+0xc>
20003b14:	4501                	li	a0,0
20003b16:	bfcd                	j	20003b08 <FLASH_ROM_WAIT+0x28>

20003b18 <FLASH_EEPROM_CMD>:
FLASH_EEPROM_CMD():
20003b18:	7139                	addi	sp,sp,-64
20003b1a:	dc26                	sw	s1,56(sp)
20003b1c:	da4a                	sw	s2,52(sp)
20003b1e:	d84e                	sw	s3,48(sp)
20003b20:	d652                	sw	s4,44(sp)
20003b22:	d456                	sw	s5,40(sp)
20003b24:	d25a                	sw	s6,36(sp)
20003b26:	d05e                	sw	s7,32(sp)
20003b28:	de06                	sw	ra,60(sp)
20003b2a:	ce62                	sw	s8,28(sp)
20003b2c:	cc66                	sw	s9,24(sp)
20003b2e:	e000e7b7          	lui	a5,0xe000e
20003b32:	577d                	li	a4,-1
20003b34:	0007aa83          	lw	s5,0(a5) # e000e000 <_eusrstack+0xc0006000>
20003b38:	c622                	sw	s0,12(sp)
20003b3a:	0047aa03          	lw	s4,4(a5)
20003b3e:	18e7a023          	sw	a4,384(a5)
20003b42:	18e7a223          	sw	a4,388(a5)
20003b46:	400017b7          	lui	a5,0x40001
20003b4a:	05700713          	li	a4,87
20003b4e:	04e78023          	sb	a4,64(a5) # 40001040 <_eusrstack+0x1fff9040>
20003b52:	fa800713          	li	a4,-88
20003b56:	04e78023          	sb	a4,64(a5)
20003b5a:	0447c783          	lbu	a5,68(a5)
20003b5e:	ff750b93          	addi	s7,a0,-9
20003b62:	84b6                	mv	s1,a3
20003b64:	07e2                	slli	a5,a5,0x18
20003b66:	0ffbfb93          	andi	s7,s7,255
20003b6a:	4685                	li	a3,1
20003b6c:	89aa                	mv	s3,a0
20003b6e:	8b2e                	mv	s6,a1
20003b70:	8932                	mv	s2,a2
20003b72:	40002437          	lui	s0,0x40002
20003b76:	87e1                	srai	a5,a5,0x18
20003b78:	5701                	li	a4,-32
20003b7a:	0176fa63          	bgeu	a3,s7,20003b8e <FLASH_EEPROM_CMD+0x76>
20003b7e:	00d50863          	beq	a0,a3,20003b8e <FLASH_EEPROM_CMD+0x76>
20003b82:	4689                	li	a3,2
20003b84:	02000713          	li	a4,32
20003b88:	00d51363          	bne	a0,a3,20003b8e <FLASH_EEPROM_CMD+0x76>
20003b8c:	5701                	li	a4,-32
20003b8e:	8fd9                	or	a5,a5,a4
20003b90:	0ff7f793          	andi	a5,a5,255
20003b94:	40001cb7          	lui	s9,0x40001
20003b98:	04fc8223          	sb	a5,68(s9) # 40001044 <_eusrstack+0x1fff9044>
20003b9c:	4711                	li	a4,4
20003b9e:	80e40323          	sb	a4,-2042(s0) # 40001806 <_eusrstack+0x1fff9806>
20003ba2:	0ff00513          	li	a0,255
20003ba6:	3d5d                	jal	20003a5c <FLASH_ROM_BEG>
20003ba8:	4c09                	li	s8,2
20003baa:	35d1                	jal	20003a6e <FLASH_ROM_END>
20003bac:	117c6963          	bltu	s8,s7,20003cbe <FLASH_EEPROM_CMD+0x1a6>
20003bb0:	000707b7          	lui	a5,0x70
20003bb4:	9b3e                	add	s6,s6,a5
20003bb6:	00078737          	lui	a4,0x78
20003bba:	5579                	li	a0,-2
20003bbc:	02eb7e63          	bgeu	s6,a4,20003bf8 <FLASH_EEPROM_CMD+0xe0>
20003bc0:	009b07b3          	add	a5,s6,s1
20003bc4:	02f76a63          	bltu	a4,a5,20003bf8 <FLASH_EEPROM_CMD+0xe0>
20003bc8:	47a9                	li	a5,10
20003bca:	06f99963          	bne	s3,a5,20003c3c <FLASH_EEPROM_CMD+0x124>
20003bce:	e489                	bnez	s1,20003bd8 <FLASH_EEPROM_CMD+0xc0>
20003bd0:	4481                	li	s1,0
20003bd2:	3d71                	jal	20003a6e <FLASH_ROM_END>
20003bd4:	8526                	mv	a0,s1
20003bd6:	a00d                	j	20003bf8 <FLASH_EEPROM_CMD+0xe0>
20003bd8:	85da                	mv	a1,s6
20003bda:	4509                	li	a0,2
20003bdc:	3d75                	jal	20003a98 <FLASH_ROM_ADDR>
20003bde:	0905                	addi	s2,s2,1
20003be0:	fff94503          	lbu	a0,-1(s2)
20003be4:	14fd                	addi	s1,s1,-1
20003be6:	0b05                	addi	s6,s6,1
20003be8:	354d                	jal	20003a8a <FLASH_ROM_OUT>
20003bea:	c481                	beqz	s1,20003bf2 <FLASH_EEPROM_CMD+0xda>
20003bec:	0ffb7793          	andi	a5,s6,255
20003bf0:	f7fd                	bnez	a5,20003bde <FLASH_EEPROM_CMD+0xc6>
20003bf2:	35fd                	jal	20003ae0 <FLASH_ROM_WAIT>
20003bf4:	fd69                	bnez	a0,20003bce <FLASH_EEPROM_CMD+0xb6>
20003bf6:	557d                	li	a0,-1
20003bf8:	400017b7          	lui	a5,0x40001
20003bfc:	05700713          	li	a4,87
20003c00:	04e78023          	sb	a4,64(a5) # 40001040 <_eusrstack+0x1fff9040>
20003c04:	fa800713          	li	a4,-88
20003c08:	04e78023          	sb	a4,64(a5)
20003c0c:	0447c703          	lbu	a4,68(a5)
20003c10:	8b41                	andi	a4,a4,16
20003c12:	04e78223          	sb	a4,68(a5)
20003c16:	50f2                	lw	ra,60(sp)
20003c18:	e000e7b7          	lui	a5,0xe000e
20003c1c:	1157a023          	sw	s5,256(a5) # e000e100 <_eusrstack+0xc0006100>
20003c20:	1147a223          	sw	s4,260(a5)
20003c24:	54e2                	lw	s1,56(sp)
20003c26:	4432                	lw	s0,12(sp)
20003c28:	5952                	lw	s2,52(sp)
20003c2a:	59c2                	lw	s3,48(sp)
20003c2c:	5a32                	lw	s4,44(sp)
20003c2e:	5aa2                	lw	s5,40(sp)
20003c30:	5b12                	lw	s6,36(sp)
20003c32:	5b82                	lw	s7,32(sp)
20003c34:	4c72                	lw	s8,28(sp)
20003c36:	4ce2                	lw	s9,24(sp)
20003c38:	6121                	addi	sp,sp,64
20003c3a:	8082                	ret
20003c3c:	47a5                	li	a5,9
20003c3e:	06f99563          	bne	s3,a5,20003ca8 <FLASH_EEPROM_CMD+0x190>
20003c42:	6985                	lui	s3,0x1
20003c44:	0ff00913          	li	s2,255
20003c48:	009906b3          	add	a3,s2,s1
20003c4c:	012b74b3          	and	s1,s6,s2
20003c50:	94b6                	add	s1,s1,a3
20003c52:	fff94913          	not	s2,s2
20003c56:	009974b3          	and	s1,s2,s1
20003c5a:	6b85                	lui	s7,0x1
20003c5c:	01697933          	and	s2,s2,s6
20003c60:	6b41                	lui	s6,0x10
20003c62:	fff98793          	addi	a5,s3,-1 # fff <_data_lma+0x80f>
20003c66:	0127f7b3          	and	a5,a5,s2
20003c6a:	e399                	bnez	a5,20003c70 <FLASH_EEPROM_CMD+0x158>
20003c6c:	0134fc63          	bgeu	s1,s3,20003c84 <FLASH_EEPROM_CMD+0x16c>
20003c70:	0049d993          	srli	s3,s3,0x4
20003c74:	47c1                	li	a5,16
20003c76:	ff37e6e3          	bltu	a5,s3,20003c62 <FLASH_EEPROM_CMD+0x14a>
20003c7a:	bf99                	j	20003bd0 <FLASH_EEPROM_CMD+0xb8>
20003c7c:	6905                	lui	s2,0x1
20003c7e:	69c1                	lui	s3,0x10
20003c80:	197d                	addi	s2,s2,-1
20003c82:	b7d9                	j	20003c48 <FLASH_EEPROM_CMD+0x130>
20003c84:	0d800513          	li	a0,216
20003c88:	01698863          	beq	s3,s6,20003c98 <FLASH_EEPROM_CMD+0x180>
20003c8c:	02000513          	li	a0,32
20003c90:	01798463          	beq	s3,s7,20003c98 <FLASH_EEPROM_CMD+0x180>
20003c94:	08100513          	li	a0,129
20003c98:	85ca                	mv	a1,s2
20003c9a:	3bfd                	jal	20003a98 <FLASH_ROM_ADDR>
20003c9c:	3591                	jal	20003ae0 <FLASH_ROM_WAIT>
20003c9e:	dd21                	beqz	a0,20003bf6 <FLASH_EEPROM_CMD+0xde>
20003ca0:	994e                	add	s2,s2,s3
20003ca2:	413484b3          	sub	s1,s1,s3
20003ca6:	b7d9                	j	20003c6c <FLASH_EEPROM_CMD+0x154>
20003ca8:	85da                	mv	a1,s6
20003caa:	452d                	li	a0,11
20003cac:	33f5                	jal	20003a98 <FLASH_ROM_ADDR>
20003cae:	94ca                	add	s1,s1,s2
20003cb0:	f29900e3          	beq	s2,s1,20003bd0 <FLASH_EEPROM_CMD+0xb8>
20003cb4:	0905                	addi	s2,s2,1
20003cb6:	33d9                	jal	20003a7c <FLASH_ROM_IN>
20003cb8:	fea90fa3          	sb	a0,-1(s2) # fff <_data_lma+0x80f>
20003cbc:	bfd5                	j	20003cb0 <FLASH_EEPROM_CMD+0x198>
20003cbe:	fff98793          	addi	a5,s3,-1 # ffff <_data_lma+0xf80f>
20003cc2:	0ff7f793          	andi	a5,a5,255
20003cc6:	08fc6c63          	bltu	s8,a5,20003d5e <.loop401+0x54>
20003cca:	045cc703          	lbu	a4,69(s9)
20003cce:	000807b7          	lui	a5,0x80
20003cd2:	02077713          	andi	a4,a4,32
20003cd6:	e319                	bnez	a4,20003cdc <FLASH_EEPROM_CMD+0x1c4>
20003cd8:	000787b7          	lui	a5,0x78
20003cdc:	5579                	li	a0,-2
20003cde:	f0fb7de3          	bgeu	s6,a5,20003bf8 <FLASH_EEPROM_CMD+0xe0>
20003ce2:	009b0733          	add	a4,s6,s1
20003ce6:	f0e7e9e3          	bltu	a5,a4,20003bf8 <FLASH_EEPROM_CMD+0xe0>
20003cea:	4789                	li	a5,2
20003cec:	04f99063          	bne	s3,a5,20003d2c <.loop401+0x22>
20003cf0:	8089                	srli	s1,s1,0x2
20003cf2:	49d5                	li	s3,21
20003cf4:	ec048ee3          	beqz	s1,20003bd0 <FLASH_EEPROM_CMD+0xb8>
20003cf8:	85da                	mv	a1,s6
20003cfa:	4509                	li	a0,2
20003cfc:	3b71                	jal	20003a98 <FLASH_ROM_ADDR>
20003cfe:	0911                	addi	s2,s2,4
20003d00:	ffc92703          	lw	a4,-4(s2)
20003d04:	4791                	li	a5,4
20003d06:	80e42023          	sw	a4,-2048(s0)

20003d0a <.loop401>:
20003d0a:	80640703          	lb	a4,-2042(s0)
20003d0e:	fe074ee3          	bltz	a4,20003d0a <.loop401>
20003d12:	81340323          	sb	s3,-2042(s0)
20003d16:	17fd                	addi	a5,a5,-1
20003d18:	fbed                	bnez	a5,20003d0a <.loop401>
20003d1a:	14fd                	addi	s1,s1,-1
20003d1c:	0b11                	addi	s6,s6,4
20003d1e:	c481                	beqz	s1,20003d26 <.loop401+0x1c>
20003d20:	0ffb7793          	andi	a5,s6,255
20003d24:	ffe9                	bnez	a5,20003cfe <FLASH_EEPROM_CMD+0x1e6>
20003d26:	3b6d                	jal	20003ae0 <FLASH_ROM_WAIT>
20003d28:	f571                	bnez	a0,20003cf4 <FLASH_EEPROM_CMD+0x1dc>
20003d2a:	b5f1                	j	20003bf6 <FLASH_EEPROM_CMD+0xde>
20003d2c:	4785                	li	a5,1
20003d2e:	f4f987e3          	beq	s3,a5,20003c7c <FLASH_EEPROM_CMD+0x164>
20003d32:	85da                	mv	a1,s6
20003d34:	452d                	li	a0,11
20003d36:	338d                	jal	20003a98 <FLASH_ROM_ADDR>
20003d38:	fff48993          	addi	s3,s1,-1 # 7ffff <_data_lma+0x7f80f>
20003d3c:	e8048ae3          	beqz	s1,20003bd0 <FLASH_EEPROM_CMD+0xb8>
20003d40:	3b35                	jal	20003a7c <FLASH_ROM_IN>
20003d42:	0039f793          	andi	a5,s3,3
20003d46:	eb91                	bnez	a5,20003d5a <.loop401+0x50>
20003d48:	80042683          	lw	a3,-2048(s0)
20003d4c:	00092703          	lw	a4,0(s2)
20003d50:	00490793          	addi	a5,s2,4
20003d54:	e6e69fe3          	bne	a3,a4,20003bd2 <FLASH_EEPROM_CMD+0xba>
20003d58:	893e                	mv	s2,a5
20003d5a:	84ce                	mv	s1,s3
20003d5c:	bff1                	j	20003d38 <.loop401+0x2e>
20003d5e:	47b5                	li	a5,13
20003d60:	00f99663          	bne	s3,a5,20003d6c <.loop401+0x62>
20003d64:	0b900513          	li	a0,185
20003d68:	39d5                	jal	20003a5c <FLASH_ROM_BEG>
20003d6a:	b59d                	j	20003bd0 <FLASH_EEPROM_CMD+0xb8>
20003d6c:	47b1                	li	a5,12
20003d6e:	0ab00513          	li	a0,171
20003d72:	fef98be3          	beq	s3,a5,20003d68 <.loop401+0x5e>
20003d76:	4799                	li	a5,6
20003d78:	02f99e63          	bne	s3,a5,20003db4 <.loop401+0xaa>
20003d7c:	85da                	mv	a1,s6
20003d7e:	452d                	li	a0,11
20003d80:	3b21                	jal	20003a98 <FLASH_ROM_ADDR>
20003d82:	4481                	li	s1,0
20003d84:	4b8d                	li	s7,3
20003d86:	49a1                	li	s3,8
20003d88:	39d5                	jal	20003a7c <FLASH_ROM_IN>
20003d8a:	01749663          	bne	s1,s7,20003d96 <.loop401+0x8c>
20003d8e:	80042783          	lw	a5,-2048(s0)
20003d92:	00f92023          	sw	a5,0(s2)
20003d96:	0485                	addi	s1,s1,1
20003d98:	ff3498e3          	bne	s1,s3,20003d88 <.loop401+0x7e>
20003d9c:	80042783          	lw	a5,-2048(s0)
20003da0:	012b1713          	slli	a4,s6,0x12
20003da4:	00075563          	bgez	a4,20003dae <.loop401+0xa4>
20003da8:	00f91223          	sh	a5,4(s2)
20003dac:	b515                	j	20003bd0 <FLASH_EEPROM_CMD+0xb8>
20003dae:	00f92223          	sw	a5,4(s2)
20003db2:	bd39                	j	20003bd0 <FLASH_EEPROM_CMD+0xb8>
20003db4:	479d                	li	a5,7
20003db6:	02f99963          	bne	s3,a5,20003de8 <.loop401+0xde>
20003dba:	4581                	li	a1,0
20003dbc:	04b00513          	li	a0,75
20003dc0:	39e1                	jal	20003a98 <FLASH_ROM_ADDR>
20003dc2:	44bd                	li	s1,15
20003dc4:	00092023          	sw	zero,0(s2)
20003dc8:	00092223          	sw	zero,4(s2)
20003dcc:	59fd                	li	s3,-1
20003dce:	317d                	jal	20003a7c <FLASH_ROM_IN>
20003dd0:	0074f793          	andi	a5,s1,7
20003dd4:	97ca                	add	a5,a5,s2
20003dd6:	0007c703          	lbu	a4,0(a5) # 78000 <_data_lma+0x77810>
20003dda:	14fd                	addi	s1,s1,-1
20003ddc:	8d39                	xor	a0,a0,a4
20003dde:	00a78023          	sb	a0,0(a5)
20003de2:	ff3496e3          	bne	s1,s3,20003dce <.loop401+0xc4>
20003de6:	b3ed                	j	20003bd0 <FLASH_EEPROM_CMD+0xb8>
20003de8:	47a1                	li	a5,8
20003dea:	04f99263          	bne	s3,a5,20003e2e <.loop401+0x124>
20003dee:	39cd                	jal	20003ae0 <FLASH_ROM_WAIT>
20003df0:	4481                	li	s1,0
20003df2:	000b0d63          	beqz	s6,20003e0c <.loop401+0x102>
20003df6:	478d                	li	a5,3
20003df8:	03c00493          	li	s1,60
20003dfc:	00fb0863          	beq	s6,a5,20003e0c <.loop401+0x102>
20003e00:	05000493          	li	s1,80
20003e04:	018b0463          	beq	s6,s8,20003e0c <.loop401+0x102>
20003e08:	04400493          	li	s1,68
20003e0c:	07c57513          	andi	a0,a0,124
20003e10:	dc9500e3          	beq	a0,s1,20003bd0 <FLASH_EEPROM_CMD+0xb8>
20003e14:	4519                	li	a0,6
20003e16:	3199                	jal	20003a5c <FLASH_ROM_BEG>
20003e18:	3999                	jal	20003a6e <FLASH_ROM_END>
20003e1a:	4505                	li	a0,1
20003e1c:	3181                	jal	20003a5c <FLASH_ROM_BEG>
20003e1e:	8526                	mv	a0,s1
20003e20:	31ad                	jal	20003a8a <FLASH_ROM_OUT>
20003e22:	4509                	li	a0,2
20003e24:	319d                	jal	20003a8a <FLASH_ROM_OUT>
20003e26:	396d                	jal	20003ae0 <FLASH_ROM_WAIT>
20003e28:	da0514e3          	bnez	a0,20003bd0 <FLASH_EEPROM_CMD+0xb8>
20003e2c:	b3e9                	j	20003bf6 <FLASH_EEPROM_CMD+0xde>
20003e2e:	4791                	li	a5,4
20003e30:	00f99963          	bne	s3,a5,20003e42 <.loop401+0x138>
20003e34:	06600513          	li	a0,102
20003e38:	3115                	jal	20003a5c <FLASH_ROM_BEG>
20003e3a:	3915                	jal	20003a6e <FLASH_ROM_END>
20003e3c:	09900513          	li	a0,153
20003e40:	b725                	j	20003d68 <.loop401+0x5e>
20003e42:	d80987e3          	beqz	s3,20003bd0 <FLASH_EEPROM_CMD+0xb8>
20003e46:	54f1                	li	s1,-4
20003e48:	b369                	j	20003bd2 <FLASH_EEPROM_CMD+0xba>
	...

Disassembly of section .text:

00000650 <handle_reset>:
handle_reset():
C:\Users\USER\repos\aixt_ccgg\ports\WCH\CH573F-mini-BLE\projects\blinking_CH573F\obj/../Startup/startup_CH573.S:114
	.weak	handle_reset
	.align	1
handle_reset:
.option push 
.option	norelax 
	la gp, __global_pointer$
 650:	20004197          	auipc	gp,0x20004
 654:	1b018193          	addi	gp,gp,432 # 20004800 <__global_pointer$>
C:\Users\USER\repos\aixt_ccgg\ports\WCH\CH573F-mini-BLE\projects\blinking_CH573F\obj/../Startup/startup_CH573.S:117
.option	pop 
1:
	la sp, _eusrstack 
 658:	20008117          	auipc	sp,0x20008
 65c:	9a810113          	addi	sp,sp,-1624 # 20008000 <_eusrstack>
C:\Users\USER\repos\aixt_ccgg\ports\WCH\CH573F-mini-BLE\projects\blinking_CH573F\obj/../Startup/startup_CH573.S:121

/* Load highcode code  section from flash to RAM */
2:
    la a0, _highcode_lma
 660:	00400513          	li	a0,4
C:\Users\USER\repos\aixt_ccgg\ports\WCH\CH573F-mini-BLE\projects\blinking_CH573F\obj/../Startup/startup_CH573.S:122
    la a1, _highcode_vma_start
 664:	20003597          	auipc	a1,0x20003
 668:	19c58593          	addi	a1,a1,412 # 20003800 <_highcode_vma_start>
C:\Users\USER\repos\aixt_ccgg\ports\WCH\CH573F-mini-BLE\projects\blinking_CH573F\obj/../Startup/startup_CH573.S:123
    la a2, _highcode_vma_end
 66c:	20003617          	auipc	a2,0x20003
 670:	7e060613          	addi	a2,a2,2016 # 20003e4c <_highcode_vma_end>
C:\Users\USER\repos\aixt_ccgg\ports\WCH\CH573F-mini-BLE\projects\blinking_CH573F\obj/../Startup/startup_CH573.S:124
    bgeu a1, a2, 2f
 674:	00c5fa63          	bgeu	a1,a2,688 <handle_reset+0x38>
C:\Users\USER\repos\aixt_ccgg\ports\WCH\CH573F-mini-BLE\projects\blinking_CH573F\obj/../Startup/startup_CH573.S:126
1:
    lw t0, (a0)
 678:	00052283          	lw	t0,0(a0)
C:\Users\USER\repos\aixt_ccgg\ports\WCH\CH573F-mini-BLE\projects\blinking_CH573F\obj/../Startup/startup_CH573.S:127
    sw t0, (a1)
 67c:	0055a023          	sw	t0,0(a1)
C:\Users\USER\repos\aixt_ccgg\ports\WCH\CH573F-mini-BLE\projects\blinking_CH573F\obj/../Startup/startup_CH573.S:128
    addi a0, a0, 4
 680:	0511                	addi	a0,a0,4
C:\Users\USER\repos\aixt_ccgg\ports\WCH\CH573F-mini-BLE\projects\blinking_CH573F\obj/../Startup/startup_CH573.S:129
    addi a1, a1, 4
 682:	0591                	addi	a1,a1,4
C:\Users\USER\repos\aixt_ccgg\ports\WCH\CH573F-mini-BLE\projects\blinking_CH573F\obj/../Startup/startup_CH573.S:130
    bltu a1, a2, 1b
 684:	fec5eae3          	bltu	a1,a2,678 <handle_reset+0x28>
C:\Users\USER\repos\aixt_ccgg\ports\WCH\CH573F-mini-BLE\projects\blinking_CH573F\obj/../Startup/startup_CH573.S:134

/* Load data section from flash to RAM */
2:
	la a0, _data_lma
 688:	7f000513          	li	a0,2032
C:\Users\USER\repos\aixt_ccgg\ports\WCH\CH573F-mini-BLE\projects\blinking_CH573F\obj/../Startup/startup_CH573.S:135
	la a1, _data_vma
 68c:	20004597          	auipc	a1,0x20004
 690:	97458593          	addi	a1,a1,-1676 # 20004000 <_data_vma>
C:\Users\USER\repos\aixt_ccgg\ports\WCH\CH573F-mini-BLE\projects\blinking_CH573F\obj/../Startup/startup_CH573.S:136
	la a2, _edata
 694:	20004617          	auipc	a2,0x20004
 698:	96c60613          	addi	a2,a2,-1684 # 20004000 <_data_vma>
C:\Users\USER\repos\aixt_ccgg\ports\WCH\CH573F-mini-BLE\projects\blinking_CH573F\obj/../Startup/startup_CH573.S:137
	bgeu a1, a2, 2f
 69c:	00c5fa63          	bgeu	a1,a2,6b0 <handle_reset+0x60>
C:\Users\USER\repos\aixt_ccgg\ports\WCH\CH573F-mini-BLE\projects\blinking_CH573F\obj/../Startup/startup_CH573.S:139
1:
	lw t0, (a0)
 6a0:	00052283          	lw	t0,0(a0)
C:\Users\USER\repos\aixt_ccgg\ports\WCH\CH573F-mini-BLE\projects\blinking_CH573F\obj/../Startup/startup_CH573.S:140
	sw t0, (a1)
 6a4:	0055a023          	sw	t0,0(a1)
C:\Users\USER\repos\aixt_ccgg\ports\WCH\CH573F-mini-BLE\projects\blinking_CH573F\obj/../Startup/startup_CH573.S:141
	addi a0, a0, 4
 6a8:	0511                	addi	a0,a0,4
C:\Users\USER\repos\aixt_ccgg\ports\WCH\CH573F-mini-BLE\projects\blinking_CH573F\obj/../Startup/startup_CH573.S:142
	addi a1, a1, 4
 6aa:	0591                	addi	a1,a1,4
C:\Users\USER\repos\aixt_ccgg\ports\WCH\CH573F-mini-BLE\projects\blinking_CH573F\obj/../Startup/startup_CH573.S:143
	bltu a1, a2, 1b
 6ac:	fec5eae3          	bltu	a1,a2,6a0 <handle_reset+0x50>
C:\Users\USER\repos\aixt_ccgg\ports\WCH\CH573F-mini-BLE\projects\blinking_CH573F\obj/../Startup/startup_CH573.S:146
2:
	/* clear bss section */
	la a0, _sbss
 6b0:	20004517          	auipc	a0,0x20004
 6b4:	95050513          	addi	a0,a0,-1712 # 20004000 <_data_vma>
C:\Users\USER\repos\aixt_ccgg\ports\WCH\CH573F-mini-BLE\projects\blinking_CH573F\obj/../Startup/startup_CH573.S:147
	la a1, _ebss
 6b8:	20004597          	auipc	a1,0x20004
 6bc:	94858593          	addi	a1,a1,-1720 # 20004000 <_data_vma>
C:\Users\USER\repos\aixt_ccgg\ports\WCH\CH573F-mini-BLE\projects\blinking_CH573F\obj/../Startup/startup_CH573.S:148
	bgeu a0, a1, 2f
 6c0:	00b57763          	bgeu	a0,a1,6ce <handle_reset+0x7e>
C:\Users\USER\repos\aixt_ccgg\ports\WCH\CH573F-mini-BLE\projects\blinking_CH573F\obj/../Startup/startup_CH573.S:150
1:
	sw zero, (a0)
 6c4:	00052023          	sw	zero,0(a0)
C:\Users\USER\repos\aixt_ccgg\ports\WCH\CH573F-mini-BLE\projects\blinking_CH573F\obj/../Startup/startup_CH573.S:151
	addi a0, a0, 4
 6c8:	0511                	addi	a0,a0,4
C:\Users\USER\repos\aixt_ccgg\ports\WCH\CH573F-mini-BLE\projects\blinking_CH573F\obj/../Startup/startup_CH573.S:152
	bltu a0, a1, 1b
 6ca:	feb56de3          	bltu	a0,a1,6c4 <handle_reset+0x74>
C:\Users\USER\repos\aixt_ccgg\ports\WCH\CH573F-mini-BLE\projects\blinking_CH573F\obj/../Startup/startup_CH573.S:154
2:
    li t0, 0x88
 6ce:	08800293          	li	t0,136
C:\Users\USER\repos\aixt_ccgg\ports\WCH\CH573F-mini-BLE\projects\blinking_CH573F\obj/../Startup/startup_CH573.S:155
    csrs mstatus, t0
 6d2:	3002a073          	csrs	mstatus,t0
C:\Users\USER\repos\aixt_ccgg\ports\WCH\CH573F-mini-BLE\projects\blinking_CH573F\obj/../Startup/startup_CH573.S:156
	la t0, _vector_base
 6d6:	20003297          	auipc	t0,0x20003
 6da:	12a28293          	addi	t0,t0,298 # 20003800 <_highcode_vma_start>
C:\Users\USER\repos\aixt_ccgg\ports\WCH\CH573F-mini-BLE\projects\blinking_CH573F\obj/../Startup/startup_CH573.S:157
    ori t0, t0, 1
 6de:	0012e293          	ori	t0,t0,1
C:\Users\USER\repos\aixt_ccgg\ports\WCH\CH573F-mini-BLE\projects\blinking_CH573F\obj/../Startup/startup_CH573.S:158
	csrw mtvec, t0
 6e2:	30529073          	csrw	mtvec,t0
C:\Users\USER\repos\aixt_ccgg\ports\WCH\CH573F-mini-BLE\projects\blinking_CH573F\obj/../Startup/startup_CH573.S:159
	la t0, main
 6e6:	00000297          	auipc	t0,0x0
 6ea:	01028293          	addi	t0,t0,16 # 6f6 <main>
C:\Users\USER\repos\aixt_ccgg\ports\WCH\CH573F-mini-BLE\projects\blinking_CH573F\obj/../Startup/startup_CH573.S:160
	csrw mepc, t0
 6ee:	34129073          	csrw	mepc,t0
C:\Users\USER\repos\aixt_ccgg\ports\WCH\CH573F-mini-BLE\projects\blinking_CH573F\obj/../Startup/startup_CH573.S:167
	/* enable vector relocation
	li t0, 0xE000ED14
	li t1, 1
	sw t1, 0(t0)*/
	
	mret
 6f2:	30200073          	mret

000006f6 <main>:
main():
C:\Users\USER\repos\aixt_ccgg\ports\WCH\CH573F-mini-BLE\projects\blinking_CH573F\obj/../src/Main.c:59

void pin.init() {
}


int main(void) {
 6f6:	1141                	addi	sp,sp,-16
C:\Users\USER\repos\aixt_ccgg\ports\WCH\CH573F-mini-BLE\projects\blinking_CH573F\obj/../src/Main.c:63
main__init();
time.init();
pin.init();
pin.setup(pin.a8, pin.output)put);
 6f8:	458d                	li	a1,3
 6fa:	10000513          	li	a0,256
C:\Users\USER\repos\aixt_ccgg\ports\WCH\CH573F-mini-BLE\projects\blinking_CH573F\obj/../src/Main.c:59
int main(void) {
 6fe:	c422                	sw	s0,8(sp)
 700:	c606                	sw	ra,12(sp)
C:\Users\USER\repos\aixt_ccgg\ports\WCH\CH573F-mini-BLE\projects\blinking_CH573F\obj/../src/Main.c:65
while(true) {
pin.high(pin.a8);
 702:	40001437          	lui	s0,0x40001
C:\Users\USER\repos\aixt_ccgg\ports\WCH\CH573F-mini-BLE\projects\blinking_CH573F\obj/../src/Main.c:63
pin.setup(pin.a8, pin.output)put);
 706:	2815                	jal	73a <GPIOA_ModeCfg>
C:\Users\USER\repos\aixt_ccgg\ports\WCH\CH573F-mini-BLE\projects\blinking_CH573F\obj/../src/Main.c:65 (discriminator 1)
pin.high(pin.a8);
 708:	0a842783          	lw	a5,168(s0) # 400010a8 <_eusrstack+0x1fff90a8>
C:\Users\USER\repos\aixt_ccgg\ports\WCH\CH573F-mini-BLE\projects\blinking_CH573F\obj/../src/Main.c:66 (discriminator 1)
time.sleep_ms(150);
 70c:	09600513          	li	a0,150
C:\Users\USER\repos\aixt_ccgg\ports\WCH\CH573F-mini-BLE\projects\blinking_CH573F\obj/../src/Main.c:65 (discriminator 1)
pin.high(pin.a8);
 710:	1007e793          	ori	a5,a5,256
 714:	0af42423          	sw	a5,168(s0)
C:\Users\USER\repos\aixt_ccgg\ports\WCH\CH573F-mini-BLE\projects\blinking_CH573F\obj/../src/Main.c:66 (discriminator 1)
time.sleep_ms(150);
 718:	20003097          	auipc	ra,0x20003
 71c:	31c080e7          	jalr	796(ra) # 20003a34 <mDelaymS>
C:\Users\USER\repos\aixt_ccgg\ports\WCH\CH573F-mini-BLE\projects\blinking_CH573F\obj/../src/Main.c:67 (discriminator 1)
pin.low(pin.a8);
 720:	0ac42783          	lw	a5,172(s0)
C:\Users\USER\repos\aixt_ccgg\ports\WCH\CH573F-mini-BLE\projects\blinking_CH573F\obj/../src/Main.c:68 (discriminator 1)
time.sleep_ms(150);
 724:	09600513          	li	a0,150
C:\Users\USER\repos\aixt_ccgg\ports\WCH\CH573F-mini-BLE\projects\blinking_CH573F\obj/../src/Main.c:67 (discriminator 1)
pin.low(pin.a8);
 728:	1007e793          	ori	a5,a5,256
 72c:	0af42623          	sw	a5,172(s0)
C:\Users\USER\repos\aixt_ccgg\ports\WCH\CH573F-mini-BLE\projects\blinking_CH573F\obj/../src/Main.c:68 (discriminator 1)
time.sleep_ms(150);
 730:	20003097          	auipc	ra,0x20003
 734:	304080e7          	jalr	772(ra) # 20003a34 <mDelaymS>
 738:	bfc1                	j	708 <main+0x12>

0000073a <GPIOA_ModeCfg>:
GPIOA_ModeCfg():
C:\Users\USER\repos\aixt_ccgg\ports\WCH\CH573F-mini-BLE\projects\blinking_CH573F\obj/../StdPeriphDriver/CH57x_gpio.c:25
 *
 * @return  none
 */
void GPIOA_ModeCfg(uint32_t pin, GPIOModeTypeDef mode)
{
    switch(mode)
 73a:	4791                	li	a5,4
 73c:	02b7ec63          	bltu	a5,a1,774 <GPIOA_ModeCfg+0x3a>
 740:	7dc00713          	li	a4,2012
 744:	058a                	slli	a1,a1,0x2
 746:	95ba                	add	a1,a1,a4
 748:	419c                	lw	a5,0(a1)
 74a:	97ba                	add	a5,a5,a4
 74c:	8782                	jr	a5
C:\Users\USER\repos\aixt_ccgg\ports\WCH\CH573F-mini-BLE\projects\blinking_CH573F\obj/../StdPeriphDriver/CH57x_gpio.c:28
    {
        case GPIO_ModeIN_Floating:
            R32_PA_PD_DRV &= ~pin;
 74e:	400017b7          	lui	a5,0x40001
 752:	0b47a703          	lw	a4,180(a5) # 400010b4 <_eusrstack+0x1fff90b4>
 756:	fff54513          	not	a0,a0
 75a:	8f69                	and	a4,a4,a0
 75c:	0ae7aa23          	sw	a4,180(a5)
C:\Users\USER\repos\aixt_ccgg\ports\WCH\CH573F-mini-BLE\projects\blinking_CH573F\obj/../StdPeriphDriver/CH57x_gpio.c:29
            R32_PA_PU &= ~pin;
 760:	0b07a703          	lw	a4,176(a5)
C:\Users\USER\repos\aixt_ccgg\ports\WCH\CH573F-mini-BLE\projects\blinking_CH573F\obj/../StdPeriphDriver/CH57x_gpio.c:41
            R32_PA_DIR &= ~pin;
            break;

        case GPIO_ModeIN_PD:
            R32_PA_PD_DRV |= pin;
            R32_PA_PU &= ~pin;
 764:	8f69                	and	a4,a4,a0
 766:	0ae7a823          	sw	a4,176(a5)
C:\Users\USER\repos\aixt_ccgg\ports\WCH\CH573F-mini-BLE\projects\blinking_CH573F\obj/../StdPeriphDriver/CH57x_gpio.c:42
            R32_PA_DIR &= ~pin;
 76a:	0a07a703          	lw	a4,160(a5)
 76e:	8d79                	and	a0,a0,a4
C:\Users\USER\repos\aixt_ccgg\ports\WCH\CH573F-mini-BLE\projects\blinking_CH573F\obj/../StdPeriphDriver/CH57x_gpio.c:52
            R32_PA_DIR |= pin;
            break;

        case GPIO_ModeOut_PP_20mA:
            R32_PA_PD_DRV |= pin;
            R32_PA_DIR |= pin;
 770:	0aa7a023          	sw	a0,160(a5)
C:\Users\USER\repos\aixt_ccgg\ports\WCH\CH573F-mini-BLE\projects\blinking_CH573F\obj/../StdPeriphDriver/CH57x_gpio.c:58
            break;

        default:
            break;
    }
}
 774:	8082                	ret
C:\Users\USER\repos\aixt_ccgg\ports\WCH\CH573F-mini-BLE\projects\blinking_CH573F\obj/../StdPeriphDriver/CH57x_gpio.c:34
            R32_PA_PD_DRV &= ~pin;
 776:	400017b7          	lui	a5,0x40001
 77a:	0b47a683          	lw	a3,180(a5) # 400010b4 <_eusrstack+0x1fff90b4>
 77e:	fff54713          	not	a4,a0
 782:	8ef9                	and	a3,a3,a4
 784:	0ad7aa23          	sw	a3,180(a5)
C:\Users\USER\repos\aixt_ccgg\ports\WCH\CH573F-mini-BLE\projects\blinking_CH573F\obj/../StdPeriphDriver/CH57x_gpio.c:35
            R32_PA_PU |= pin;
 788:	0b07a683          	lw	a3,176(a5)
 78c:	8d55                	or	a0,a0,a3
 78e:	0aa7a823          	sw	a0,176(a5)
C:\Users\USER\repos\aixt_ccgg\ports\WCH\CH573F-mini-BLE\projects\blinking_CH573F\obj/../StdPeriphDriver/CH57x_gpio.c:36
            R32_PA_DIR &= ~pin;
 792:	0a07a683          	lw	a3,160(a5)
 796:	8f75                	and	a4,a4,a3
 798:	0ae7a023          	sw	a4,160(a5)
C:\Users\USER\repos\aixt_ccgg\ports\WCH\CH573F-mini-BLE\projects\blinking_CH573F\obj/../StdPeriphDriver/CH57x_gpio.c:37
            break;
 79c:	8082                	ret
C:\Users\USER\repos\aixt_ccgg\ports\WCH\CH573F-mini-BLE\projects\blinking_CH573F\obj/../StdPeriphDriver/CH57x_gpio.c:40
            R32_PA_PD_DRV |= pin;
 79e:	400017b7          	lui	a5,0x40001
 7a2:	0b47a703          	lw	a4,180(a5) # 400010b4 <_eusrstack+0x1fff90b4>
 7a6:	8f49                	or	a4,a4,a0
 7a8:	0ae7aa23          	sw	a4,180(a5)
C:\Users\USER\repos\aixt_ccgg\ports\WCH\CH573F-mini-BLE\projects\blinking_CH573F\obj/../StdPeriphDriver/CH57x_gpio.c:41
            R32_PA_PU &= ~pin;
 7ac:	0b07a703          	lw	a4,176(a5)
 7b0:	fff54513          	not	a0,a0
 7b4:	bf45                	j	764 <GPIOA_ModeCfg+0x2a>
C:\Users\USER\repos\aixt_ccgg\ports\WCH\CH573F-mini-BLE\projects\blinking_CH573F\obj/../StdPeriphDriver/CH57x_gpio.c:46
            R32_PA_PD_DRV &= ~pin;
 7b6:	400017b7          	lui	a5,0x40001
 7ba:	0b47a683          	lw	a3,180(a5) # 400010b4 <_eusrstack+0x1fff90b4>
 7be:	fff54713          	not	a4,a0
 7c2:	8f75                	and	a4,a4,a3
C:\Users\USER\repos\aixt_ccgg\ports\WCH\CH573F-mini-BLE\projects\blinking_CH573F\obj/../StdPeriphDriver/CH57x_gpio.c:51
            R32_PA_PD_DRV |= pin;
 7c4:	0ae7aa23          	sw	a4,180(a5)
C:\Users\USER\repos\aixt_ccgg\ports\WCH\CH573F-mini-BLE\projects\blinking_CH573F\obj/../StdPeriphDriver/CH57x_gpio.c:52
            R32_PA_DIR |= pin;
 7c8:	0a07a703          	lw	a4,160(a5)
 7cc:	8d59                	or	a0,a0,a4
 7ce:	b74d                	j	770 <GPIOA_ModeCfg+0x36>
C:\Users\USER\repos\aixt_ccgg\ports\WCH\CH573F-mini-BLE\projects\blinking_CH573F\obj/../StdPeriphDriver/CH57x_gpio.c:51
            R32_PA_PD_DRV |= pin;
 7d0:	400017b7          	lui	a5,0x40001
 7d4:	0b47a703          	lw	a4,180(a5) # 400010b4 <_eusrstack+0x1fff90b4>
 7d8:	8f49                	or	a4,a4,a0
 7da:	b7ed                	j	7c4 <GPIOA_ModeCfg+0x8a>
 7dc:	ff72                	fsw	ft8,188(sp)
 7de:	ffff                	0xffff
 7e0:	ff9a                	fsw	ft6,252(sp)
 7e2:	ffff                	0xffff
 7e4:	ffc2                	fsw	fa6,252(sp)
 7e6:	ffff                	0xffff
 7e8:	ffda                	fsw	fs6,252(sp)
 7ea:	ffff                	0xffff
 7ec:	fff4                	fsw	fa3,124(a5)
 7ee:	ffff                	0xffff
