ARM GAS  C:\Users\ASUS\AppData\Local\Temp\ccJZE5kf.s 			page 1


   1              		.syntax unified
   2              		.cpu cortex-m0plus
   3              		.fpu softvfp
   4              		.eabi_attribute 20, 1
   5              		.eabi_attribute 21, 1
   6              		.eabi_attribute 23, 3
   7              		.eabi_attribute 24, 1
   8              		.eabi_attribute 25, 1
   9              		.eabi_attribute 26, 1
  10              		.eabi_attribute 30, 1
  11              		.eabi_attribute 34, 0
  12              		.eabi_attribute 18, 4
  13              		.thumb
  14              		.syntax unified
  15              		.file	"capsense_ADC_Filter.c"
  16              		.text
  17              	.Ltext0:
  18              		.cfi_sections	.debug_frame
  19              		.section	.text.capsense_ADC_FtInitializeBaselineChannel,"ax",%progbits
  20              		.align	2
  21              		.global	capsense_ADC_FtInitializeBaselineChannel
  22              		.code	16
  23              		.thumb_func
  24              		.type	capsense_ADC_FtInitializeBaselineChannel, %function
  25              	capsense_ADC_FtInitializeBaselineChannel:
  26              	.LFB10:
  27              		.file 1 "Generated_Source\\PSoC4\\capsense_ADC_Filter.c"
   1:Generated_Source\PSoC4/capsense_ADC_Filter.c **** /***************************************************************************//**
   2:Generated_Source\PSoC4/capsense_ADC_Filter.c **** * \file capsense_ADC_Filter.c
   3:Generated_Source\PSoC4/capsense_ADC_Filter.c **** * \version 7.10
   4:Generated_Source\PSoC4/capsense_ADC_Filter.c **** *
   5:Generated_Source\PSoC4/capsense_ADC_Filter.c **** * \brief
   6:Generated_Source\PSoC4/capsense_ADC_Filter.c **** *   This file contains the implementation source code to implement all
   7:Generated_Source\PSoC4/capsense_ADC_Filter.c **** *   firmware filters.
   8:Generated_Source\PSoC4/capsense_ADC_Filter.c **** *
   9:Generated_Source\PSoC4/capsense_ADC_Filter.c **** * \see capsense_ADC v7.10 Datasheet
  10:Generated_Source\PSoC4/capsense_ADC_Filter.c **** *
  11:Generated_Source\PSoC4/capsense_ADC_Filter.c **** *//*****************************************************************************
  12:Generated_Source\PSoC4/capsense_ADC_Filter.c **** * Copyright (2016-2019), Cypress Semiconductor Corporation.
  13:Generated_Source\PSoC4/capsense_ADC_Filter.c **** ********************************************************************************
  14:Generated_Source\PSoC4/capsense_ADC_Filter.c **** * This software is owned by Cypress Semiconductor Corporation (Cypress) and is
  15:Generated_Source\PSoC4/capsense_ADC_Filter.c **** * protected by and subject to worldwide patent protection (United States and
  16:Generated_Source\PSoC4/capsense_ADC_Filter.c **** * foreign), United States copyright laws and international treaty provisions.
  17:Generated_Source\PSoC4/capsense_ADC_Filter.c **** * Cypress hereby grants to licensee a personal, non-exclusive, non-transferable
  18:Generated_Source\PSoC4/capsense_ADC_Filter.c **** * license to copy, use, modify, create derivative works of, and compile the
  19:Generated_Source\PSoC4/capsense_ADC_Filter.c **** * Cypress Source Code and derivative works for the sole purpose of creating
  20:Generated_Source\PSoC4/capsense_ADC_Filter.c **** * custom software in support of licensee product to be used only in conjunction
  21:Generated_Source\PSoC4/capsense_ADC_Filter.c **** * with a Cypress integrated circuit as specified in the applicable agreement.
  22:Generated_Source\PSoC4/capsense_ADC_Filter.c **** * Any reproduction, modification, translation, compilation, or representation of
  23:Generated_Source\PSoC4/capsense_ADC_Filter.c **** * this software except as specified above is prohibited without the express
  24:Generated_Source\PSoC4/capsense_ADC_Filter.c **** * written permission of Cypress.
  25:Generated_Source\PSoC4/capsense_ADC_Filter.c **** *
  26:Generated_Source\PSoC4/capsense_ADC_Filter.c **** * Disclaimer: CYPRESS MAKES NO WARRANTY OF ANY KIND, EXPRESS OR IMPLIED, WITH
  27:Generated_Source\PSoC4/capsense_ADC_Filter.c **** * REGARD TO THIS MATERIAL, INCLUDING, BUT NOT LIMITED TO, THE IMPLIED
  28:Generated_Source\PSoC4/capsense_ADC_Filter.c **** * WARRANTIES OF MERCHANTABILITY AND FITNESS FOR A PARTICULAR PURPOSE.
  29:Generated_Source\PSoC4/capsense_ADC_Filter.c **** * Cypress reserves the right to make changes without further notice to the
  30:Generated_Source\PSoC4/capsense_ADC_Filter.c **** * materials described herein. Cypress does not assume any liability arising out
ARM GAS  C:\Users\ASUS\AppData\Local\Temp\ccJZE5kf.s 			page 2


  31:Generated_Source\PSoC4/capsense_ADC_Filter.c **** * of the application or use of any product or circuit described herein. Cypress
  32:Generated_Source\PSoC4/capsense_ADC_Filter.c **** * does not authorize its products for use as critical components in life-support
  33:Generated_Source\PSoC4/capsense_ADC_Filter.c **** * systems where a malfunction or failure may reasonably be expected to result in
  34:Generated_Source\PSoC4/capsense_ADC_Filter.c **** * significant injury to the user. The inclusion of Cypress' product in a life-
  35:Generated_Source\PSoC4/capsense_ADC_Filter.c **** * support systems application implies that the manufacturer assumes all risk of
  36:Generated_Source\PSoC4/capsense_ADC_Filter.c **** * such use and in doing so indemnifies Cypress against all charges. Use may be
  37:Generated_Source\PSoC4/capsense_ADC_Filter.c **** * limited by and subject to the applicable Cypress software license agreement.
  38:Generated_Source\PSoC4/capsense_ADC_Filter.c **** *******************************************************************************/
  39:Generated_Source\PSoC4/capsense_ADC_Filter.c **** 
  40:Generated_Source\PSoC4/capsense_ADC_Filter.c **** #include "capsense_ADC_Filter.h"
  41:Generated_Source\PSoC4/capsense_ADC_Filter.c **** #include "capsense_ADC_Configuration.h"
  42:Generated_Source\PSoC4/capsense_ADC_Filter.c **** 
  43:Generated_Source\PSoC4/capsense_ADC_Filter.c **** #if (0 != (capsense_ADC_CSD_AUTOTUNE & capsense_ADC_CSD_SS_TH_EN))
  44:Generated_Source\PSoC4/capsense_ADC_Filter.c ****     #include "capsense_ADC_SmartSense_LL.h"
  45:Generated_Source\PSoC4/capsense_ADC_Filter.c **** #endif /* (0 != (capsense_ADC_CSD_AUTOTUNE & capsense_ADC_CSD_SS_TH_EN)) */
  46:Generated_Source\PSoC4/capsense_ADC_Filter.c **** 
  47:Generated_Source\PSoC4/capsense_ADC_Filter.c **** #if (capsense_ADC_ENABLE == capsense_ADC_SELF_TEST_EN)
  48:Generated_Source\PSoC4/capsense_ADC_Filter.c ****     #include "capsense_ADC_SelfTest.h"
  49:Generated_Source\PSoC4/capsense_ADC_Filter.c **** #endif
  50:Generated_Source\PSoC4/capsense_ADC_Filter.c **** 
  51:Generated_Source\PSoC4/capsense_ADC_Filter.c **** /*******************************************************************************
  52:Generated_Source\PSoC4/capsense_ADC_Filter.c **** * Function Name: capsense_ADC_FtInitialize
  53:Generated_Source\PSoC4/capsense_ADC_Filter.c **** ****************************************************************************//**
  54:Generated_Source\PSoC4/capsense_ADC_Filter.c **** *
  55:Generated_Source\PSoC4/capsense_ADC_Filter.c **** * \brief
  56:Generated_Source\PSoC4/capsense_ADC_Filter.c **** *  Initializes all the firmware filter history, except the baseline filter.
  57:Generated_Source\PSoC4/capsense_ADC_Filter.c **** *
  58:Generated_Source\PSoC4/capsense_ADC_Filter.c **** * \details
  59:Generated_Source\PSoC4/capsense_ADC_Filter.c **** *  Initializes all the firmware filter history, except the baseline filter.
  60:Generated_Source\PSoC4/capsense_ADC_Filter.c **** *
  61:Generated_Source\PSoC4/capsense_ADC_Filter.c **** *******************************************************************************/
  62:Generated_Source\PSoC4/capsense_ADC_Filter.c **** void capsense_ADC_FtInitialize(void)
  63:Generated_Source\PSoC4/capsense_ADC_Filter.c **** {
  64:Generated_Source\PSoC4/capsense_ADC_Filter.c ****     #if ((capsense_ADC_ENABLE == capsense_ADC_RC_FILTER_EN) || \
  65:Generated_Source\PSoC4/capsense_ADC_Filter.c ****          (0u != (capsense_ADC_CSD_AUTOTUNE & capsense_ADC_CSD_SS_TH_EN)))
  66:Generated_Source\PSoC4/capsense_ADC_Filter.c ****         capsense_ADC_InitializeAllFilters();
  67:Generated_Source\PSoC4/capsense_ADC_Filter.c ****     #endif /* ((capsense_ADC_ENABLE == capsense_ADC_RC_FILTER_EN) || \
  68:Generated_Source\PSoC4/capsense_ADC_Filter.c ****                (0u != (capsense_ADC_CSD_AUTOTUNE & capsense_ADC_CSD_SS_TH_EN))) */
  69:Generated_Source\PSoC4/capsense_ADC_Filter.c **** }
  70:Generated_Source\PSoC4/capsense_ADC_Filter.c **** 
  71:Generated_Source\PSoC4/capsense_ADC_Filter.c **** 
  72:Generated_Source\PSoC4/capsense_ADC_Filter.c **** /*******************************************************************************
  73:Generated_Source\PSoC4/capsense_ADC_Filter.c **** * Function Name: capsense_ADC_UpdateAllBaselines
  74:Generated_Source\PSoC4/capsense_ADC_Filter.c **** ****************************************************************************//**
  75:Generated_Source\PSoC4/capsense_ADC_Filter.c **** *
  76:Generated_Source\PSoC4/capsense_ADC_Filter.c **** * \brief
  77:Generated_Source\PSoC4/capsense_ADC_Filter.c **** *  Updates the baseline for all the sensors in all the widgets.
  78:Generated_Source\PSoC4/capsense_ADC_Filter.c **** *
  79:Generated_Source\PSoC4/capsense_ADC_Filter.c **** * \details
  80:Generated_Source\PSoC4/capsense_ADC_Filter.c **** *  Updates the baseline for all the sensors in all the widgets. Baseline updating is a
  81:Generated_Source\PSoC4/capsense_ADC_Filter.c **** *  part of data processing performed by the process functions. So, no need to
  82:Generated_Source\PSoC4/capsense_ADC_Filter.c **** *  call this function except a specific process flow is implemented.
  83:Generated_Source\PSoC4/capsense_ADC_Filter.c **** *
  84:Generated_Source\PSoC4/capsense_ADC_Filter.c **** *  This function ignores the value of the wdgtEnable register. Multiple calling
  85:Generated_Source\PSoC4/capsense_ADC_Filter.c **** *  of this function (or any other function with a baseline updating task)
  86:Generated_Source\PSoC4/capsense_ADC_Filter.c **** *  without scanning leads to unexpected behavior.
  87:Generated_Source\PSoC4/capsense_ADC_Filter.c **** *
ARM GAS  C:\Users\ASUS\AppData\Local\Temp\ccJZE5kf.s 			page 3


  88:Generated_Source\PSoC4/capsense_ADC_Filter.c **** *  If the Self-test library is enabled, this function executes the baseline duplication
  89:Generated_Source\PSoC4/capsense_ADC_Filter.c **** *  test. Refer to capsense_ADC_CheckBaselineDuplication() for details.
  90:Generated_Source\PSoC4/capsense_ADC_Filter.c **** *
  91:Generated_Source\PSoC4/capsense_ADC_Filter.c **** * \return
  92:Generated_Source\PSoC4/capsense_ADC_Filter.c **** *  Returns the status of the update baseline operation of all the widgets:
  93:Generated_Source\PSoC4/capsense_ADC_Filter.c **** *  - CYRET_SUCCESS - The operation is successfully completed.
  94:Generated_Source\PSoC4/capsense_ADC_Filter.c **** *  - CYRET_BAD_DATA - The baseline processing failed.
  95:Generated_Source\PSoC4/capsense_ADC_Filter.c **** *
  96:Generated_Source\PSoC4/capsense_ADC_Filter.c **** *******************************************************************************/
  97:Generated_Source\PSoC4/capsense_ADC_Filter.c **** cystatus capsense_ADC_UpdateAllBaselines(void)
  98:Generated_Source\PSoC4/capsense_ADC_Filter.c **** {
  99:Generated_Source\PSoC4/capsense_ADC_Filter.c ****     uint32 widgetId;
 100:Generated_Source\PSoC4/capsense_ADC_Filter.c ****     cystatus bslnStatus = CYRET_SUCCESS;
 101:Generated_Source\PSoC4/capsense_ADC_Filter.c **** 
 102:Generated_Source\PSoC4/capsense_ADC_Filter.c ****     for(widgetId = capsense_ADC_TOTAL_WIDGETS; widgetId-- > 0u;)
 103:Generated_Source\PSoC4/capsense_ADC_Filter.c ****     {
 104:Generated_Source\PSoC4/capsense_ADC_Filter.c ****         bslnStatus |= capsense_ADC_UpdateWidgetBaseline(widgetId);
 105:Generated_Source\PSoC4/capsense_ADC_Filter.c ****     }
 106:Generated_Source\PSoC4/capsense_ADC_Filter.c **** 
 107:Generated_Source\PSoC4/capsense_ADC_Filter.c ****     return(bslnStatus);
 108:Generated_Source\PSoC4/capsense_ADC_Filter.c **** }
 109:Generated_Source\PSoC4/capsense_ADC_Filter.c **** 
 110:Generated_Source\PSoC4/capsense_ADC_Filter.c **** 
 111:Generated_Source\PSoC4/capsense_ADC_Filter.c **** /*******************************************************************************
 112:Generated_Source\PSoC4/capsense_ADC_Filter.c **** * Function Name: capsense_ADC_UpdateWidgetBaseline
 113:Generated_Source\PSoC4/capsense_ADC_Filter.c **** ****************************************************************************//**
 114:Generated_Source\PSoC4/capsense_ADC_Filter.c **** *
 115:Generated_Source\PSoC4/capsense_ADC_Filter.c **** * \brief
 116:Generated_Source\PSoC4/capsense_ADC_Filter.c **** *  Updates the baselines for all the sensors in a widget specified by the input
 117:Generated_Source\PSoC4/capsense_ADC_Filter.c **** *  parameter.
 118:Generated_Source\PSoC4/capsense_ADC_Filter.c **** *
 119:Generated_Source\PSoC4/capsense_ADC_Filter.c **** * \details
 120:Generated_Source\PSoC4/capsense_ADC_Filter.c **** *  This function performs exactly the same tasks as
 121:Generated_Source\PSoC4/capsense_ADC_Filter.c **** *  capsense_ADC_UpdateAllBaselines() but only for a specified widget.
 122:Generated_Source\PSoC4/capsense_ADC_Filter.c **** *
 123:Generated_Source\PSoC4/capsense_ADC_Filter.c **** *  This function ignores the value of the wdgtEnable register. Multiple calling
 124:Generated_Source\PSoC4/capsense_ADC_Filter.c **** *  of this function (or any other function with a baseline updating task)
 125:Generated_Source\PSoC4/capsense_ADC_Filter.c **** *  without scanning leads to unexpected behavior.
 126:Generated_Source\PSoC4/capsense_ADC_Filter.c **** *
 127:Generated_Source\PSoC4/capsense_ADC_Filter.c **** *  If the Self-test library is enabled, this function executes the baseline duplication
 128:Generated_Source\PSoC4/capsense_ADC_Filter.c **** *  test. Refer to capsense_ADC_CheckBaselineDuplication() for details.
 129:Generated_Source\PSoC4/capsense_ADC_Filter.c **** *
 130:Generated_Source\PSoC4/capsense_ADC_Filter.c **** * \param widgetId
 131:Generated_Source\PSoC4/capsense_ADC_Filter.c **** *  Specifies the ID number of the widget to update the baseline of all the sensors
 132:Generated_Source\PSoC4/capsense_ADC_Filter.c **** *  in the widget.
 133:Generated_Source\PSoC4/capsense_ADC_Filter.c **** *  A macro for the widget ID can be found in the
 134:Generated_Source\PSoC4/capsense_ADC_Filter.c **** *  capsense_ADC Configuration header file defined as
 135:Generated_Source\PSoC4/capsense_ADC_Filter.c **** *  capsense_ADC_<WidgetName>_WDGT_ID.
 136:Generated_Source\PSoC4/capsense_ADC_Filter.c **** *
 137:Generated_Source\PSoC4/capsense_ADC_Filter.c **** * \return
 138:Generated_Source\PSoC4/capsense_ADC_Filter.c **** *  Returns the status of the specified widget update baseline operation:
 139:Generated_Source\PSoC4/capsense_ADC_Filter.c **** *  - CYRET_SUCCESS - The operation is successfully completed.
 140:Generated_Source\PSoC4/capsense_ADC_Filter.c **** *  - CYRET_BAD_DATA - The baseline processing is failed.
 141:Generated_Source\PSoC4/capsense_ADC_Filter.c **** *
 142:Generated_Source\PSoC4/capsense_ADC_Filter.c **** *******************************************************************************/
 143:Generated_Source\PSoC4/capsense_ADC_Filter.c **** cystatus capsense_ADC_UpdateWidgetBaseline(uint32 widgetId)
 144:Generated_Source\PSoC4/capsense_ADC_Filter.c **** {
ARM GAS  C:\Users\ASUS\AppData\Local\Temp\ccJZE5kf.s 			page 4


 145:Generated_Source\PSoC4/capsense_ADC_Filter.c ****     uint32 sensorId;
 146:Generated_Source\PSoC4/capsense_ADC_Filter.c ****     uint32 sensorsNumber;
 147:Generated_Source\PSoC4/capsense_ADC_Filter.c **** 
 148:Generated_Source\PSoC4/capsense_ADC_Filter.c ****     capsense_ADC_FLASH_WD_STRUCT const *ptrWidget = &capsense_ADC_dsFlash.wdgtArray[widgetId];
 149:Generated_Source\PSoC4/capsense_ADC_Filter.c ****     cystatus bslnStatus = CYRET_SUCCESS;
 150:Generated_Source\PSoC4/capsense_ADC_Filter.c **** 
 151:Generated_Source\PSoC4/capsense_ADC_Filter.c ****     /* Find total amount of sensors in specified widget */
 152:Generated_Source\PSoC4/capsense_ADC_Filter.c ****     sensorsNumber = capsense_ADC_GET_SNS_CNT_BY_PTR(ptrWidget);
 153:Generated_Source\PSoC4/capsense_ADC_Filter.c **** 
 154:Generated_Source\PSoC4/capsense_ADC_Filter.c ****     for(sensorId = sensorsNumber; sensorId-- > 0u;)
 155:Generated_Source\PSoC4/capsense_ADC_Filter.c ****     {
 156:Generated_Source\PSoC4/capsense_ADC_Filter.c ****         bslnStatus |= capsense_ADC_UpdateSensorBaseline(widgetId, sensorId);
 157:Generated_Source\PSoC4/capsense_ADC_Filter.c ****     }
 158:Generated_Source\PSoC4/capsense_ADC_Filter.c **** 
 159:Generated_Source\PSoC4/capsense_ADC_Filter.c ****     return(bslnStatus);
 160:Generated_Source\PSoC4/capsense_ADC_Filter.c **** }
 161:Generated_Source\PSoC4/capsense_ADC_Filter.c **** 
 162:Generated_Source\PSoC4/capsense_ADC_Filter.c **** 
 163:Generated_Source\PSoC4/capsense_ADC_Filter.c **** /*******************************************************************************
 164:Generated_Source\PSoC4/capsense_ADC_Filter.c **** * Function Name: capsense_ADC_UpdateSensorBaseline
 165:Generated_Source\PSoC4/capsense_ADC_Filter.c **** ****************************************************************************//**
 166:Generated_Source\PSoC4/capsense_ADC_Filter.c **** *
 167:Generated_Source\PSoC4/capsense_ADC_Filter.c **** * \brief
 168:Generated_Source\PSoC4/capsense_ADC_Filter.c **** *  Updates the baseline for a sensor in a widget specified by the input parameters.
 169:Generated_Source\PSoC4/capsense_ADC_Filter.c **** *
 170:Generated_Source\PSoC4/capsense_ADC_Filter.c **** * \details
 171:Generated_Source\PSoC4/capsense_ADC_Filter.c **** *  This function performs exactly the same tasks as
 172:Generated_Source\PSoC4/capsense_ADC_Filter.c **** *  capsense_ADC_UpdateAllBaselines() and
 173:Generated_Source\PSoC4/capsense_ADC_Filter.c **** *  capsense_ADC_UpdateWidgetBaseline() but only for a specified sensor.
 174:Generated_Source\PSoC4/capsense_ADC_Filter.c **** *
 175:Generated_Source\PSoC4/capsense_ADC_Filter.c **** *  This function ignores the value of the wdgtEnable register. Multiple calling
 176:Generated_Source\PSoC4/capsense_ADC_Filter.c **** *  of this function (or any other function with a baseline updating task)
 177:Generated_Source\PSoC4/capsense_ADC_Filter.c **** *  without scanning leads to unexpected behavior.
 178:Generated_Source\PSoC4/capsense_ADC_Filter.c **** *
 179:Generated_Source\PSoC4/capsense_ADC_Filter.c **** *  If the Self-test library is enabled, this function executes the baseline duplication
 180:Generated_Source\PSoC4/capsense_ADC_Filter.c **** *  test. Refer to capsense_ADC_CheckBaselineDuplication() for details.
 181:Generated_Source\PSoC4/capsense_ADC_Filter.c **** *
 182:Generated_Source\PSoC4/capsense_ADC_Filter.c **** * \param widgetId
 183:Generated_Source\PSoC4/capsense_ADC_Filter.c **** *  Specifies the ID number of the widget to update the baseline of the sensor
 184:Generated_Source\PSoC4/capsense_ADC_Filter.c **** *  specified by the sensorId argument.
 185:Generated_Source\PSoC4/capsense_ADC_Filter.c **** *  A macro for the widget ID can be found in the capsense_ADC Configuration header
 186:Generated_Source\PSoC4/capsense_ADC_Filter.c **** *  file defined as capsense_ADC_<WidgetName>_WDGT_ID.
 187:Generated_Source\PSoC4/capsense_ADC_Filter.c **** *
 188:Generated_Source\PSoC4/capsense_ADC_Filter.c **** * \param sensorId
 189:Generated_Source\PSoC4/capsense_ADC_Filter.c **** *  Specifies the ID number of the sensor within the widget to update its baseline.
 190:Generated_Source\PSoC4/capsense_ADC_Filter.c **** *  A macro for the sensor ID within a specified widget can be found in the
 191:Generated_Source\PSoC4/capsense_ADC_Filter.c **** *  capsense_ADC Configuration header file defined as
 192:Generated_Source\PSoC4/capsense_ADC_Filter.c **** *  capsense_ADC_<WidgetName>_SNS<SensorNumber>_ID.
 193:Generated_Source\PSoC4/capsense_ADC_Filter.c **** *
 194:Generated_Source\PSoC4/capsense_ADC_Filter.c **** * \return
 195:Generated_Source\PSoC4/capsense_ADC_Filter.c **** *  Returns the status of the specified sensor update baseline operation:
 196:Generated_Source\PSoC4/capsense_ADC_Filter.c **** *  - CYRET_SUCCESS - The operation is successfully completed.
 197:Generated_Source\PSoC4/capsense_ADC_Filter.c **** *  - CYRET_BAD_DATA - The baseline processing failed.
 198:Generated_Source\PSoC4/capsense_ADC_Filter.c **** *
 199:Generated_Source\PSoC4/capsense_ADC_Filter.c **** *******************************************************************************/
 200:Generated_Source\PSoC4/capsense_ADC_Filter.c **** cystatus capsense_ADC_UpdateSensorBaseline(uint32 widgetId, uint32 sensorId)
 201:Generated_Source\PSoC4/capsense_ADC_Filter.c **** {
ARM GAS  C:\Users\ASUS\AppData\Local\Temp\ccJZE5kf.s 			page 5


 202:Generated_Source\PSoC4/capsense_ADC_Filter.c ****     uint32 result = CYRET_SUCCESS;
 203:Generated_Source\PSoC4/capsense_ADC_Filter.c **** 
 204:Generated_Source\PSoC4/capsense_ADC_Filter.c ****     capsense_ADC_RAM_SNS_STRUCT *ptrSensor = NULL;
 205:Generated_Source\PSoC4/capsense_ADC_Filter.c ****     capsense_ADC_FLASH_WD_STRUCT const *ptrWidget = &capsense_ADC_dsFlash.wdgtArray[widgetId];
 206:Generated_Source\PSoC4/capsense_ADC_Filter.c ****     capsense_ADC_RAM_WD_BASE_STRUCT *ptrWidgetRam = (capsense_ADC_RAM_WD_BASE_STRUCT *)ptrWidget->p
 207:Generated_Source\PSoC4/capsense_ADC_Filter.c **** 
 208:Generated_Source\PSoC4/capsense_ADC_Filter.c ****     /* Find pointer to specified sensor object */
 209:Generated_Source\PSoC4/capsense_ADC_Filter.c ****     ptrSensor = ptrWidget->ptr2SnsRam;
 210:Generated_Source\PSoC4/capsense_ADC_Filter.c ****     ptrSensor = &ptrSensor[sensorId];
 211:Generated_Source\PSoC4/capsense_ADC_Filter.c ****     result = capsense_ADC_FtUpdateBaseline(ptrWidgetRam, ptrSensor, (uint32)ptrWidget->wdgtType);
 212:Generated_Source\PSoC4/capsense_ADC_Filter.c **** 
 213:Generated_Source\PSoC4/capsense_ADC_Filter.c ****     #if (capsense_ADC_ENABLE == capsense_ADC_TST_BSLN_DUPLICATION_EN)
 214:Generated_Source\PSoC4/capsense_ADC_Filter.c ****         if (CYRET_SUCCESS != result)
 215:Generated_Source\PSoC4/capsense_ADC_Filter.c ****         {
 216:Generated_Source\PSoC4/capsense_ADC_Filter.c ****             result = CYRET_BAD_DATA;
 217:Generated_Source\PSoC4/capsense_ADC_Filter.c ****             capsense_ADC_UpdateTestResultBaselineDuplication(widgetId, sensorId);
 218:Generated_Source\PSoC4/capsense_ADC_Filter.c ****         }
 219:Generated_Source\PSoC4/capsense_ADC_Filter.c ****     #endif /* (capsense_ADC_ENABLE == capsense_ADC_TST_BSLN_DUPLICATION_EN) */
 220:Generated_Source\PSoC4/capsense_ADC_Filter.c **** 
 221:Generated_Source\PSoC4/capsense_ADC_Filter.c ****     return result;
 222:Generated_Source\PSoC4/capsense_ADC_Filter.c **** }
 223:Generated_Source\PSoC4/capsense_ADC_Filter.c **** 
 224:Generated_Source\PSoC4/capsense_ADC_Filter.c **** /*******************************************************************************
 225:Generated_Source\PSoC4/capsense_ADC_Filter.c **** * Function Name: capsense_ADC_FtUpdateBaseline
 226:Generated_Source\PSoC4/capsense_ADC_Filter.c **** ****************************************************************************//**
 227:Generated_Source\PSoC4/capsense_ADC_Filter.c **** *
 228:Generated_Source\PSoC4/capsense_ADC_Filter.c **** * \brief
 229:Generated_Source\PSoC4/capsense_ADC_Filter.c **** *  Updates the baseline for a sensor specified by an input parameter.
 230:Generated_Source\PSoC4/capsense_ADC_Filter.c **** *
 231:Generated_Source\PSoC4/capsense_ADC_Filter.c **** * \details
 232:Generated_Source\PSoC4/capsense_ADC_Filter.c **** *  Check a matching of present baseline and its inverse duplication. If they
 233:Generated_Source\PSoC4/capsense_ADC_Filter.c **** *  match then updates the baseline for a sensor specified by an input parameter.
 234:Generated_Source\PSoC4/capsense_ADC_Filter.c **** *  If don't match the function return capsense_ADC_TST_BSLN_DUPLICATION
 235:Generated_Source\PSoC4/capsense_ADC_Filter.c **** *  result and don't update baseline.
 236:Generated_Source\PSoC4/capsense_ADC_Filter.c **** *
 237:Generated_Source\PSoC4/capsense_ADC_Filter.c **** * \param ptrWidgetRam
 238:Generated_Source\PSoC4/capsense_ADC_Filter.c **** *  The pointer to the widget RAM structure where all the widget parameters
 239:Generated_Source\PSoC4/capsense_ADC_Filter.c **** *  are stored.
 240:Generated_Source\PSoC4/capsense_ADC_Filter.c **** *
 241:Generated_Source\PSoC4/capsense_ADC_Filter.c **** * \param ptrSensor
 242:Generated_Source\PSoC4/capsense_ADC_Filter.c **** *  The pointer to the sensor RAM structure where all the sensor parameters
 243:Generated_Source\PSoC4/capsense_ADC_Filter.c **** *  are stored.
 244:Generated_Source\PSoC4/capsense_ADC_Filter.c **** *
 245:Generated_Source\PSoC4/capsense_ADC_Filter.c **** * \param wdType
 246:Generated_Source\PSoC4/capsense_ADC_Filter.c **** *  Specifies the type of a widget.
 247:Generated_Source\PSoC4/capsense_ADC_Filter.c **** *
 248:Generated_Source\PSoC4/capsense_ADC_Filter.c **** * \return
 249:Generated_Source\PSoC4/capsense_ADC_Filter.c **** *  Returns a status indicating whether the baseline has been updated:
 250:Generated_Source\PSoC4/capsense_ADC_Filter.c **** *  - CYRET_SUCCESS if baseline updating was successful.
 251:Generated_Source\PSoC4/capsense_ADC_Filter.c **** *  - capsense_ADC_PROCESS_BASELINE_FAILED if present sensor's any channel
 252:Generated_Source\PSoC4/capsense_ADC_Filter.c **** *    baseline and its inversion doesn't matched.
 253:Generated_Source\PSoC4/capsense_ADC_Filter.c **** *
 254:Generated_Source\PSoC4/capsense_ADC_Filter.c **** *******************************************************************************/
 255:Generated_Source\PSoC4/capsense_ADC_Filter.c **** uint32 capsense_ADC_FtUpdateBaseline(
 256:Generated_Source\PSoC4/capsense_ADC_Filter.c ****                                 capsense_ADC_RAM_WD_BASE_STRUCT *ptrWidgetRam,
 257:Generated_Source\PSoC4/capsense_ADC_Filter.c ****                                 capsense_ADC_RAM_SNS_STRUCT *ptrSensor,
 258:Generated_Source\PSoC4/capsense_ADC_Filter.c ****                                 uint32 wdType)
ARM GAS  C:\Users\ASUS\AppData\Local\Temp\ccJZE5kf.s 			page 6


 259:Generated_Source\PSoC4/capsense_ADC_Filter.c **** {
 260:Generated_Source\PSoC4/capsense_ADC_Filter.c ****     uint32 sign;
 261:Generated_Source\PSoC4/capsense_ADC_Filter.c ****     uint32 difference;
 262:Generated_Source\PSoC4/capsense_ADC_Filter.c ****     uint32 freqChannel;
 263:Generated_Source\PSoC4/capsense_ADC_Filter.c ****     uint32 baselineCoeff;
 264:Generated_Source\PSoC4/capsense_ADC_Filter.c ****     uint32 result = CYRET_SUCCESS;
 265:Generated_Source\PSoC4/capsense_ADC_Filter.c **** 
 266:Generated_Source\PSoC4/capsense_ADC_Filter.c ****     #if (capsense_ADC_TOTAL_WIDGETS)
 267:Generated_Source\PSoC4/capsense_ADC_Filter.c ****         uint32 history;
 268:Generated_Source\PSoC4/capsense_ADC_Filter.c ****     #endif /* (capsense_ADC_TOTAL_WIDGETS) */
 269:Generated_Source\PSoC4/capsense_ADC_Filter.c **** 
 270:Generated_Source\PSoC4/capsense_ADC_Filter.c ****     /* Apply baseline to every channel in sensor */
 271:Generated_Source\PSoC4/capsense_ADC_Filter.c ****     for(freqChannel = capsense_ADC_NUM_SCAN_FREQS; freqChannel-- > 0u;)
 272:Generated_Source\PSoC4/capsense_ADC_Filter.c ****     {
 273:Generated_Source\PSoC4/capsense_ADC_Filter.c ****         #if (capsense_ADC_ENABLE == capsense_ADC_TST_BSLN_DUPLICATION_EN)
 274:Generated_Source\PSoC4/capsense_ADC_Filter.c ****             if (ptrSensor->bslnInv[freqChannel] != ((uint16) ~(ptrSensor->bsln[freqChannel])))
 275:Generated_Source\PSoC4/capsense_ADC_Filter.c ****             {
 276:Generated_Source\PSoC4/capsense_ADC_Filter.c ****                 result = capsense_ADC_PROCESS_BASELINE_FAILED;
 277:Generated_Source\PSoC4/capsense_ADC_Filter.c ****             }
 278:Generated_Source\PSoC4/capsense_ADC_Filter.c ****             else
 279:Generated_Source\PSoC4/capsense_ADC_Filter.c ****             {
 280:Generated_Source\PSoC4/capsense_ADC_Filter.c ****         #endif /* (capsense_ADC_ENABLE == capsense_ADC_TST_BSLN_DUPLICATION_EN) */
 281:Generated_Source\PSoC4/capsense_ADC_Filter.c **** 
 282:Generated_Source\PSoC4/capsense_ADC_Filter.c ****         /* Calculate signal value and its sign */
 283:Generated_Source\PSoC4/capsense_ADC_Filter.c ****         if(ptrSensor->raw[freqChannel] >= ptrSensor->bsln[freqChannel])
 284:Generated_Source\PSoC4/capsense_ADC_Filter.c ****         {
 285:Generated_Source\PSoC4/capsense_ADC_Filter.c ****             difference = (uint32)ptrSensor->raw[freqChannel] - (uint32)ptrSensor->bsln[freqChannel]
 286:Generated_Source\PSoC4/capsense_ADC_Filter.c ****             sign = 1u;
 287:Generated_Source\PSoC4/capsense_ADC_Filter.c ****             ptrSensor->negBslnRstCnt[freqChannel] = 0u;
 288:Generated_Source\PSoC4/capsense_ADC_Filter.c ****         }
 289:Generated_Source\PSoC4/capsense_ADC_Filter.c ****         else
 290:Generated_Source\PSoC4/capsense_ADC_Filter.c ****         {
 291:Generated_Source\PSoC4/capsense_ADC_Filter.c ****             difference = (uint32)ptrSensor->bsln[freqChannel] - (uint32)ptrSensor->raw[freqChannel]
 292:Generated_Source\PSoC4/capsense_ADC_Filter.c ****             sign = 0u;
 293:Generated_Source\PSoC4/capsense_ADC_Filter.c ****         }
 294:Generated_Source\PSoC4/capsense_ADC_Filter.c **** 
 295:Generated_Source\PSoC4/capsense_ADC_Filter.c ****         /* Reset baseline if condition is met */
 296:Generated_Source\PSoC4/capsense_ADC_Filter.c ****         if((sign == 0u) && (difference > (uint32) ptrWidgetRam->nNoiseTh))
 297:Generated_Source\PSoC4/capsense_ADC_Filter.c ****         {
 298:Generated_Source\PSoC4/capsense_ADC_Filter.c ****             if(ptrSensor->negBslnRstCnt[freqChannel] >= ptrWidgetRam->lowBslnRst)
 299:Generated_Source\PSoC4/capsense_ADC_Filter.c ****             {
 300:Generated_Source\PSoC4/capsense_ADC_Filter.c ****                 capsense_ADC_FtInitializeBaselineChannel(ptrSensor, wdType, freqChannel);
 301:Generated_Source\PSoC4/capsense_ADC_Filter.c ****             }
 302:Generated_Source\PSoC4/capsense_ADC_Filter.c ****             else
 303:Generated_Source\PSoC4/capsense_ADC_Filter.c ****             {
 304:Generated_Source\PSoC4/capsense_ADC_Filter.c ****                 ptrSensor->negBslnRstCnt[freqChannel]++;
 305:Generated_Source\PSoC4/capsense_ADC_Filter.c ****             }
 306:Generated_Source\PSoC4/capsense_ADC_Filter.c ****         }
 307:Generated_Source\PSoC4/capsense_ADC_Filter.c ****         else
 308:Generated_Source\PSoC4/capsense_ADC_Filter.c ****         {
 309:Generated_Source\PSoC4/capsense_ADC_Filter.c ****             #if (!capsense_ADC_SENSOR_AUTO_RESET_EN)
 310:Generated_Source\PSoC4/capsense_ADC_Filter.c ****                 /* Update baseline only if signal is in range between noiseThreshold and negativeno
 311:Generated_Source\PSoC4/capsense_ADC_Filter.c ****                 if ((difference <= (uint32)ptrWidgetRam->noiseTh) ||
 312:Generated_Source\PSoC4/capsense_ADC_Filter.c ****                     ((difference <= (uint32) ptrWidgetRam->nNoiseTh) && (sign == 0u)))
 313:Generated_Source\PSoC4/capsense_ADC_Filter.c ****                 {
 314:Generated_Source\PSoC4/capsense_ADC_Filter.c ****             #endif /* (capsense_ADC_CSD_AUTO_RESET == capsense_ADC_CSD_AUTO_RESET_DISABLE) */
 315:Generated_Source\PSoC4/capsense_ADC_Filter.c **** 
ARM GAS  C:\Users\ASUS\AppData\Local\Temp\ccJZE5kf.s 			page 7


 316:Generated_Source\PSoC4/capsense_ADC_Filter.c ****             #if (capsense_ADC_BASELINE_TYPE == capsense_ADC_IIR_BASELINE)
 317:Generated_Source\PSoC4/capsense_ADC_Filter.c ****                 /* Calculate baseline value */
 318:Generated_Source\PSoC4/capsense_ADC_Filter.c ****                 if ((capsense_ADC_WD_TYPE_ENUM)wdType != capsense_ADC_WD_PROXIMITY_E)
 319:Generated_Source\PSoC4/capsense_ADC_Filter.c ****                 {
 320:Generated_Source\PSoC4/capsense_ADC_Filter.c ****                     #if (capsense_ADC_REGULAR_SENSOR_EN)
 321:Generated_Source\PSoC4/capsense_ADC_Filter.c ****                         #if (capsense_ADC_REGULAR_IIR_BL_TYPE == capsense_ADC_IIR_FILTER_PERFORMANC
 322:Generated_Source\PSoC4/capsense_ADC_Filter.c ****                             history = (uint32) ptrSensor->bsln[freqChannel] << 8u;
 323:Generated_Source\PSoC4/capsense_ADC_Filter.c ****                             history |= ptrSensor->bslnExt[freqChannel];
 324:Generated_Source\PSoC4/capsense_ADC_Filter.c ****                         #else
 325:Generated_Source\PSoC4/capsense_ADC_Filter.c ****                             history = ptrSensor->bsln[freqChannel];
 326:Generated_Source\PSoC4/capsense_ADC_Filter.c ****                         #endif /* (capsense_ADC_REGULAR_IIR_BL_TYPE == capsense_ADC_IIR_FILTER_PERF
 327:Generated_Source\PSoC4/capsense_ADC_Filter.c **** 
 328:Generated_Source\PSoC4/capsense_ADC_Filter.c ****                         #if (capsense_ADC_ENABLE == capsense_ADC_WD_BSLN_COEFF_EN)
 329:Generated_Source\PSoC4/capsense_ADC_Filter.c ****                             baselineCoeff = ptrWidgetRam->bslnCoeff;
 330:Generated_Source\PSoC4/capsense_ADC_Filter.c ****                         #else /* (capsense_ADC_ENABLE == capsense_ADC_WD_BSLN_COEFF_EN) */
 331:Generated_Source\PSoC4/capsense_ADC_Filter.c ****                             baselineCoeff = capsense_ADC_REGULAR_IIR_BL_N;
 332:Generated_Source\PSoC4/capsense_ADC_Filter.c ****                         #endif /* (capsense_ADC_ENABLE == capsense_ADC_WD_BSLN_COEFF_EN) */
 333:Generated_Source\PSoC4/capsense_ADC_Filter.c **** 
 334:Generated_Source\PSoC4/capsense_ADC_Filter.c ****                         history =  capsense_ADC_FtIIR1stOrder(
 335:Generated_Source\PSoC4/capsense_ADC_Filter.c ****                                         (uint32)ptrSensor->raw[freqChannel],
 336:Generated_Source\PSoC4/capsense_ADC_Filter.c ****                                         history, baselineCoeff,
 337:Generated_Source\PSoC4/capsense_ADC_Filter.c ****                                         capsense_ADC_REGULAR_IIR_BL_SHIFT);
 338:Generated_Source\PSoC4/capsense_ADC_Filter.c **** 
 339:Generated_Source\PSoC4/capsense_ADC_Filter.c ****                         #if (capsense_ADC_REGULAR_IIR_BL_TYPE == capsense_ADC_IIR_FILTER_PERFORMANC
 340:Generated_Source\PSoC4/capsense_ADC_Filter.c ****                             ptrSensor->bsln[freqChannel] = LO16(history >> 8u);
 341:Generated_Source\PSoC4/capsense_ADC_Filter.c ****                             ptrSensor->bslnExt[freqChannel] = LO8(history);
 342:Generated_Source\PSoC4/capsense_ADC_Filter.c ****                         #else
 343:Generated_Source\PSoC4/capsense_ADC_Filter.c ****                             ptrSensor->bsln[freqChannel] = LO16(history);
 344:Generated_Source\PSoC4/capsense_ADC_Filter.c ****                         #endif /* (capsense_ADC_REGULAR_IIR_BL_TYPE == capsense_ADC_IIR_FILTER_PERF
 345:Generated_Source\PSoC4/capsense_ADC_Filter.c ****                     #endif /* (capsense_ADC_REGULAR_SENSOR_EN) */
 346:Generated_Source\PSoC4/capsense_ADC_Filter.c ****                 }
 347:Generated_Source\PSoC4/capsense_ADC_Filter.c ****                 else
 348:Generated_Source\PSoC4/capsense_ADC_Filter.c ****                 {
 349:Generated_Source\PSoC4/capsense_ADC_Filter.c ****                     #if (capsense_ADC_PROXIMITY_SENSOR_EN)
 350:Generated_Source\PSoC4/capsense_ADC_Filter.c ****                         #if (capsense_ADC_PROX_IIR_BL_TYPE == capsense_ADC_IIR_FILTER_PERFORMANCE)
 351:Generated_Source\PSoC4/capsense_ADC_Filter.c ****                             history = (uint32) ptrSensor->bsln[freqChannel] << 8u;
 352:Generated_Source\PSoC4/capsense_ADC_Filter.c ****                             history |= ptrSensor->bslnExt[freqChannel];
 353:Generated_Source\PSoC4/capsense_ADC_Filter.c ****                         #else
 354:Generated_Source\PSoC4/capsense_ADC_Filter.c ****                             history = (uint32) ptrSensor->bsln[freqChannel];
 355:Generated_Source\PSoC4/capsense_ADC_Filter.c ****                         #endif /* (capsense_ADC_PROX_IIR_BL_TYPE == capsense_ADC_IIR_FILTER_PERFORM
 356:Generated_Source\PSoC4/capsense_ADC_Filter.c **** 
 357:Generated_Source\PSoC4/capsense_ADC_Filter.c ****                         #if (capsense_ADC_ENABLE == capsense_ADC_WD_BSLN_COEFF_EN)
 358:Generated_Source\PSoC4/capsense_ADC_Filter.c ****                             baselineCoeff = ptrWidgetRam->bslnCoeff;
 359:Generated_Source\PSoC4/capsense_ADC_Filter.c ****                         #else /* (capsense_ADC_ENABLE == capsense_ADC_WD_BSLN_COEFF_EN) */
 360:Generated_Source\PSoC4/capsense_ADC_Filter.c ****                             baselineCoeff = capsense_ADC_PROX_IIR_BL_N;
 361:Generated_Source\PSoC4/capsense_ADC_Filter.c ****                         #endif /* (capsense_ADC_ENABLE == capsense_ADC_WD_BSLN_COEFF_EN) */
 362:Generated_Source\PSoC4/capsense_ADC_Filter.c **** 
 363:Generated_Source\PSoC4/capsense_ADC_Filter.c ****                         history = capsense_ADC_FtIIR1stOrder(
 364:Generated_Source\PSoC4/capsense_ADC_Filter.c ****                                         (uint32)ptrSensor->raw[freqChannel],
 365:Generated_Source\PSoC4/capsense_ADC_Filter.c ****                                         history, baselineCoeff,
 366:Generated_Source\PSoC4/capsense_ADC_Filter.c ****                                         capsense_ADC_PROX_IIR_BL_SHIFT);
 367:Generated_Source\PSoC4/capsense_ADC_Filter.c **** 
 368:Generated_Source\PSoC4/capsense_ADC_Filter.c ****                         #if (capsense_ADC_PROX_IIR_BL_TYPE == capsense_ADC_IIR_FILTER_PERFORMANCE)
 369:Generated_Source\PSoC4/capsense_ADC_Filter.c ****                             ptrSensor->bsln[freqChannel] = LO16(history >> 8u);
 370:Generated_Source\PSoC4/capsense_ADC_Filter.c ****                             ptrSensor->bslnExt[freqChannel] = LO8(history);
 371:Generated_Source\PSoC4/capsense_ADC_Filter.c ****                         #else
 372:Generated_Source\PSoC4/capsense_ADC_Filter.c ****                             ptrSensor->bsln[freqChannel] = LO16(history);
ARM GAS  C:\Users\ASUS\AppData\Local\Temp\ccJZE5kf.s 			page 8


 373:Generated_Source\PSoC4/capsense_ADC_Filter.c ****                         #endif /* (capsense_ADC_PROX_IIR_BL_TYPE == capsense_ADC_IIR_FILTER_PERFORM
 374:Generated_Source\PSoC4/capsense_ADC_Filter.c ****                     #endif /* (capsense_ADC_PROX_SENSOR_EN) */
 375:Generated_Source\PSoC4/capsense_ADC_Filter.c ****                 }
 376:Generated_Source\PSoC4/capsense_ADC_Filter.c ****             #else /* (capsense_ADC_CSD_BASELINE_TYPE == capsense_ADC_IIR_BASELINE) */
 377:Generated_Source\PSoC4/capsense_ADC_Filter.c **** 
 378:Generated_Source\PSoC4/capsense_ADC_Filter.c ****                 /******************************************************************
 379:Generated_Source\PSoC4/capsense_ADC_Filter.c ****                 * This is the place where the bucket algorithm should be implemented.
 380:Generated_Source\PSoC4/capsense_ADC_Filter.c ****                 * The bucket method will be implemented in future Component version.
 381:Generated_Source\PSoC4/capsense_ADC_Filter.c ****                 *******************************************************************/
 382:Generated_Source\PSoC4/capsense_ADC_Filter.c **** 
 383:Generated_Source\PSoC4/capsense_ADC_Filter.c ****             #endif /* (capsense_ADC_CSD_BASELINE_TYPE == capsense_ADC_IIR_BASELINE) */
 384:Generated_Source\PSoC4/capsense_ADC_Filter.c **** 
 385:Generated_Source\PSoC4/capsense_ADC_Filter.c ****             #if (!capsense_ADC_SENSOR_AUTO_RESET_EN)
 386:Generated_Source\PSoC4/capsense_ADC_Filter.c ****                 }
 387:Generated_Source\PSoC4/capsense_ADC_Filter.c ****             #endif /* (!capsense_ADC_SENSOR_AUTO_RESET_EN) */
 388:Generated_Source\PSoC4/capsense_ADC_Filter.c ****         }
 389:Generated_Source\PSoC4/capsense_ADC_Filter.c **** 
 390:Generated_Source\PSoC4/capsense_ADC_Filter.c ****         #if (capsense_ADC_ENABLE == capsense_ADC_TST_BSLN_DUPLICATION_EN)
 391:Generated_Source\PSoC4/capsense_ADC_Filter.c ****             /* Update baseline inversion of every channel in sensor */
 392:Generated_Source\PSoC4/capsense_ADC_Filter.c ****             ptrSensor->bslnInv[freqChannel] = ~(ptrSensor->bsln[freqChannel]);
 393:Generated_Source\PSoC4/capsense_ADC_Filter.c ****             }
 394:Generated_Source\PSoC4/capsense_ADC_Filter.c ****         #endif /* (capsense_ADC_ENABLE == capsense_ADC_TST_BSLN_DUPLICATION_EN) */
 395:Generated_Source\PSoC4/capsense_ADC_Filter.c **** 
 396:Generated_Source\PSoC4/capsense_ADC_Filter.c ****     }
 397:Generated_Source\PSoC4/capsense_ADC_Filter.c ****     return result;
 398:Generated_Source\PSoC4/capsense_ADC_Filter.c **** }
 399:Generated_Source\PSoC4/capsense_ADC_Filter.c **** 
 400:Generated_Source\PSoC4/capsense_ADC_Filter.c **** 
 401:Generated_Source\PSoC4/capsense_ADC_Filter.c **** /*******************************************************************************
 402:Generated_Source\PSoC4/capsense_ADC_Filter.c **** * Function Name: capsense_ADC_InitializeAllBaselines
 403:Generated_Source\PSoC4/capsense_ADC_Filter.c **** ****************************************************************************//**
 404:Generated_Source\PSoC4/capsense_ADC_Filter.c **** *
 405:Generated_Source\PSoC4/capsense_ADC_Filter.c **** * \brief
 406:Generated_Source\PSoC4/capsense_ADC_Filter.c **** *  Initializes (or re-initializes) the baselines of all the sensors of all the widgets.
 407:Generated_Source\PSoC4/capsense_ADC_Filter.c **** *
 408:Generated_Source\PSoC4/capsense_ADC_Filter.c **** * \details
 409:Generated_Source\PSoC4/capsense_ADC_Filter.c **** *  Initializes the baseline for all the sensors of all the widgets. Also, this function
 410:Generated_Source\PSoC4/capsense_ADC_Filter.c **** *  can be used to re-initialize baselines. capsense_ADC_Start() calls this
 411:Generated_Source\PSoC4/capsense_ADC_Filter.c **** *  API as part of capsense_ADC operation initialization.
 412:Generated_Source\PSoC4/capsense_ADC_Filter.c **** *
 413:Generated_Source\PSoC4/capsense_ADC_Filter.c **** *  If any raw count filter is enabled, make sure the raw count filter history is
 414:Generated_Source\PSoC4/capsense_ADC_Filter.c **** *  initialized as well using one of these functions:
 415:Generated_Source\PSoC4/capsense_ADC_Filter.c **** *  - capsense_ADC_InitializeAllFilters().
 416:Generated_Source\PSoC4/capsense_ADC_Filter.c **** *  - capsense_ADC_InitializeWidgetFilter().
 417:Generated_Source\PSoC4/capsense_ADC_Filter.c **** *
 418:Generated_Source\PSoC4/capsense_ADC_Filter.c **** *******************************************************************************/
 419:Generated_Source\PSoC4/capsense_ADC_Filter.c **** void capsense_ADC_InitializeAllBaselines(void)
 420:Generated_Source\PSoC4/capsense_ADC_Filter.c **** {
 421:Generated_Source\PSoC4/capsense_ADC_Filter.c ****     uint32 widgetId;
 422:Generated_Source\PSoC4/capsense_ADC_Filter.c **** 
 423:Generated_Source\PSoC4/capsense_ADC_Filter.c ****     for(widgetId = capsense_ADC_TOTAL_WIDGETS; widgetId-- > 0u;)
 424:Generated_Source\PSoC4/capsense_ADC_Filter.c ****     {
 425:Generated_Source\PSoC4/capsense_ADC_Filter.c ****         capsense_ADC_InitializeWidgetBaseline(widgetId);
 426:Generated_Source\PSoC4/capsense_ADC_Filter.c ****     }
 427:Generated_Source\PSoC4/capsense_ADC_Filter.c **** }
 428:Generated_Source\PSoC4/capsense_ADC_Filter.c **** 
 429:Generated_Source\PSoC4/capsense_ADC_Filter.c **** 
ARM GAS  C:\Users\ASUS\AppData\Local\Temp\ccJZE5kf.s 			page 9


 430:Generated_Source\PSoC4/capsense_ADC_Filter.c **** /*******************************************************************************
 431:Generated_Source\PSoC4/capsense_ADC_Filter.c **** * Function Name: capsense_ADC_InitializeWidgetBaseline
 432:Generated_Source\PSoC4/capsense_ADC_Filter.c **** ****************************************************************************//**
 433:Generated_Source\PSoC4/capsense_ADC_Filter.c **** *
 434:Generated_Source\PSoC4/capsense_ADC_Filter.c **** * \brief
 435:Generated_Source\PSoC4/capsense_ADC_Filter.c **** *  Initializes (or re-initializes) the baselines of all the sensors in a widget
 436:Generated_Source\PSoC4/capsense_ADC_Filter.c **** *  specified by the input parameter.
 437:Generated_Source\PSoC4/capsense_ADC_Filter.c **** *
 438:Generated_Source\PSoC4/capsense_ADC_Filter.c **** * \details
 439:Generated_Source\PSoC4/capsense_ADC_Filter.c **** *  Initializes (or re-initializes) the baseline for all the sensors of the
 440:Generated_Source\PSoC4/capsense_ADC_Filter.c **** *  specified widget.
 441:Generated_Source\PSoC4/capsense_ADC_Filter.c **** *
 442:Generated_Source\PSoC4/capsense_ADC_Filter.c **** *  If any raw count filter is enabled, make sure the raw count filter history is
 443:Generated_Source\PSoC4/capsense_ADC_Filter.c **** *  initialized as well using one of these functions:
 444:Generated_Source\PSoC4/capsense_ADC_Filter.c **** *  - capsense_ADC_InitializeAllFilters().
 445:Generated_Source\PSoC4/capsense_ADC_Filter.c **** *  - capsense_ADC_InitializeWidgetFilter().
 446:Generated_Source\PSoC4/capsense_ADC_Filter.c **** *
 447:Generated_Source\PSoC4/capsense_ADC_Filter.c **** * \param widgetId
 448:Generated_Source\PSoC4/capsense_ADC_Filter.c **** *  Specifies the ID number of a widget to initialize the baseline of all the sensors
 449:Generated_Source\PSoC4/capsense_ADC_Filter.c **** *  in the widget.
 450:Generated_Source\PSoC4/capsense_ADC_Filter.c **** *  A macro for the widget ID can be found in the
 451:Generated_Source\PSoC4/capsense_ADC_Filter.c **** *  capsense_ADC Configuration header file defined as
 452:Generated_Source\PSoC4/capsense_ADC_Filter.c **** *  capsense_ADC_<WidgetName>_WDGT_ID.
 453:Generated_Source\PSoC4/capsense_ADC_Filter.c **** *
 454:Generated_Source\PSoC4/capsense_ADC_Filter.c **** *******************************************************************************/
 455:Generated_Source\PSoC4/capsense_ADC_Filter.c **** void capsense_ADC_InitializeWidgetBaseline(uint32 widgetId)
 456:Generated_Source\PSoC4/capsense_ADC_Filter.c **** {
 457:Generated_Source\PSoC4/capsense_ADC_Filter.c ****     uint32 sensorId;
 458:Generated_Source\PSoC4/capsense_ADC_Filter.c ****     uint32 sensorsNumber;
 459:Generated_Source\PSoC4/capsense_ADC_Filter.c **** 
 460:Generated_Source\PSoC4/capsense_ADC_Filter.c ****     capsense_ADC_FLASH_WD_STRUCT const *ptrWidget = &capsense_ADC_dsFlash.wdgtArray[widgetId];
 461:Generated_Source\PSoC4/capsense_ADC_Filter.c **** 
 462:Generated_Source\PSoC4/capsense_ADC_Filter.c ****     /* Find total amount of sensors in specified widget */
 463:Generated_Source\PSoC4/capsense_ADC_Filter.c ****     sensorsNumber = capsense_ADC_GET_SNS_CNT_BY_PTR(ptrWidget);
 464:Generated_Source\PSoC4/capsense_ADC_Filter.c **** 
 465:Generated_Source\PSoC4/capsense_ADC_Filter.c ****     for(sensorId = sensorsNumber; sensorId-- > 0u;)
 466:Generated_Source\PSoC4/capsense_ADC_Filter.c ****     {
 467:Generated_Source\PSoC4/capsense_ADC_Filter.c ****         capsense_ADC_InitializeSensorBaseline(widgetId, sensorId);
 468:Generated_Source\PSoC4/capsense_ADC_Filter.c ****     }
 469:Generated_Source\PSoC4/capsense_ADC_Filter.c **** }
 470:Generated_Source\PSoC4/capsense_ADC_Filter.c **** 
 471:Generated_Source\PSoC4/capsense_ADC_Filter.c **** 
 472:Generated_Source\PSoC4/capsense_ADC_Filter.c **** /*******************************************************************************
 473:Generated_Source\PSoC4/capsense_ADC_Filter.c **** * Function Name: capsense_ADC_InitializeSensorBaseline
 474:Generated_Source\PSoC4/capsense_ADC_Filter.c **** ****************************************************************************//**
 475:Generated_Source\PSoC4/capsense_ADC_Filter.c **** *
 476:Generated_Source\PSoC4/capsense_ADC_Filter.c **** * \brief
 477:Generated_Source\PSoC4/capsense_ADC_Filter.c **** *  Initializes (or re-initializes) the baseline of a sensor in a widget specified
 478:Generated_Source\PSoC4/capsense_ADC_Filter.c **** *  by the input parameters.
 479:Generated_Source\PSoC4/capsense_ADC_Filter.c **** *
 480:Generated_Source\PSoC4/capsense_ADC_Filter.c **** * \details
 481:Generated_Source\PSoC4/capsense_ADC_Filter.c **** *  Initializes (or re-initializes) the baseline for a specified sensor within
 482:Generated_Source\PSoC4/capsense_ADC_Filter.c **** *  a specified widget.
 483:Generated_Source\PSoC4/capsense_ADC_Filter.c **** *
 484:Generated_Source\PSoC4/capsense_ADC_Filter.c **** * \param widgetId
 485:Generated_Source\PSoC4/capsense_ADC_Filter.c **** *  Specifies the ID number of a widget to initialize the baseline of the sensor
 486:Generated_Source\PSoC4/capsense_ADC_Filter.c **** *  in the widget.
ARM GAS  C:\Users\ASUS\AppData\Local\Temp\ccJZE5kf.s 			page 10


 487:Generated_Source\PSoC4/capsense_ADC_Filter.c **** *  A macro for the widget ID can be found in the
 488:Generated_Source\PSoC4/capsense_ADC_Filter.c **** *  capsense_ADC Configuration header file defined as
 489:Generated_Source\PSoC4/capsense_ADC_Filter.c **** *  capsense_ADC_<WidgetName>_WDGT_ID.
 490:Generated_Source\PSoC4/capsense_ADC_Filter.c **** *
 491:Generated_Source\PSoC4/capsense_ADC_Filter.c **** * \param sensorId
 492:Generated_Source\PSoC4/capsense_ADC_Filter.c **** *  Specifies the ID number of the sensor within the widget to initialize its
 493:Generated_Source\PSoC4/capsense_ADC_Filter.c **** *  baseline.
 494:Generated_Source\PSoC4/capsense_ADC_Filter.c **** *  A macro for the sensor ID within a specified widget can be found in the
 495:Generated_Source\PSoC4/capsense_ADC_Filter.c **** *  capsense_ADC Configuration header file defined as
 496:Generated_Source\PSoC4/capsense_ADC_Filter.c **** *  capsense_ADC_<WidgetName>_SNS<SensorNumber>_ID.
 497:Generated_Source\PSoC4/capsense_ADC_Filter.c **** *
 498:Generated_Source\PSoC4/capsense_ADC_Filter.c **** *******************************************************************************/
 499:Generated_Source\PSoC4/capsense_ADC_Filter.c **** void capsense_ADC_InitializeSensorBaseline(uint32 widgetId, uint32 sensorId)
 500:Generated_Source\PSoC4/capsense_ADC_Filter.c **** {
 501:Generated_Source\PSoC4/capsense_ADC_Filter.c ****     capsense_ADC_RAM_SNS_STRUCT *ptrSensor = NULL;
 502:Generated_Source\PSoC4/capsense_ADC_Filter.c ****     capsense_ADC_FLASH_WD_STRUCT const *ptrWidget = NULL;
 503:Generated_Source\PSoC4/capsense_ADC_Filter.c ****     ptrWidget = &capsense_ADC_dsFlash.wdgtArray[widgetId];
 504:Generated_Source\PSoC4/capsense_ADC_Filter.c **** 
 505:Generated_Source\PSoC4/capsense_ADC_Filter.c ****     /* Find pointer to specified sensor object */
 506:Generated_Source\PSoC4/capsense_ADC_Filter.c ****     ptrSensor = ptrWidget->ptr2SnsRam;
 507:Generated_Source\PSoC4/capsense_ADC_Filter.c ****     ptrSensor = &ptrSensor[sensorId];
 508:Generated_Source\PSoC4/capsense_ADC_Filter.c **** 
 509:Generated_Source\PSoC4/capsense_ADC_Filter.c ****     capsense_ADC_FtInitializeBaseline(ptrSensor, (uint32)ptrWidget->wdgtType);
 510:Generated_Source\PSoC4/capsense_ADC_Filter.c **** }
 511:Generated_Source\PSoC4/capsense_ADC_Filter.c **** 
 512:Generated_Source\PSoC4/capsense_ADC_Filter.c **** 
 513:Generated_Source\PSoC4/capsense_ADC_Filter.c **** /*******************************************************************************
 514:Generated_Source\PSoC4/capsense_ADC_Filter.c **** * Function Name: capsense_ADC_FtInitializeBaseline
 515:Generated_Source\PSoC4/capsense_ADC_Filter.c **** ****************************************************************************//**
 516:Generated_Source\PSoC4/capsense_ADC_Filter.c **** *
 517:Generated_Source\PSoC4/capsense_ADC_Filter.c **** * \brief
 518:Generated_Source\PSoC4/capsense_ADC_Filter.c **** *  Initializes the baseline history for a sensor indicated by an input
 519:Generated_Source\PSoC4/capsense_ADC_Filter.c **** *  parameter.
 520:Generated_Source\PSoC4/capsense_ADC_Filter.c **** *
 521:Generated_Source\PSoC4/capsense_ADC_Filter.c **** * \details
 522:Generated_Source\PSoC4/capsense_ADC_Filter.c **** *  Initializes the baseline history for a sensor indicated by an input
 523:Generated_Source\PSoC4/capsense_ADC_Filter.c **** *  parameter.
 524:Generated_Source\PSoC4/capsense_ADC_Filter.c **** *
 525:Generated_Source\PSoC4/capsense_ADC_Filter.c **** * \param *ptrSensor
 526:Generated_Source\PSoC4/capsense_ADC_Filter.c **** *  The pointer to the sensor RAM object.
 527:Generated_Source\PSoC4/capsense_ADC_Filter.c **** *
 528:Generated_Source\PSoC4/capsense_ADC_Filter.c **** * \param wdType
 529:Generated_Source\PSoC4/capsense_ADC_Filter.c **** *  Specifies the type of a widget.
 530:Generated_Source\PSoC4/capsense_ADC_Filter.c **** *
 531:Generated_Source\PSoC4/capsense_ADC_Filter.c **** *******************************************************************************/
 532:Generated_Source\PSoC4/capsense_ADC_Filter.c **** void capsense_ADC_FtInitializeBaseline(capsense_ADC_RAM_SNS_STRUCT *ptrSensor, uint32 wdType)
 533:Generated_Source\PSoC4/capsense_ADC_Filter.c **** {
 534:Generated_Source\PSoC4/capsense_ADC_Filter.c ****     uint32 freqChannel;
 535:Generated_Source\PSoC4/capsense_ADC_Filter.c **** 
 536:Generated_Source\PSoC4/capsense_ADC_Filter.c ****     /* Apply baseline initialization to every channel in sensor */
 537:Generated_Source\PSoC4/capsense_ADC_Filter.c ****     for(freqChannel = capsense_ADC_NUM_SCAN_FREQS; freqChannel-- > 0u;)
 538:Generated_Source\PSoC4/capsense_ADC_Filter.c ****     {
 539:Generated_Source\PSoC4/capsense_ADC_Filter.c ****         capsense_ADC_FtInitializeBaselineChannel(ptrSensor, wdType, freqChannel);
 540:Generated_Source\PSoC4/capsense_ADC_Filter.c ****     }
 541:Generated_Source\PSoC4/capsense_ADC_Filter.c **** }
 542:Generated_Source\PSoC4/capsense_ADC_Filter.c **** 
 543:Generated_Source\PSoC4/capsense_ADC_Filter.c **** 
ARM GAS  C:\Users\ASUS\AppData\Local\Temp\ccJZE5kf.s 			page 11


 544:Generated_Source\PSoC4/capsense_ADC_Filter.c **** /*******************************************************************************
 545:Generated_Source\PSoC4/capsense_ADC_Filter.c **** * Function Name: capsense_ADC_FtInitializeBaselineChannel
 546:Generated_Source\PSoC4/capsense_ADC_Filter.c **** ****************************************************************************//**
 547:Generated_Source\PSoC4/capsense_ADC_Filter.c **** *
 548:Generated_Source\PSoC4/capsense_ADC_Filter.c **** * \brief
 549:Generated_Source\PSoC4/capsense_ADC_Filter.c **** *  Initializes the baseline history for a sensor indicated by an input
 550:Generated_Source\PSoC4/capsense_ADC_Filter.c **** *  parameter.
 551:Generated_Source\PSoC4/capsense_ADC_Filter.c **** *
 552:Generated_Source\PSoC4/capsense_ADC_Filter.c **** * \details
 553:Generated_Source\PSoC4/capsense_ADC_Filter.c **** *  Initializes the baseline history for a sensor indicated by an input
 554:Generated_Source\PSoC4/capsense_ADC_Filter.c **** *  parameter.
 555:Generated_Source\PSoC4/capsense_ADC_Filter.c **** *
 556:Generated_Source\PSoC4/capsense_ADC_Filter.c **** * \param *ptrSensor
 557:Generated_Source\PSoC4/capsense_ADC_Filter.c **** *  The pointer to the sensor RAM object.
 558:Generated_Source\PSoC4/capsense_ADC_Filter.c **** *
 559:Generated_Source\PSoC4/capsense_ADC_Filter.c **** * \param wdType
 560:Generated_Source\PSoC4/capsense_ADC_Filter.c **** *  Specifies the type of a widget.
 561:Generated_Source\PSoC4/capsense_ADC_Filter.c **** *
 562:Generated_Source\PSoC4/capsense_ADC_Filter.c **** * \param channel
 563:Generated_Source\PSoC4/capsense_ADC_Filter.c **** *  Specifies the number of the channel to be initialized.
 564:Generated_Source\PSoC4/capsense_ADC_Filter.c **** *
 565:Generated_Source\PSoC4/capsense_ADC_Filter.c **** *******************************************************************************/
 566:Generated_Source\PSoC4/capsense_ADC_Filter.c **** void capsense_ADC_FtInitializeBaselineChannel(capsense_ADC_RAM_SNS_STRUCT *ptrSensor, uint32 wdType
 567:Generated_Source\PSoC4/capsense_ADC_Filter.c **** {
  28              		.loc 1 567 0
  29              		.cfi_startproc
  30              		@ args = 0, pretend = 0, frame = 0
  31              		@ frame_needed = 0, uses_anonymous_args = 0
  32              		@ link register save eliminated.
  33              	.LVL0:
 568:Generated_Source\PSoC4/capsense_ADC_Filter.c ****     #if (capsense_ADC_BASELINE_TYPE == capsense_ADC_IIR_BASELINE)
 569:Generated_Source\PSoC4/capsense_ADC_Filter.c ****         if ((capsense_ADC_WD_TYPE_ENUM)wdType != capsense_ADC_WD_PROXIMITY_E)
  34              		.loc 1 569 0
  35 0000 FF23     		movs	r3, #255
  36 0002 1940     		ands	r1, r3
  37              	.LVL1:
  38 0004 0629     		cmp	r1, #6
  39 0006 02D0     		beq	.L2
 570:Generated_Source\PSoC4/capsense_ADC_Filter.c ****         {
 571:Generated_Source\PSoC4/capsense_ADC_Filter.c ****             #if (capsense_ADC_REGULAR_SENSOR_EN)
 572:Generated_Source\PSoC4/capsense_ADC_Filter.c ****                 #if (capsense_ADC_REGULAR_IIR_BL_TYPE == capsense_ADC_IIR_FILTER_PERFORMANCE)
 573:Generated_Source\PSoC4/capsense_ADC_Filter.c ****                     ptrSensor->bslnExt[channel] = 0u;
  40              		.loc 1 573 0
  41 0008 8318     		adds	r3, r0, r2
  42 000a 0021     		movs	r1, #0
  43 000c 1971     		strb	r1, [r3, #4]
  44              	.L2:
 574:Generated_Source\PSoC4/capsense_ADC_Filter.c ****                 #endif /* (capsense_ADC_REGULAR_IIR_BL_TYPE == capsense_ADC_IIR_FILTER_PERFORMANCE)
 575:Generated_Source\PSoC4/capsense_ADC_Filter.c ****             #endif /* (capsense_ADC_REGULAR_SENSOR_EN) */
 576:Generated_Source\PSoC4/capsense_ADC_Filter.c ****         }
 577:Generated_Source\PSoC4/capsense_ADC_Filter.c ****         else
 578:Generated_Source\PSoC4/capsense_ADC_Filter.c ****         {
 579:Generated_Source\PSoC4/capsense_ADC_Filter.c ****             #if (capsense_ADC_PROXIMITY_SENSOR_EN)
 580:Generated_Source\PSoC4/capsense_ADC_Filter.c ****                 #if (capsense_ADC_PROX_IIR_BL_TYPE == capsense_ADC_IIR_FILTER_PERFORMANCE)
 581:Generated_Source\PSoC4/capsense_ADC_Filter.c ****                     ptrSensor->bslnExt[channel] = 0u;
 582:Generated_Source\PSoC4/capsense_ADC_Filter.c ****                 #endif /* (capsense_ADC_PROX_IIR_BL_TYPE == capsense_ADC_IIR_FILTER_PERFORMANCE) */
 583:Generated_Source\PSoC4/capsense_ADC_Filter.c ****             #endif /* (capsense_ADC_PROX_SENSOR_EN) */
ARM GAS  C:\Users\ASUS\AppData\Local\Temp\ccJZE5kf.s 			page 12


 584:Generated_Source\PSoC4/capsense_ADC_Filter.c ****         }
 585:Generated_Source\PSoC4/capsense_ADC_Filter.c ****     #else
 586:Generated_Source\PSoC4/capsense_ADC_Filter.c ****         /* capsense_ADC_BASELINE_TYPE == capsense_ADC_BUCKET_BASELINE */
 587:Generated_Source\PSoC4/capsense_ADC_Filter.c ****         ptrSensor->bslnExt[channel] = 0u;
 588:Generated_Source\PSoC4/capsense_ADC_Filter.c ****     #endif /* (capsense_ADC_BASELINE_TYPE == capsense_ADC_IIR_BASELINE) */
 589:Generated_Source\PSoC4/capsense_ADC_Filter.c **** 
 590:Generated_Source\PSoC4/capsense_ADC_Filter.c ****     ptrSensor->bsln[channel] = ptrSensor->raw[channel];
  45              		.loc 1 590 0
  46 000e 5300     		lsls	r3, r2, #1
  47 0010 195A     		ldrh	r1, [r3, r0]
  48 0012 C318     		adds	r3, r0, r3
  49 0014 5980     		strh	r1, [r3, #2]
 591:Generated_Source\PSoC4/capsense_ADC_Filter.c **** 
 592:Generated_Source\PSoC4/capsense_ADC_Filter.c ****     #if (capsense_ADC_ENABLE == capsense_ADC_TST_BSLN_DUPLICATION_EN)
 593:Generated_Source\PSoC4/capsense_ADC_Filter.c ****     /* Update baseline inversion of the channel in sensor */
 594:Generated_Source\PSoC4/capsense_ADC_Filter.c ****         ptrSensor->bslnInv[channel] = ~(ptrSensor->bsln[channel]);
 595:Generated_Source\PSoC4/capsense_ADC_Filter.c ****     #endif /* (capsense_ADC_ENABLE == capsense_ADC_TST_BSLN_DUPLICATION_EN) */
 596:Generated_Source\PSoC4/capsense_ADC_Filter.c **** 
 597:Generated_Source\PSoC4/capsense_ADC_Filter.c ****     ptrSensor->negBslnRstCnt[channel] = 0u;
  50              		.loc 1 597 0
  51 0016 8218     		adds	r2, r0, r2
  52              	.LVL2:
  53 0018 0023     		movs	r3, #0
  54 001a 1372     		strb	r3, [r2, #8]
 598:Generated_Source\PSoC4/capsense_ADC_Filter.c **** }
  55              		.loc 1 598 0
  56              		@ sp needed
  57 001c 7047     		bx	lr
  58              		.cfi_endproc
  59              	.LFE10:
  60              		.size	capsense_ADC_FtInitializeBaselineChannel, .-capsense_ADC_FtInitializeBaselineChannel
  61 001e C046     		.section	.text.capsense_ADC_FtInitializeBaseline,"ax",%progbits
  62              		.align	2
  63              		.global	capsense_ADC_FtInitializeBaseline
  64              		.code	16
  65              		.thumb_func
  66              		.type	capsense_ADC_FtInitializeBaseline, %function
  67              	capsense_ADC_FtInitializeBaseline:
  68              	.LFB9:
 533:Generated_Source\PSoC4/capsense_ADC_Filter.c ****     uint32 freqChannel;
  69              		.loc 1 533 0
  70              		.cfi_startproc
  71              		@ args = 0, pretend = 0, frame = 0
  72              		@ frame_needed = 0, uses_anonymous_args = 0
  73              	.LVL3:
  74 0000 70B5     		push	{r4, r5, r6, lr}
  75              		.cfi_def_cfa_offset 16
  76              		.cfi_offset 4, -16
  77              		.cfi_offset 5, -12
  78              		.cfi_offset 6, -8
  79              		.cfi_offset 14, -4
  80 0002 0600     		movs	r6, r0
  81 0004 0D00     		movs	r5, r1
  82              	.LVL4:
 537:Generated_Source\PSoC4/capsense_ADC_Filter.c ****     {
  83              		.loc 1 537 0
  84 0006 0123     		movs	r3, #1
ARM GAS  C:\Users\ASUS\AppData\Local\Temp\ccJZE5kf.s 			page 13


  85 0008 05E0     		b	.L4
  86              	.LVL5:
  87              	.L5:
 539:Generated_Source\PSoC4/capsense_ADC_Filter.c ****     }
  88              		.loc 1 539 0
  89 000a 2200     		movs	r2, r4
  90 000c 2900     		movs	r1, r5
  91 000e 3000     		movs	r0, r6
  92 0010 FFF7FEFF 		bl	capsense_ADC_FtInitializeBaselineChannel
  93              	.LVL6:
 537:Generated_Source\PSoC4/capsense_ADC_Filter.c ****     {
  94              		.loc 1 537 0
  95 0014 2300     		movs	r3, r4
  96              	.LVL7:
  97              	.L4:
 537:Generated_Source\PSoC4/capsense_ADC_Filter.c ****     {
  98              		.loc 1 537 0 is_stmt 0 discriminator 1
  99 0016 5C1E     		subs	r4, r3, #1
 100              	.LVL8:
 101 0018 002B     		cmp	r3, #0
 102 001a F6D1     		bne	.L5
 541:Generated_Source\PSoC4/capsense_ADC_Filter.c **** 
 103              		.loc 1 541 0 is_stmt 1
 104              		@ sp needed
 105              	.LVL9:
 106              	.LVL10:
 107              	.LVL11:
 108 001c 70BD     		pop	{r4, r5, r6, pc}
 109              		.cfi_endproc
 110              	.LFE9:
 111              		.size	capsense_ADC_FtInitializeBaseline, .-capsense_ADC_FtInitializeBaseline
 112 001e C046     		.section	.text.capsense_ADC_InitializeSensorBaseline,"ax",%progbits
 113              		.align	2
 114              		.global	capsense_ADC_InitializeSensorBaseline
 115              		.code	16
 116              		.thumb_func
 117              		.type	capsense_ADC_InitializeSensorBaseline, %function
 118              	capsense_ADC_InitializeSensorBaseline:
 119              	.LFB8:
 500:Generated_Source\PSoC4/capsense_ADC_Filter.c ****     capsense_ADC_RAM_SNS_STRUCT *ptrSensor = NULL;
 120              		.loc 1 500 0
 121              		.cfi_startproc
 122              		@ args = 0, pretend = 0, frame = 0
 123              		@ frame_needed = 0, uses_anonymous_args = 0
 124              	.LVL12:
 125 0000 10B5     		push	{r4, lr}
 126              		.cfi_def_cfa_offset 8
 127              		.cfi_offset 4, -8
 128              		.cfi_offset 14, -4
 129              	.LVL13:
 506:Generated_Source\PSoC4/capsense_ADC_Filter.c ****     ptrSensor = &ptrSensor[sensorId];
 130              		.loc 1 506 0
 131 0002 2C23     		movs	r3, #44
 132 0004 5843     		muls	r0, r3
 133              	.LVL14:
 134 0006 064B     		ldr	r3, .L7
 135 0008 1B18     		adds	r3, r3, r0
ARM GAS  C:\Users\ASUS\AppData\Local\Temp\ccJZE5kf.s 			page 14


 136              	.LVL15:
 507:Generated_Source\PSoC4/capsense_ADC_Filter.c **** 
 137              		.loc 1 507 0
 138 000a 8A00     		lsls	r2, r1, #2
 139 000c 5118     		adds	r1, r2, r1
 140              	.LVL16:
 141 000e 4800     		lsls	r0, r1, #1
 142 0010 9A68     		ldr	r2, [r3, #8]
 143 0012 9446     		mov	ip, r2
 144 0014 6044     		add	r0, r0, ip
 145              	.LVL17:
 509:Generated_Source\PSoC4/capsense_ADC_Filter.c **** }
 146              		.loc 1 509 0
 147 0016 997E     		ldrb	r1, [r3, #26]
 148 0018 FFF7FEFF 		bl	capsense_ADC_FtInitializeBaseline
 149              	.LVL18:
 510:Generated_Source\PSoC4/capsense_ADC_Filter.c **** 
 150              		.loc 1 510 0
 151              		@ sp needed
 152 001c 10BD     		pop	{r4, pc}
 153              	.L8:
 154 001e C046     		.align	2
 155              	.L7:
 156 0020 00000000 		.word	capsense_ADC_dsFlash
 157              		.cfi_endproc
 158              	.LFE8:
 159              		.size	capsense_ADC_InitializeSensorBaseline, .-capsense_ADC_InitializeSensorBaseline
 160              		.section	.text.capsense_ADC_InitializeWidgetBaseline,"ax",%progbits
 161              		.align	2
 162              		.global	capsense_ADC_InitializeWidgetBaseline
 163              		.code	16
 164              		.thumb_func
 165              		.type	capsense_ADC_InitializeWidgetBaseline, %function
 166              	capsense_ADC_InitializeWidgetBaseline:
 167              	.LFB7:
 456:Generated_Source\PSoC4/capsense_ADC_Filter.c ****     uint32 sensorId;
 168              		.loc 1 456 0
 169              		.cfi_startproc
 170              		@ args = 0, pretend = 0, frame = 0
 171              		@ frame_needed = 0, uses_anonymous_args = 0
 172              	.LVL19:
 173 0000 70B5     		push	{r4, r5, r6, lr}
 174              		.cfi_def_cfa_offset 16
 175              		.cfi_offset 4, -16
 176              		.cfi_offset 5, -12
 177              		.cfi_offset 6, -8
 178              		.cfi_offset 14, -4
 179 0002 0500     		movs	r5, r0
 180              	.LVL20:
 463:Generated_Source\PSoC4/capsense_ADC_Filter.c **** 
 181              		.loc 1 463 0
 182 0004 2C23     		movs	r3, #44
 183 0006 4343     		muls	r3, r0
 184 0008 064A     		ldr	r2, .L12
 185 000a D318     		adds	r3, r2, r3
 186              	.LVL21:
 187 000c 1B8B     		ldrh	r3, [r3, #24]
ARM GAS  C:\Users\ASUS\AppData\Local\Temp\ccJZE5kf.s 			page 15


 188              	.LVL22:
 465:Generated_Source\PSoC4/capsense_ADC_Filter.c ****     {
 189              		.loc 1 465 0
 190 000e 04E0     		b	.L10
 191              	.LVL23:
 192              	.L11:
 467:Generated_Source\PSoC4/capsense_ADC_Filter.c ****     }
 193              		.loc 1 467 0
 194 0010 2100     		movs	r1, r4
 195 0012 2800     		movs	r0, r5
 196 0014 FFF7FEFF 		bl	capsense_ADC_InitializeSensorBaseline
 197              	.LVL24:
 465:Generated_Source\PSoC4/capsense_ADC_Filter.c ****     {
 198              		.loc 1 465 0
 199 0018 2300     		movs	r3, r4
 200              	.LVL25:
 201              	.L10:
 465:Generated_Source\PSoC4/capsense_ADC_Filter.c ****     {
 202              		.loc 1 465 0 is_stmt 0 discriminator 1
 203 001a 5C1E     		subs	r4, r3, #1
 204              	.LVL26:
 205 001c 002B     		cmp	r3, #0
 206 001e F7D1     		bne	.L11
 469:Generated_Source\PSoC4/capsense_ADC_Filter.c **** 
 207              		.loc 1 469 0 is_stmt 1
 208              		@ sp needed
 209              	.LVL27:
 210              	.LVL28:
 211 0020 70BD     		pop	{r4, r5, r6, pc}
 212              	.L13:
 213 0022 C046     		.align	2
 214              	.L12:
 215 0024 00000000 		.word	capsense_ADC_dsFlash
 216              		.cfi_endproc
 217              	.LFE7:
 218              		.size	capsense_ADC_InitializeWidgetBaseline, .-capsense_ADC_InitializeWidgetBaseline
 219              		.section	.text.capsense_ADC_InitializeAllBaselines,"ax",%progbits
 220              		.align	2
 221              		.global	capsense_ADC_InitializeAllBaselines
 222              		.code	16
 223              		.thumb_func
 224              		.type	capsense_ADC_InitializeAllBaselines, %function
 225              	capsense_ADC_InitializeAllBaselines:
 226              	.LFB6:
 420:Generated_Source\PSoC4/capsense_ADC_Filter.c ****     uint32 widgetId;
 227              		.loc 1 420 0
 228              		.cfi_startproc
 229              		@ args = 0, pretend = 0, frame = 0
 230              		@ frame_needed = 0, uses_anonymous_args = 0
 231 0000 10B5     		push	{r4, lr}
 232              		.cfi_def_cfa_offset 8
 233              		.cfi_offset 4, -8
 234              		.cfi_offset 14, -4
 235              	.LVL29:
 423:Generated_Source\PSoC4/capsense_ADC_Filter.c ****     {
 236              		.loc 1 423 0
 237 0002 0423     		movs	r3, #4
ARM GAS  C:\Users\ASUS\AppData\Local\Temp\ccJZE5kf.s 			page 16


 238 0004 03E0     		b	.L15
 239              	.LVL30:
 240              	.L16:
 425:Generated_Source\PSoC4/capsense_ADC_Filter.c ****     }
 241              		.loc 1 425 0
 242 0006 2000     		movs	r0, r4
 243 0008 FFF7FEFF 		bl	capsense_ADC_InitializeWidgetBaseline
 244              	.LVL31:
 423:Generated_Source\PSoC4/capsense_ADC_Filter.c ****     {
 245              		.loc 1 423 0
 246 000c 2300     		movs	r3, r4
 247              	.LVL32:
 248              	.L15:
 423:Generated_Source\PSoC4/capsense_ADC_Filter.c ****     {
 249              		.loc 1 423 0 is_stmt 0 discriminator 1
 250 000e 5C1E     		subs	r4, r3, #1
 251              	.LVL33:
 252 0010 002B     		cmp	r3, #0
 253 0012 F8D1     		bne	.L16
 427:Generated_Source\PSoC4/capsense_ADC_Filter.c **** 
 254              		.loc 1 427 0 is_stmt 1
 255              		@ sp needed
 256              	.LVL34:
 257 0014 10BD     		pop	{r4, pc}
 258              		.cfi_endproc
 259              	.LFE6:
 260              		.size	capsense_ADC_InitializeAllBaselines, .-capsense_ADC_InitializeAllBaselines
 261 0016 C046     		.section	.text.capsense_ADC_InitializeWidgetFilter,"ax",%progbits
 262              		.align	2
 263              		.global	capsense_ADC_InitializeWidgetFilter
 264              		.code	16
 265              		.thumb_func
 266              		.type	capsense_ADC_InitializeWidgetFilter, %function
 267              	capsense_ADC_InitializeWidgetFilter:
 268              	.LFB12:
 599:Generated_Source\PSoC4/capsense_ADC_Filter.c **** 
 600:Generated_Source\PSoC4/capsense_ADC_Filter.c **** #if ((capsense_ADC_ENABLE == capsense_ADC_RC_FILTER_EN) || \
 601:Generated_Source\PSoC4/capsense_ADC_Filter.c ****      (0u != (capsense_ADC_CSD_AUTOTUNE & capsense_ADC_CSD_SS_TH_EN)))
 602:Generated_Source\PSoC4/capsense_ADC_Filter.c **** /*******************************************************************************
 603:Generated_Source\PSoC4/capsense_ADC_Filter.c **** * Function Name: capsense_ADC_InitializeAllFilters
 604:Generated_Source\PSoC4/capsense_ADC_Filter.c **** ****************************************************************************//**
 605:Generated_Source\PSoC4/capsense_ADC_Filter.c **** *
 606:Generated_Source\PSoC4/capsense_ADC_Filter.c **** * \brief
 607:Generated_Source\PSoC4/capsense_ADC_Filter.c **** *  Initializes (or re-initializes) the raw count filter history of all the
 608:Generated_Source\PSoC4/capsense_ADC_Filter.c **** *  sensors of all the widgets.
 609:Generated_Source\PSoC4/capsense_ADC_Filter.c **** *
 610:Generated_Source\PSoC4/capsense_ADC_Filter.c **** * \details
 611:Generated_Source\PSoC4/capsense_ADC_Filter.c **** *  Initializes the raw count filter history for all the sensors of all the
 612:Generated_Source\PSoC4/capsense_ADC_Filter.c **** *  widgets. Also, this function can be used to re-initialize baselines.
 613:Generated_Source\PSoC4/capsense_ADC_Filter.c **** *  capsense_ADC_Start() calls this API as part of capsense_ADC
 614:Generated_Source\PSoC4/capsense_ADC_Filter.c **** *  operation initialization.
 615:Generated_Source\PSoC4/capsense_ADC_Filter.c **** *
 616:Generated_Source\PSoC4/capsense_ADC_Filter.c **** *******************************************************************************/
 617:Generated_Source\PSoC4/capsense_ADC_Filter.c **** void capsense_ADC_InitializeAllFilters(void)
 618:Generated_Source\PSoC4/capsense_ADC_Filter.c **** {
 619:Generated_Source\PSoC4/capsense_ADC_Filter.c ****     uint32 widgetId;
 620:Generated_Source\PSoC4/capsense_ADC_Filter.c **** 
ARM GAS  C:\Users\ASUS\AppData\Local\Temp\ccJZE5kf.s 			page 17


 621:Generated_Source\PSoC4/capsense_ADC_Filter.c ****     for(widgetId = capsense_ADC_TOTAL_WIDGETS; widgetId-- > 0u;)
 622:Generated_Source\PSoC4/capsense_ADC_Filter.c ****     {
 623:Generated_Source\PSoC4/capsense_ADC_Filter.c ****         capsense_ADC_InitializeWidgetFilter(widgetId);
 624:Generated_Source\PSoC4/capsense_ADC_Filter.c ****     }
 625:Generated_Source\PSoC4/capsense_ADC_Filter.c **** }
 626:Generated_Source\PSoC4/capsense_ADC_Filter.c **** 
 627:Generated_Source\PSoC4/capsense_ADC_Filter.c **** /*******************************************************************************
 628:Generated_Source\PSoC4/capsense_ADC_Filter.c **** * Function Name: capsense_ADC_InitializeWidgetFilter
 629:Generated_Source\PSoC4/capsense_ADC_Filter.c **** ****************************************************************************//**
 630:Generated_Source\PSoC4/capsense_ADC_Filter.c **** *
 631:Generated_Source\PSoC4/capsense_ADC_Filter.c **** * \brief
 632:Generated_Source\PSoC4/capsense_ADC_Filter.c **** *  Initializes (or re-initializes) the raw count filter history of all the sensors
 633:Generated_Source\PSoC4/capsense_ADC_Filter.c **** *  in a widget specified by the input parameter.
 634:Generated_Source\PSoC4/capsense_ADC_Filter.c **** *
 635:Generated_Source\PSoC4/capsense_ADC_Filter.c **** * \details
 636:Generated_Source\PSoC4/capsense_ADC_Filter.c **** *  Initializes (or re-initializes) the raw count filter history of all the sensors
 637:Generated_Source\PSoC4/capsense_ADC_Filter.c **** *  in a widget specified by the input parameter.
 638:Generated_Source\PSoC4/capsense_ADC_Filter.c **** *
 639:Generated_Source\PSoC4/capsense_ADC_Filter.c **** * \param widgetId
 640:Generated_Source\PSoC4/capsense_ADC_Filter.c **** *  Specifies the ID number of a widget to initialize the filter history of all
 641:Generated_Source\PSoC4/capsense_ADC_Filter.c **** *  the sensors in the widget.
 642:Generated_Source\PSoC4/capsense_ADC_Filter.c **** *  A macro for the widget ID can be found in the
 643:Generated_Source\PSoC4/capsense_ADC_Filter.c **** *  capsense_ADC Configuration header file defined as
 644:Generated_Source\PSoC4/capsense_ADC_Filter.c **** *  capsense_ADC_<WidgetName>_WDGT_ID.
 645:Generated_Source\PSoC4/capsense_ADC_Filter.c **** *
 646:Generated_Source\PSoC4/capsense_ADC_Filter.c **** *******************************************************************************/
 647:Generated_Source\PSoC4/capsense_ADC_Filter.c **** void capsense_ADC_InitializeWidgetFilter(uint32 widgetId)
 648:Generated_Source\PSoC4/capsense_ADC_Filter.c **** {
 269              		.loc 1 648 0
 270              		.cfi_startproc
 271              		@ args = 0, pretend = 0, frame = 0
 272              		@ frame_needed = 0, uses_anonymous_args = 0
 273              	.LVL35:
 274 0000 F8B5     		push	{r3, r4, r5, r6, r7, lr}
 275              		.cfi_def_cfa_offset 24
 276              		.cfi_offset 3, -24
 277              		.cfi_offset 4, -20
 278              		.cfi_offset 5, -16
 279              		.cfi_offset 6, -12
 280              		.cfi_offset 7, -8
 281              		.cfi_offset 14, -4
 282 0002 0500     		movs	r5, r0
 283              	.LVL36:
 649:Generated_Source\PSoC4/capsense_ADC_Filter.c ****     uint32 sensorId;
 650:Generated_Source\PSoC4/capsense_ADC_Filter.c ****     uint32 sensorsNumber;
 651:Generated_Source\PSoC4/capsense_ADC_Filter.c **** 
 652:Generated_Source\PSoC4/capsense_ADC_Filter.c ****     capsense_ADC_FLASH_WD_STRUCT const *ptrWidget;
 653:Generated_Source\PSoC4/capsense_ADC_Filter.c ****     capsense_ADC_RAM_SNS_STRUCT *ptrSensor = NULL;
 654:Generated_Source\PSoC4/capsense_ADC_Filter.c ****     #if (capsense_ADC_ENABLE == capsense_ADC_RC_FILTER_EN)
 655:Generated_Source\PSoC4/capsense_ADC_Filter.c ****         capsense_ADC_PTR_FILTER_VARIANT ptrFilterHistObj;
 656:Generated_Source\PSoC4/capsense_ADC_Filter.c ****     #endif
 657:Generated_Source\PSoC4/capsense_ADC_Filter.c **** 
 658:Generated_Source\PSoC4/capsense_ADC_Filter.c ****     #if (0u != (capsense_ADC_CSD_AUTOTUNE & capsense_ADC_CSD_SS_TH_EN))
 659:Generated_Source\PSoC4/capsense_ADC_Filter.c ****         capsense_ADC_RAM_WD_BASE_STRUCT *ptrWidgetRam;
 660:Generated_Source\PSoC4/capsense_ADC_Filter.c ****         SMARTSENSE_CSD_NOISE_ENVELOPE_STRUCT *ptrNoiseEnvelope = NULL;
 661:Generated_Source\PSoC4/capsense_ADC_Filter.c ****     #endif /* (0u != (capsense_ADC_CSD_AUTOTUNE & capsense_ADC_CSD_SS_TH_EN)) */
 662:Generated_Source\PSoC4/capsense_ADC_Filter.c **** 
ARM GAS  C:\Users\ASUS\AppData\Local\Temp\ccJZE5kf.s 			page 18


 663:Generated_Source\PSoC4/capsense_ADC_Filter.c ****     ptrWidget = &capsense_ADC_dsFlash.wdgtArray[widgetId];
 664:Generated_Source\PSoC4/capsense_ADC_Filter.c **** 
 665:Generated_Source\PSoC4/capsense_ADC_Filter.c ****     #if (0u != (capsense_ADC_CSD_AUTOTUNE & capsense_ADC_CSD_SS_TH_EN))
 666:Generated_Source\PSoC4/capsense_ADC_Filter.c ****         ptrWidgetRam = ptrWidget->ptr2WdgtRam;
 284              		.loc 1 666 0
 285 0004 2C23     		movs	r3, #44
 286 0006 4343     		muls	r3, r0
 287 0008 0D4A     		ldr	r2, .L20
 288 000a D318     		adds	r3, r2, r3
 289              	.LVL37:
 290 000c 5E68     		ldr	r6, [r3, #4]
 291              	.LVL38:
 667:Generated_Source\PSoC4/capsense_ADC_Filter.c ****     #endif /* (0u != (capsense_ADC_CSD_AUTOTUNE & capsense_ADC_CSD_SS_TH_EN)) */
 668:Generated_Source\PSoC4/capsense_ADC_Filter.c **** 
 669:Generated_Source\PSoC4/capsense_ADC_Filter.c ****     /* Find total amount of sensors in specified widget */
 670:Generated_Source\PSoC4/capsense_ADC_Filter.c ****     sensorsNumber = capsense_ADC_GET_SNS_CNT_BY_PTR(ptrWidget);
 292              		.loc 1 670 0
 293 000e 1B8B     		ldrh	r3, [r3, #24]
 294              	.LVL39:
 671:Generated_Source\PSoC4/capsense_ADC_Filter.c **** 
 672:Generated_Source\PSoC4/capsense_ADC_Filter.c ****     for (sensorId = sensorsNumber; sensorId-- > 0u;)
 295              		.loc 1 672 0
 296 0010 11E0     		b	.L18
 297              	.LVL40:
 298              	.L19:
 673:Generated_Source\PSoC4/capsense_ADC_Filter.c ****     {
 674:Generated_Source\PSoC4/capsense_ADC_Filter.c ****         /* Find pointer to specified sensor object */
 675:Generated_Source\PSoC4/capsense_ADC_Filter.c ****         ptrSensor = ptrWidget->ptr2SnsRam;
 299              		.loc 1 675 0
 300 0012 2C23     		movs	r3, #44
 301 0014 6B43     		muls	r3, r5
 302 0016 0A4A     		ldr	r2, .L20
 303 0018 D318     		adds	r3, r2, r3
 304 001a 9F68     		ldr	r7, [r3, #8]
 305              	.LVL41:
 676:Generated_Source\PSoC4/capsense_ADC_Filter.c ****         ptrSensor = &ptrSensor[sensorId];
 306              		.loc 1 676 0
 307 001c A200     		lsls	r2, r4, #2
 308 001e 1219     		adds	r2, r2, r4
 309 0020 5000     		lsls	r0, r2, #1
 310              	.LVL42:
 677:Generated_Source\PSoC4/capsense_ADC_Filter.c **** 
 678:Generated_Source\PSoC4/capsense_ADC_Filter.c ****         #if (capsense_ADC_ENABLE == capsense_ADC_RC_FILTER_EN)
 679:Generated_Source\PSoC4/capsense_ADC_Filter.c ****             /* Find pointer to to specified filter sensor object */
 680:Generated_Source\PSoC4/capsense_ADC_Filter.c ****             ptrFilterHistObj.ptr = ptrWidget->ptr2FltrHistory;
 681:Generated_Source\PSoC4/capsense_ADC_Filter.c ****         #endif
 682:Generated_Source\PSoC4/capsense_ADC_Filter.c **** 
 683:Generated_Source\PSoC4/capsense_ADC_Filter.c ****         #if (0u != (capsense_ADC_CSD_AUTOTUNE & capsense_ADC_CSD_SS_TH_EN))
 684:Generated_Source\PSoC4/capsense_ADC_Filter.c ****             /* Find pointer to specified noise envelope sensor object */
 685:Generated_Source\PSoC4/capsense_ADC_Filter.c ****             ptrNoiseEnvelope = ptrWidget->ptr2NoiseEnvlp;
 311              		.loc 1 685 0
 312 0022 596A     		ldr	r1, [r3, #36]
 313              	.LVL43:
 686:Generated_Source\PSoC4/capsense_ADC_Filter.c ****             ptrNoiseEnvelope = &ptrNoiseEnvelope[sensorId];
 314              		.loc 1 686 0
 315 0024 6300     		lsls	r3, r4, #1
 316 0026 1B19     		adds	r3, r3, r4
ARM GAS  C:\Users\ASUS\AppData\Local\Temp\ccJZE5kf.s 			page 19


 317 0028 9A00     		lsls	r2, r3, #2
 318 002a 8A18     		adds	r2, r1, r2
 319              	.LVL44:
 687:Generated_Source\PSoC4/capsense_ADC_Filter.c ****         #endif /* (0u != (capsense_ADC_CSD_AUTOTUNE & capsense_ADC_CSD_SS_TH_EN)) */
 688:Generated_Source\PSoC4/capsense_ADC_Filter.c **** 
 689:Generated_Source\PSoC4/capsense_ADC_Filter.c ****         if ((capsense_ADC_WD_TYPE_ENUM)ptrWidget->wdgtType != capsense_ADC_WD_PROXIMITY_E)
 690:Generated_Source\PSoC4/capsense_ADC_Filter.c ****         {
 691:Generated_Source\PSoC4/capsense_ADC_Filter.c ****             #if (0u != capsense_ADC_REGULAR_RC_ALP_FILTER_EN)
 692:Generated_Source\PSoC4/capsense_ADC_Filter.c ****                 ptrFilterHistObj.ptrAlp = &ptrFilterHistObj.ptrAlp[sensorId];
 693:Generated_Source\PSoC4/capsense_ADC_Filter.c ****             #elif (0u != capsense_ADC_REGULAR_RC_FILTER_EN)
 694:Generated_Source\PSoC4/capsense_ADC_Filter.c ****                 ptrFilterHistObj.ptrRegular = &ptrFilterHistObj.ptrRegular[sensorId];
 695:Generated_Source\PSoC4/capsense_ADC_Filter.c ****             #endif
 696:Generated_Source\PSoC4/capsense_ADC_Filter.c ****         }
 697:Generated_Source\PSoC4/capsense_ADC_Filter.c ****         else
 698:Generated_Source\PSoC4/capsense_ADC_Filter.c ****         {
 699:Generated_Source\PSoC4/capsense_ADC_Filter.c ****             #if (0u != capsense_ADC_PROX_RC_ALP_FILTER_EN)
 700:Generated_Source\PSoC4/capsense_ADC_Filter.c ****                 ptrFilterHistObj.ptrAlp = &ptrFilterHistObj.ptrAlp[sensorId];
 701:Generated_Source\PSoC4/capsense_ADC_Filter.c ****             #elif (0u != capsense_ADC_PROX_RC_FILTER_EN)
 702:Generated_Source\PSoC4/capsense_ADC_Filter.c ****                 ptrFilterHistObj.ptrProx = &ptrFilterHistObj.ptrProx[sensorId];
 703:Generated_Source\PSoC4/capsense_ADC_Filter.c ****             #endif /* #if (0u != capsense_ADC_PROX_RC_FILTER_EN) */
 704:Generated_Source\PSoC4/capsense_ADC_Filter.c ****         }
 705:Generated_Source\PSoC4/capsense_ADC_Filter.c **** 
 706:Generated_Source\PSoC4/capsense_ADC_Filter.c ****         #if (capsense_ADC_REGULAR_RC_IIR_FILTER_EN || capsense_ADC_PROX_RC_IIR_FILTER_EN)
 707:Generated_Source\PSoC4/capsense_ADC_Filter.c ****             capsense_ADC_InitializeIIRInternal(ptrFilterHistObj, ptrSensor, (uint32)ptrWidget->wdgt
 708:Generated_Source\PSoC4/capsense_ADC_Filter.c ****         #endif /* (capsense_ADC_REGULAR_RC_IIR_FILTER_EN || capsense_ADC_PROX_RC_IIR_FILTER_EN) */
 709:Generated_Source\PSoC4/capsense_ADC_Filter.c **** 
 710:Generated_Source\PSoC4/capsense_ADC_Filter.c ****         #if (capsense_ADC_REGULAR_RC_MEDIAN_FILTER_EN || capsense_ADC_PROX_RC_MEDIAN_FILTER_EN)
 711:Generated_Source\PSoC4/capsense_ADC_Filter.c ****             capsense_ADC_InitializeMedianInternal(ptrFilterHistObj, ptrSensor, (uint32)ptrWidget->w
 712:Generated_Source\PSoC4/capsense_ADC_Filter.c ****         #endif /* (capsense_ADC_REGULAR_RC_MEDIAN_FILTER_EN || capsense_ADC_PROX_RC_MEDIAN_FILTER_E
 713:Generated_Source\PSoC4/capsense_ADC_Filter.c **** 
 714:Generated_Source\PSoC4/capsense_ADC_Filter.c ****         #if (capsense_ADC_REGULAR_RC_AVERAGE_FILTER_EN || capsense_ADC_PROX_RC_AVERAGE_FILTER_EN)
 715:Generated_Source\PSoC4/capsense_ADC_Filter.c ****             capsense_ADC_InitializeAverageInternal(ptrFilterHistObj, ptrSensor, (uint32)ptrWidget->
 716:Generated_Source\PSoC4/capsense_ADC_Filter.c ****         #endif /* (capsense_ADC_REGULAR_RC_AVERAGE_FILTER_EN || capsense_ADC_PROX_RC_AVERAGE_FILTER
 717:Generated_Source\PSoC4/capsense_ADC_Filter.c **** 
 718:Generated_Source\PSoC4/capsense_ADC_Filter.c ****         #if (capsense_ADC_ALP_FILTER_EN)
 719:Generated_Source\PSoC4/capsense_ADC_Filter.c ****             capsense_ADC_InitializeALPInternal(ptrFilterHistObj, ptrSensor, (uint32)ptrWidget->wdgt
 720:Generated_Source\PSoC4/capsense_ADC_Filter.c ****         #endif
 721:Generated_Source\PSoC4/capsense_ADC_Filter.c **** 
 722:Generated_Source\PSoC4/capsense_ADC_Filter.c ****         #if (0u != (capsense_ADC_CSD_AUTOTUNE & capsense_ADC_CSD_SS_TH_EN))
 723:Generated_Source\PSoC4/capsense_ADC_Filter.c ****             if (capsense_ADC_SENSE_METHOD_CSD_E ==
 724:Generated_Source\PSoC4/capsense_ADC_Filter.c ****                 capsense_ADC_GET_SENSE_METHOD(&capsense_ADC_dsFlash.wdgtArray[widgetId]))
 725:Generated_Source\PSoC4/capsense_ADC_Filter.c ****             {
 726:Generated_Source\PSoC4/capsense_ADC_Filter.c ****                 SmartSense_InitializeNoiseEnvelope(ptrSensor->raw[0u], ptrWidgetRam->sigPFC, ptrNoi
 320              		.loc 1 726 0
 321 002c 718A     		ldrh	r1, [r6, #18]
 322 002e 385A     		ldrh	r0, [r7, r0]
 323              	.LVL45:
 324 0030 FFF7FEFF 		bl	SmartSense_InitializeNoiseEnvelope
 325              	.LVL46:
 672:Generated_Source\PSoC4/capsense_ADC_Filter.c ****     {
 326              		.loc 1 672 0
 327 0034 2300     		movs	r3, r4
 328              	.LVL47:
 329              	.L18:
 672:Generated_Source\PSoC4/capsense_ADC_Filter.c ****     {
 330              		.loc 1 672 0 is_stmt 0 discriminator 1
 331 0036 5C1E     		subs	r4, r3, #1
ARM GAS  C:\Users\ASUS\AppData\Local\Temp\ccJZE5kf.s 			page 20


 332              	.LVL48:
 333 0038 002B     		cmp	r3, #0
 334 003a EAD1     		bne	.L19
 727:Generated_Source\PSoC4/capsense_ADC_Filter.c ****             }
 728:Generated_Source\PSoC4/capsense_ADC_Filter.c ****         #endif /* (0u != (capsense_ADC_CSD_AUTOTUNE & capsense_ADC_CSD_SS_TH_EN)) */
 729:Generated_Source\PSoC4/capsense_ADC_Filter.c ****     }
 730:Generated_Source\PSoC4/capsense_ADC_Filter.c **** }
 335              		.loc 1 730 0 is_stmt 1
 336              		@ sp needed
 337              	.LVL49:
 338              	.LVL50:
 339              	.LVL51:
 340 003c F8BD     		pop	{r3, r4, r5, r6, r7, pc}
 341              	.L21:
 342 003e C046     		.align	2
 343              	.L20:
 344 0040 00000000 		.word	capsense_ADC_dsFlash
 345              		.cfi_endproc
 346              	.LFE12:
 347              		.size	capsense_ADC_InitializeWidgetFilter, .-capsense_ADC_InitializeWidgetFilter
 348              		.section	.text.capsense_ADC_InitializeAllFilters,"ax",%progbits
 349              		.align	2
 350              		.global	capsense_ADC_InitializeAllFilters
 351              		.code	16
 352              		.thumb_func
 353              		.type	capsense_ADC_InitializeAllFilters, %function
 354              	capsense_ADC_InitializeAllFilters:
 355              	.LFB11:
 618:Generated_Source\PSoC4/capsense_ADC_Filter.c ****     uint32 widgetId;
 356              		.loc 1 618 0
 357              		.cfi_startproc
 358              		@ args = 0, pretend = 0, frame = 0
 359              		@ frame_needed = 0, uses_anonymous_args = 0
 360 0000 10B5     		push	{r4, lr}
 361              		.cfi_def_cfa_offset 8
 362              		.cfi_offset 4, -8
 363              		.cfi_offset 14, -4
 364              	.LVL52:
 621:Generated_Source\PSoC4/capsense_ADC_Filter.c ****     {
 365              		.loc 1 621 0
 366 0002 0423     		movs	r3, #4
 367 0004 03E0     		b	.L23
 368              	.LVL53:
 369              	.L24:
 623:Generated_Source\PSoC4/capsense_ADC_Filter.c ****     }
 370              		.loc 1 623 0
 371 0006 2000     		movs	r0, r4
 372 0008 FFF7FEFF 		bl	capsense_ADC_InitializeWidgetFilter
 373              	.LVL54:
 621:Generated_Source\PSoC4/capsense_ADC_Filter.c ****     {
 374              		.loc 1 621 0
 375 000c 2300     		movs	r3, r4
 376              	.LVL55:
 377              	.L23:
 621:Generated_Source\PSoC4/capsense_ADC_Filter.c ****     {
 378              		.loc 1 621 0 is_stmt 0 discriminator 1
 379 000e 5C1E     		subs	r4, r3, #1
ARM GAS  C:\Users\ASUS\AppData\Local\Temp\ccJZE5kf.s 			page 21


 380              	.LVL56:
 381 0010 002B     		cmp	r3, #0
 382 0012 F8D1     		bne	.L24
 625:Generated_Source\PSoC4/capsense_ADC_Filter.c **** 
 383              		.loc 1 625 0 is_stmt 1
 384              		@ sp needed
 385              	.LVL57:
 386 0014 10BD     		pop	{r4, pc}
 387              		.cfi_endproc
 388              	.LFE11:
 389              		.size	capsense_ADC_InitializeAllFilters, .-capsense_ADC_InitializeAllFilters
 390 0016 C046     		.section	.text.capsense_ADC_FtInitialize,"ax",%progbits
 391              		.align	2
 392              		.global	capsense_ADC_FtInitialize
 393              		.code	16
 394              		.thumb_func
 395              		.type	capsense_ADC_FtInitialize, %function
 396              	capsense_ADC_FtInitialize:
 397              	.LFB1:
  63:Generated_Source\PSoC4/capsense_ADC_Filter.c ****     #if ((capsense_ADC_ENABLE == capsense_ADC_RC_FILTER_EN) || \
 398              		.loc 1 63 0
 399              		.cfi_startproc
 400              		@ args = 0, pretend = 0, frame = 0
 401              		@ frame_needed = 0, uses_anonymous_args = 0
 402 0000 10B5     		push	{r4, lr}
 403              		.cfi_def_cfa_offset 8
 404              		.cfi_offset 4, -8
 405              		.cfi_offset 14, -4
  66:Generated_Source\PSoC4/capsense_ADC_Filter.c ****     #endif /* ((capsense_ADC_ENABLE == capsense_ADC_RC_FILTER_EN) || \
 406              		.loc 1 66 0
 407 0002 FFF7FEFF 		bl	capsense_ADC_InitializeAllFilters
 408              	.LVL58:
  69:Generated_Source\PSoC4/capsense_ADC_Filter.c **** 
 409              		.loc 1 69 0
 410              		@ sp needed
 411 0006 10BD     		pop	{r4, pc}
 412              		.cfi_endproc
 413              	.LFE1:
 414              		.size	capsense_ADC_FtInitialize, .-capsense_ADC_FtInitialize
 415              		.section	.text.capsense_ADC_RunNoiseEnvelope,"ax",%progbits
 416              		.align	2
 417              		.global	capsense_ADC_RunNoiseEnvelope
 418              		.code	16
 419              		.thumb_func
 420              		.type	capsense_ADC_RunNoiseEnvelope, %function
 421              	capsense_ADC_RunNoiseEnvelope:
 422              	.LFB13:
 731:Generated_Source\PSoC4/capsense_ADC_Filter.c **** #endif /* ((capsense_ADC_ENABLE == capsense_ADC_RC_FILTER_EN) || \
 732:Generated_Source\PSoC4/capsense_ADC_Filter.c ****            (0u != (capsense_ADC_CSD_AUTOTUNE & capsense_ADC_CSD_SS_TH_EN))) */
 733:Generated_Source\PSoC4/capsense_ADC_Filter.c **** 
 734:Generated_Source\PSoC4/capsense_ADC_Filter.c **** #if (capsense_ADC_REGULAR_RC_IIR_FILTER_EN || capsense_ADC_PROX_RC_IIR_FILTER_EN)
 735:Generated_Source\PSoC4/capsense_ADC_Filter.c **** /*******************************************************************************
 736:Generated_Source\PSoC4/capsense_ADC_Filter.c **** * Function Name: capsense_ADC_InitializeIIR
 737:Generated_Source\PSoC4/capsense_ADC_Filter.c **** ****************************************************************************//**
 738:Generated_Source\PSoC4/capsense_ADC_Filter.c **** *
 739:Generated_Source\PSoC4/capsense_ADC_Filter.c **** * \brief
 740:Generated_Source\PSoC4/capsense_ADC_Filter.c **** *  Initialize the IIR filter history.
ARM GAS  C:\Users\ASUS\AppData\Local\Temp\ccJZE5kf.s 			page 22


 741:Generated_Source\PSoC4/capsense_ADC_Filter.c **** *
 742:Generated_Source\PSoC4/capsense_ADC_Filter.c **** * \details
 743:Generated_Source\PSoC4/capsense_ADC_Filter.c **** *  Initialize the IIR filter history.
 744:Generated_Source\PSoC4/capsense_ADC_Filter.c **** *
 745:Generated_Source\PSoC4/capsense_ADC_Filter.c **** * \param widgetId
 746:Generated_Source\PSoC4/capsense_ADC_Filter.c **** *  Specifies the ID number of the widget.
 747:Generated_Source\PSoC4/capsense_ADC_Filter.c **** *
 748:Generated_Source\PSoC4/capsense_ADC_Filter.c **** * \param sensorId
 749:Generated_Source\PSoC4/capsense_ADC_Filter.c **** *  Specifies the ID number of the sensor in the widget.
 750:Generated_Source\PSoC4/capsense_ADC_Filter.c **** *
 751:Generated_Source\PSoC4/capsense_ADC_Filter.c **** *******************************************************************************/
 752:Generated_Source\PSoC4/capsense_ADC_Filter.c **** void capsense_ADC_InitializeIIR(uint32 widgetId, uint32 sensorId)
 753:Generated_Source\PSoC4/capsense_ADC_Filter.c **** {
 754:Generated_Source\PSoC4/capsense_ADC_Filter.c ****     capsense_ADC_FLASH_WD_STRUCT const *ptrWidget = &capsense_ADC_dsFlash.wdgtArray[widgetId];
 755:Generated_Source\PSoC4/capsense_ADC_Filter.c ****     capsense_ADC_RAM_SNS_STRUCT *ptrSensor = NULL;
 756:Generated_Source\PSoC4/capsense_ADC_Filter.c ****     capsense_ADC_PTR_FILTER_VARIANT ptrFilterHistObj;
 757:Generated_Source\PSoC4/capsense_ADC_Filter.c **** 
 758:Generated_Source\PSoC4/capsense_ADC_Filter.c ****     /* Find pointer to specified sensor object */
 759:Generated_Source\PSoC4/capsense_ADC_Filter.c ****     ptrSensor = ptrWidget->ptr2SnsRam;
 760:Generated_Source\PSoC4/capsense_ADC_Filter.c ****     ptrSensor = &ptrSensor[sensorId];
 761:Generated_Source\PSoC4/capsense_ADC_Filter.c **** 
 762:Generated_Source\PSoC4/capsense_ADC_Filter.c ****     /* Find pointer to specified filter sensor object */
 763:Generated_Source\PSoC4/capsense_ADC_Filter.c ****     ptrFilterHistObj.ptr = ptrWidget->ptr2FltrHistory;
 764:Generated_Source\PSoC4/capsense_ADC_Filter.c **** 
 765:Generated_Source\PSoC4/capsense_ADC_Filter.c ****     if ((capsense_ADC_WD_TYPE_ENUM)ptrWidget->wdgtType != capsense_ADC_WD_PROXIMITY_E)
 766:Generated_Source\PSoC4/capsense_ADC_Filter.c ****     {
 767:Generated_Source\PSoC4/capsense_ADC_Filter.c ****         #if (capsense_ADC_REGULAR_SENSOR_EN)
 768:Generated_Source\PSoC4/capsense_ADC_Filter.c ****             ptrFilterHistObj.ptrRegular = &ptrFilterHistObj.ptrRegular[sensorId];
 769:Generated_Source\PSoC4/capsense_ADC_Filter.c ****         #endif /* (capsense_ADC_REGULAR_SENSOR_EN) */
 770:Generated_Source\PSoC4/capsense_ADC_Filter.c ****     }
 771:Generated_Source\PSoC4/capsense_ADC_Filter.c ****     else
 772:Generated_Source\PSoC4/capsense_ADC_Filter.c ****     {
 773:Generated_Source\PSoC4/capsense_ADC_Filter.c ****         #if (capsense_ADC_PROXIMITY_SENSOR_EN)
 774:Generated_Source\PSoC4/capsense_ADC_Filter.c ****             ptrFilterHistObj.ptrProx = &ptrFilterHistObj.ptrProx[sensorId];
 775:Generated_Source\PSoC4/capsense_ADC_Filter.c ****         #endif /* (capsense_ADC_PROXIMITY_SENSOR_EN) */
 776:Generated_Source\PSoC4/capsense_ADC_Filter.c ****     }
 777:Generated_Source\PSoC4/capsense_ADC_Filter.c **** 
 778:Generated_Source\PSoC4/capsense_ADC_Filter.c ****     capsense_ADC_InitializeIIRInternal(ptrFilterHistObj, ptrSensor, (uint32)ptrWidget->wdgtType);
 779:Generated_Source\PSoC4/capsense_ADC_Filter.c **** }
 780:Generated_Source\PSoC4/capsense_ADC_Filter.c **** 
 781:Generated_Source\PSoC4/capsense_ADC_Filter.c **** 
 782:Generated_Source\PSoC4/capsense_ADC_Filter.c **** /*******************************************************************************
 783:Generated_Source\PSoC4/capsense_ADC_Filter.c **** * Function Name: capsense_ADC_RunIIR
 784:Generated_Source\PSoC4/capsense_ADC_Filter.c **** ****************************************************************************//**
 785:Generated_Source\PSoC4/capsense_ADC_Filter.c **** *
 786:Generated_Source\PSoC4/capsense_ADC_Filter.c **** * \brief
 787:Generated_Source\PSoC4/capsense_ADC_Filter.c **** *  Executes the IIR filter algorithm on a sensor indicated by an input
 788:Generated_Source\PSoC4/capsense_ADC_Filter.c **** *  parameter.
 789:Generated_Source\PSoC4/capsense_ADC_Filter.c **** *
 790:Generated_Source\PSoC4/capsense_ADC_Filter.c **** * \details
 791:Generated_Source\PSoC4/capsense_ADC_Filter.c **** *  Executes the IIR filter algorithm on a sensor indicated by an input
 792:Generated_Source\PSoC4/capsense_ADC_Filter.c **** *  parameter.
 793:Generated_Source\PSoC4/capsense_ADC_Filter.c **** *
 794:Generated_Source\PSoC4/capsense_ADC_Filter.c **** * \param widgetId
 795:Generated_Source\PSoC4/capsense_ADC_Filter.c **** *  Specifies the ID number of the widget.
 796:Generated_Source\PSoC4/capsense_ADC_Filter.c **** *
 797:Generated_Source\PSoC4/capsense_ADC_Filter.c **** * \param sensorId
ARM GAS  C:\Users\ASUS\AppData\Local\Temp\ccJZE5kf.s 			page 23


 798:Generated_Source\PSoC4/capsense_ADC_Filter.c **** *  Specifies the ID number of the sensor in the widget.
 799:Generated_Source\PSoC4/capsense_ADC_Filter.c **** *
 800:Generated_Source\PSoC4/capsense_ADC_Filter.c **** *******************************************************************************/
 801:Generated_Source\PSoC4/capsense_ADC_Filter.c **** void capsense_ADC_RunIIR(uint32 widgetId, uint32 sensorId)
 802:Generated_Source\PSoC4/capsense_ADC_Filter.c **** {
 803:Generated_Source\PSoC4/capsense_ADC_Filter.c ****     capsense_ADC_FLASH_WD_STRUCT const *ptrWidget = &capsense_ADC_dsFlash.wdgtArray[widgetId];
 804:Generated_Source\PSoC4/capsense_ADC_Filter.c ****     capsense_ADC_RAM_SNS_STRUCT *ptrSensor = NULL;
 805:Generated_Source\PSoC4/capsense_ADC_Filter.c ****     capsense_ADC_PTR_FILTER_VARIANT ptrFilterHistObj;
 806:Generated_Source\PSoC4/capsense_ADC_Filter.c **** 
 807:Generated_Source\PSoC4/capsense_ADC_Filter.c ****     /* Find pointer to specified sensor object */
 808:Generated_Source\PSoC4/capsense_ADC_Filter.c ****     ptrSensor = ptrWidget->ptr2SnsRam;
 809:Generated_Source\PSoC4/capsense_ADC_Filter.c ****     ptrSensor = &ptrSensor[sensorId];
 810:Generated_Source\PSoC4/capsense_ADC_Filter.c **** 
 811:Generated_Source\PSoC4/capsense_ADC_Filter.c ****     /* Find pointer to specified filter sensor object */
 812:Generated_Source\PSoC4/capsense_ADC_Filter.c ****     ptrFilterHistObj.ptr = ptrWidget->ptr2FltrHistory;
 813:Generated_Source\PSoC4/capsense_ADC_Filter.c **** 
 814:Generated_Source\PSoC4/capsense_ADC_Filter.c ****     if ((capsense_ADC_WD_TYPE_ENUM)ptrWidget->wdgtType != capsense_ADC_WD_PROXIMITY_E)
 815:Generated_Source\PSoC4/capsense_ADC_Filter.c ****     {
 816:Generated_Source\PSoC4/capsense_ADC_Filter.c ****         #if (capsense_ADC_REGULAR_SENSOR_EN)
 817:Generated_Source\PSoC4/capsense_ADC_Filter.c ****             ptrFilterHistObj.ptrRegular = &ptrFilterHistObj.ptrRegular[sensorId];
 818:Generated_Source\PSoC4/capsense_ADC_Filter.c ****         #endif /* (capsense_ADC_REGULAR_SENSOR_EN) */
 819:Generated_Source\PSoC4/capsense_ADC_Filter.c ****     }
 820:Generated_Source\PSoC4/capsense_ADC_Filter.c ****     else
 821:Generated_Source\PSoC4/capsense_ADC_Filter.c ****     {
 822:Generated_Source\PSoC4/capsense_ADC_Filter.c ****         #if (capsense_ADC_PROXIMITY_SENSOR_EN)
 823:Generated_Source\PSoC4/capsense_ADC_Filter.c ****             ptrFilterHistObj.ptrProx = &ptrFilterHistObj.ptrProx[sensorId];
 824:Generated_Source\PSoC4/capsense_ADC_Filter.c ****         #endif /* (capsense_ADC_PROXIMITY_SENSOR_EN) */
 825:Generated_Source\PSoC4/capsense_ADC_Filter.c ****     }
 826:Generated_Source\PSoC4/capsense_ADC_Filter.c **** 
 827:Generated_Source\PSoC4/capsense_ADC_Filter.c ****     capsense_ADC_RunIIRInternal(ptrFilterHistObj, ptrSensor, (uint32)ptrWidget->wdgtType);
 828:Generated_Source\PSoC4/capsense_ADC_Filter.c **** }
 829:Generated_Source\PSoC4/capsense_ADC_Filter.c **** 
 830:Generated_Source\PSoC4/capsense_ADC_Filter.c **** /*******************************************************************************
 831:Generated_Source\PSoC4/capsense_ADC_Filter.c **** * Function Name: capsense_ADC_InitializeIIRInternal
 832:Generated_Source\PSoC4/capsense_ADC_Filter.c **** ****************************************************************************//**
 833:Generated_Source\PSoC4/capsense_ADC_Filter.c **** *
 834:Generated_Source\PSoC4/capsense_ADC_Filter.c **** * \brief
 835:Generated_Source\PSoC4/capsense_ADC_Filter.c **** *  Initializes the IIR filter history.
 836:Generated_Source\PSoC4/capsense_ADC_Filter.c **** *
 837:Generated_Source\PSoC4/capsense_ADC_Filter.c **** * \details
 838:Generated_Source\PSoC4/capsense_ADC_Filter.c **** *  Initializes the IIR filter history.
 839:Generated_Source\PSoC4/capsense_ADC_Filter.c **** *
 840:Generated_Source\PSoC4/capsense_ADC_Filter.c **** * \param ptrFilterHistObj
 841:Generated_Source\PSoC4/capsense_ADC_Filter.c **** *  The pointer to the filter RAM object of the sensor.
 842:Generated_Source\PSoC4/capsense_ADC_Filter.c **** *
 843:Generated_Source\PSoC4/capsense_ADC_Filter.c **** * \param ptrSensorObj
 844:Generated_Source\PSoC4/capsense_ADC_Filter.c **** *  The pointer to the sensor RAM object of the sensor.
 845:Generated_Source\PSoC4/capsense_ADC_Filter.c **** *
 846:Generated_Source\PSoC4/capsense_ADC_Filter.c **** * \param wdType
 847:Generated_Source\PSoC4/capsense_ADC_Filter.c **** *  Specifies the type of a widget.
 848:Generated_Source\PSoC4/capsense_ADC_Filter.c **** *
 849:Generated_Source\PSoC4/capsense_ADC_Filter.c **** *******************************************************************************/
 850:Generated_Source\PSoC4/capsense_ADC_Filter.c **** void capsense_ADC_InitializeIIRInternal(capsense_ADC_PTR_FILTER_VARIANT ptrFilterHistObj,
 851:Generated_Source\PSoC4/capsense_ADC_Filter.c ****                                             capsense_ADC_RAM_SNS_STRUCT *ptrSensorObj, uint32 wdTyp
 852:Generated_Source\PSoC4/capsense_ADC_Filter.c **** {
 853:Generated_Source\PSoC4/capsense_ADC_Filter.c ****     uint32 freqChannel;
 854:Generated_Source\PSoC4/capsense_ADC_Filter.c **** 
ARM GAS  C:\Users\ASUS\AppData\Local\Temp\ccJZE5kf.s 			page 24


 855:Generated_Source\PSoC4/capsense_ADC_Filter.c ****     for(freqChannel = capsense_ADC_NUM_SCAN_FREQS; freqChannel-- > 0u;)
 856:Generated_Source\PSoC4/capsense_ADC_Filter.c ****     {
 857:Generated_Source\PSoC4/capsense_ADC_Filter.c ****         if ((capsense_ADC_WD_TYPE_ENUM)wdType != capsense_ADC_WD_PROXIMITY_E)
 858:Generated_Source\PSoC4/capsense_ADC_Filter.c ****         {
 859:Generated_Source\PSoC4/capsense_ADC_Filter.c ****             #if (capsense_ADC_REGULAR_SENSOR_EN && capsense_ADC_REGULAR_RC_IIR_FILTER_EN)
 860:Generated_Source\PSoC4/capsense_ADC_Filter.c ****                 #if (capsense_ADC_REGULAR_IIR_RC_TYPE == capsense_ADC_IIR_FILTER_PERFORMANCE)
 861:Generated_Source\PSoC4/capsense_ADC_Filter.c ****                     ptrFilterHistObj.ptrRegular->regularChannel[freqChannel].iirHistory = ptrSensor
 862:Generated_Source\PSoC4/capsense_ADC_Filter.c ****                     ptrFilterHistObj.ptrRegular->regularChannel[freqChannel].iirHistoryLow = 0u;
 863:Generated_Source\PSoC4/capsense_ADC_Filter.c ****                 #else
 864:Generated_Source\PSoC4/capsense_ADC_Filter.c ****                     ptrFilterHistObj.ptrRegular->regularChannel[freqChannel].iirHistory = ptrSensor
 865:Generated_Source\PSoC4/capsense_ADC_Filter.c ****                 #endif /* (capsense_ADC_REGULAR_IIR_RC_TYPE == capsense_ADC_IIR_FILTER_PERFORMANCE)
 866:Generated_Source\PSoC4/capsense_ADC_Filter.c ****             #endif /* (capsense_ADC_REGULAR_SENSOR_EN) */
 867:Generated_Source\PSoC4/capsense_ADC_Filter.c ****         }
 868:Generated_Source\PSoC4/capsense_ADC_Filter.c ****         else
 869:Generated_Source\PSoC4/capsense_ADC_Filter.c ****         {
 870:Generated_Source\PSoC4/capsense_ADC_Filter.c ****             #if (capsense_ADC_PROXIMITY_SENSOR_EN && capsense_ADC_PROX_RC_IIR_FILTER_EN)
 871:Generated_Source\PSoC4/capsense_ADC_Filter.c ****                 #if (capsense_ADC_PROX_IIR_RC_TYPE == capsense_ADC_IIR_FILTER_PERFORMANCE)
 872:Generated_Source\PSoC4/capsense_ADC_Filter.c ****                     ptrFilterHistObj.ptrProx->proxChannel[freqChannel].iirHistory = ptrSensorObj->r
 873:Generated_Source\PSoC4/capsense_ADC_Filter.c ****                     ptrFilterHistObj.ptrProx->proxChannel[freqChannel].iirHistoryLow = 0u;
 874:Generated_Source\PSoC4/capsense_ADC_Filter.c ****                 #else
 875:Generated_Source\PSoC4/capsense_ADC_Filter.c ****                     ptrFilterHistObj.ptrProx->proxChannel[freqChannel].iirHistory = ptrSensorObj->r
 876:Generated_Source\PSoC4/capsense_ADC_Filter.c ****                 #endif /* (capsense_ADC_PROX_IIR_RC_TYPE == capsense_ADC_IIR_FILTER_PERFORMANCE) */
 877:Generated_Source\PSoC4/capsense_ADC_Filter.c ****             #endif /* (capsense_ADC_PROX_SENSOR_EN) */
 878:Generated_Source\PSoC4/capsense_ADC_Filter.c ****         }
 879:Generated_Source\PSoC4/capsense_ADC_Filter.c ****     }
 880:Generated_Source\PSoC4/capsense_ADC_Filter.c **** }
 881:Generated_Source\PSoC4/capsense_ADC_Filter.c **** 
 882:Generated_Source\PSoC4/capsense_ADC_Filter.c **** 
 883:Generated_Source\PSoC4/capsense_ADC_Filter.c **** /*******************************************************************************
 884:Generated_Source\PSoC4/capsense_ADC_Filter.c **** * Function Name: capsense_ADC_RunIIRInternal
 885:Generated_Source\PSoC4/capsense_ADC_Filter.c **** ****************************************************************************//**
 886:Generated_Source\PSoC4/capsense_ADC_Filter.c **** *
 887:Generated_Source\PSoC4/capsense_ADC_Filter.c **** * \brief
 888:Generated_Source\PSoC4/capsense_ADC_Filter.c **** *  Run the IIR filter.
 889:Generated_Source\PSoC4/capsense_ADC_Filter.c **** *
 890:Generated_Source\PSoC4/capsense_ADC_Filter.c **** * \details
 891:Generated_Source\PSoC4/capsense_ADC_Filter.c **** *  Run the IIR filter.
 892:Generated_Source\PSoC4/capsense_ADC_Filter.c **** *
 893:Generated_Source\PSoC4/capsense_ADC_Filter.c **** * \param ptrFilterHistObj
 894:Generated_Source\PSoC4/capsense_ADC_Filter.c **** *  The pointer to the filter RAM object of the sensor.
 895:Generated_Source\PSoC4/capsense_ADC_Filter.c **** *
 896:Generated_Source\PSoC4/capsense_ADC_Filter.c **** * \param ptrSensorObj
 897:Generated_Source\PSoC4/capsense_ADC_Filter.c **** *  The pointer to the sensor RAM object of the sensor.
 898:Generated_Source\PSoC4/capsense_ADC_Filter.c **** *
 899:Generated_Source\PSoC4/capsense_ADC_Filter.c **** * \param wdType
 900:Generated_Source\PSoC4/capsense_ADC_Filter.c **** *  Specifies the type of a widget.
 901:Generated_Source\PSoC4/capsense_ADC_Filter.c **** *
 902:Generated_Source\PSoC4/capsense_ADC_Filter.c **** *******************************************************************************/
 903:Generated_Source\PSoC4/capsense_ADC_Filter.c **** void capsense_ADC_RunIIRInternal(capsense_ADC_PTR_FILTER_VARIANT ptrFilterHistObj,
 904:Generated_Source\PSoC4/capsense_ADC_Filter.c ****                                      capsense_ADC_RAM_SNS_STRUCT *ptrSensorObj, uint32 wdType)
 905:Generated_Source\PSoC4/capsense_ADC_Filter.c **** {
 906:Generated_Source\PSoC4/capsense_ADC_Filter.c ****     uint32 freqChannel;
 907:Generated_Source\PSoC4/capsense_ADC_Filter.c ****     uint32 temp;
 908:Generated_Source\PSoC4/capsense_ADC_Filter.c **** 
 909:Generated_Source\PSoC4/capsense_ADC_Filter.c ****     for(freqChannel = capsense_ADC_NUM_SCAN_FREQS; freqChannel-- > 0u;)
 910:Generated_Source\PSoC4/capsense_ADC_Filter.c ****     {
 911:Generated_Source\PSoC4/capsense_ADC_Filter.c ****         if ((capsense_ADC_WD_TYPE_ENUM)wdType != capsense_ADC_WD_PROXIMITY_E)
ARM GAS  C:\Users\ASUS\AppData\Local\Temp\ccJZE5kf.s 			page 25


 912:Generated_Source\PSoC4/capsense_ADC_Filter.c ****         {
 913:Generated_Source\PSoC4/capsense_ADC_Filter.c ****             #if (capsense_ADC_REGULAR_SENSOR_EN && capsense_ADC_REGULAR_RC_IIR_FILTER_EN)
 914:Generated_Source\PSoC4/capsense_ADC_Filter.c ****                 #if (capsense_ADC_REGULAR_IIR_RC_TYPE == capsense_ADC_IIR_FILTER_PERFORMANCE)
 915:Generated_Source\PSoC4/capsense_ADC_Filter.c ****                     temp = ((uint32)ptrFilterHistObj.ptrRegular->regularChannel[freqChannel].iirHis
 916:Generated_Source\PSoC4/capsense_ADC_Filter.c ****                     temp |= ptrFilterHistObj.ptrRegular->regularChannel[freqChannel].iirHistoryLow;
 917:Generated_Source\PSoC4/capsense_ADC_Filter.c ****                     temp = capsense_ADC_FtIIR1stOrder((uint32)ptrSensorObj->raw[freqChannel],
 918:Generated_Source\PSoC4/capsense_ADC_Filter.c ****                                                         temp,
 919:Generated_Source\PSoC4/capsense_ADC_Filter.c ****                                                         capsense_ADC_REGULAR_IIR_RC_N,
 920:Generated_Source\PSoC4/capsense_ADC_Filter.c ****                                                         capsense_ADC_REGULAR_IIR_RC_SHIFT);
 921:Generated_Source\PSoC4/capsense_ADC_Filter.c ****                     ptrFilterHistObj.ptrRegular->regularChannel[freqChannel].iirHistory = LO16(temp
 922:Generated_Source\PSoC4/capsense_ADC_Filter.c ****                     ptrFilterHistObj.ptrRegular->regularChannel[freqChannel].iirHistoryLow = LO8(te
 923:Generated_Source\PSoC4/capsense_ADC_Filter.c ****                     ptrSensorObj->raw[freqChannel] = LO16(temp >>capsense_ADC_REGULAR_IIR_RC_SHIFT)
 924:Generated_Source\PSoC4/capsense_ADC_Filter.c ****                 #else
 925:Generated_Source\PSoC4/capsense_ADC_Filter.c ****                     temp =capsense_ADC_FtIIR1stOrder((uint32)ptrSensorObj->raw[freqChannel],
 926:Generated_Source\PSoC4/capsense_ADC_Filter.c ****                                                         (uint32)ptrFilterHistObj.ptrRegular->regula
 927:Generated_Source\PSoC4/capsense_ADC_Filter.c ****                                                         capsense_ADC_REGULAR_IIR_RC_N,
 928:Generated_Source\PSoC4/capsense_ADC_Filter.c ****                                                         capsense_ADC_REGULAR_IIR_RC_SHIFT);
 929:Generated_Source\PSoC4/capsense_ADC_Filter.c ****                     ptrFilterHistObj.ptrRegular->regularChannel[freqChannel].iirHistory = LO16(temp
 930:Generated_Source\PSoC4/capsense_ADC_Filter.c ****                     ptrSensorObj->raw[freqChannel] = LO16(temp >>capsense_ADC_REGULAR_IIR_RC_SHIFT)
 931:Generated_Source\PSoC4/capsense_ADC_Filter.c ****                 #endif /* (capsense_ADC_REGULAR_IIR_RC_TYPE == capsense_ADC_IIR_FILTER_PERFORMANCE)
 932:Generated_Source\PSoC4/capsense_ADC_Filter.c ****             #endif /* (capsense_ADC_REGULAR_SENSOR_EN) */
 933:Generated_Source\PSoC4/capsense_ADC_Filter.c ****         }
 934:Generated_Source\PSoC4/capsense_ADC_Filter.c ****         else
 935:Generated_Source\PSoC4/capsense_ADC_Filter.c ****         {
 936:Generated_Source\PSoC4/capsense_ADC_Filter.c ****             #if (capsense_ADC_PROXIMITY_SENSOR_EN && capsense_ADC_PROX_RC_IIR_FILTER_EN)
 937:Generated_Source\PSoC4/capsense_ADC_Filter.c ****                 #if (capsense_ADC_PROX_IIR_RC_TYPE == capsense_ADC_IIR_FILTER_PERFORMANCE)
 938:Generated_Source\PSoC4/capsense_ADC_Filter.c ****                     temp =  ptrFilterHistObj.ptrProx->proxChannel[freqChannel].iirHistory << capsen
 939:Generated_Source\PSoC4/capsense_ADC_Filter.c ****                     temp |= ptrFilterHistObj.ptrProx->proxChannel[freqChannel].iirHistoryLow;
 940:Generated_Source\PSoC4/capsense_ADC_Filter.c ****                     temp =capsense_ADC_FtIIR1stOrder((uint32)ptrSensorObj->raw[freqChannel],
 941:Generated_Source\PSoC4/capsense_ADC_Filter.c ****                                                         temp,
 942:Generated_Source\PSoC4/capsense_ADC_Filter.c ****                                                         capsense_ADC_PROX_IIR_RC_N,
 943:Generated_Source\PSoC4/capsense_ADC_Filter.c ****                                                         capsense_ADC_PROX_IIR_RC_SHIFT);
 944:Generated_Source\PSoC4/capsense_ADC_Filter.c ****                     ptrFilterHistObj.ptrProx->proxChannel[freqChannel].iirHistory = LO16(temp >>cap
 945:Generated_Source\PSoC4/capsense_ADC_Filter.c ****                     ptrFilterHistObj.ptrProx->proxChannel[freqChannel].iirHistoryLow = LO8(temp);
 946:Generated_Source\PSoC4/capsense_ADC_Filter.c ****                     ptrSensorObj->raw[freqChannel] = LO16(temp >>capsense_ADC_PROX_IIR_RC_SHIFT);
 947:Generated_Source\PSoC4/capsense_ADC_Filter.c ****                 #else
 948:Generated_Source\PSoC4/capsense_ADC_Filter.c ****                     temp =capsense_ADC_FtIIR1stOrder((uint32)ptrSensorObj->raw[freqChannel],
 949:Generated_Source\PSoC4/capsense_ADC_Filter.c ****                                                         (uint32)ptrFilterHistObj.ptrProx->proxChann
 950:Generated_Source\PSoC4/capsense_ADC_Filter.c ****                                                         capsense_ADC_PROX_IIR_RC_N,
 951:Generated_Source\PSoC4/capsense_ADC_Filter.c ****                                                         capsense_ADC_PROX_IIR_RC_SHIFT);
 952:Generated_Source\PSoC4/capsense_ADC_Filter.c ****                     ptrFilterHistObj.ptrProx->proxChannel[freqChannel].iirHistory = LO16(temp);
 953:Generated_Source\PSoC4/capsense_ADC_Filter.c ****                     ptrSensorObj->raw[freqChannel] = LO16(temp >>capsense_ADC_PROX_IIR_RC_SHIFT);
 954:Generated_Source\PSoC4/capsense_ADC_Filter.c ****                 #endif /* (capsense_ADC_PROX_IIR_RC_TYPE == capsense_ADC_IIR_FILTER_PERFORMANCE) */
 955:Generated_Source\PSoC4/capsense_ADC_Filter.c ****             #endif /* (capsense_ADC_PROX_SENSOR_EN) */
 956:Generated_Source\PSoC4/capsense_ADC_Filter.c ****         }
 957:Generated_Source\PSoC4/capsense_ADC_Filter.c ****     }
 958:Generated_Source\PSoC4/capsense_ADC_Filter.c **** }
 959:Generated_Source\PSoC4/capsense_ADC_Filter.c **** #endif /* #if (capsense_ADC_REGULAR_RC_IIR_FILTER_EN || capsense_ADC_PROX_RC_IIR_FILTER_EN) */
 960:Generated_Source\PSoC4/capsense_ADC_Filter.c **** 
 961:Generated_Source\PSoC4/capsense_ADC_Filter.c **** 
 962:Generated_Source\PSoC4/capsense_ADC_Filter.c **** #if (capsense_ADC_REGULAR_RC_MEDIAN_FILTER_EN || capsense_ADC_PROX_RC_MEDIAN_FILTER_EN)
 963:Generated_Source\PSoC4/capsense_ADC_Filter.c **** 
 964:Generated_Source\PSoC4/capsense_ADC_Filter.c **** /*******************************************************************************
 965:Generated_Source\PSoC4/capsense_ADC_Filter.c **** * Function Name: capsense_ADC_InitializeMedian
 966:Generated_Source\PSoC4/capsense_ADC_Filter.c **** ****************************************************************************//**
 967:Generated_Source\PSoC4/capsense_ADC_Filter.c **** *
 968:Generated_Source\PSoC4/capsense_ADC_Filter.c **** * \brief
ARM GAS  C:\Users\ASUS\AppData\Local\Temp\ccJZE5kf.s 			page 26


 969:Generated_Source\PSoC4/capsense_ADC_Filter.c **** *  Initializes the Median filter history.
 970:Generated_Source\PSoC4/capsense_ADC_Filter.c **** *
 971:Generated_Source\PSoC4/capsense_ADC_Filter.c **** * \details
 972:Generated_Source\PSoC4/capsense_ADC_Filter.c **** *  Initializes the Median filter history.
 973:Generated_Source\PSoC4/capsense_ADC_Filter.c **** *
 974:Generated_Source\PSoC4/capsense_ADC_Filter.c **** * \param widgetId
 975:Generated_Source\PSoC4/capsense_ADC_Filter.c **** *  Specifies the ID number of the widget.
 976:Generated_Source\PSoC4/capsense_ADC_Filter.c **** *
 977:Generated_Source\PSoC4/capsense_ADC_Filter.c **** * \param sensorId
 978:Generated_Source\PSoC4/capsense_ADC_Filter.c **** *  Specifies the ID number of the sensor in the widget.
 979:Generated_Source\PSoC4/capsense_ADC_Filter.c **** *
 980:Generated_Source\PSoC4/capsense_ADC_Filter.c **** *******************************************************************************/
 981:Generated_Source\PSoC4/capsense_ADC_Filter.c **** void capsense_ADC_InitializeMedian(uint32 widgetId, uint32 sensorId)
 982:Generated_Source\PSoC4/capsense_ADC_Filter.c **** {
 983:Generated_Source\PSoC4/capsense_ADC_Filter.c ****     capsense_ADC_FLASH_WD_STRUCT const *ptrWidget = &capsense_ADC_dsFlash.wdgtArray[widgetId];
 984:Generated_Source\PSoC4/capsense_ADC_Filter.c ****     capsense_ADC_RAM_SNS_STRUCT *ptrSensor = NULL;
 985:Generated_Source\PSoC4/capsense_ADC_Filter.c ****     capsense_ADC_PTR_FILTER_VARIANT ptrFilterHistObj;
 986:Generated_Source\PSoC4/capsense_ADC_Filter.c **** 
 987:Generated_Source\PSoC4/capsense_ADC_Filter.c ****     /* Find pointer to specified sensor object */
 988:Generated_Source\PSoC4/capsense_ADC_Filter.c ****     ptrSensor = ptrWidget->ptr2SnsRam;
 989:Generated_Source\PSoC4/capsense_ADC_Filter.c ****     ptrSensor = &ptrSensor[sensorId];
 990:Generated_Source\PSoC4/capsense_ADC_Filter.c **** 
 991:Generated_Source\PSoC4/capsense_ADC_Filter.c ****     /* Find pointer to specified filter sensor object */
 992:Generated_Source\PSoC4/capsense_ADC_Filter.c ****     ptrFilterHistObj.ptr = ptrWidget->ptr2FltrHistory;
 993:Generated_Source\PSoC4/capsense_ADC_Filter.c **** 
 994:Generated_Source\PSoC4/capsense_ADC_Filter.c ****     if ((capsense_ADC_WD_TYPE_ENUM)ptrWidget->wdgtType != capsense_ADC_WD_PROXIMITY_E)
 995:Generated_Source\PSoC4/capsense_ADC_Filter.c ****     {
 996:Generated_Source\PSoC4/capsense_ADC_Filter.c ****         #if (capsense_ADC_REGULAR_SENSOR_EN)
 997:Generated_Source\PSoC4/capsense_ADC_Filter.c ****             ptrFilterHistObj.ptrRegular = &ptrFilterHistObj.ptrRegular[sensorId];
 998:Generated_Source\PSoC4/capsense_ADC_Filter.c ****         #endif /* (capsense_ADC_REGULAR_SENSOR_EN) */
 999:Generated_Source\PSoC4/capsense_ADC_Filter.c ****     }
1000:Generated_Source\PSoC4/capsense_ADC_Filter.c ****     else
1001:Generated_Source\PSoC4/capsense_ADC_Filter.c ****     {
1002:Generated_Source\PSoC4/capsense_ADC_Filter.c ****         #if (capsense_ADC_PROXIMITY_SENSOR_EN)
1003:Generated_Source\PSoC4/capsense_ADC_Filter.c ****             ptrFilterHistObj.ptrProx = &ptrFilterHistObj.ptrProx[sensorId];
1004:Generated_Source\PSoC4/capsense_ADC_Filter.c ****         #endif /* (capsense_ADC_PROXIMITY_SENSOR_EN) */
1005:Generated_Source\PSoC4/capsense_ADC_Filter.c ****     }
1006:Generated_Source\PSoC4/capsense_ADC_Filter.c **** 
1007:Generated_Source\PSoC4/capsense_ADC_Filter.c ****     capsense_ADC_InitializeMedianInternal(ptrFilterHistObj, ptrSensor, (uint32)ptrWidget->wdgtType)
1008:Generated_Source\PSoC4/capsense_ADC_Filter.c **** }
1009:Generated_Source\PSoC4/capsense_ADC_Filter.c **** 
1010:Generated_Source\PSoC4/capsense_ADC_Filter.c **** 
1011:Generated_Source\PSoC4/capsense_ADC_Filter.c **** /*******************************************************************************
1012:Generated_Source\PSoC4/capsense_ADC_Filter.c **** * Function Name: capsense_ADC_RunMedian
1013:Generated_Source\PSoC4/capsense_ADC_Filter.c **** ****************************************************************************//**
1014:Generated_Source\PSoC4/capsense_ADC_Filter.c **** *
1015:Generated_Source\PSoC4/capsense_ADC_Filter.c **** * \brief
1016:Generated_Source\PSoC4/capsense_ADC_Filter.c **** *  Executes the Median filter algorithm on a sensor indicated by an input
1017:Generated_Source\PSoC4/capsense_ADC_Filter.c **** *  parameter.
1018:Generated_Source\PSoC4/capsense_ADC_Filter.c **** *
1019:Generated_Source\PSoC4/capsense_ADC_Filter.c **** * \details
1020:Generated_Source\PSoC4/capsense_ADC_Filter.c **** *  Executes the Median filter algorithm on a sensor indicated by an input
1021:Generated_Source\PSoC4/capsense_ADC_Filter.c **** *  parameter.
1022:Generated_Source\PSoC4/capsense_ADC_Filter.c **** *
1023:Generated_Source\PSoC4/capsense_ADC_Filter.c **** * \param widgetId
1024:Generated_Source\PSoC4/capsense_ADC_Filter.c **** *  Specifies the ID number of the widget.
1025:Generated_Source\PSoC4/capsense_ADC_Filter.c **** *
ARM GAS  C:\Users\ASUS\AppData\Local\Temp\ccJZE5kf.s 			page 27


1026:Generated_Source\PSoC4/capsense_ADC_Filter.c **** * \param sensorId
1027:Generated_Source\PSoC4/capsense_ADC_Filter.c **** *  Specifies the ID number of the sensor in the widget.
1028:Generated_Source\PSoC4/capsense_ADC_Filter.c **** *
1029:Generated_Source\PSoC4/capsense_ADC_Filter.c **** *******************************************************************************/
1030:Generated_Source\PSoC4/capsense_ADC_Filter.c **** void capsense_ADC_RunMedian(uint32 widgetId, uint32 sensorId)
1031:Generated_Source\PSoC4/capsense_ADC_Filter.c **** {
1032:Generated_Source\PSoC4/capsense_ADC_Filter.c ****     capsense_ADC_FLASH_WD_STRUCT const *ptrWidget = &capsense_ADC_dsFlash.wdgtArray[widgetId];
1033:Generated_Source\PSoC4/capsense_ADC_Filter.c ****     capsense_ADC_RAM_SNS_STRUCT *ptrSensor = NULL;
1034:Generated_Source\PSoC4/capsense_ADC_Filter.c ****     capsense_ADC_PTR_FILTER_VARIANT ptrFilterHistObj;
1035:Generated_Source\PSoC4/capsense_ADC_Filter.c **** 
1036:Generated_Source\PSoC4/capsense_ADC_Filter.c ****     /* Find pointer to specified sensor object */
1037:Generated_Source\PSoC4/capsense_ADC_Filter.c ****     ptrSensor = ptrWidget->ptr2SnsRam;
1038:Generated_Source\PSoC4/capsense_ADC_Filter.c ****     ptrSensor = &ptrSensor[sensorId];
1039:Generated_Source\PSoC4/capsense_ADC_Filter.c **** 
1040:Generated_Source\PSoC4/capsense_ADC_Filter.c ****     /* Find pointer to specified filter sensor object */
1041:Generated_Source\PSoC4/capsense_ADC_Filter.c ****     ptrFilterHistObj.ptr = ptrWidget->ptr2FltrHistory;
1042:Generated_Source\PSoC4/capsense_ADC_Filter.c **** 
1043:Generated_Source\PSoC4/capsense_ADC_Filter.c ****     if ((capsense_ADC_WD_TYPE_ENUM)ptrWidget->wdgtType != capsense_ADC_WD_PROXIMITY_E)
1044:Generated_Source\PSoC4/capsense_ADC_Filter.c ****     {
1045:Generated_Source\PSoC4/capsense_ADC_Filter.c ****         #if (capsense_ADC_REGULAR_SENSOR_EN)
1046:Generated_Source\PSoC4/capsense_ADC_Filter.c ****             ptrFilterHistObj.ptrRegular = &ptrFilterHistObj.ptrRegular[sensorId];
1047:Generated_Source\PSoC4/capsense_ADC_Filter.c ****         #endif /* (capsense_ADC_REGULAR_SENSOR_EN) */
1048:Generated_Source\PSoC4/capsense_ADC_Filter.c ****     }
1049:Generated_Source\PSoC4/capsense_ADC_Filter.c ****     else
1050:Generated_Source\PSoC4/capsense_ADC_Filter.c ****     {
1051:Generated_Source\PSoC4/capsense_ADC_Filter.c ****         #if (capsense_ADC_PROXIMITY_SENSOR_EN)
1052:Generated_Source\PSoC4/capsense_ADC_Filter.c ****             ptrFilterHistObj.ptrProx = &ptrFilterHistObj.ptrProx[sensorId];
1053:Generated_Source\PSoC4/capsense_ADC_Filter.c ****         #endif /* (capsense_ADC_PROXIMITY_SENSOR_EN) */
1054:Generated_Source\PSoC4/capsense_ADC_Filter.c ****     }
1055:Generated_Source\PSoC4/capsense_ADC_Filter.c **** 
1056:Generated_Source\PSoC4/capsense_ADC_Filter.c ****     capsense_ADC_RunMedianInternal(ptrFilterHistObj, ptrSensor, (uint32)ptrWidget->wdgtType);
1057:Generated_Source\PSoC4/capsense_ADC_Filter.c **** }
1058:Generated_Source\PSoC4/capsense_ADC_Filter.c **** 
1059:Generated_Source\PSoC4/capsense_ADC_Filter.c **** 
1060:Generated_Source\PSoC4/capsense_ADC_Filter.c **** /*******************************************************************************
1061:Generated_Source\PSoC4/capsense_ADC_Filter.c **** * Function Name: capsense_ADC_InitializeMedianInternal
1062:Generated_Source\PSoC4/capsense_ADC_Filter.c **** ****************************************************************************//**
1063:Generated_Source\PSoC4/capsense_ADC_Filter.c **** *
1064:Generated_Source\PSoC4/capsense_ADC_Filter.c **** * \brief
1065:Generated_Source\PSoC4/capsense_ADC_Filter.c **** *  Initializes the Median filter.
1066:Generated_Source\PSoC4/capsense_ADC_Filter.c **** *
1067:Generated_Source\PSoC4/capsense_ADC_Filter.c **** * \details
1068:Generated_Source\PSoC4/capsense_ADC_Filter.c **** *  Initializes the Median filter.
1069:Generated_Source\PSoC4/capsense_ADC_Filter.c **** *
1070:Generated_Source\PSoC4/capsense_ADC_Filter.c **** * \param ptrFilterHistObj
1071:Generated_Source\PSoC4/capsense_ADC_Filter.c **** *  The pointer to the filter RAM object of the sensor.
1072:Generated_Source\PSoC4/capsense_ADC_Filter.c **** *
1073:Generated_Source\PSoC4/capsense_ADC_Filter.c **** * \param ptrSensorObj
1074:Generated_Source\PSoC4/capsense_ADC_Filter.c **** *  The pointer to the sensor RAM object of the sensor.
1075:Generated_Source\PSoC4/capsense_ADC_Filter.c **** *
1076:Generated_Source\PSoC4/capsense_ADC_Filter.c **** * \param wdType
1077:Generated_Source\PSoC4/capsense_ADC_Filter.c **** *  Specifies the type of a widget.
1078:Generated_Source\PSoC4/capsense_ADC_Filter.c **** *
1079:Generated_Source\PSoC4/capsense_ADC_Filter.c **** *******************************************************************************/
1080:Generated_Source\PSoC4/capsense_ADC_Filter.c **** void capsense_ADC_InitializeMedianInternal(capsense_ADC_PTR_FILTER_VARIANT ptrFilterHistObj,
1081:Generated_Source\PSoC4/capsense_ADC_Filter.c ****                                                capsense_ADC_RAM_SNS_STRUCT *ptrSensorObj, uint32 wd
1082:Generated_Source\PSoC4/capsense_ADC_Filter.c **** {
ARM GAS  C:\Users\ASUS\AppData\Local\Temp\ccJZE5kf.s 			page 28


1083:Generated_Source\PSoC4/capsense_ADC_Filter.c ****     uint32 freqChannel;
1084:Generated_Source\PSoC4/capsense_ADC_Filter.c **** 
1085:Generated_Source\PSoC4/capsense_ADC_Filter.c ****     for(freqChannel = capsense_ADC_NUM_SCAN_FREQS; freqChannel-- > 0u;)
1086:Generated_Source\PSoC4/capsense_ADC_Filter.c ****     {
1087:Generated_Source\PSoC4/capsense_ADC_Filter.c ****         if ((capsense_ADC_WD_TYPE_ENUM)wdType != capsense_ADC_WD_PROXIMITY_E)
1088:Generated_Source\PSoC4/capsense_ADC_Filter.c ****         {
1089:Generated_Source\PSoC4/capsense_ADC_Filter.c ****             #if (capsense_ADC_REGULAR_SENSOR_EN && capsense_ADC_REGULAR_RC_MEDIAN_FILTER_EN)
1090:Generated_Source\PSoC4/capsense_ADC_Filter.c ****                 ptrFilterHistObj.ptrRegular->regularChannel[freqChannel].medHistory[0u] = ptrSensor
1091:Generated_Source\PSoC4/capsense_ADC_Filter.c ****                 ptrFilterHistObj.ptrRegular->regularChannel[freqChannel].medHistory[1u] = ptrSensor
1092:Generated_Source\PSoC4/capsense_ADC_Filter.c ****             #endif /* (capsense_ADC_REGULAR_SENSOR_EN) */
1093:Generated_Source\PSoC4/capsense_ADC_Filter.c ****         }
1094:Generated_Source\PSoC4/capsense_ADC_Filter.c ****         else
1095:Generated_Source\PSoC4/capsense_ADC_Filter.c ****         {
1096:Generated_Source\PSoC4/capsense_ADC_Filter.c ****             #if (capsense_ADC_PROXIMITY_SENSOR_EN && capsense_ADC_PROX_RC_MEDIAN_FILTER_EN)
1097:Generated_Source\PSoC4/capsense_ADC_Filter.c ****                 ptrFilterHistObj.ptrProx->proxChannel[freqChannel].medHistory[0u] = ptrSensorObj->r
1098:Generated_Source\PSoC4/capsense_ADC_Filter.c ****                 ptrFilterHistObj.ptrProx->proxChannel[freqChannel].medHistory[1u] = ptrSensorObj->r
1099:Generated_Source\PSoC4/capsense_ADC_Filter.c ****             #endif /* (capsense_ADC_PROXIMITY_SENSOR_EN) */
1100:Generated_Source\PSoC4/capsense_ADC_Filter.c ****         }
1101:Generated_Source\PSoC4/capsense_ADC_Filter.c ****     }
1102:Generated_Source\PSoC4/capsense_ADC_Filter.c **** }
1103:Generated_Source\PSoC4/capsense_ADC_Filter.c **** 
1104:Generated_Source\PSoC4/capsense_ADC_Filter.c **** 
1105:Generated_Source\PSoC4/capsense_ADC_Filter.c **** /*******************************************************************************
1106:Generated_Source\PSoC4/capsense_ADC_Filter.c **** * Function Name: capsense_ADC_RunMedianInternal
1107:Generated_Source\PSoC4/capsense_ADC_Filter.c **** ****************************************************************************//**
1108:Generated_Source\PSoC4/capsense_ADC_Filter.c **** *
1109:Generated_Source\PSoC4/capsense_ADC_Filter.c **** * \brief
1110:Generated_Source\PSoC4/capsense_ADC_Filter.c **** *  Runs the Median filter.
1111:Generated_Source\PSoC4/capsense_ADC_Filter.c **** *
1112:Generated_Source\PSoC4/capsense_ADC_Filter.c **** * \details
1113:Generated_Source\PSoC4/capsense_ADC_Filter.c **** *  Runs the Median filter.
1114:Generated_Source\PSoC4/capsense_ADC_Filter.c **** *
1115:Generated_Source\PSoC4/capsense_ADC_Filter.c **** * \param ptrFilterHistObj
1116:Generated_Source\PSoC4/capsense_ADC_Filter.c **** *  The pointer to the filter RAM object of the sensor.
1117:Generated_Source\PSoC4/capsense_ADC_Filter.c **** *
1118:Generated_Source\PSoC4/capsense_ADC_Filter.c **** * \param ptrSensorObj
1119:Generated_Source\PSoC4/capsense_ADC_Filter.c **** *  The pointer to the sensor RAM object of the sensor.
1120:Generated_Source\PSoC4/capsense_ADC_Filter.c **** *
1121:Generated_Source\PSoC4/capsense_ADC_Filter.c **** * \param wdType
1122:Generated_Source\PSoC4/capsense_ADC_Filter.c **** *  Specifies the type of a widget.
1123:Generated_Source\PSoC4/capsense_ADC_Filter.c **** *
1124:Generated_Source\PSoC4/capsense_ADC_Filter.c **** *******************************************************************************/
1125:Generated_Source\PSoC4/capsense_ADC_Filter.c **** void capsense_ADC_RunMedianInternal(capsense_ADC_PTR_FILTER_VARIANT ptrFilterHistObj,
1126:Generated_Source\PSoC4/capsense_ADC_Filter.c ****                                         capsense_ADC_RAM_SNS_STRUCT *ptrSensorObj, uint32 wdType)
1127:Generated_Source\PSoC4/capsense_ADC_Filter.c **** {
1128:Generated_Source\PSoC4/capsense_ADC_Filter.c ****     uint32 freqChannel;
1129:Generated_Source\PSoC4/capsense_ADC_Filter.c **** 
1130:Generated_Source\PSoC4/capsense_ADC_Filter.c ****     #if ((capsense_ADC_REGULAR_SENSOR_EN && capsense_ADC_REGULAR_RC_MEDIAN_FILTER_EN) || \
1131:Generated_Source\PSoC4/capsense_ADC_Filter.c ****          (capsense_ADC_PROXIMITY_SENSOR_EN && capsense_ADC_PROX_RC_MEDIAN_FILTER_EN))
1132:Generated_Source\PSoC4/capsense_ADC_Filter.c ****         uint32 temp;
1133:Generated_Source\PSoC4/capsense_ADC_Filter.c ****     #endif
1134:Generated_Source\PSoC4/capsense_ADC_Filter.c **** 
1135:Generated_Source\PSoC4/capsense_ADC_Filter.c ****     for(freqChannel = capsense_ADC_NUM_SCAN_FREQS; freqChannel-- > 0u;)
1136:Generated_Source\PSoC4/capsense_ADC_Filter.c ****     {
1137:Generated_Source\PSoC4/capsense_ADC_Filter.c ****         if ((capsense_ADC_WD_TYPE_ENUM)wdType != capsense_ADC_WD_PROXIMITY_E)
1138:Generated_Source\PSoC4/capsense_ADC_Filter.c ****         {
1139:Generated_Source\PSoC4/capsense_ADC_Filter.c ****             #if (capsense_ADC_REGULAR_SENSOR_EN && capsense_ADC_REGULAR_RC_MEDIAN_FILTER_EN)
ARM GAS  C:\Users\ASUS\AppData\Local\Temp\ccJZE5kf.s 			page 29


1140:Generated_Source\PSoC4/capsense_ADC_Filter.c ****                 temp = capsense_ADC_FtMedian((uint32)ptrSensorObj->raw[freqChannel],\
1141:Generated_Source\PSoC4/capsense_ADC_Filter.c ****                                                  (uint32)ptrFilterHistObj.ptrRegular->regularChanne
1142:Generated_Source\PSoC4/capsense_ADC_Filter.c ****                                                  (uint32)ptrFilterHistObj.ptrRegular->regularChanne
1143:Generated_Source\PSoC4/capsense_ADC_Filter.c ****                 ptrFilterHistObj.ptrRegular->regularChannel[freqChannel].medHistory[1u] = \
1144:Generated_Source\PSoC4/capsense_ADC_Filter.c ****                 ptrFilterHistObj.ptrRegular->regularChannel[freqChannel].medHistory[0u];
1145:Generated_Source\PSoC4/capsense_ADC_Filter.c ****                 ptrFilterHistObj.ptrRegular->regularChannel[freqChannel].medHistory[0u] = ptrSensor
1146:Generated_Source\PSoC4/capsense_ADC_Filter.c ****                 ptrSensorObj->raw[freqChannel] = LO16(temp);
1147:Generated_Source\PSoC4/capsense_ADC_Filter.c ****             #endif /* (capsense_ADC_REGULAR_SENSOR_EN) */
1148:Generated_Source\PSoC4/capsense_ADC_Filter.c ****         }
1149:Generated_Source\PSoC4/capsense_ADC_Filter.c ****         else
1150:Generated_Source\PSoC4/capsense_ADC_Filter.c ****         {
1151:Generated_Source\PSoC4/capsense_ADC_Filter.c ****             #if (capsense_ADC_PROXIMITY_SENSOR_EN && capsense_ADC_PROX_RC_MEDIAN_FILTER_EN)
1152:Generated_Source\PSoC4/capsense_ADC_Filter.c ****                 temp = capsense_ADC_FtMedian((uint32)ptrSensorObj->raw[freqChannel],\
1153:Generated_Source\PSoC4/capsense_ADC_Filter.c ****                                                  (uint32)ptrFilterHistObj.ptrProx->proxChannel[freq
1154:Generated_Source\PSoC4/capsense_ADC_Filter.c ****                                                  (uint32)ptrFilterHistObj.ptrProx->proxChannel[freq
1155:Generated_Source\PSoC4/capsense_ADC_Filter.c ****                 ptrFilterHistObj.ptrProx->proxChannel[freqChannel].medHistory[1u] = \
1156:Generated_Source\PSoC4/capsense_ADC_Filter.c ****                 ptrFilterHistObj.ptrProx->proxChannel[freqChannel].medHistory[0u];
1157:Generated_Source\PSoC4/capsense_ADC_Filter.c ****                 ptrFilterHistObj.ptrProx->proxChannel[freqChannel].medHistory[0u] = ptrSensorObj->r
1158:Generated_Source\PSoC4/capsense_ADC_Filter.c ****                 ptrSensorObj->raw[freqChannel] = LO16(temp);
1159:Generated_Source\PSoC4/capsense_ADC_Filter.c ****             #endif /* (capsense_ADC_PROXIMITY_SENSOR_EN) */
1160:Generated_Source\PSoC4/capsense_ADC_Filter.c ****         }
1161:Generated_Source\PSoC4/capsense_ADC_Filter.c ****     }
1162:Generated_Source\PSoC4/capsense_ADC_Filter.c **** }
1163:Generated_Source\PSoC4/capsense_ADC_Filter.c **** #endif /* (capsense_ADC_REGULAR_RC_MEDIAN_FILTER_EN || capsense_ADC_PROX_RC_MEDIAN_FILTER_EN) */
1164:Generated_Source\PSoC4/capsense_ADC_Filter.c **** 
1165:Generated_Source\PSoC4/capsense_ADC_Filter.c **** 
1166:Generated_Source\PSoC4/capsense_ADC_Filter.c **** #if (capsense_ADC_REGULAR_RC_AVERAGE_FILTER_EN || capsense_ADC_PROX_RC_AVERAGE_FILTER_EN)
1167:Generated_Source\PSoC4/capsense_ADC_Filter.c **** 
1168:Generated_Source\PSoC4/capsense_ADC_Filter.c **** /*******************************************************************************
1169:Generated_Source\PSoC4/capsense_ADC_Filter.c **** * Function Name: capsense_ADC_InitializeAverage
1170:Generated_Source\PSoC4/capsense_ADC_Filter.c **** ****************************************************************************//**
1171:Generated_Source\PSoC4/capsense_ADC_Filter.c **** *
1172:Generated_Source\PSoC4/capsense_ADC_Filter.c **** * \brief
1173:Generated_Source\PSoC4/capsense_ADC_Filter.c **** *  Initializes the average filter history.
1174:Generated_Source\PSoC4/capsense_ADC_Filter.c **** *
1175:Generated_Source\PSoC4/capsense_ADC_Filter.c **** * \details
1176:Generated_Source\PSoC4/capsense_ADC_Filter.c **** *  Initializes the average filter history.
1177:Generated_Source\PSoC4/capsense_ADC_Filter.c **** *
1178:Generated_Source\PSoC4/capsense_ADC_Filter.c **** * \param widgetId
1179:Generated_Source\PSoC4/capsense_ADC_Filter.c **** *  Specifies the ID number of the widget.
1180:Generated_Source\PSoC4/capsense_ADC_Filter.c **** *
1181:Generated_Source\PSoC4/capsense_ADC_Filter.c **** * \param sensorId
1182:Generated_Source\PSoC4/capsense_ADC_Filter.c **** *  Specifies the ID number of the sensor in the widget.
1183:Generated_Source\PSoC4/capsense_ADC_Filter.c **** *
1184:Generated_Source\PSoC4/capsense_ADC_Filter.c **** *******************************************************************************/
1185:Generated_Source\PSoC4/capsense_ADC_Filter.c **** void capsense_ADC_InitializeAverage(uint32 widgetId, uint32 sensorId)
1186:Generated_Source\PSoC4/capsense_ADC_Filter.c **** {
1187:Generated_Source\PSoC4/capsense_ADC_Filter.c ****     capsense_ADC_FLASH_WD_STRUCT const *ptrWidget = &capsense_ADC_dsFlash.wdgtArray[widgetId];
1188:Generated_Source\PSoC4/capsense_ADC_Filter.c ****     capsense_ADC_RAM_SNS_STRUCT *ptrSensor = NULL;
1189:Generated_Source\PSoC4/capsense_ADC_Filter.c ****     capsense_ADC_PTR_FILTER_VARIANT ptrFilterHistObj;
1190:Generated_Source\PSoC4/capsense_ADC_Filter.c **** 
1191:Generated_Source\PSoC4/capsense_ADC_Filter.c ****     /* Find pointer to specified sensor object */
1192:Generated_Source\PSoC4/capsense_ADC_Filter.c ****     ptrSensor = ptrWidget->ptr2SnsRam;
1193:Generated_Source\PSoC4/capsense_ADC_Filter.c ****     ptrSensor = &ptrSensor[sensorId];
1194:Generated_Source\PSoC4/capsense_ADC_Filter.c **** 
1195:Generated_Source\PSoC4/capsense_ADC_Filter.c ****     /* Find pointer to specified filter sensor object */
1196:Generated_Source\PSoC4/capsense_ADC_Filter.c ****     ptrFilterHistObj.ptr = ptrWidget->ptr2FltrHistory;
ARM GAS  C:\Users\ASUS\AppData\Local\Temp\ccJZE5kf.s 			page 30


1197:Generated_Source\PSoC4/capsense_ADC_Filter.c **** 
1198:Generated_Source\PSoC4/capsense_ADC_Filter.c ****     if ((capsense_ADC_WD_TYPE_ENUM)ptrWidget->wdgtType != capsense_ADC_WD_PROXIMITY_E)
1199:Generated_Source\PSoC4/capsense_ADC_Filter.c ****     {
1200:Generated_Source\PSoC4/capsense_ADC_Filter.c ****         #if (capsense_ADC_REGULAR_SENSOR_EN)
1201:Generated_Source\PSoC4/capsense_ADC_Filter.c ****             ptrFilterHistObj.ptrRegular = &ptrFilterHistObj.ptrRegular[sensorId];
1202:Generated_Source\PSoC4/capsense_ADC_Filter.c ****         #endif /* (capsense_ADC_REGULAR_SENSOR_EN) */
1203:Generated_Source\PSoC4/capsense_ADC_Filter.c ****     }
1204:Generated_Source\PSoC4/capsense_ADC_Filter.c ****     else
1205:Generated_Source\PSoC4/capsense_ADC_Filter.c ****     {
1206:Generated_Source\PSoC4/capsense_ADC_Filter.c ****         #if (capsense_ADC_PROXIMITY_SENSOR_EN)
1207:Generated_Source\PSoC4/capsense_ADC_Filter.c ****             ptrFilterHistObj.ptrProx = &ptrFilterHistObj.ptrProx[sensorId];
1208:Generated_Source\PSoC4/capsense_ADC_Filter.c ****         #endif /* (capsense_ADC_PROXIMITY_SENSOR_EN) */
1209:Generated_Source\PSoC4/capsense_ADC_Filter.c ****     }
1210:Generated_Source\PSoC4/capsense_ADC_Filter.c **** 
1211:Generated_Source\PSoC4/capsense_ADC_Filter.c ****     capsense_ADC_InitializeAverageInternal(ptrFilterHistObj, ptrSensor, (uint32)ptrWidget->wdgtType
1212:Generated_Source\PSoC4/capsense_ADC_Filter.c **** }
1213:Generated_Source\PSoC4/capsense_ADC_Filter.c **** 
1214:Generated_Source\PSoC4/capsense_ADC_Filter.c **** 
1215:Generated_Source\PSoC4/capsense_ADC_Filter.c **** /*******************************************************************************
1216:Generated_Source\PSoC4/capsense_ADC_Filter.c **** * Function Name: capsense_ADC_RunAverage
1217:Generated_Source\PSoC4/capsense_ADC_Filter.c **** ****************************************************************************//**
1218:Generated_Source\PSoC4/capsense_ADC_Filter.c **** *
1219:Generated_Source\PSoC4/capsense_ADC_Filter.c **** * \brief
1220:Generated_Source\PSoC4/capsense_ADC_Filter.c **** *  Executes the average filter algorithm on a sensor indicated by an input
1221:Generated_Source\PSoC4/capsense_ADC_Filter.c **** *  parameter.
1222:Generated_Source\PSoC4/capsense_ADC_Filter.c **** *
1223:Generated_Source\PSoC4/capsense_ADC_Filter.c **** * \details
1224:Generated_Source\PSoC4/capsense_ADC_Filter.c **** *  Executes the average filter algorithm on a sensor indicated by an input
1225:Generated_Source\PSoC4/capsense_ADC_Filter.c **** *  parameter.
1226:Generated_Source\PSoC4/capsense_ADC_Filter.c **** *
1227:Generated_Source\PSoC4/capsense_ADC_Filter.c **** * \param widgetId
1228:Generated_Source\PSoC4/capsense_ADC_Filter.c **** *  Specifies the ID number of the widget.
1229:Generated_Source\PSoC4/capsense_ADC_Filter.c **** *
1230:Generated_Source\PSoC4/capsense_ADC_Filter.c **** * \param sensorId
1231:Generated_Source\PSoC4/capsense_ADC_Filter.c **** *  Specifies the ID number of the sensor in the widget.
1232:Generated_Source\PSoC4/capsense_ADC_Filter.c **** *
1233:Generated_Source\PSoC4/capsense_ADC_Filter.c **** *******************************************************************************/
1234:Generated_Source\PSoC4/capsense_ADC_Filter.c **** void capsense_ADC_RunAverage(uint32 widgetId, uint32 sensorId)
1235:Generated_Source\PSoC4/capsense_ADC_Filter.c **** {
1236:Generated_Source\PSoC4/capsense_ADC_Filter.c ****     capsense_ADC_FLASH_WD_STRUCT const *ptrWidget = &capsense_ADC_dsFlash.wdgtArray[widgetId];
1237:Generated_Source\PSoC4/capsense_ADC_Filter.c ****     capsense_ADC_RAM_SNS_STRUCT *ptrSensor = NULL;
1238:Generated_Source\PSoC4/capsense_ADC_Filter.c ****     capsense_ADC_PTR_FILTER_VARIANT ptrFilterHistObj;
1239:Generated_Source\PSoC4/capsense_ADC_Filter.c **** 
1240:Generated_Source\PSoC4/capsense_ADC_Filter.c ****     /* Find pointer to specified sensor object */
1241:Generated_Source\PSoC4/capsense_ADC_Filter.c ****     ptrSensor = ptrWidget->ptr2SnsRam;
1242:Generated_Source\PSoC4/capsense_ADC_Filter.c ****     ptrSensor = &ptrSensor[sensorId];
1243:Generated_Source\PSoC4/capsense_ADC_Filter.c **** 
1244:Generated_Source\PSoC4/capsense_ADC_Filter.c ****     /* Find pointer to specified filter sensor object */
1245:Generated_Source\PSoC4/capsense_ADC_Filter.c ****     ptrFilterHistObj.ptr = ptrWidget->ptr2FltrHistory;
1246:Generated_Source\PSoC4/capsense_ADC_Filter.c **** 
1247:Generated_Source\PSoC4/capsense_ADC_Filter.c ****     if ((capsense_ADC_WD_TYPE_ENUM)ptrWidget->wdgtType != capsense_ADC_WD_PROXIMITY_E)
1248:Generated_Source\PSoC4/capsense_ADC_Filter.c ****     {
1249:Generated_Source\PSoC4/capsense_ADC_Filter.c ****         #if (capsense_ADC_REGULAR_SENSOR_EN)
1250:Generated_Source\PSoC4/capsense_ADC_Filter.c ****             ptrFilterHistObj.ptrRegular = &ptrFilterHistObj.ptrRegular[sensorId];
1251:Generated_Source\PSoC4/capsense_ADC_Filter.c ****         #endif /* (capsense_ADC_REGULAR_SENSOR_EN) */
1252:Generated_Source\PSoC4/capsense_ADC_Filter.c ****     }
1253:Generated_Source\PSoC4/capsense_ADC_Filter.c ****     else
ARM GAS  C:\Users\ASUS\AppData\Local\Temp\ccJZE5kf.s 			page 31


1254:Generated_Source\PSoC4/capsense_ADC_Filter.c ****     {
1255:Generated_Source\PSoC4/capsense_ADC_Filter.c ****         #if (capsense_ADC_PROXIMITY_SENSOR_EN)
1256:Generated_Source\PSoC4/capsense_ADC_Filter.c ****             ptrFilterHistObj.ptrProx = &ptrFilterHistObj.ptrProx[sensorId];
1257:Generated_Source\PSoC4/capsense_ADC_Filter.c ****         #endif /* (capsense_ADC_PROXIMITY_SENSOR_EN) */
1258:Generated_Source\PSoC4/capsense_ADC_Filter.c ****     }
1259:Generated_Source\PSoC4/capsense_ADC_Filter.c **** 
1260:Generated_Source\PSoC4/capsense_ADC_Filter.c ****     capsense_ADC_RunAverageInternal(ptrFilterHistObj, ptrSensor, (uint32)ptrWidget->wdgtType);
1261:Generated_Source\PSoC4/capsense_ADC_Filter.c **** }
1262:Generated_Source\PSoC4/capsense_ADC_Filter.c **** 
1263:Generated_Source\PSoC4/capsense_ADC_Filter.c **** 
1264:Generated_Source\PSoC4/capsense_ADC_Filter.c **** /*******************************************************************************
1265:Generated_Source\PSoC4/capsense_ADC_Filter.c **** * Function Name: capsense_ADC_InitializeAverageInternal
1266:Generated_Source\PSoC4/capsense_ADC_Filter.c **** ****************************************************************************//**
1267:Generated_Source\PSoC4/capsense_ADC_Filter.c **** *
1268:Generated_Source\PSoC4/capsense_ADC_Filter.c **** * \brief
1269:Generated_Source\PSoC4/capsense_ADC_Filter.c **** *  Initializes the average filter.
1270:Generated_Source\PSoC4/capsense_ADC_Filter.c **** *
1271:Generated_Source\PSoC4/capsense_ADC_Filter.c **** * \details
1272:Generated_Source\PSoC4/capsense_ADC_Filter.c **** *  Initializes the average filter.
1273:Generated_Source\PSoC4/capsense_ADC_Filter.c **** *
1274:Generated_Source\PSoC4/capsense_ADC_Filter.c **** * \param ptrFilterHistObj
1275:Generated_Source\PSoC4/capsense_ADC_Filter.c **** *  The pointer to the filter RAM object of the sensor.
1276:Generated_Source\PSoC4/capsense_ADC_Filter.c **** *
1277:Generated_Source\PSoC4/capsense_ADC_Filter.c **** * \param ptrSensorObj
1278:Generated_Source\PSoC4/capsense_ADC_Filter.c **** *  The pointer to the sensor RAM object of the sensor.
1279:Generated_Source\PSoC4/capsense_ADC_Filter.c **** *
1280:Generated_Source\PSoC4/capsense_ADC_Filter.c **** * \param wdType
1281:Generated_Source\PSoC4/capsense_ADC_Filter.c **** *  Specifies the type of a widget.
1282:Generated_Source\PSoC4/capsense_ADC_Filter.c **** *
1283:Generated_Source\PSoC4/capsense_ADC_Filter.c **** *******************************************************************************/
1284:Generated_Source\PSoC4/capsense_ADC_Filter.c **** void capsense_ADC_InitializeAverageInternal(capsense_ADC_PTR_FILTER_VARIANT ptrFilterHistObj,\
1285:Generated_Source\PSoC4/capsense_ADC_Filter.c ****                                                   capsense_ADC_RAM_SNS_STRUCT *ptrSensorObj, uint32
1286:Generated_Source\PSoC4/capsense_ADC_Filter.c **** {
1287:Generated_Source\PSoC4/capsense_ADC_Filter.c ****     uint32 freqChannel;
1288:Generated_Source\PSoC4/capsense_ADC_Filter.c **** 
1289:Generated_Source\PSoC4/capsense_ADC_Filter.c ****     for(freqChannel = capsense_ADC_NUM_SCAN_FREQS; freqChannel-- > 0u;)
1290:Generated_Source\PSoC4/capsense_ADC_Filter.c ****     {
1291:Generated_Source\PSoC4/capsense_ADC_Filter.c ****         if ((capsense_ADC_WD_TYPE_ENUM)wdType != capsense_ADC_WD_PROXIMITY_E)
1292:Generated_Source\PSoC4/capsense_ADC_Filter.c ****         {
1293:Generated_Source\PSoC4/capsense_ADC_Filter.c ****             #if (capsense_ADC_REGULAR_SENSOR_EN && capsense_ADC_REGULAR_RC_AVERAGE_FILTER_EN)
1294:Generated_Source\PSoC4/capsense_ADC_Filter.c ****                 ptrFilterHistObj.ptrRegular->regularChannel[freqChannel].avgHistory[0] = ptrSensorO
1295:Generated_Source\PSoC4/capsense_ADC_Filter.c ****                 #if (capsense_ADC_REGULAR_AVERAGE_LEN == capsense_ADC_AVERAGE_FILTER_LEN_4)
1296:Generated_Source\PSoC4/capsense_ADC_Filter.c ****                     ptrFilterHistObj.ptrRegular->regularChannel[freqChannel].avgHistory[1u] = ptrSe
1297:Generated_Source\PSoC4/capsense_ADC_Filter.c ****                     ptrFilterHistObj.ptrRegular->regularChannel[freqChannel].avgHistory[2u] = ptrSe
1298:Generated_Source\PSoC4/capsense_ADC_Filter.c ****                 #endif /* capsense_ADC_REGULAR_AVERAGE_LEN == capsense_ADC_AVERAGE_FILTER_LEN_4 */
1299:Generated_Source\PSoC4/capsense_ADC_Filter.c ****             #endif /* (capsense_ADC_REGULAR_SENSOR_EN) */
1300:Generated_Source\PSoC4/capsense_ADC_Filter.c ****         }
1301:Generated_Source\PSoC4/capsense_ADC_Filter.c ****         else
1302:Generated_Source\PSoC4/capsense_ADC_Filter.c ****         {
1303:Generated_Source\PSoC4/capsense_ADC_Filter.c ****             #if (capsense_ADC_PROXIMITY_SENSOR_EN && capsense_ADC_PROX_RC_AVERAGE_FILTER_EN)
1304:Generated_Source\PSoC4/capsense_ADC_Filter.c ****                 ptrFilterHistObj.ptrProx->proxChannel[freqChannel].avgHistory[0] = ptrSensorObj->ra
1305:Generated_Source\PSoC4/capsense_ADC_Filter.c ****                     #if (capsense_ADC_PROX_AVERAGE_LEN == capsense_ADC_AVERAGE_FILTER_LEN_4)
1306:Generated_Source\PSoC4/capsense_ADC_Filter.c ****                         ptrFilterHistObj.ptrProx->proxChannel[freqChannel].avgHistory[1u] = ptrSens
1307:Generated_Source\PSoC4/capsense_ADC_Filter.c ****                         ptrFilterHistObj.ptrProx->proxChannel[freqChannel].avgHistory[2u] = ptrSens
1308:Generated_Source\PSoC4/capsense_ADC_Filter.c ****                     #endif /* capsense_ADC_REGULAR_AVERAGE_LEN == capsense_ADC_AVERAGE_FILTER_LEN_4
1309:Generated_Source\PSoC4/capsense_ADC_Filter.c ****             #endif /* (capsense_ADC_PROXIMITY_SENSOR_EN) */
1310:Generated_Source\PSoC4/capsense_ADC_Filter.c ****         }
ARM GAS  C:\Users\ASUS\AppData\Local\Temp\ccJZE5kf.s 			page 32


1311:Generated_Source\PSoC4/capsense_ADC_Filter.c ****     }
1312:Generated_Source\PSoC4/capsense_ADC_Filter.c **** }
1313:Generated_Source\PSoC4/capsense_ADC_Filter.c **** 
1314:Generated_Source\PSoC4/capsense_ADC_Filter.c **** 
1315:Generated_Source\PSoC4/capsense_ADC_Filter.c **** /*******************************************************************************
1316:Generated_Source\PSoC4/capsense_ADC_Filter.c **** * Function Name: capsense_ADC_RunAverageInternal
1317:Generated_Source\PSoC4/capsense_ADC_Filter.c **** ****************************************************************************//**
1318:Generated_Source\PSoC4/capsense_ADC_Filter.c **** *
1319:Generated_Source\PSoC4/capsense_ADC_Filter.c **** * \brief
1320:Generated_Source\PSoC4/capsense_ADC_Filter.c **** *  Runs the average filter.
1321:Generated_Source\PSoC4/capsense_ADC_Filter.c **** *
1322:Generated_Source\PSoC4/capsense_ADC_Filter.c **** * \details
1323:Generated_Source\PSoC4/capsense_ADC_Filter.c **** *  Runs the average filter.
1324:Generated_Source\PSoC4/capsense_ADC_Filter.c **** *
1325:Generated_Source\PSoC4/capsense_ADC_Filter.c **** * \param ptrFilterHistObj
1326:Generated_Source\PSoC4/capsense_ADC_Filter.c **** *  The pointer to the filter RAM object of the sensor.
1327:Generated_Source\PSoC4/capsense_ADC_Filter.c **** *
1328:Generated_Source\PSoC4/capsense_ADC_Filter.c **** * \param ptrSensorObj
1329:Generated_Source\PSoC4/capsense_ADC_Filter.c **** *  The pointer to the sensor RAM object of the sensor.
1330:Generated_Source\PSoC4/capsense_ADC_Filter.c **** *
1331:Generated_Source\PSoC4/capsense_ADC_Filter.c **** * \param wdType
1332:Generated_Source\PSoC4/capsense_ADC_Filter.c **** *  Specifies the type of a widget.
1333:Generated_Source\PSoC4/capsense_ADC_Filter.c **** *
1334:Generated_Source\PSoC4/capsense_ADC_Filter.c **** *******************************************************************************/
1335:Generated_Source\PSoC4/capsense_ADC_Filter.c **** void capsense_ADC_RunAverageInternal(capsense_ADC_PTR_FILTER_VARIANT ptrFilterHistObj,\
1336:Generated_Source\PSoC4/capsense_ADC_Filter.c ****                                            capsense_ADC_RAM_SNS_STRUCT *ptrSensorObj, uint32 wdType
1337:Generated_Source\PSoC4/capsense_ADC_Filter.c **** {
1338:Generated_Source\PSoC4/capsense_ADC_Filter.c ****     uint32 freqChannel;
1339:Generated_Source\PSoC4/capsense_ADC_Filter.c ****     uint32 temp;
1340:Generated_Source\PSoC4/capsense_ADC_Filter.c **** 
1341:Generated_Source\PSoC4/capsense_ADC_Filter.c ****     for(freqChannel = capsense_ADC_NUM_SCAN_FREQS; freqChannel-- > 0u;)
1342:Generated_Source\PSoC4/capsense_ADC_Filter.c ****     {
1343:Generated_Source\PSoC4/capsense_ADC_Filter.c ****         if ((capsense_ADC_WD_TYPE_ENUM)wdType != capsense_ADC_WD_PROXIMITY_E)
1344:Generated_Source\PSoC4/capsense_ADC_Filter.c ****         {
1345:Generated_Source\PSoC4/capsense_ADC_Filter.c ****             #if (capsense_ADC_REGULAR_SENSOR_EN && capsense_ADC_REGULAR_RC_AVERAGE_FILTER_EN)
1346:Generated_Source\PSoC4/capsense_ADC_Filter.c ****                 #if (capsense_ADC_REGULAR_AVERAGE_LEN == capsense_ADC_AVERAGE_FILTER_LEN_2)
1347:Generated_Source\PSoC4/capsense_ADC_Filter.c ****                     temp = ((uint32)ptrSensorObj->raw[freqChannel] +
1348:Generated_Source\PSoC4/capsense_ADC_Filter.c ****                             (uint32)ptrFilterHistObj.ptrRegular->regularChannel[freqChannel].avgHis
1349:Generated_Source\PSoC4/capsense_ADC_Filter.c ****                     ptrFilterHistObj.ptrRegular->regularChannel[freqChannel].avgHistory[0] = ptrSen
1350:Generated_Source\PSoC4/capsense_ADC_Filter.c ****                     ptrSensorObj->raw[freqChannel] = LO16(temp);
1351:Generated_Source\PSoC4/capsense_ADC_Filter.c ****                 #else
1352:Generated_Source\PSoC4/capsense_ADC_Filter.c ****                     temp = ((uint32)ptrSensorObj->raw[freqChannel] +
1353:Generated_Source\PSoC4/capsense_ADC_Filter.c ****                             (uint32)ptrFilterHistObj.ptrRegular->regularChannel[freqChannel].avgHis
1354:Generated_Source\PSoC4/capsense_ADC_Filter.c ****                             (uint32)ptrFilterHistObj.ptrRegular->regularChannel[freqChannel].avgHis
1355:Generated_Source\PSoC4/capsense_ADC_Filter.c ****                             (uint32)ptrFilterHistObj.ptrRegular->regularChannel[freqChannel].avgHis
1356:Generated_Source\PSoC4/capsense_ADC_Filter.c **** 
1357:Generated_Source\PSoC4/capsense_ADC_Filter.c ****                     ptrFilterHistObj.ptrRegular->regularChannel[freqChannel].avgHistory[2u] =
1358:Generated_Source\PSoC4/capsense_ADC_Filter.c ****                     ptrFilterHistObj.ptrRegular->regularChannel[freqChannel].avgHistory[1u];
1359:Generated_Source\PSoC4/capsense_ADC_Filter.c ****                     ptrFilterHistObj.ptrRegular->regularChannel[freqChannel].avgHistory[1u] =
1360:Generated_Source\PSoC4/capsense_ADC_Filter.c ****                     ptrFilterHistObj.ptrRegular->regularChannel[freqChannel].avgHistory[0];
1361:Generated_Source\PSoC4/capsense_ADC_Filter.c ****                     ptrFilterHistObj.ptrRegular->regularChannel[freqChannel].avgHistory[0] = ptrSen
1362:Generated_Source\PSoC4/capsense_ADC_Filter.c ****                     ptrSensorObj->raw[freqChannel] = LO16(temp);
1363:Generated_Source\PSoC4/capsense_ADC_Filter.c ****                 #endif /* capsense_ADC_REGULAR_AVERAGE_LEN == capsense_ADC_AVERAGE_FILTER_LEN_4 */
1364:Generated_Source\PSoC4/capsense_ADC_Filter.c ****             #endif /* (capsense_ADC_REGULAR_SENSOR_EN) */
1365:Generated_Source\PSoC4/capsense_ADC_Filter.c ****         }
1366:Generated_Source\PSoC4/capsense_ADC_Filter.c ****         else
1367:Generated_Source\PSoC4/capsense_ADC_Filter.c ****         {
ARM GAS  C:\Users\ASUS\AppData\Local\Temp\ccJZE5kf.s 			page 33


1368:Generated_Source\PSoC4/capsense_ADC_Filter.c ****             #if (capsense_ADC_PROXIMITY_SENSOR_EN && capsense_ADC_PROX_RC_AVERAGE_FILTER_EN)
1369:Generated_Source\PSoC4/capsense_ADC_Filter.c ****                 #if (capsense_ADC_PROX_AVERAGE_LEN == capsense_ADC_AVERAGE_FILTER_LEN_2)
1370:Generated_Source\PSoC4/capsense_ADC_Filter.c ****                     temp = ((uint32)ptrSensorObj->raw[freqChannel] +
1371:Generated_Source\PSoC4/capsense_ADC_Filter.c ****                             (uint32)ptrFilterHistObj.ptrProx->proxChannel[freqChannel].avgHistory[0
1372:Generated_Source\PSoC4/capsense_ADC_Filter.c ****                     ptrFilterHistObj.ptrProx->proxChannel[freqChannel].avgHistory[0] = ptrSensorObj
1373:Generated_Source\PSoC4/capsense_ADC_Filter.c ****                     ptrSensorObj->raw[freqChannel] = LO16(temp);
1374:Generated_Source\PSoC4/capsense_ADC_Filter.c ****                 #else
1375:Generated_Source\PSoC4/capsense_ADC_Filter.c ****                     temp = ((uint32)ptrSensorObj->raw[freqChannel] +
1376:Generated_Source\PSoC4/capsense_ADC_Filter.c ****                             (uint32)ptrFilterHistObj.ptrProx->proxChannel[freqChannel].avgHistory[0
1377:Generated_Source\PSoC4/capsense_ADC_Filter.c ****                             (uint32)ptrFilterHistObj.ptrProx->proxChannel[freqChannel].avgHistory[1
1378:Generated_Source\PSoC4/capsense_ADC_Filter.c ****                             (uint32)ptrFilterHistObj.ptrProx->proxChannel[freqChannel].avgHistory[2
1379:Generated_Source\PSoC4/capsense_ADC_Filter.c **** 
1380:Generated_Source\PSoC4/capsense_ADC_Filter.c ****                     ptrFilterHistObj.ptrProx->proxChannel[freqChannel].avgHistory[2u] =
1381:Generated_Source\PSoC4/capsense_ADC_Filter.c ****                     ptrFilterHistObj.ptrProx->proxChannel[freqChannel].avgHistory[1u];
1382:Generated_Source\PSoC4/capsense_ADC_Filter.c ****                     ptrFilterHistObj.ptrProx->proxChannel[freqChannel].avgHistory[1u] =
1383:Generated_Source\PSoC4/capsense_ADC_Filter.c ****                     ptrFilterHistObj.ptrProx->proxChannel[freqChannel].avgHistory[0];
1384:Generated_Source\PSoC4/capsense_ADC_Filter.c ****                     ptrFilterHistObj.ptrProx->proxChannel[freqChannel].avgHistory[0] = ptrSensorObj
1385:Generated_Source\PSoC4/capsense_ADC_Filter.c ****                     ptrSensorObj->raw[freqChannel] = LO16(temp);
1386:Generated_Source\PSoC4/capsense_ADC_Filter.c ****                 #endif /* capsense_ADC_PROX_AVERAGE_LEN == capsense_ADC_AVERAGE_FILTER_LEN_4 */
1387:Generated_Source\PSoC4/capsense_ADC_Filter.c ****             #endif /* (capsense_ADC_PROXIMITY_SENSOR_EN) */
1388:Generated_Source\PSoC4/capsense_ADC_Filter.c ****         }
1389:Generated_Source\PSoC4/capsense_ADC_Filter.c ****     }
1390:Generated_Source\PSoC4/capsense_ADC_Filter.c **** }
1391:Generated_Source\PSoC4/capsense_ADC_Filter.c **** #endif /* (capsense_ADC_REGULAR_RC_AVERAGE_FILTER_EN || capsense_ADC_PROX_RC_AVERAGE_FILTER_EN) */
1392:Generated_Source\PSoC4/capsense_ADC_Filter.c **** 
1393:Generated_Source\PSoC4/capsense_ADC_Filter.c **** #if (capsense_ADC_ENABLE == capsense_ADC_ALP_FILTER_EN)
1394:Generated_Source\PSoC4/capsense_ADC_Filter.c **** /*******************************************************************************
1395:Generated_Source\PSoC4/capsense_ADC_Filter.c **** * Function Name: capsense_ADC_InitializeALP
1396:Generated_Source\PSoC4/capsense_ADC_Filter.c **** ****************************************************************************//**
1397:Generated_Source\PSoC4/capsense_ADC_Filter.c **** *
1398:Generated_Source\PSoC4/capsense_ADC_Filter.c **** * \brief
1399:Generated_Source\PSoC4/capsense_ADC_Filter.c **** *  Initializes the ALP filter history.
1400:Generated_Source\PSoC4/capsense_ADC_Filter.c **** *
1401:Generated_Source\PSoC4/capsense_ADC_Filter.c **** * \details
1402:Generated_Source\PSoC4/capsense_ADC_Filter.c **** *  Initializes the ALP filter history.
1403:Generated_Source\PSoC4/capsense_ADC_Filter.c **** *
1404:Generated_Source\PSoC4/capsense_ADC_Filter.c **** * \param widgetId
1405:Generated_Source\PSoC4/capsense_ADC_Filter.c **** *  Specifies the ID number of the widget.
1406:Generated_Source\PSoC4/capsense_ADC_Filter.c **** *
1407:Generated_Source\PSoC4/capsense_ADC_Filter.c **** * \param sensorId
1408:Generated_Source\PSoC4/capsense_ADC_Filter.c **** *  Specifies the ID number of the sensor in the widget.
1409:Generated_Source\PSoC4/capsense_ADC_Filter.c **** *
1410:Generated_Source\PSoC4/capsense_ADC_Filter.c **** *******************************************************************************/
1411:Generated_Source\PSoC4/capsense_ADC_Filter.c **** void capsense_ADC_InitializeALP(uint32 widgetId, uint32 sensorId)
1412:Generated_Source\PSoC4/capsense_ADC_Filter.c **** {
1413:Generated_Source\PSoC4/capsense_ADC_Filter.c ****     capsense_ADC_FLASH_WD_STRUCT const *ptrWidget = &capsense_ADC_dsFlash.wdgtArray[widgetId];
1414:Generated_Source\PSoC4/capsense_ADC_Filter.c ****     capsense_ADC_RAM_SNS_STRUCT *ptrSensor = NULL;
1415:Generated_Source\PSoC4/capsense_ADC_Filter.c ****     capsense_ADC_PTR_FILTER_VARIANT ptrFilterHistObj;
1416:Generated_Source\PSoC4/capsense_ADC_Filter.c **** 
1417:Generated_Source\PSoC4/capsense_ADC_Filter.c ****     /* Find pointer to specified sensor object */
1418:Generated_Source\PSoC4/capsense_ADC_Filter.c ****     ptrSensor = ptrWidget->ptr2SnsRam;
1419:Generated_Source\PSoC4/capsense_ADC_Filter.c ****     ptrSensor = &ptrSensor[sensorId];
1420:Generated_Source\PSoC4/capsense_ADC_Filter.c **** 
1421:Generated_Source\PSoC4/capsense_ADC_Filter.c ****     /* Find pointer to specified filter sensor object */
1422:Generated_Source\PSoC4/capsense_ADC_Filter.c ****     ptrFilterHistObj.ptr = ptrWidget->ptr2FltrHistory;
1423:Generated_Source\PSoC4/capsense_ADC_Filter.c ****     ptrFilterHistObj.ptrAlp = &ptrFilterHistObj.ptrAlp[sensorId];
1424:Generated_Source\PSoC4/capsense_ADC_Filter.c ****     capsense_ADC_InitializeALPInternal(ptrFilterHistObj, ptrSensor, (uint32)ptrWidget->wdgtType);
ARM GAS  C:\Users\ASUS\AppData\Local\Temp\ccJZE5kf.s 			page 34


1425:Generated_Source\PSoC4/capsense_ADC_Filter.c **** }
1426:Generated_Source\PSoC4/capsense_ADC_Filter.c **** 
1427:Generated_Source\PSoC4/capsense_ADC_Filter.c **** 
1428:Generated_Source\PSoC4/capsense_ADC_Filter.c **** /*******************************************************************************
1429:Generated_Source\PSoC4/capsense_ADC_Filter.c **** * Function Name: capsense_ADC_RunALP
1430:Generated_Source\PSoC4/capsense_ADC_Filter.c **** ****************************************************************************//**
1431:Generated_Source\PSoC4/capsense_ADC_Filter.c **** *
1432:Generated_Source\PSoC4/capsense_ADC_Filter.c **** * \brief
1433:Generated_Source\PSoC4/capsense_ADC_Filter.c **** *  Executes the ALP filter algorithm on a sensor indicated by an input
1434:Generated_Source\PSoC4/capsense_ADC_Filter.c **** *  parameter.
1435:Generated_Source\PSoC4/capsense_ADC_Filter.c **** *
1436:Generated_Source\PSoC4/capsense_ADC_Filter.c **** * \details
1437:Generated_Source\PSoC4/capsense_ADC_Filter.c **** *  Executes the ALP filter algorithm on a sensor indicated by an input
1438:Generated_Source\PSoC4/capsense_ADC_Filter.c **** *  parameter.
1439:Generated_Source\PSoC4/capsense_ADC_Filter.c **** *
1440:Generated_Source\PSoC4/capsense_ADC_Filter.c **** * \param widgetId
1441:Generated_Source\PSoC4/capsense_ADC_Filter.c **** *  Specifies the ID number of the widget.
1442:Generated_Source\PSoC4/capsense_ADC_Filter.c **** *
1443:Generated_Source\PSoC4/capsense_ADC_Filter.c **** * \param sensorId
1444:Generated_Source\PSoC4/capsense_ADC_Filter.c **** *  Specifies the ID number of the sensor in the widget.
1445:Generated_Source\PSoC4/capsense_ADC_Filter.c **** *
1446:Generated_Source\PSoC4/capsense_ADC_Filter.c **** *******************************************************************************/
1447:Generated_Source\PSoC4/capsense_ADC_Filter.c **** void capsense_ADC_RunALP(uint32 widgetId, uint32 sensorId)
1448:Generated_Source\PSoC4/capsense_ADC_Filter.c **** {
1449:Generated_Source\PSoC4/capsense_ADC_Filter.c ****     capsense_ADC_FLASH_WD_STRUCT const *ptrWidget = &capsense_ADC_dsFlash.wdgtArray[widgetId];
1450:Generated_Source\PSoC4/capsense_ADC_Filter.c ****     capsense_ADC_RAM_SNS_STRUCT *ptrSensor = NULL;
1451:Generated_Source\PSoC4/capsense_ADC_Filter.c ****     capsense_ADC_PTR_FILTER_VARIANT ptrFilterHistObj;
1452:Generated_Source\PSoC4/capsense_ADC_Filter.c ****     ALP_FLTR_CONFIG_STRUCT alpFilterConfig;
1453:Generated_Source\PSoC4/capsense_ADC_Filter.c ****     ALP_FLTR_CONFIG_STRUCT *ptrAlpFilterConfig = &alpFilterConfig;
1454:Generated_Source\PSoC4/capsense_ADC_Filter.c ****     capsense_ADC_RAM_WD_BASE_STRUCT *ptrRamWidget = ptrWidget->ptr2WdgtRam;
1455:Generated_Source\PSoC4/capsense_ADC_Filter.c **** 
1456:Generated_Source\PSoC4/capsense_ADC_Filter.c ****     /* Find pointer to specified sensor object */
1457:Generated_Source\PSoC4/capsense_ADC_Filter.c ****     ptrSensor = ptrWidget->ptr2SnsRam;
1458:Generated_Source\PSoC4/capsense_ADC_Filter.c ****     ptrSensor = &ptrSensor[sensorId];
1459:Generated_Source\PSoC4/capsense_ADC_Filter.c **** 
1460:Generated_Source\PSoC4/capsense_ADC_Filter.c ****     ptrAlpFilterConfig->configParam0 = ptrRamWidget->alpOnTh;
1461:Generated_Source\PSoC4/capsense_ADC_Filter.c ****     ptrAlpFilterConfig->configParam1 = ptrRamWidget->alpOffTh;
1462:Generated_Source\PSoC4/capsense_ADC_Filter.c ****     ptrAlpFilterConfig->configParam2 = ptrRamWidget->fingerTh;
1463:Generated_Source\PSoC4/capsense_ADC_Filter.c ****     ptrAlpFilterConfig->configParam3 = ptrRamWidget->noiseTh;
1464:Generated_Source\PSoC4/capsense_ADC_Filter.c ****     ptrAlpFilterConfig->configParam4 = ptrRamWidget->hysteresis;
1465:Generated_Source\PSoC4/capsense_ADC_Filter.c **** 
1466:Generated_Source\PSoC4/capsense_ADC_Filter.c ****     /* Find pointer to specified filter sensor object */
1467:Generated_Source\PSoC4/capsense_ADC_Filter.c ****     ptrFilterHistObj.ptr = ptrWidget->ptr2FltrHistory;
1468:Generated_Source\PSoC4/capsense_ADC_Filter.c ****     ptrFilterHistObj.ptrAlp = &ptrFilterHistObj.ptrAlp[sensorId];
1469:Generated_Source\PSoC4/capsense_ADC_Filter.c **** 
1470:Generated_Source\PSoC4/capsense_ADC_Filter.c ****     if ((capsense_ADC_WD_TYPE_ENUM)ptrWidget->wdgtType != capsense_ADC_WD_PROXIMITY_E)
1471:Generated_Source\PSoC4/capsense_ADC_Filter.c ****     {
1472:Generated_Source\PSoC4/capsense_ADC_Filter.c ****         #if (capsense_ADC_REGULAR_SENSOR_EN)
1473:Generated_Source\PSoC4/capsense_ADC_Filter.c ****             ptrAlpFilterConfig->configParam5 = capsense_ADC_REGULAR_RC_ALP_FILTER_COEFF;
1474:Generated_Source\PSoC4/capsense_ADC_Filter.c ****         #endif /* (capsense_ADC_REGULAR_SENSOR_EN) */
1475:Generated_Source\PSoC4/capsense_ADC_Filter.c ****     }
1476:Generated_Source\PSoC4/capsense_ADC_Filter.c ****     else
1477:Generated_Source\PSoC4/capsense_ADC_Filter.c ****     {
1478:Generated_Source\PSoC4/capsense_ADC_Filter.c ****         #if (capsense_ADC_PROXIMITY_SENSOR_EN)
1479:Generated_Source\PSoC4/capsense_ADC_Filter.c ****             ptrAlpFilterConfig->configParam5 = capsense_ADC_PROX_RC_ALP_FILTER_COEFF;
1480:Generated_Source\PSoC4/capsense_ADC_Filter.c ****         #endif /* (capsense_ADC_PROXIMITY_SENSOR_EN) */
1481:Generated_Source\PSoC4/capsense_ADC_Filter.c ****     }
ARM GAS  C:\Users\ASUS\AppData\Local\Temp\ccJZE5kf.s 			page 35


1482:Generated_Source\PSoC4/capsense_ADC_Filter.c ****     capsense_ADC_RunALPInternal(ptrFilterHistObj, ptrAlpFilterConfig, ptrSensor, (uint32)ptrWidget-
1483:Generated_Source\PSoC4/capsense_ADC_Filter.c **** }
1484:Generated_Source\PSoC4/capsense_ADC_Filter.c **** 
1485:Generated_Source\PSoC4/capsense_ADC_Filter.c **** 
1486:Generated_Source\PSoC4/capsense_ADC_Filter.c **** /*******************************************************************************
1487:Generated_Source\PSoC4/capsense_ADC_Filter.c **** * Function Name: capsense_ADC_InitializeALPInternal
1488:Generated_Source\PSoC4/capsense_ADC_Filter.c **** ****************************************************************************//**
1489:Generated_Source\PSoC4/capsense_ADC_Filter.c **** *
1490:Generated_Source\PSoC4/capsense_ADC_Filter.c **** * \brief
1491:Generated_Source\PSoC4/capsense_ADC_Filter.c **** *  Initializes the ALP filter.
1492:Generated_Source\PSoC4/capsense_ADC_Filter.c **** *
1493:Generated_Source\PSoC4/capsense_ADC_Filter.c **** * \details
1494:Generated_Source\PSoC4/capsense_ADC_Filter.c **** *  Initializes the ALP filter.
1495:Generated_Source\PSoC4/capsense_ADC_Filter.c **** *
1496:Generated_Source\PSoC4/capsense_ADC_Filter.c **** * \param ptrFilterHistObj
1497:Generated_Source\PSoC4/capsense_ADC_Filter.c **** *  The pointer to the filter RAM object of the sensor.
1498:Generated_Source\PSoC4/capsense_ADC_Filter.c **** *
1499:Generated_Source\PSoC4/capsense_ADC_Filter.c **** * \param ptrSensorObj
1500:Generated_Source\PSoC4/capsense_ADC_Filter.c **** *  The pointer to the sensor RAM object of the sensor.
1501:Generated_Source\PSoC4/capsense_ADC_Filter.c **** *
1502:Generated_Source\PSoC4/capsense_ADC_Filter.c **** * \param wdType
1503:Generated_Source\PSoC4/capsense_ADC_Filter.c **** *  Specifies the type of a widget.
1504:Generated_Source\PSoC4/capsense_ADC_Filter.c **** *
1505:Generated_Source\PSoC4/capsense_ADC_Filter.c **** *
1506:Generated_Source\PSoC4/capsense_ADC_Filter.c **** *******************************************************************************/
1507:Generated_Source\PSoC4/capsense_ADC_Filter.c **** void capsense_ADC_InitializeALPInternal(capsense_ADC_PTR_FILTER_VARIANT ptrFilterHistObj,
1508:Generated_Source\PSoC4/capsense_ADC_Filter.c ****                                             capsense_ADC_RAM_SNS_STRUCT *ptrSensorObj,
1509:Generated_Source\PSoC4/capsense_ADC_Filter.c ****                                             uint32 wdType)
1510:Generated_Source\PSoC4/capsense_ADC_Filter.c **** {
1511:Generated_Source\PSoC4/capsense_ADC_Filter.c ****     uint32 freqChannel;
1512:Generated_Source\PSoC4/capsense_ADC_Filter.c **** 
1513:Generated_Source\PSoC4/capsense_ADC_Filter.c ****     for(freqChannel = capsense_ADC_NUM_SCAN_FREQS; freqChannel-- > 0u;)
1514:Generated_Source\PSoC4/capsense_ADC_Filter.c ****     {
1515:Generated_Source\PSoC4/capsense_ADC_Filter.c ****         if ((capsense_ADC_WD_TYPE_ENUM)wdType != capsense_ADC_WD_PROXIMITY_E)
1516:Generated_Source\PSoC4/capsense_ADC_Filter.c ****         {
1517:Generated_Source\PSoC4/capsense_ADC_Filter.c ****             #if (capsense_ADC_REGULAR_SENSOR_EN && capsense_ADC_REGULAR_RC_ALP_FILTER_EN)
1518:Generated_Source\PSoC4/capsense_ADC_Filter.c ****                 ALP_Initialize(&ptrFilterHistObj.ptrAlp->channel[freqChannel], &ptrSensorObj->raw[f
1519:Generated_Source\PSoC4/capsense_ADC_Filter.c ****             #endif
1520:Generated_Source\PSoC4/capsense_ADC_Filter.c ****         }
1521:Generated_Source\PSoC4/capsense_ADC_Filter.c ****         else
1522:Generated_Source\PSoC4/capsense_ADC_Filter.c ****         {
1523:Generated_Source\PSoC4/capsense_ADC_Filter.c ****             #if (capsense_ADC_PROXIMITY_SENSOR_EN && capsense_ADC_PROX_RC_ALP_FILTER_EN)
1524:Generated_Source\PSoC4/capsense_ADC_Filter.c ****                 ALP_Initialize(&ptrFilterHistObj.ptrAlp->channel[freqChannel], &ptrSensorObj->raw[f
1525:Generated_Source\PSoC4/capsense_ADC_Filter.c ****             #endif
1526:Generated_Source\PSoC4/capsense_ADC_Filter.c ****         }
1527:Generated_Source\PSoC4/capsense_ADC_Filter.c ****     }
1528:Generated_Source\PSoC4/capsense_ADC_Filter.c **** }
1529:Generated_Source\PSoC4/capsense_ADC_Filter.c **** 
1530:Generated_Source\PSoC4/capsense_ADC_Filter.c **** /*******************************************************************************
1531:Generated_Source\PSoC4/capsense_ADC_Filter.c **** * Function Name: capsense_ADC_ConfigRunALPInternal
1532:Generated_Source\PSoC4/capsense_ADC_Filter.c **** ****************************************************************************//**
1533:Generated_Source\PSoC4/capsense_ADC_Filter.c **** *
1534:Generated_Source\PSoC4/capsense_ADC_Filter.c **** * \brief
1535:Generated_Source\PSoC4/capsense_ADC_Filter.c **** *  Prepares ALP configuration structure and runs the filter.
1536:Generated_Source\PSoC4/capsense_ADC_Filter.c **** *
1537:Generated_Source\PSoC4/capsense_ADC_Filter.c **** * \details
1538:Generated_Source\PSoC4/capsense_ADC_Filter.c **** *  Prepares ALP configuration structure and runs the filter.
ARM GAS  C:\Users\ASUS\AppData\Local\Temp\ccJZE5kf.s 			page 36


1539:Generated_Source\PSoC4/capsense_ADC_Filter.c **** *
1540:Generated_Source\PSoC4/capsense_ADC_Filter.c **** * \param ptrFilterHistObj
1541:Generated_Source\PSoC4/capsense_ADC_Filter.c **** *  The pointer to the filter RAM object of the sensor.
1542:Generated_Source\PSoC4/capsense_ADC_Filter.c **** *
1543:Generated_Source\PSoC4/capsense_ADC_Filter.c **** * \param ptrRamWdgt
1544:Generated_Source\PSoC4/capsense_ADC_Filter.c **** *  The pointer to the RAM widget object.
1545:Generated_Source\PSoC4/capsense_ADC_Filter.c **** *
1546:Generated_Source\PSoC4/capsense_ADC_Filter.c **** * \param ptrSensorObj
1547:Generated_Source\PSoC4/capsense_ADC_Filter.c **** *  The pointer to the sensor RAM object of the sensor.
1548:Generated_Source\PSoC4/capsense_ADC_Filter.c **** *
1549:Generated_Source\PSoC4/capsense_ADC_Filter.c **** * \param wdType
1550:Generated_Source\PSoC4/capsense_ADC_Filter.c **** *  Specifies the type of a widget.
1551:Generated_Source\PSoC4/capsense_ADC_Filter.c **** *
1552:Generated_Source\PSoC4/capsense_ADC_Filter.c **** *******************************************************************************/
1553:Generated_Source\PSoC4/capsense_ADC_Filter.c **** void capsense_ADC_ConfigRunALPInternal(capsense_ADC_PTR_FILTER_VARIANT ptrFilterHistObj,
1554:Generated_Source\PSoC4/capsense_ADC_Filter.c ****                                     capsense_ADC_RAM_WD_BASE_STRUCT *ptrRamWdgt,
1555:Generated_Source\PSoC4/capsense_ADC_Filter.c ****                                     capsense_ADC_RAM_SNS_STRUCT *ptrSensorObj,
1556:Generated_Source\PSoC4/capsense_ADC_Filter.c ****                                     uint32 wdType)
1557:Generated_Source\PSoC4/capsense_ADC_Filter.c **** {
1558:Generated_Source\PSoC4/capsense_ADC_Filter.c ****     ALP_FLTR_CONFIG_STRUCT alpFilterConfig;
1559:Generated_Source\PSoC4/capsense_ADC_Filter.c **** 
1560:Generated_Source\PSoC4/capsense_ADC_Filter.c ****     alpFilterConfig.configParam0 = ptrRamWdgt->alpOnTh;
1561:Generated_Source\PSoC4/capsense_ADC_Filter.c ****     alpFilterConfig.configParam1 = ptrRamWdgt->alpOffTh;
1562:Generated_Source\PSoC4/capsense_ADC_Filter.c ****     alpFilterConfig.configParam2 = ptrRamWdgt->fingerTh;
1563:Generated_Source\PSoC4/capsense_ADC_Filter.c ****     alpFilterConfig.configParam3 = ptrRamWdgt->noiseTh;
1564:Generated_Source\PSoC4/capsense_ADC_Filter.c ****     alpFilterConfig.configParam4 = ptrRamWdgt->hysteresis;
1565:Generated_Source\PSoC4/capsense_ADC_Filter.c **** 
1566:Generated_Source\PSoC4/capsense_ADC_Filter.c ****     capsense_ADC_RunALPInternal(ptrFilterHistObj, &alpFilterConfig, ptrSensorObj, wdType);
1567:Generated_Source\PSoC4/capsense_ADC_Filter.c **** }
1568:Generated_Source\PSoC4/capsense_ADC_Filter.c **** 
1569:Generated_Source\PSoC4/capsense_ADC_Filter.c **** /*******************************************************************************
1570:Generated_Source\PSoC4/capsense_ADC_Filter.c **** * Function Name: capsense_ADC_RunALPInternal
1571:Generated_Source\PSoC4/capsense_ADC_Filter.c **** ****************************************************************************//**
1572:Generated_Source\PSoC4/capsense_ADC_Filter.c **** *
1573:Generated_Source\PSoC4/capsense_ADC_Filter.c **** * \brief
1574:Generated_Source\PSoC4/capsense_ADC_Filter.c **** *  Runs the ALP filter.
1575:Generated_Source\PSoC4/capsense_ADC_Filter.c **** *
1576:Generated_Source\PSoC4/capsense_ADC_Filter.c **** * \details
1577:Generated_Source\PSoC4/capsense_ADC_Filter.c **** *  Runs the ALP filter.
1578:Generated_Source\PSoC4/capsense_ADC_Filter.c **** *
1579:Generated_Source\PSoC4/capsense_ADC_Filter.c **** * \param ptrFilterHistObj
1580:Generated_Source\PSoC4/capsense_ADC_Filter.c **** *  The pointer to the filter RAM object of the sensor.
1581:Generated_Source\PSoC4/capsense_ADC_Filter.c **** *
1582:Generated_Source\PSoC4/capsense_ADC_Filter.c **** * \param ptrAlpFilterConfig
1583:Generated_Source\PSoC4/capsense_ADC_Filter.c **** *  The pointer to the filter configuration object of the sensor.
1584:Generated_Source\PSoC4/capsense_ADC_Filter.c **** *
1585:Generated_Source\PSoC4/capsense_ADC_Filter.c **** * \param ptrSensorObj
1586:Generated_Source\PSoC4/capsense_ADC_Filter.c **** *  The pointer to the sensor RAM object of the sensor.
1587:Generated_Source\PSoC4/capsense_ADC_Filter.c **** *
1588:Generated_Source\PSoC4/capsense_ADC_Filter.c **** * \param wdType
1589:Generated_Source\PSoC4/capsense_ADC_Filter.c **** *  Specifies the type of a widget.
1590:Generated_Source\PSoC4/capsense_ADC_Filter.c **** *
1591:Generated_Source\PSoC4/capsense_ADC_Filter.c **** *******************************************************************************/
1592:Generated_Source\PSoC4/capsense_ADC_Filter.c **** void capsense_ADC_RunALPInternal(capsense_ADC_PTR_FILTER_VARIANT ptrFilterHistObj,
1593:Generated_Source\PSoC4/capsense_ADC_Filter.c ****                                     ALP_FLTR_CONFIG_STRUCT *ptrAlpFilterConfig,
1594:Generated_Source\PSoC4/capsense_ADC_Filter.c ****                                     capsense_ADC_RAM_SNS_STRUCT *ptrSensorObj,
1595:Generated_Source\PSoC4/capsense_ADC_Filter.c ****                                     uint32 wdType)
ARM GAS  C:\Users\ASUS\AppData\Local\Temp\ccJZE5kf.s 			page 37


1596:Generated_Source\PSoC4/capsense_ADC_Filter.c **** {
1597:Generated_Source\PSoC4/capsense_ADC_Filter.c ****     uint32 freqChannel;
1598:Generated_Source\PSoC4/capsense_ADC_Filter.c **** 
1599:Generated_Source\PSoC4/capsense_ADC_Filter.c ****     for(freqChannel = capsense_ADC_NUM_SCAN_FREQS; freqChannel-- > 0u;)
1600:Generated_Source\PSoC4/capsense_ADC_Filter.c ****     {
1601:Generated_Source\PSoC4/capsense_ADC_Filter.c ****         if ((capsense_ADC_WD_TYPE_ENUM)wdType != capsense_ADC_WD_PROXIMITY_E)
1602:Generated_Source\PSoC4/capsense_ADC_Filter.c ****         {
1603:Generated_Source\PSoC4/capsense_ADC_Filter.c ****             #if (capsense_ADC_REGULAR_SENSOR_EN && capsense_ADC_REGULAR_RC_ALP_FILTER_EN)
1604:Generated_Source\PSoC4/capsense_ADC_Filter.c ****                 ptrAlpFilterConfig->configParam5 = capsense_ADC_REGULAR_RC_ALP_FILTER_COEFF;
1605:Generated_Source\PSoC4/capsense_ADC_Filter.c ****                 ALP_Run(&ptrFilterHistObj.ptrAlp->channel[freqChannel], ptrAlpFilterConfig, &ptrSen
1606:Generated_Source\PSoC4/capsense_ADC_Filter.c ****             #endif
1607:Generated_Source\PSoC4/capsense_ADC_Filter.c ****         }
1608:Generated_Source\PSoC4/capsense_ADC_Filter.c ****         else
1609:Generated_Source\PSoC4/capsense_ADC_Filter.c ****         {
1610:Generated_Source\PSoC4/capsense_ADC_Filter.c ****             #if (capsense_ADC_PROXIMITY_SENSOR_EN && capsense_ADC_PROX_RC_ALP_FILTER_EN)
1611:Generated_Source\PSoC4/capsense_ADC_Filter.c ****                 ptrAlpFilterConfig->configParam5 = capsense_ADC_PROX_RC_ALP_FILTER_COEFF;
1612:Generated_Source\PSoC4/capsense_ADC_Filter.c ****                 ALP_Run(&ptrFilterHistObj.ptrAlp->channel[freqChannel], ptrAlpFilterConfig, &ptrSen
1613:Generated_Source\PSoC4/capsense_ADC_Filter.c ****             #endif
1614:Generated_Source\PSoC4/capsense_ADC_Filter.c ****         }
1615:Generated_Source\PSoC4/capsense_ADC_Filter.c ****     }
1616:Generated_Source\PSoC4/capsense_ADC_Filter.c **** }
1617:Generated_Source\PSoC4/capsense_ADC_Filter.c **** #endif /* (capsense_ADC_ENABLE == capsense_ADC_ALP_FILTER_EN) */
1618:Generated_Source\PSoC4/capsense_ADC_Filter.c **** 
1619:Generated_Source\PSoC4/capsense_ADC_Filter.c **** #if (capsense_ADC_ENABLE == capsense_ADC_RC_FILTER_EN)
1620:Generated_Source\PSoC4/capsense_ADC_Filter.c **** /*******************************************************************************
1621:Generated_Source\PSoC4/capsense_ADC_Filter.c **** * Function Name: capsense_ADC_FtRunEnabledFilters
1622:Generated_Source\PSoC4/capsense_ADC_Filter.c **** ****************************************************************************//**
1623:Generated_Source\PSoC4/capsense_ADC_Filter.c **** *
1624:Generated_Source\PSoC4/capsense_ADC_Filter.c **** * \brief
1625:Generated_Source\PSoC4/capsense_ADC_Filter.c **** *  Runs all enabled filters.
1626:Generated_Source\PSoC4/capsense_ADC_Filter.c **** *
1627:Generated_Source\PSoC4/capsense_ADC_Filter.c **** * \details
1628:Generated_Source\PSoC4/capsense_ADC_Filter.c **** *  Runs all enabled filters.
1629:Generated_Source\PSoC4/capsense_ADC_Filter.c **** *
1630:Generated_Source\PSoC4/capsense_ADC_Filter.c **** * \param widgetId
1631:Generated_Source\PSoC4/capsense_ADC_Filter.c **** *  Specifies the ID number of a widget to update the IIR filter history.
1632:Generated_Source\PSoC4/capsense_ADC_Filter.c **** *
1633:Generated_Source\PSoC4/capsense_ADC_Filter.c **** * \param sensorId
1634:Generated_Source\PSoC4/capsense_ADC_Filter.c **** *  Specifies the ID number of a sensor in the widget to update the IIR
1635:Generated_Source\PSoC4/capsense_ADC_Filter.c **** *  filter history.
1636:Generated_Source\PSoC4/capsense_ADC_Filter.c **** *
1637:Generated_Source\PSoC4/capsense_ADC_Filter.c **** *******************************************************************************/
1638:Generated_Source\PSoC4/capsense_ADC_Filter.c **** void capsense_ADC_FtRunEnabledFilters(uint32 widgetId, uint32 sensorId)
1639:Generated_Source\PSoC4/capsense_ADC_Filter.c **** {
1640:Generated_Source\PSoC4/capsense_ADC_Filter.c ****     capsense_ADC_FLASH_WD_STRUCT const *ptrWidget = &capsense_ADC_dsFlash.wdgtArray[widgetId];
1641:Generated_Source\PSoC4/capsense_ADC_Filter.c ****     capsense_ADC_RAM_SNS_STRUCT *ptrSensor = NULL;
1642:Generated_Source\PSoC4/capsense_ADC_Filter.c ****     capsense_ADC_PTR_FILTER_VARIANT ptrFilterHistObj;
1643:Generated_Source\PSoC4/capsense_ADC_Filter.c **** 
1644:Generated_Source\PSoC4/capsense_ADC_Filter.c ****     /* Find pointer to specified sensor object */
1645:Generated_Source\PSoC4/capsense_ADC_Filter.c ****     ptrSensor = ptrWidget->ptr2SnsRam;
1646:Generated_Source\PSoC4/capsense_ADC_Filter.c ****     ptrSensor = &ptrSensor[sensorId];
1647:Generated_Source\PSoC4/capsense_ADC_Filter.c **** 
1648:Generated_Source\PSoC4/capsense_ADC_Filter.c ****     /* Find pointer to specified filter sensor object */
1649:Generated_Source\PSoC4/capsense_ADC_Filter.c ****     ptrFilterHistObj.ptr = ptrWidget->ptr2FltrHistory;
1650:Generated_Source\PSoC4/capsense_ADC_Filter.c **** 
1651:Generated_Source\PSoC4/capsense_ADC_Filter.c ****     if ((capsense_ADC_WD_TYPE_ENUM)ptrWidget->wdgtType != capsense_ADC_WD_PROXIMITY_E)
1652:Generated_Source\PSoC4/capsense_ADC_Filter.c ****     {
ARM GAS  C:\Users\ASUS\AppData\Local\Temp\ccJZE5kf.s 			page 38


1653:Generated_Source\PSoC4/capsense_ADC_Filter.c ****         #if (0u != capsense_ADC_REGULAR_RC_ALP_FILTER_EN)
1654:Generated_Source\PSoC4/capsense_ADC_Filter.c ****             ptrFilterHistObj.ptr = &ptrFilterHistObj.ptrAlp[sensorId];
1655:Generated_Source\PSoC4/capsense_ADC_Filter.c ****         #elif (0u != capsense_ADC_REGULAR_RC_FILTER_EN)
1656:Generated_Source\PSoC4/capsense_ADC_Filter.c ****             ptrFilterHistObj.ptr = &ptrFilterHistObj.ptrRegular[sensorId];
1657:Generated_Source\PSoC4/capsense_ADC_Filter.c ****         #endif
1658:Generated_Source\PSoC4/capsense_ADC_Filter.c ****     }
1659:Generated_Source\PSoC4/capsense_ADC_Filter.c ****     else
1660:Generated_Source\PSoC4/capsense_ADC_Filter.c ****     {
1661:Generated_Source\PSoC4/capsense_ADC_Filter.c ****         #if (0u != capsense_ADC_PROX_RC_ALP_FILTER_EN)
1662:Generated_Source\PSoC4/capsense_ADC_Filter.c ****             ptrFilterHistObj.ptr = &ptrFilterHistObj.ptrAlp[sensorId];
1663:Generated_Source\PSoC4/capsense_ADC_Filter.c ****         #elif (0u != capsense_ADC_PROX_RC_FILTER_EN)
1664:Generated_Source\PSoC4/capsense_ADC_Filter.c ****             ptrFilterHistObj.ptr = &ptrFilterHistObj.ptrProx[sensorId];
1665:Generated_Source\PSoC4/capsense_ADC_Filter.c ****         #endif
1666:Generated_Source\PSoC4/capsense_ADC_Filter.c ****     }
1667:Generated_Source\PSoC4/capsense_ADC_Filter.c **** 
1668:Generated_Source\PSoC4/capsense_ADC_Filter.c ****     capsense_ADC_FtRunEnabledFiltersInternal(ptrFilterHistObj, ptrSensor, (uint32)ptrWidget->wdgtTy
1669:Generated_Source\PSoC4/capsense_ADC_Filter.c ****     #if (capsense_ADC_ALP_FILTER_EN)
1670:Generated_Source\PSoC4/capsense_ADC_Filter.c ****         capsense_ADC_ConfigRunALPInternal(ptrFilterHistObj, ptrWidget->ptr2WdgtRam, ptrSensor, (uin
1671:Generated_Source\PSoC4/capsense_ADC_Filter.c ****     #endif
1672:Generated_Source\PSoC4/capsense_ADC_Filter.c **** }
1673:Generated_Source\PSoC4/capsense_ADC_Filter.c **** 
1674:Generated_Source\PSoC4/capsense_ADC_Filter.c **** 
1675:Generated_Source\PSoC4/capsense_ADC_Filter.c **** /*******************************************************************************
1676:Generated_Source\PSoC4/capsense_ADC_Filter.c **** * Function Name: capsense_ADC_FtRunEnabledFiltersInternal
1677:Generated_Source\PSoC4/capsense_ADC_Filter.c **** ****************************************************************************//**
1678:Generated_Source\PSoC4/capsense_ADC_Filter.c **** *
1679:Generated_Source\PSoC4/capsense_ADC_Filter.c **** * \brief
1680:Generated_Source\PSoC4/capsense_ADC_Filter.c **** *  Runs all enabled filters.
1681:Generated_Source\PSoC4/capsense_ADC_Filter.c **** *
1682:Generated_Source\PSoC4/capsense_ADC_Filter.c **** * \details
1683:Generated_Source\PSoC4/capsense_ADC_Filter.c **** *  Runs all enabled filters.
1684:Generated_Source\PSoC4/capsense_ADC_Filter.c **** *
1685:Generated_Source\PSoC4/capsense_ADC_Filter.c **** * \param ptrFilterHistObj
1686:Generated_Source\PSoC4/capsense_ADC_Filter.c **** *  The pointer to the filter RAM object of the sensor.
1687:Generated_Source\PSoC4/capsense_ADC_Filter.c **** *
1688:Generated_Source\PSoC4/capsense_ADC_Filter.c **** * \param ptrSensorObj
1689:Generated_Source\PSoC4/capsense_ADC_Filter.c **** *  The pointer to the sensor RAM object of the sensor.
1690:Generated_Source\PSoC4/capsense_ADC_Filter.c **** *
1691:Generated_Source\PSoC4/capsense_ADC_Filter.c **** * \param wdType
1692:Generated_Source\PSoC4/capsense_ADC_Filter.c **** *  Specifies the type of a widget.
1693:Generated_Source\PSoC4/capsense_ADC_Filter.c **** *
1694:Generated_Source\PSoC4/capsense_ADC_Filter.c **** *******************************************************************************/
1695:Generated_Source\PSoC4/capsense_ADC_Filter.c **** void capsense_ADC_FtRunEnabledFiltersInternal(capsense_ADC_PTR_FILTER_VARIANT ptrFilterHistObj,
1696:Generated_Source\PSoC4/capsense_ADC_Filter.c ****                                                   capsense_ADC_RAM_SNS_STRUCT *ptrSensorObj, uint32
1697:Generated_Source\PSoC4/capsense_ADC_Filter.c **** {
1698:Generated_Source\PSoC4/capsense_ADC_Filter.c ****     #if (capsense_ADC_REGULAR_RC_MEDIAN_FILTER_EN || capsense_ADC_PROX_RC_MEDIAN_FILTER_EN)
1699:Generated_Source\PSoC4/capsense_ADC_Filter.c ****         capsense_ADC_RunMedianInternal(ptrFilterHistObj, ptrSensorObj, wdType);
1700:Generated_Source\PSoC4/capsense_ADC_Filter.c ****     #endif /* (capsense_ADC_REGULAR_RC_MEDIAN_FILTER_EN || capsense_ADC_PROX_RC_MEDIAN_FILTER_EN) *
1701:Generated_Source\PSoC4/capsense_ADC_Filter.c **** 
1702:Generated_Source\PSoC4/capsense_ADC_Filter.c ****     #if (capsense_ADC_REGULAR_RC_IIR_FILTER_EN || capsense_ADC_PROX_RC_IIR_FILTER_EN)
1703:Generated_Source\PSoC4/capsense_ADC_Filter.c ****         capsense_ADC_RunIIRInternal(ptrFilterHistObj, ptrSensorObj, wdType);
1704:Generated_Source\PSoC4/capsense_ADC_Filter.c ****     #endif /* (capsense_ADC_REGULAR_RC_IIR_FILTER_EN || capsense_ADC_PROX_RC_IIR_FILTER_EN) */
1705:Generated_Source\PSoC4/capsense_ADC_Filter.c **** 
1706:Generated_Source\PSoC4/capsense_ADC_Filter.c ****     #if (capsense_ADC_REGULAR_RC_AVERAGE_FILTER_EN || capsense_ADC_PROX_RC_AVERAGE_FILTER_EN)
1707:Generated_Source\PSoC4/capsense_ADC_Filter.c ****         capsense_ADC_RunAverageInternal(ptrFilterHistObj, ptrSensorObj, wdType);
1708:Generated_Source\PSoC4/capsense_ADC_Filter.c ****     #endif /* (capsense_ADC_REGULAR_RC_AVERAGE_FILTER_EN || capsense_ADC_PROX_RC_AVERAGE_FILTER_EN)
1709:Generated_Source\PSoC4/capsense_ADC_Filter.c **** }
ARM GAS  C:\Users\ASUS\AppData\Local\Temp\ccJZE5kf.s 			page 39


1710:Generated_Source\PSoC4/capsense_ADC_Filter.c **** #endif /* (capsense_ADC_ENABLE == capsense_ADC_RC_FILTER_EN) */
1711:Generated_Source\PSoC4/capsense_ADC_Filter.c **** 
1712:Generated_Source\PSoC4/capsense_ADC_Filter.c **** 
1713:Generated_Source\PSoC4/capsense_ADC_Filter.c **** #if (0u != (capsense_ADC_CSD_AUTOTUNE & capsense_ADC_CSD_SS_TH_EN))
1714:Generated_Source\PSoC4/capsense_ADC_Filter.c **** /*******************************************************************************
1715:Generated_Source\PSoC4/capsense_ADC_Filter.c **** * Function Name: capsense_ADC_RunNoiseEnvelope
1716:Generated_Source\PSoC4/capsense_ADC_Filter.c **** ****************************************************************************//**
1717:Generated_Source\PSoC4/capsense_ADC_Filter.c **** *
1718:Generated_Source\PSoC4/capsense_ADC_Filter.c **** * \brief
1719:Generated_Source\PSoC4/capsense_ADC_Filter.c **** *  Executes the noise envelope  filter algorithm on a sensor indicated by
1720:Generated_Source\PSoC4/capsense_ADC_Filter.c **** *  an input parameter to measure the pk-to-pk noise in the sensor raw count.
1721:Generated_Source\PSoC4/capsense_ADC_Filter.c **** *
1722:Generated_Source\PSoC4/capsense_ADC_Filter.c **** * \details
1723:Generated_Source\PSoC4/capsense_ADC_Filter.c **** *  Executes the noise envelope  filter algorithm on a sensor indicated by
1724:Generated_Source\PSoC4/capsense_ADC_Filter.c **** *  an input parameter to measure the pk-to-pk noise in the sensor raw count.
1725:Generated_Source\PSoC4/capsense_ADC_Filter.c **** *
1726:Generated_Source\PSoC4/capsense_ADC_Filter.c **** * \param widgetId
1727:Generated_Source\PSoC4/capsense_ADC_Filter.c **** *  Specifies the ID number of the widget.
1728:Generated_Source\PSoC4/capsense_ADC_Filter.c **** *
1729:Generated_Source\PSoC4/capsense_ADC_Filter.c **** * \param sensorId
1730:Generated_Source\PSoC4/capsense_ADC_Filter.c **** *  Specifies the ID number of the sensor in the widget.
1731:Generated_Source\PSoC4/capsense_ADC_Filter.c **** *
1732:Generated_Source\PSoC4/capsense_ADC_Filter.c **** *******************************************************************************/
1733:Generated_Source\PSoC4/capsense_ADC_Filter.c **** void capsense_ADC_RunNoiseEnvelope(uint32 widgetId, uint32 sensorId)
1734:Generated_Source\PSoC4/capsense_ADC_Filter.c **** {
 423              		.loc 1 1734 0
 424              		.cfi_startproc
 425              		@ args = 0, pretend = 0, frame = 0
 426              		@ frame_needed = 0, uses_anonymous_args = 0
 427              	.LVL59:
 428 0000 70B5     		push	{r4, r5, r6, lr}
 429              		.cfi_def_cfa_offset 16
 430              		.cfi_offset 4, -16
 431              		.cfi_offset 5, -12
 432              		.cfi_offset 6, -8
 433              		.cfi_offset 14, -4
 434              	.LVL60:
1735:Generated_Source\PSoC4/capsense_ADC_Filter.c ****     capsense_ADC_FLASH_WD_STRUCT const *ptrWidget = &capsense_ADC_dsFlash.wdgtArray[widgetId];
1736:Generated_Source\PSoC4/capsense_ADC_Filter.c ****     capsense_ADC_RAM_WD_BASE_STRUCT *ptrWidgetRam = ptrWidget->ptr2WdgtRam;
 435              		.loc 1 1736 0
 436 0002 2C23     		movs	r3, #44
 437 0004 5843     		muls	r0, r3
 438              	.LVL61:
 439 0006 084B     		ldr	r3, .L27
 440 0008 1818     		adds	r0, r3, r0
 441              	.LVL62:
 442 000a 4668     		ldr	r6, [r0, #4]
 443              	.LVL63:
1737:Generated_Source\PSoC4/capsense_ADC_Filter.c ****     capsense_ADC_RAM_SNS_STRUCT *ptrSensor = NULL;
1738:Generated_Source\PSoC4/capsense_ADC_Filter.c ****     SMARTSENSE_CSD_NOISE_ENVELOPE_STRUCT *ptrNoiseEnvelope = NULL;
1739:Generated_Source\PSoC4/capsense_ADC_Filter.c **** 
1740:Generated_Source\PSoC4/capsense_ADC_Filter.c ****     /* Find pointer to specified sensor object */
1741:Generated_Source\PSoC4/capsense_ADC_Filter.c ****     ptrSensor = ptrWidget->ptr2SnsRam;
 444              		.loc 1 1741 0
 445 000c 8568     		ldr	r5, [r0, #8]
 446              	.LVL64:
1742:Generated_Source\PSoC4/capsense_ADC_Filter.c ****     ptrSensor = &ptrSensor[sensorId];
ARM GAS  C:\Users\ASUS\AppData\Local\Temp\ccJZE5kf.s 			page 40


 447              		.loc 1 1742 0
 448 000e 8B00     		lsls	r3, r1, #2
 449 0010 5B18     		adds	r3, r3, r1
 450 0012 5C00     		lsls	r4, r3, #1
 451              	.LVL65:
1743:Generated_Source\PSoC4/capsense_ADC_Filter.c **** 
1744:Generated_Source\PSoC4/capsense_ADC_Filter.c ****     /* Find pointer to specified filter sensor object */
1745:Generated_Source\PSoC4/capsense_ADC_Filter.c ****     ptrNoiseEnvelope = ptrWidget->ptr2NoiseEnvlp;
 452              		.loc 1 1745 0
 453 0014 436A     		ldr	r3, [r0, #36]
 454              	.LVL66:
1746:Generated_Source\PSoC4/capsense_ADC_Filter.c ****     ptrNoiseEnvelope = &ptrNoiseEnvelope[sensorId];
 455              		.loc 1 1746 0
 456 0016 4A00     		lsls	r2, r1, #1
 457 0018 5118     		adds	r1, r2, r1
 458              	.LVL67:
 459 001a 8A00     		lsls	r2, r1, #2
 460 001c 9A18     		adds	r2, r3, r2
 461              	.LVL68:
1747:Generated_Source\PSoC4/capsense_ADC_Filter.c **** 
1748:Generated_Source\PSoC4/capsense_ADC_Filter.c ****     SmartSense_RunNoiseEnvelope(ptrSensor->raw[0u], ptrWidgetRam->sigPFC, ptrNoiseEnvelope);
 462              		.loc 1 1748 0
 463 001e 718A     		ldrh	r1, [r6, #18]
 464 0020 285B     		ldrh	r0, [r5, r4]
 465              	.LVL69:
 466 0022 FFF7FEFF 		bl	SmartSense_RunNoiseEnvelope
 467              	.LVL70:
1749:Generated_Source\PSoC4/capsense_ADC_Filter.c **** }
 468              		.loc 1 1749 0
 469              		@ sp needed
 470              	.LVL71:
 471              	.LVL72:
 472              	.LVL73:
 473 0026 70BD     		pop	{r4, r5, r6, pc}
 474              	.L28:
 475              		.align	2
 476              	.L27:
 477 0028 00000000 		.word	capsense_ADC_dsFlash
 478              		.cfi_endproc
 479              	.LFE13:
 480              		.size	capsense_ADC_RunNoiseEnvelope, .-capsense_ADC_RunNoiseEnvelope
 481              		.section	.text.capsense_ADC_InitializeNoiseEnvelope,"ax",%progbits
 482              		.align	2
 483              		.global	capsense_ADC_InitializeNoiseEnvelope
 484              		.code	16
 485              		.thumb_func
 486              		.type	capsense_ADC_InitializeNoiseEnvelope, %function
 487              	capsense_ADC_InitializeNoiseEnvelope:
 488              	.LFB14:
1750:Generated_Source\PSoC4/capsense_ADC_Filter.c **** 
1751:Generated_Source\PSoC4/capsense_ADC_Filter.c **** 
1752:Generated_Source\PSoC4/capsense_ADC_Filter.c **** /*******************************************************************************
1753:Generated_Source\PSoC4/capsense_ADC_Filter.c **** * Function Name: capsense_ADC_InitializeNoiseEnvelope
1754:Generated_Source\PSoC4/capsense_ADC_Filter.c **** ****************************************************************************//**
1755:Generated_Source\PSoC4/capsense_ADC_Filter.c **** *
1756:Generated_Source\PSoC4/capsense_ADC_Filter.c **** * \brief
1757:Generated_Source\PSoC4/capsense_ADC_Filter.c **** *  Initializes the noise-envelope filter
ARM GAS  C:\Users\ASUS\AppData\Local\Temp\ccJZE5kf.s 			page 41


1758:Generated_Source\PSoC4/capsense_ADC_Filter.c **** *
1759:Generated_Source\PSoC4/capsense_ADC_Filter.c **** * \details
1760:Generated_Source\PSoC4/capsense_ADC_Filter.c **** *  Initializes the noise-envelope filter
1761:Generated_Source\PSoC4/capsense_ADC_Filter.c **** *
1762:Generated_Source\PSoC4/capsense_ADC_Filter.c **** * \param widgetId
1763:Generated_Source\PSoC4/capsense_ADC_Filter.c **** *  Specifies the ID number of the widget.
1764:Generated_Source\PSoC4/capsense_ADC_Filter.c **** *
1765:Generated_Source\PSoC4/capsense_ADC_Filter.c **** * \param sensorId
1766:Generated_Source\PSoC4/capsense_ADC_Filter.c **** *  Specifies the ID number of the sensor in the widget.
1767:Generated_Source\PSoC4/capsense_ADC_Filter.c **** *
1768:Generated_Source\PSoC4/capsense_ADC_Filter.c **** *******************************************************************************/
1769:Generated_Source\PSoC4/capsense_ADC_Filter.c **** void capsense_ADC_InitializeNoiseEnvelope(uint32 widgetId, uint32 sensorId)
1770:Generated_Source\PSoC4/capsense_ADC_Filter.c **** {
 489              		.loc 1 1770 0
 490              		.cfi_startproc
 491              		@ args = 0, pretend = 0, frame = 0
 492              		@ frame_needed = 0, uses_anonymous_args = 0
 493              	.LVL74:
 494 0000 70B5     		push	{r4, r5, r6, lr}
 495              		.cfi_def_cfa_offset 16
 496              		.cfi_offset 4, -16
 497              		.cfi_offset 5, -12
 498              		.cfi_offset 6, -8
 499              		.cfi_offset 14, -4
 500              	.LVL75:
1771:Generated_Source\PSoC4/capsense_ADC_Filter.c ****     capsense_ADC_FLASH_WD_STRUCT const *ptrWidget = &capsense_ADC_dsFlash.wdgtArray[widgetId];
1772:Generated_Source\PSoC4/capsense_ADC_Filter.c ****     capsense_ADC_RAM_WD_BASE_STRUCT *ptrWidgetRam = ptrWidget->ptr2WdgtRam;
 501              		.loc 1 1772 0
 502 0002 2C23     		movs	r3, #44
 503 0004 5843     		muls	r0, r3
 504              	.LVL76:
 505 0006 084B     		ldr	r3, .L30
 506 0008 1818     		adds	r0, r3, r0
 507              	.LVL77:
 508 000a 4668     		ldr	r6, [r0, #4]
 509              	.LVL78:
1773:Generated_Source\PSoC4/capsense_ADC_Filter.c ****     capsense_ADC_RAM_SNS_STRUCT *ptrSensor = NULL;
1774:Generated_Source\PSoC4/capsense_ADC_Filter.c ****     SMARTSENSE_CSD_NOISE_ENVELOPE_STRUCT *ptrNoiseEnvelope = NULL;
1775:Generated_Source\PSoC4/capsense_ADC_Filter.c **** 
1776:Generated_Source\PSoC4/capsense_ADC_Filter.c ****     /* Find pointer to specified sensor object */
1777:Generated_Source\PSoC4/capsense_ADC_Filter.c ****     ptrSensor = ptrWidget->ptr2SnsRam;
 510              		.loc 1 1777 0
 511 000c 8568     		ldr	r5, [r0, #8]
 512              	.LVL79:
1778:Generated_Source\PSoC4/capsense_ADC_Filter.c ****     ptrSensor = &ptrSensor[sensorId];
 513              		.loc 1 1778 0
 514 000e 8B00     		lsls	r3, r1, #2
 515 0010 5B18     		adds	r3, r3, r1
 516 0012 5C00     		lsls	r4, r3, #1
 517              	.LVL80:
1779:Generated_Source\PSoC4/capsense_ADC_Filter.c **** 
1780:Generated_Source\PSoC4/capsense_ADC_Filter.c ****     /* Find pointer to specified filter sensor object */
1781:Generated_Source\PSoC4/capsense_ADC_Filter.c ****     ptrNoiseEnvelope = ptrWidget->ptr2NoiseEnvlp;
 518              		.loc 1 1781 0
 519 0014 436A     		ldr	r3, [r0, #36]
 520              	.LVL81:
1782:Generated_Source\PSoC4/capsense_ADC_Filter.c ****     ptrNoiseEnvelope = &ptrNoiseEnvelope[sensorId];
ARM GAS  C:\Users\ASUS\AppData\Local\Temp\ccJZE5kf.s 			page 42


 521              		.loc 1 1782 0
 522 0016 4A00     		lsls	r2, r1, #1
 523 0018 5118     		adds	r1, r2, r1
 524              	.LVL82:
 525 001a 8A00     		lsls	r2, r1, #2
 526 001c 9A18     		adds	r2, r3, r2
 527              	.LVL83:
1783:Generated_Source\PSoC4/capsense_ADC_Filter.c **** 
1784:Generated_Source\PSoC4/capsense_ADC_Filter.c ****     SmartSense_InitializeNoiseEnvelope(ptrSensor->raw[0u], ptrWidgetRam->sigPFC, ptrNoiseEnvelope);
 528              		.loc 1 1784 0
 529 001e 718A     		ldrh	r1, [r6, #18]
 530 0020 285B     		ldrh	r0, [r5, r4]
 531              	.LVL84:
 532 0022 FFF7FEFF 		bl	SmartSense_InitializeNoiseEnvelope
 533              	.LVL85:
1785:Generated_Source\PSoC4/capsense_ADC_Filter.c **** }
 534              		.loc 1 1785 0
 535              		@ sp needed
 536              	.LVL86:
 537              	.LVL87:
 538              	.LVL88:
 539 0026 70BD     		pop	{r4, r5, r6, pc}
 540              	.L31:
 541              		.align	2
 542              	.L30:
 543 0028 00000000 		.word	capsense_ADC_dsFlash
 544              		.cfi_endproc
 545              	.LFE14:
 546              		.size	capsense_ADC_InitializeNoiseEnvelope, .-capsense_ADC_InitializeNoiseEnvelope
 547              		.section	.text.capsense_ADC_FtIIR1stOrder,"ax",%progbits
 548              		.align	2
 549              		.global	capsense_ADC_FtIIR1stOrder
 550              		.code	16
 551              		.thumb_func
 552              		.type	capsense_ADC_FtIIR1stOrder, %function
 553              	capsense_ADC_FtIIR1stOrder:
 554              	.LFB15:
1786:Generated_Source\PSoC4/capsense_ADC_Filter.c **** #endif /* (0u != (capsense_ADC_CSD_AUTOTUNE & capsense_ADC_CSD_SS_TH_EN)) */
1787:Generated_Source\PSoC4/capsense_ADC_Filter.c **** 
1788:Generated_Source\PSoC4/capsense_ADC_Filter.c **** 
1789:Generated_Source\PSoC4/capsense_ADC_Filter.c **** #if (capsense_ADC_POS_MEDIAN_FILTER_EN || capsense_ADC_REGULAR_RC_MEDIAN_FILTER_EN || capsense_ADC_
1790:Generated_Source\PSoC4/capsense_ADC_Filter.c **** /*******************************************************************************
1791:Generated_Source\PSoC4/capsense_ADC_Filter.c **** * Function Name: capsense_ADC_FtMedian
1792:Generated_Source\PSoC4/capsense_ADC_Filter.c **** ****************************************************************************//**
1793:Generated_Source\PSoC4/capsense_ADC_Filter.c **** *
1794:Generated_Source\PSoC4/capsense_ADC_Filter.c **** * \brief
1795:Generated_Source\PSoC4/capsense_ADC_Filter.c **** *  Return the median value from the three passed arguments.
1796:Generated_Source\PSoC4/capsense_ADC_Filter.c **** *
1797:Generated_Source\PSoC4/capsense_ADC_Filter.c **** * \details
1798:Generated_Source\PSoC4/capsense_ADC_Filter.c **** *  Return the median value from the three passed arguments.
1799:Generated_Source\PSoC4/capsense_ADC_Filter.c **** *
1800:Generated_Source\PSoC4/capsense_ADC_Filter.c **** * \param x1
1801:Generated_Source\PSoC4/capsense_ADC_Filter.c **** *  The first value to be compared.
1802:Generated_Source\PSoC4/capsense_ADC_Filter.c **** *
1803:Generated_Source\PSoC4/capsense_ADC_Filter.c **** * \param x2
1804:Generated_Source\PSoC4/capsense_ADC_Filter.c **** *  The second value to be compared.
1805:Generated_Source\PSoC4/capsense_ADC_Filter.c **** *
ARM GAS  C:\Users\ASUS\AppData\Local\Temp\ccJZE5kf.s 			page 43


1806:Generated_Source\PSoC4/capsense_ADC_Filter.c **** * \param x3
1807:Generated_Source\PSoC4/capsense_ADC_Filter.c **** *  The third value to be compared.
1808:Generated_Source\PSoC4/capsense_ADC_Filter.c **** *
1809:Generated_Source\PSoC4/capsense_ADC_Filter.c **** * \return
1810:Generated_Source\PSoC4/capsense_ADC_Filter.c **** *  Returns the median value of input arguments.
1811:Generated_Source\PSoC4/capsense_ADC_Filter.c **** *
1812:Generated_Source\PSoC4/capsense_ADC_Filter.c **** *******************************************************************************/
1813:Generated_Source\PSoC4/capsense_ADC_Filter.c **** uint32 capsense_ADC_FtMedian(uint32 x1, uint32 x2, uint32 x3)
1814:Generated_Source\PSoC4/capsense_ADC_Filter.c **** {
1815:Generated_Source\PSoC4/capsense_ADC_Filter.c ****     uint32 tmp;
1816:Generated_Source\PSoC4/capsense_ADC_Filter.c **** 
1817:Generated_Source\PSoC4/capsense_ADC_Filter.c ****     if (x1 > x2)
1818:Generated_Source\PSoC4/capsense_ADC_Filter.c ****     {
1819:Generated_Source\PSoC4/capsense_ADC_Filter.c ****         tmp = x2;
1820:Generated_Source\PSoC4/capsense_ADC_Filter.c ****         x2 = x1;
1821:Generated_Source\PSoC4/capsense_ADC_Filter.c ****         x1 = tmp;
1822:Generated_Source\PSoC4/capsense_ADC_Filter.c ****     }
1823:Generated_Source\PSoC4/capsense_ADC_Filter.c **** 
1824:Generated_Source\PSoC4/capsense_ADC_Filter.c ****     if (x2 > x3)
1825:Generated_Source\PSoC4/capsense_ADC_Filter.c ****     {
1826:Generated_Source\PSoC4/capsense_ADC_Filter.c ****         x2 = x3;
1827:Generated_Source\PSoC4/capsense_ADC_Filter.c ****     }
1828:Generated_Source\PSoC4/capsense_ADC_Filter.c **** 
1829:Generated_Source\PSoC4/capsense_ADC_Filter.c ****     return ((x1 > x2) ? x1 : x2);
1830:Generated_Source\PSoC4/capsense_ADC_Filter.c **** }
1831:Generated_Source\PSoC4/capsense_ADC_Filter.c **** #endif /*capsense_ADC_POS_MEDIAN_FILTER_EN || capsense_ADC_REGULAR_RC_MEDIAN_FILTER_EN || capsense_
1832:Generated_Source\PSoC4/capsense_ADC_Filter.c **** 
1833:Generated_Source\PSoC4/capsense_ADC_Filter.c **** 
1834:Generated_Source\PSoC4/capsense_ADC_Filter.c **** /*******************************************************************************
1835:Generated_Source\PSoC4/capsense_ADC_Filter.c **** * Function Name: capsense_ADC_FtIIR1stOrder
1836:Generated_Source\PSoC4/capsense_ADC_Filter.c **** ****************************************************************************//**
1837:Generated_Source\PSoC4/capsense_ADC_Filter.c **** *
1838:Generated_Source\PSoC4/capsense_ADC_Filter.c **** * \brief
1839:Generated_Source\PSoC4/capsense_ADC_Filter.c **** *  Return the filtered data by the IIR 1-st order algorithm
1840:Generated_Source\PSoC4/capsense_ADC_Filter.c **** *
1841:Generated_Source\PSoC4/capsense_ADC_Filter.c **** * \details
1842:Generated_Source\PSoC4/capsense_ADC_Filter.c **** *  Return the filtered data by the IIR 1-st order algorithm
1843:Generated_Source\PSoC4/capsense_ADC_Filter.c **** *
1844:Generated_Source\PSoC4/capsense_ADC_Filter.c **** * \param input
1845:Generated_Source\PSoC4/capsense_ADC_Filter.c **** *  The data to be filtered.
1846:Generated_Source\PSoC4/capsense_ADC_Filter.c **** *
1847:Generated_Source\PSoC4/capsense_ADC_Filter.c **** * \param prevOutput
1848:Generated_Source\PSoC4/capsense_ADC_Filter.c **** *  The previous filtered data.
1849:Generated_Source\PSoC4/capsense_ADC_Filter.c **** *
1850:Generated_Source\PSoC4/capsense_ADC_Filter.c **** * \param n
1851:Generated_Source\PSoC4/capsense_ADC_Filter.c **** *  The IIR filter coefficient (n/256).
1852:Generated_Source\PSoC4/capsense_ADC_Filter.c **** *
1853:Generated_Source\PSoC4/capsense_ADC_Filter.c **** * \param shift
1854:Generated_Source\PSoC4/capsense_ADC_Filter.c **** *  The parameter is used to shift input data to have free LSB
1855:Generated_Source\PSoC4/capsense_ADC_Filter.c **** *  bits for a fraction storage of the filter output calculation.
1856:Generated_Source\PSoC4/capsense_ADC_Filter.c **** *
1857:Generated_Source\PSoC4/capsense_ADC_Filter.c **** * \return
1858:Generated_Source\PSoC4/capsense_ADC_Filter.c **** *  Returns the filtered data.
1859:Generated_Source\PSoC4/capsense_ADC_Filter.c **** *
1860:Generated_Source\PSoC4/capsense_ADC_Filter.c **** *******************************************************************************/
1861:Generated_Source\PSoC4/capsense_ADC_Filter.c **** uint32 capsense_ADC_FtIIR1stOrder(uint32 input, uint32 prevOutput, uint32 n, uint32 shift)
1862:Generated_Source\PSoC4/capsense_ADC_Filter.c **** {
ARM GAS  C:\Users\ASUS\AppData\Local\Temp\ccJZE5kf.s 			page 44


 555              		.loc 1 1862 0
 556              		.cfi_startproc
 557              		@ args = 0, pretend = 0, frame = 0
 558              		@ frame_needed = 0, uses_anonymous_args = 0
 559              		@ link register save eliminated.
 560              	.LVL89:
1863:Generated_Source\PSoC4/capsense_ADC_Filter.c ****     uint32 filteredOutput;
1864:Generated_Source\PSoC4/capsense_ADC_Filter.c **** 
1865:Generated_Source\PSoC4/capsense_ADC_Filter.c ****     /*
1866:Generated_Source\PSoC4/capsense_ADC_Filter.c ****     * n - IIR filter coefficient (n/256)
1867:Generated_Source\PSoC4/capsense_ADC_Filter.c ****     * shift - Used to shift input data to have free LSB bits
1868:Generated_Source\PSoC4/capsense_ADC_Filter.c ****     * for fraction storage of filter output calculation
1869:Generated_Source\PSoC4/capsense_ADC_Filter.c ****     */
1870:Generated_Source\PSoC4/capsense_ADC_Filter.c ****     filteredOutput = ((n * (input << shift)) + ((capsense_ADC_IIR_COEFFICIENT_K - n) * prevOutput))
 561              		.loc 1 1870 0
 562 0000 9840     		lsls	r0, r0, r3
 563              	.LVL90:
 564 0002 5043     		muls	r0, r2
 565 0004 8023     		movs	r3, #128
 566              	.LVL91:
 567 0006 5B00     		lsls	r3, r3, #1
 568 0008 9A1A     		subs	r2, r3, r2
 569              	.LVL92:
 570 000a 5143     		muls	r1, r2
 571              	.LVL93:
 572 000c 4018     		adds	r0, r0, r1
 573 000e 000A     		lsrs	r0, r0, #8
 574              	.LVL94:
1871:Generated_Source\PSoC4/capsense_ADC_Filter.c **** 
1872:Generated_Source\PSoC4/capsense_ADC_Filter.c ****     /* Shift operation of output will be done in upper level API if needed */
1873:Generated_Source\PSoC4/capsense_ADC_Filter.c ****     return filteredOutput;
1874:Generated_Source\PSoC4/capsense_ADC_Filter.c **** }
 575              		.loc 1 1874 0
 576              		@ sp needed
 577 0010 7047     		bx	lr
 578              		.cfi_endproc
 579              	.LFE15:
 580              		.size	capsense_ADC_FtIIR1stOrder, .-capsense_ADC_FtIIR1stOrder
 581 0012 C046     		.section	.text.capsense_ADC_FtUpdateBaseline,"ax",%progbits
 582              		.align	2
 583              		.global	capsense_ADC_FtUpdateBaseline
 584              		.code	16
 585              		.thumb_func
 586              		.type	capsense_ADC_FtUpdateBaseline, %function
 587              	capsense_ADC_FtUpdateBaseline:
 588              	.LFB5:
 259:Generated_Source\PSoC4/capsense_ADC_Filter.c ****     uint32 sign;
 589              		.loc 1 259 0
 590              		.cfi_startproc
 591              		@ args = 0, pretend = 0, frame = 8
 592              		@ frame_needed = 0, uses_anonymous_args = 0
 593              	.LVL95:
 594 0000 F0B5     		push	{r4, r5, r6, r7, lr}
 595              		.cfi_def_cfa_offset 20
 596              		.cfi_offset 4, -20
 597              		.cfi_offset 5, -16
 598              		.cfi_offset 6, -12
ARM GAS  C:\Users\ASUS\AppData\Local\Temp\ccJZE5kf.s 			page 45


 599              		.cfi_offset 7, -8
 600              		.cfi_offset 14, -4
 601 0002 4746     		mov	r7, r8
 602 0004 80B4     		push	{r7}
 603              		.cfi_def_cfa_offset 24
 604              		.cfi_offset 8, -24
 605 0006 82B0     		sub	sp, sp, #8
 606              		.cfi_def_cfa_offset 32
 607 0008 0700     		movs	r7, r0
 608 000a 0E00     		movs	r6, r1
 609 000c 0192     		str	r2, [sp, #4]
 610              	.LVL96:
 271:Generated_Source\PSoC4/capsense_ADC_Filter.c ****     {
 611              		.loc 1 271 0
 612 000e 0123     		movs	r3, #1
 613 0010 3EE0     		b	.L34
 614              	.LVL97:
 615              	.L41:
 283:Generated_Source\PSoC4/capsense_ADC_Filter.c ****         {
 616              		.loc 1 283 0
 617 0012 6300     		lsls	r3, r4, #1
 618 0014 985B     		ldrh	r0, [r3, r6]
 619 0016 F318     		adds	r3, r6, r3
 620 0018 5988     		ldrh	r1, [r3, #2]
 621 001a 8842     		cmp	r0, r1
 622 001c 05D3     		bcc	.L35
 285:Generated_Source\PSoC4/capsense_ADC_Filter.c ****             sign = 1u;
 623              		.loc 1 285 0
 624 001e 431A     		subs	r3, r0, r1
 625              	.LVL98:
 287:Generated_Source\PSoC4/capsense_ADC_Filter.c ****         }
 626              		.loc 1 287 0
 627 0020 3219     		adds	r2, r6, r4
 628 0022 0025     		movs	r5, #0
 629 0024 1572     		strb	r5, [r2, #8]
 286:Generated_Source\PSoC4/capsense_ADC_Filter.c ****             ptrSensor->negBslnRstCnt[freqChannel] = 0u;
 630              		.loc 1 286 0
 631 0026 0122     		movs	r2, #1
 632 0028 01E0     		b	.L36
 633              	.LVL99:
 634              	.L35:
 291:Generated_Source\PSoC4/capsense_ADC_Filter.c ****             sign = 0u;
 635              		.loc 1 291 0
 636 002a 0B1A     		subs	r3, r1, r0
 637              	.LVL100:
 292:Generated_Source\PSoC4/capsense_ADC_Filter.c ****         }
 638              		.loc 1 292 0
 639 002c 0022     		movs	r2, #0
 640              	.LVL101:
 641              	.L36:
 296:Generated_Source\PSoC4/capsense_ADC_Filter.c ****         {
 642              		.loc 1 296 0
 643 002e 002A     		cmp	r2, #0
 644 0030 11D1     		bne	.L37
 296:Generated_Source\PSoC4/capsense_ADC_Filter.c ****         {
 645              		.loc 1 296 0 is_stmt 0 discriminator 1
 646 0032 7D79     		ldrb	r5, [r7, #5]
ARM GAS  C:\Users\ASUS\AppData\Local\Temp\ccJZE5kf.s 			page 46


 647 0034 AB42     		cmp	r3, r5
 648 0036 0ED9     		bls	.L37
 298:Generated_Source\PSoC4/capsense_ADC_Filter.c ****             {
 649              		.loc 1 298 0 is_stmt 1
 650 0038 3319     		adds	r3, r6, r4
 651              	.LVL102:
 652 003a 1B7A     		ldrb	r3, [r3, #8]
 653 003c 3A7A     		ldrb	r2, [r7, #8]
 654              	.LVL103:
 655 003e 9342     		cmp	r3, r2
 656 0040 05D3     		bcc	.L38
 300:Generated_Source\PSoC4/capsense_ADC_Filter.c ****             }
 657              		.loc 1 300 0
 658 0042 2200     		movs	r2, r4
 659 0044 0199     		ldr	r1, [sp, #4]
 660 0046 3000     		movs	r0, r6
 661 0048 FFF7FEFF 		bl	capsense_ADC_FtInitializeBaselineChannel
 662              	.LVL104:
 663 004c 1FE0     		b	.L39
 664              	.L38:
 304:Generated_Source\PSoC4/capsense_ADC_Filter.c ****             }
 665              		.loc 1 304 0
 666 004e 3219     		adds	r2, r6, r4
 667 0050 0133     		adds	r3, r3, #1
 668 0052 1372     		strb	r3, [r2, #8]
 669 0054 1BE0     		b	.L39
 670              	.LVL105:
 671              	.L37:
 311:Generated_Source\PSoC4/capsense_ADC_Filter.c ****                     ((difference <= (uint32) ptrWidgetRam->nNoiseTh) && (sign == 0u)))
 672              		.loc 1 311 0
 673 0056 3D79     		ldrb	r5, [r7, #4]
 674 0058 AB42     		cmp	r3, r5
 675 005a 04D9     		bls	.L40
 312:Generated_Source\PSoC4/capsense_ADC_Filter.c ****                 {
 676              		.loc 1 312 0 discriminator 1
 677 005c 7D79     		ldrb	r5, [r7, #5]
 311:Generated_Source\PSoC4/capsense_ADC_Filter.c ****                     ((difference <= (uint32) ptrWidgetRam->nNoiseTh) && (sign == 0u)))
 678              		.loc 1 311 0 discriminator 1
 679 005e AB42     		cmp	r3, r5
 680 0060 15D8     		bhi	.L39
 312:Generated_Source\PSoC4/capsense_ADC_Filter.c ****                 {
 681              		.loc 1 312 0
 682 0062 002A     		cmp	r2, #0
 683 0064 13D1     		bne	.L39
 684              	.L40:
 318:Generated_Source\PSoC4/capsense_ADC_Filter.c ****                 {
 685              		.loc 1 318 0
 686 0066 FF23     		movs	r3, #255
 687              	.LVL106:
 688 0068 019A     		ldr	r2, [sp, #4]
 689              	.LVL107:
 690 006a 1340     		ands	r3, r2
 691 006c 062B     		cmp	r3, #6
 692 006e 0ED0     		beq	.L39
 322:Generated_Source\PSoC4/capsense_ADC_Filter.c ****                             history |= ptrSensor->bslnExt[freqChannel];
 693              		.loc 1 322 0
 694 0070 0902     		lsls	r1, r1, #8
ARM GAS  C:\Users\ASUS\AppData\Local\Temp\ccJZE5kf.s 			page 47


 695              	.LVL108:
 323:Generated_Source\PSoC4/capsense_ADC_Filter.c ****                         #else
 696              		.loc 1 323 0
 697 0072 3319     		adds	r3, r6, r4
 698 0074 9846     		mov	r8, r3
 699 0076 1B79     		ldrb	r3, [r3, #4]
 700 0078 1943     		orrs	r1, r3
 701              	.LVL109:
 334:Generated_Source\PSoC4/capsense_ADC_Filter.c ****                                         (uint32)ptrSensor->raw[freqChannel],
 702              		.loc 1 334 0
 703 007a 0823     		movs	r3, #8
 704 007c 0122     		movs	r2, #1
 705 007e FFF7FEFF 		bl	capsense_ADC_FtIIR1stOrder
 706              	.LVL110:
 340:Generated_Source\PSoC4/capsense_ADC_Filter.c ****                             ptrSensor->bslnExt[freqChannel] = LO8(history);
 707              		.loc 1 340 0
 708 0082 020A     		lsrs	r2, r0, #8
 709 0084 6300     		lsls	r3, r4, #1
 710 0086 F318     		adds	r3, r6, r3
 711 0088 5A80     		strh	r2, [r3, #2]
 341:Generated_Source\PSoC4/capsense_ADC_Filter.c ****                         #else
 712              		.loc 1 341 0
 713 008a 4346     		mov	r3, r8
 714 008c 1871     		strb	r0, [r3, #4]
 715              	.LVL111:
 716              	.L39:
 717 008e 2300     		movs	r3, r4
 718              	.LVL112:
 719              	.L34:
 271:Generated_Source\PSoC4/capsense_ADC_Filter.c ****     {
 720              		.loc 1 271 0 discriminator 1
 721 0090 5C1E     		subs	r4, r3, #1
 722              	.LVL113:
 723 0092 002B     		cmp	r3, #0
 724 0094 BDD1     		bne	.L41
 398:Generated_Source\PSoC4/capsense_ADC_Filter.c **** 
 725              		.loc 1 398 0
 726 0096 0020     		movs	r0, #0
 727 0098 02B0     		add	sp, sp, #8
 728              		@ sp needed
 729              	.LVL114:
 730              	.LVL115:
 731              	.LVL116:
 732 009a 04BC     		pop	{r2}
 733 009c 9046     		mov	r8, r2
 734 009e F0BD     		pop	{r4, r5, r6, r7, pc}
 735              		.cfi_endproc
 736              	.LFE5:
 737              		.size	capsense_ADC_FtUpdateBaseline, .-capsense_ADC_FtUpdateBaseline
 738              		.section	.text.capsense_ADC_UpdateSensorBaseline,"ax",%progbits
 739              		.align	2
 740              		.global	capsense_ADC_UpdateSensorBaseline
 741              		.code	16
 742              		.thumb_func
 743              		.type	capsense_ADC_UpdateSensorBaseline, %function
 744              	capsense_ADC_UpdateSensorBaseline:
 745              	.LFB4:
ARM GAS  C:\Users\ASUS\AppData\Local\Temp\ccJZE5kf.s 			page 48


 201:Generated_Source\PSoC4/capsense_ADC_Filter.c ****     uint32 result = CYRET_SUCCESS;
 746              		.loc 1 201 0
 747              		.cfi_startproc
 748              		@ args = 0, pretend = 0, frame = 0
 749              		@ frame_needed = 0, uses_anonymous_args = 0
 750              	.LVL117:
 751 0000 10B5     		push	{r4, lr}
 752              		.cfi_def_cfa_offset 8
 753              		.cfi_offset 4, -8
 754              		.cfi_offset 14, -4
 755              	.LVL118:
 206:Generated_Source\PSoC4/capsense_ADC_Filter.c **** 
 756              		.loc 1 206 0
 757 0002 2C23     		movs	r3, #44
 758 0004 5843     		muls	r0, r3
 759              	.LVL119:
 760 0006 064B     		ldr	r3, .L43
 761 0008 1B18     		adds	r3, r3, r0
 762              	.LVL120:
 763 000a 5868     		ldr	r0, [r3, #4]
 764              	.LVL121:
 210:Generated_Source\PSoC4/capsense_ADC_Filter.c ****     result = capsense_ADC_FtUpdateBaseline(ptrWidgetRam, ptrSensor, (uint32)ptrWidget->wdgtType);
 765              		.loc 1 210 0
 766 000c 8A00     		lsls	r2, r1, #2
 767 000e 5218     		adds	r2, r2, r1
 768 0010 5100     		lsls	r1, r2, #1
 769              	.LVL122:
 770 0012 9A68     		ldr	r2, [r3, #8]
 771 0014 9446     		mov	ip, r2
 772 0016 6144     		add	r1, r1, ip
 773              	.LVL123:
 211:Generated_Source\PSoC4/capsense_ADC_Filter.c **** 
 774              		.loc 1 211 0
 775 0018 9A7E     		ldrb	r2, [r3, #26]
 776 001a FFF7FEFF 		bl	capsense_ADC_FtUpdateBaseline
 777              	.LVL124:
 222:Generated_Source\PSoC4/capsense_ADC_Filter.c **** 
 778              		.loc 1 222 0
 779              		@ sp needed
 780 001e 10BD     		pop	{r4, pc}
 781              	.L44:
 782              		.align	2
 783              	.L43:
 784 0020 00000000 		.word	capsense_ADC_dsFlash
 785              		.cfi_endproc
 786              	.LFE4:
 787              		.size	capsense_ADC_UpdateSensorBaseline, .-capsense_ADC_UpdateSensorBaseline
 788              		.section	.text.capsense_ADC_UpdateWidgetBaseline,"ax",%progbits
 789              		.align	2
 790              		.global	capsense_ADC_UpdateWidgetBaseline
 791              		.code	16
 792              		.thumb_func
 793              		.type	capsense_ADC_UpdateWidgetBaseline, %function
 794              	capsense_ADC_UpdateWidgetBaseline:
 795              	.LFB3:
 144:Generated_Source\PSoC4/capsense_ADC_Filter.c ****     uint32 sensorId;
 796              		.loc 1 144 0
ARM GAS  C:\Users\ASUS\AppData\Local\Temp\ccJZE5kf.s 			page 49


 797              		.cfi_startproc
 798              		@ args = 0, pretend = 0, frame = 0
 799              		@ frame_needed = 0, uses_anonymous_args = 0
 800              	.LVL125:
 801 0000 70B5     		push	{r4, r5, r6, lr}
 802              		.cfi_def_cfa_offset 16
 803              		.cfi_offset 4, -16
 804              		.cfi_offset 5, -12
 805              		.cfi_offset 6, -8
 806              		.cfi_offset 14, -4
 807 0002 0600     		movs	r6, r0
 808              	.LVL126:
 152:Generated_Source\PSoC4/capsense_ADC_Filter.c **** 
 809              		.loc 1 152 0
 810 0004 2C23     		movs	r3, #44
 811 0006 4343     		muls	r3, r0
 812 0008 074A     		ldr	r2, .L48
 813 000a D318     		adds	r3, r2, r3
 814              	.LVL127:
 815 000c 1B8B     		ldrh	r3, [r3, #24]
 816              	.LVL128:
 149:Generated_Source\PSoC4/capsense_ADC_Filter.c **** 
 817              		.loc 1 149 0
 818 000e 0025     		movs	r5, #0
 154:Generated_Source\PSoC4/capsense_ADC_Filter.c ****     {
 819              		.loc 1 154 0
 820 0010 05E0     		b	.L46
 821              	.LVL129:
 822              	.L47:
 156:Generated_Source\PSoC4/capsense_ADC_Filter.c ****     }
 823              		.loc 1 156 0
 824 0012 2100     		movs	r1, r4
 825 0014 3000     		movs	r0, r6
 826 0016 FFF7FEFF 		bl	capsense_ADC_UpdateSensorBaseline
 827              	.LVL130:
 828 001a 0543     		orrs	r5, r0
 829              	.LVL131:
 154:Generated_Source\PSoC4/capsense_ADC_Filter.c ****     {
 830              		.loc 1 154 0
 831 001c 2300     		movs	r3, r4
 832              	.LVL132:
 833              	.L46:
 154:Generated_Source\PSoC4/capsense_ADC_Filter.c ****     {
 834              		.loc 1 154 0 is_stmt 0 discriminator 1
 835 001e 5C1E     		subs	r4, r3, #1
 836              	.LVL133:
 837 0020 002B     		cmp	r3, #0
 838 0022 F6D1     		bne	.L47
 160:Generated_Source\PSoC4/capsense_ADC_Filter.c **** 
 839              		.loc 1 160 0 is_stmt 1
 840 0024 2800     		movs	r0, r5
 841              		@ sp needed
 842              	.LVL134:
 843              	.LVL135:
 844              	.LVL136:
 845 0026 70BD     		pop	{r4, r5, r6, pc}
 846              	.L49:
ARM GAS  C:\Users\ASUS\AppData\Local\Temp\ccJZE5kf.s 			page 50


 847              		.align	2
 848              	.L48:
 849 0028 00000000 		.word	capsense_ADC_dsFlash
 850              		.cfi_endproc
 851              	.LFE3:
 852              		.size	capsense_ADC_UpdateWidgetBaseline, .-capsense_ADC_UpdateWidgetBaseline
 853              		.section	.text.capsense_ADC_UpdateAllBaselines,"ax",%progbits
 854              		.align	2
 855              		.global	capsense_ADC_UpdateAllBaselines
 856              		.code	16
 857              		.thumb_func
 858              		.type	capsense_ADC_UpdateAllBaselines, %function
 859              	capsense_ADC_UpdateAllBaselines:
 860              	.LFB2:
  98:Generated_Source\PSoC4/capsense_ADC_Filter.c ****     uint32 widgetId;
 861              		.loc 1 98 0
 862              		.cfi_startproc
 863              		@ args = 0, pretend = 0, frame = 0
 864              		@ frame_needed = 0, uses_anonymous_args = 0
 865 0000 70B5     		push	{r4, r5, r6, lr}
 866              		.cfi_def_cfa_offset 16
 867              		.cfi_offset 4, -16
 868              		.cfi_offset 5, -12
 869              		.cfi_offset 6, -8
 870              		.cfi_offset 14, -4
 871              	.LVL137:
 100:Generated_Source\PSoC4/capsense_ADC_Filter.c **** 
 872              		.loc 1 100 0
 873 0002 0025     		movs	r5, #0
 102:Generated_Source\PSoC4/capsense_ADC_Filter.c ****     {
 874              		.loc 1 102 0
 875 0004 0423     		movs	r3, #4
 876 0006 04E0     		b	.L51
 877              	.LVL138:
 878              	.L52:
 104:Generated_Source\PSoC4/capsense_ADC_Filter.c ****     }
 879              		.loc 1 104 0
 880 0008 2000     		movs	r0, r4
 881 000a FFF7FEFF 		bl	capsense_ADC_UpdateWidgetBaseline
 882              	.LVL139:
 883 000e 0543     		orrs	r5, r0
 884              	.LVL140:
 102:Generated_Source\PSoC4/capsense_ADC_Filter.c ****     {
 885              		.loc 1 102 0
 886 0010 2300     		movs	r3, r4
 887              	.LVL141:
 888              	.L51:
 102:Generated_Source\PSoC4/capsense_ADC_Filter.c ****     {
 889              		.loc 1 102 0 is_stmt 0 discriminator 1
 890 0012 5C1E     		subs	r4, r3, #1
 891              	.LVL142:
 892 0014 002B     		cmp	r3, #0
 893 0016 F7D1     		bne	.L52
 108:Generated_Source\PSoC4/capsense_ADC_Filter.c **** 
 894              		.loc 1 108 0 is_stmt 1
 895 0018 2800     		movs	r0, r5
 896              		@ sp needed
ARM GAS  C:\Users\ASUS\AppData\Local\Temp\ccJZE5kf.s 			page 51


 897              	.LVL143:
 898              	.LVL144:
 899 001a 70BD     		pop	{r4, r5, r6, pc}
 900              		.cfi_endproc
 901              	.LFE2:
 902              		.size	capsense_ADC_UpdateAllBaselines, .-capsense_ADC_UpdateAllBaselines
 903              		.text
 904              	.Letext0:
 905              		.file 2 "Generated_Source\\PSoC4\\cytypes.h"
 906              		.file 3 "Generated_Source\\PSoC4\\capsense_ADC_Configuration.h"
 907              		.file 4 "Generated_Source\\PSoC4\\capsense_ADC_SmartSense_LL.h"
 908              		.file 5 "Generated_Source\\PSoC4\\capsense_ADC_Structure.h"