ARM GAS  C:\Users\Usuario\AppData\Local\Temp\ccLIFbgA.s 			page 1


   1              		.syntax unified
   2              		.cpu cortex-m0
   3              		.fpu softvfp
   4              		.eabi_attribute 20, 1
   5              		.eabi_attribute 21, 1
   6              		.eabi_attribute 23, 3
   7              		.eabi_attribute 24, 1
   8              		.eabi_attribute 25, 1
   9              		.eabi_attribute 26, 1
  10              		.eabi_attribute 30, 1
  11              		.eabi_attribute 34, 0
  12              		.eabi_attribute 18, 4
  13              		.thumb
  14              		.syntax unified
  15              		.file	"main.c"
  16              		.text
  17              	.Ltext0:
  18              		.cfi_sections	.debug_frame
  19              		.section	.text.pwm_duty,"ax",%progbits
  20              		.align	2
  21              		.global	pwm_duty
  22              		.code	16
  23              		.thumb_func
  24              		.type	pwm_duty, %function
  25              	pwm_duty:
  26              	.LFB32:
  27              		.file 1 "../../api/machine/pwm.c"
   1:../../api/machine/pwm.c **** // Project Name: Aixt project, https://gitlab.com/fermarsan/aixt-project.git
   2:../../api/machine/pwm.c **** // File Name: pwm.c
   3:../../api/machine/pwm.c **** // Author: Javier Leon, Camilo Lucas and Fernando Martínez Santa
   4:../../api/machine/pwm.c **** // Date: 2023
   5:../../api/machine/pwm.c **** // License: MIT
   6:../../api/machine/pwm.c **** //
   7:../../api/machine/pwm.c **** // Description: This is a module to emulate a PWM output in console.
   8:../../api/machine/pwm.c **** //              (CY8CKIT-049-42XX)
   9:../../api/machine/pwm.c **** 
  10:../../api/machine/pwm.c **** void pwm_duty(int pwm_id, int duty) {
  28              		.loc 1 10 0
  29              		.cfi_startproc
  30              		@ args = 0, pretend = 0, frame = 0
  31              		@ frame_needed = 0, uses_anonymous_args = 0
  32              	.LVL0:
  33 0000 10B5     		push	{r4, lr}
  34              		.cfi_def_cfa_offset 8
  35              		.cfi_offset 4, -8
  36              		.cfi_offset 14, -4
  11:../../api/machine/pwm.c ****     if (pwm_id==1){
  37              		.loc 1 11 0
  38 0002 0128     		cmp	r0, #1
  39 0004 04D1     		bne	.L2
  40              	.LBB2:
  12:../../api/machine/pwm.c ****         pwm0_WriteCompare(duty*655);
  41              		.loc 1 12 0
  42 0006 0D48     		ldr	r0, .L6
  43              	.LVL1:
  44 0008 4843     		muls	r0, r1
  45 000a FFF7FEFF 		bl	pwm0_WriteCompare
ARM GAS  C:\Users\Usuario\AppData\Local\Temp\ccLIFbgA.s 			page 2


  46              	.LVL2:
  47              	.LBE2:
  48 000e 13E0     		b	.L1
  49              	.LVL3:
  50              	.L2:
  13:../../api/machine/pwm.c ****     }
  14:../../api/machine/pwm.c ****     else if (pwm_id==2){
  51              		.loc 1 14 0
  52 0010 0228     		cmp	r0, #2
  53 0012 04D1     		bne	.L4
  15:../../api/machine/pwm.c ****         pwm1_WriteCompare(duty*655);
  54              		.loc 1 15 0
  55 0014 0948     		ldr	r0, .L6
  56              	.LVL4:
  57 0016 4843     		muls	r0, r1
  58 0018 FFF7FEFF 		bl	pwm1_WriteCompare
  59              	.LVL5:
  60 001c 0CE0     		b	.L1
  61              	.LVL6:
  62              	.L4:
  16:../../api/machine/pwm.c ****     }
  17:../../api/machine/pwm.c ****     else if (pwm_id==3){
  63              		.loc 1 17 0
  64 001e 0328     		cmp	r0, #3
  65 0020 04D1     		bne	.L5
  18:../../api/machine/pwm.c ****         pwm2_WriteCompare(duty*655);
  66              		.loc 1 18 0
  67 0022 0648     		ldr	r0, .L6
  68              	.LVL7:
  69 0024 4843     		muls	r0, r1
  70 0026 FFF7FEFF 		bl	pwm2_WriteCompare
  71              	.LVL8:
  72 002a 05E0     		b	.L1
  73              	.LVL9:
  74              	.L5:
  19:../../api/machine/pwm.c ****     }
  20:../../api/machine/pwm.c ****     else if (pwm_id==4){
  75              		.loc 1 20 0
  76 002c 0428     		cmp	r0, #4
  77 002e 03D1     		bne	.L1
  21:../../api/machine/pwm.c ****         pwm3_WriteCompare(duty*655);
  78              		.loc 1 21 0
  79 0030 0248     		ldr	r0, .L6
  80              	.LVL10:
  81 0032 4843     		muls	r0, r1
  82 0034 FFF7FEFF 		bl	pwm3_WriteCompare
  83              	.LVL11:
  84              	.L1:
  22:../../api/machine/pwm.c ****     }
  23:../../api/machine/pwm.c **** }...
  85              		.loc 1 23 0
  86              		@ sp needed
  87 0038 10BD     		pop	{r4, pc}
  88              	.L7:
  89 003a C046     		.align	2
  90              	.L6:
  91 003c 8F020000 		.word	655
ARM GAS  C:\Users\Usuario\AppData\Local\Temp\ccLIFbgA.s 			page 3


  92              		.cfi_endproc
  93              	.LFE32:
  94              		.size	pwm_duty, .-pwm_duty
  95              		.section	.text.adc_read,"ax",%progbits
  96              		.align	2
  97              		.global	adc_read
  98              		.code	16
  99              		.thumb_func
 100              		.type	adc_read, %function
 101              	adc_read:
 102              	.LFB33:
 103              		.file 2 "../../api/machine/adc.c"
   1:../../api/machine/adc.c **** // Project Name: Aixt project, https://gitlab.com/fermarsan/aixt-project.git
   2:../../api/machine/adc.c **** // File Name: adc.c
   3:../../api/machine/adc.c **** // Author: Javier Leon, Camilo Lucas and Fernando Martínez Santa
   4:../../api/machine/adc.c **** // Date: 2023
   5:../../api/machine/adc.c **** // License: MIT
   6:../../api/machine/adc.c **** //
   7:../../api/machine/adc.c **** // Description: This is a module to emulate ADC inputs in console.
   8:../../api/machine/adc.c **** //              (CY8CKIT-049-42XX)
   9:../../api/machine/adc.c **** 
  10:../../api/machine/adc.c **** void adc_read(int channel) {
 104              		.loc 2 10 0
 105              		.cfi_startproc
 106              		@ args = 0, pretend = 0, frame = 0
 107              		@ frame_needed = 0, uses_anonymous_args = 0
 108              	.LVL12:
 109 0000 10B5     		push	{r4, lr}
 110              		.cfi_def_cfa_offset 8
 111              		.cfi_offset 4, -8
 112              		.cfi_offset 14, -4
  11:../../api/machine/adc.c ****     if (channel==1){
 113              		.loc 2 11 0
 114 0002 0128     		cmp	r0, #1
 115 0004 03D1     		bne	.L9
  12:../../api/machine/adc.c ****         amux_FastSelect(0);
 116              		.loc 2 12 0
 117 0006 0020     		movs	r0, #0
 118              	.LVL13:
 119 0008 FFF7FEFF 		bl	amux_FastSelect
 120              	.LVL14:
 121 000c 10E0     		b	.L10
 122              	.LVL15:
 123              	.L9:
  13:../../api/machine/adc.c ****     }
  14:../../api/machine/adc.c ****     else if (channel==2){
 124              		.loc 2 14 0
 125 000e 0228     		cmp	r0, #2
 126 0010 03D1     		bne	.L11
  15:../../api/machine/adc.c ****         amux_FastSelect(1);
 127              		.loc 2 15 0
 128 0012 0138     		subs	r0, r0, #1
 129              	.LVL16:
 130 0014 FFF7FEFF 		bl	amux_FastSelect
 131              	.LVL17:
 132 0018 0AE0     		b	.L10
 133              	.LVL18:
ARM GAS  C:\Users\Usuario\AppData\Local\Temp\ccLIFbgA.s 			page 4


 134              	.L11:
  16:../../api/machine/adc.c ****     }
  17:../../api/machine/adc.c ****     else if (channel==3){
 135              		.loc 2 17 0
 136 001a 0328     		cmp	r0, #3
 137 001c 03D1     		bne	.L12
  18:../../api/machine/adc.c ****         amux_FastSelect(2);
 138              		.loc 2 18 0
 139 001e 0138     		subs	r0, r0, #1
 140              	.LVL19:
 141 0020 FFF7FEFF 		bl	amux_FastSelect
 142              	.LVL20:
 143 0024 04E0     		b	.L10
 144              	.LVL21:
 145              	.L12:
  19:../../api/machine/adc.c ****     }
  20:../../api/machine/adc.c ****     else if (channel==4){
 146              		.loc 2 20 0
 147 0026 0428     		cmp	r0, #4
 148 0028 02D1     		bne	.L10
  21:../../api/machine/adc.c ****         amux_FastSelect(3);
 149              		.loc 2 21 0
 150 002a 0138     		subs	r0, r0, #1
 151              	.LVL22:
 152 002c FFF7FEFF 		bl	amux_FastSelect
 153              	.LVL23:
 154              	.L10:
  22:../../api/machine/adc.c ****     }
  23:../../api/machine/adc.c ****     adc_StartConvert();
 155              		.loc 2 23 0
 156 0030 FFF7FEFF 		bl	adc_StartConvert
 157              	.LVL24:
  24:../../api/machine/adc.c ****     adc_IsEndConversion(adc_WAIT_FOR_RESULT);
 158              		.loc 2 24 0
 159 0034 0220     		movs	r0, #2
 160 0036 FFF7FEFF 		bl	adc_IsEndConversion
 161              	.LVL25:
  25:../../api/machine/adc.c ****     uint16 conv=adc_GetResult16(0);
 162              		.loc 2 25 0
 163 003a 0020     		movs	r0, #0
 164 003c FFF7FEFF 		bl	adc_GetResult16
 165              	.LVL26:
  26:../../api/machine/adc.c ****     adc_StopConvert();
 166              		.loc 2 26 0
 167 0040 FFF7FEFF 		bl	adc_StopConvert
 168              	.LVL27:
  27:../../api/machine/adc.c **** }
 169              		.loc 2 27 0
 170              		@ sp needed
 171 0044 10BD     		pop	{r4, pc}
 172              		.cfi_endproc
 173              	.LFE33:
 174              		.size	adc_read, .-adc_read
 175 0046 C046     		.section	.text.input,"ax",%progbits
 176              		.align	2
 177              		.global	input
 178              		.code	16
ARM GAS  C:\Users\Usuario\AppData\Local\Temp\ccLIFbgA.s 			page 5


 179              		.thumb_func
 180              		.type	input, %function
 181              	input:
 182              	.LFB34:
 183              		.file 3 "../../api/machine/uart.c"
   1:../../api/machine/uart.c **** // Project Name: Aixt project, https://gitlab.com/fermarsan/aixt-project.git
   2:../../api/machine/uart.c **** // File Name: pwm.c
   3:../../api/machine/uart.c **** // Author: Javier Leon, Camilo Lucas and Fernando Martínez Santa
   4:../../api/machine/uart.c **** // Date: 2023
   5:../../api/machine/uart.c **** // License: MIT
   6:../../api/machine/uart.c **** //
   7:../../api/machine/uart.c **** // Description: This is a module to emulate a PWM output in console.
   8:../../api/machine/uart.c **** //              (CY8CKIT-049-42XX)
   9:../../api/machine/uart.c **** 
  10:../../api/machine/uart.c **** void input() {
 184              		.loc 3 10 0
 185              		.cfi_startproc
 186              		@ args = 0, pretend = 0, frame = 0
 187              		@ frame_needed = 0, uses_anonymous_args = 0
 188 0000 10B5     		push	{r4, lr}
 189              		.cfi_def_cfa_offset 8
 190              		.cfi_offset 4, -8
 191              		.cfi_offset 14, -4
  11:../../api/machine/uart.c ****     char str1=UART_UartGetChar();
 192              		.loc 3 11 0
 193 0002 FFF7FEFF 		bl	UART_UartGetChar
 194              	.LVL28:
  12:../../api/machine/uart.c **** }
 195              		.loc 3 12 0
 196              		@ sp needed
 197 0006 10BD     		pop	{r4, pc}
 198              		.cfi_endproc
 199              	.LFE34:
 200              		.size	input, .-input
 201              		.section	.text.print,"ax",%progbits
 202              		.align	2
 203              		.global	print
 204              		.code	16
 205              		.thumb_func
 206              		.type	print, %function
 207              	print:
 208              	.LFB35:
  13:../../api/machine/uart.c **** 
  14:../../api/machine/uart.c **** void print(char mensaje[]){
 209              		.loc 3 14 0
 210              		.cfi_startproc
 211              		@ args = 0, pretend = 0, frame = 0
 212              		@ frame_needed = 0, uses_anonymous_args = 0
 213              	.LVL29:
 214 0000 10B5     		push	{r4, lr}
 215              		.cfi_def_cfa_offset 8
 216              		.cfi_offset 4, -8
 217              		.cfi_offset 14, -4
  15:../../api/machine/uart.c ****     UART_UartPutString(mensaje);
 218              		.loc 3 15 0
 219 0002 FFF7FEFF 		bl	UART_UartPutString
 220              	.LVL30:
ARM GAS  C:\Users\Usuario\AppData\Local\Temp\ccLIFbgA.s 			page 6


  16:../../api/machine/uart.c **** }
 221              		.loc 3 16 0
 222              		@ sp needed
 223 0006 10BD     		pop	{r4, pc}
 224              		.cfi_endproc
 225              	.LFE35:
 226              		.size	print, .-print
 227              		.section	.text.println,"ax",%progbits
 228              		.align	2
 229              		.global	println
 230              		.code	16
 231              		.thumb_func
 232              		.type	println, %function
 233              	println:
 234              	.LFB36:
  17:../../api/machine/uart.c **** 
  18:../../api/machine/uart.c **** void println(char mensaje[]){
 235              		.loc 3 18 0
 236              		.cfi_startproc
 237              		@ args = 0, pretend = 0, frame = 0
 238              		@ frame_needed = 0, uses_anonymous_args = 0
 239              	.LVL31:
 240 0000 10B5     		push	{r4, lr}
 241              		.cfi_def_cfa_offset 8
 242              		.cfi_offset 4, -8
 243              		.cfi_offset 14, -4
  19:../../api/machine/uart.c ****     UART_UartPutString(mensaje);
 244              		.loc 3 19 0
 245 0002 FFF7FEFF 		bl	UART_UartPutString
 246              	.LVL32:
  20:../../api/machine/uart.c ****     UART_UartPutString("\n\r");
 247              		.loc 3 20 0
 248 0006 0248     		ldr	r0, .L16
 249 0008 FFF7FEFF 		bl	UART_UartPutString
 250              	.LVL33:
  21:../../api/machine/uart.c **** }
 251              		.loc 3 21 0
 252              		@ sp needed
 253 000c 10BD     		pop	{r4, pc}
 254              	.L17:
 255 000e C046     		.align	2
 256              	.L16:
 257 0010 00000000 		.word	.LC0
 258              		.cfi_endproc
 259              	.LFE36:
 260              		.size	println, .-println
 261              		.section	.text.main,"ax",%progbits
 262              		.align	2
 263              		.global	main
 264              		.code	16
 265              		.thumb_func
 266              		.type	main, %function
 267              	main:
 268              	.LFB37:
 269              		.file 4 "main.c"
   1:main.c        **** /* ========================================
   2:main.c        ****  *
ARM GAS  C:\Users\Usuario\AppData\Local\Temp\ccLIFbgA.s 			page 7


   3:main.c        ****  * Copyright YOUR COMPANY, THE YEAR
   4:main.c        ****  * All Rights Reserved
   5:main.c        ****  * UNPUBLISHED, LICENSED SOFTWARE.
   6:main.c        ****  *
   7:main.c        ****  * CONFIDENTIAL AND PROPRIETARY INFORMATION
   8:main.c        ****  * WHICH IS THE PROPERTY OF your company.
   9:main.c        ****  *
  10:main.c        ****  * ========================================
  11:main.c        **** */
  12:main.c        **** #include "project.h"
  13:main.c        **** 
  14:main.c        **** #include "../../api/builtin.c"
  15:main.c        **** #include "../../api/machine/pin.c"
  16:main.c        **** #include "../../api/machine/pwm.c"
  17:main.c        **** #include "../../api/machine/adc.c"
  18:main.c        **** #include "../../api/machine/uart.c"
  19:main.c        **** #include "../../api/time/sleep_ms.c"
  20:main.c        **** 
  21:main.c        **** 
  22:main.c        **** int main(void)
  23:main.c        **** {
 270              		.loc 4 23 0
 271              		.cfi_startproc
 272              		@ Volatile: function does not return.
 273              		@ args = 0, pretend = 0, frame = 0
 274              		@ frame_needed = 0, uses_anonymous_args = 0
 275 0000 10B5     		push	{r4, lr}
 276              		.cfi_def_cfa_offset 8
 277              		.cfi_offset 4, -8
 278              		.cfi_offset 14, -4
  24:main.c        ****     CyGlobalIntEnable; /* Enable global interrupts. */
 279              		.loc 4 24 0
 280              		.syntax divided
 281              	@ 24 "main.c" 1
 282 0002 62B6     		CPSIE   i
 283              	@ 0 "" 2
  25:main.c        ****     uart_Start();
 284              		.loc 4 25 0
 285              		.thumb
 286              		.syntax unified
 287 0004 FFF7FEFF 		bl	uart_Start
 288              	.LVL34:
  26:main.c        ****     pwm1_Start();
 289              		.loc 4 26 0
 290 0008 FFF7FEFF 		bl	pwm1_Start
 291              	.LVL35:
  27:main.c        ****     pwm2_Start();
 292              		.loc 4 27 0
 293 000c FFF7FEFF 		bl	pwm2_Start
 294              	.LVL36:
  28:main.c        ****     pwm3_Start();
 295              		.loc 4 28 0
 296 0010 FFF7FEFF 		bl	pwm3_Start
 297              	.LVL37:
  29:main.c        ****     pwm4_Start();
 298              		.loc 4 29 0
 299 0014 FFF7FEFF 		bl	pwm4_Start
ARM GAS  C:\Users\Usuario\AppData\Local\Temp\ccLIFbgA.s 			page 8


 300              	.LVL38:
  30:main.c        ****     clock_Start();
 301              		.loc 4 30 0
 302 0018 FFF7FEFF 		bl	clock_Start
 303              	.LVL39:
  31:main.c        ****     adc_Start();
 304              		.loc 4 31 0
 305 001c FFF7FEFF 		bl	adc_Start
 306              	.LVL40:
  32:main.c        ****     amux_Start();
 307              		.loc 4 32 0
 308 0020 FFF7FEFF 		bl	amux_Start
 309              	.LVL41:
 310              	.L19:
 311 0024 FEE7     		b	.L19
 312              		.cfi_endproc
 313              	.LFE37:
 314              		.size	main, .-main
 315 0026 C046     		.section	.rodata.str1.4,"aMS",%progbits,1
 316              		.align	2
 317              	.LC0:
 318 0000 0A0D00   		.ascii	"\012\015\000"
 319              		.text
 320              	.Letext0:
 321              		.file 5 "Generated_Source\\PSoC4/pwm1.h"
 322              		.file 6 "Generated_Source\\PSoC4/pwm2.h"
 323              		.file 7 "Generated_Source\\PSoC4/pwm3.h"
 324              		.file 8 "Generated_Source\\PSoC4/amux.h"
 325              		.file 9 "Generated_Source\\PSoC4/adc.h"
 326              		.file 10 "Generated_Source\\PSoC4/uart.h"
 327              		.file 11 "Generated_Source\\PSoC4/pwm4.h"
 328              		.file 12 "Generated_Source\\PSoC4/clock.h"
 329              		.file 13 "Generated_Source\\PSoC4/cytypes.h"