ARM GAS  C:\Users\ASUS\AppData\Local\Temp\ccAOduKb.s 			page 1


   1              		.syntax unified
   2              		.cpu cortex-m0
   3              		.fpu softvfp
   4              		.eabi_attribute 20, 1
   5              		.eabi_attribute 21, 1
   6              		.eabi_attribute 23, 3
   7              		.eabi_attribute 24, 1
   8              		.eabi_attribute 25, 1
   9              		.eabi_attribute 26, 1
  10              		.eabi_attribute 30, 1
  11              		.eabi_attribute 34, 0
  12              		.eabi_attribute 18, 4
  13              		.thumb
  14              		.syntax unified
  15              		.file	"main.c"
  16              		.text
  17              	.Ltext0:
  18              		.cfi_sections	.debug_frame
  19              		.section	.text.main__init,"ax",%progbits
  20              		.align	2
  21              		.global	main__init
  22              		.code	16
  23              		.thumb_func
  24              		.type	main__init, %function
  25              	main__init:
  26              	.LFB33:
  27              		.file 1 "main.c"
   1:main.c        **** // This C code was automatically generated by Aixt Compiler
   2:main.c        **** //     https://github.com/fermarsan/aixt
   3:main.c        **** // Device = CY8CKIT-049
   4:main.c        **** // Board = CY8CKIT-049-42XX
   5:main.c        **** // Backend = c
   6:main.c        **** #include "project.h"
   7:main.c        **** #include <stdint.h>
   8:main.c        **** #include <stdbool.h>
   9:main.c        **** #include <stdio.h>
  10:main.c        **** typedef int8_t i8;
  11:main.c        **** typedef int16_t i16;
  12:main.c        **** typedef int32_t i32;
  13:main.c        **** typedef int64_t i64;
  14:main.c        **** typedef int32_t isize;
  15:main.c        **** typedef int32_t int_literal;
  16:main.c        **** typedef uint8_t u8;
  17:main.c        **** typedef uint16_t u16;
  18:main.c        **** typedef uint32_t u32;
  19:main.c        **** typedef uint64_t u64;
  20:main.c        **** typedef uint32_t usize;
  21:main.c        **** typedef float f32;
  22:main.c        **** typedef double f64;
  23:main.c        **** typedef double float_literal;
  24:main.c        **** typedef char rune;
  25:main.c        **** 
  26:main.c        **** #define _const_main__cpu_freq_mhz	_const_main__cpu_freq/1000000
  27:main.c        **** #define _const_main__cpu_freq  20000000
  28:main.c        **** 
  29:main.c        **** // Project Name: Aixt https://github.com/fermarsan/aixt.git
  30:main.c        **** // Author: Fernando M. Santa - Daniel Polo - Edwin Barrera - Javier Leon - Camilo Lucas
ARM GAS  C:\Users\ASUS\AppData\Local\Temp\ccAOduKb.s 			page 2


  31:main.c        **** // Date: 2022-2025
  32:main.c        **** // License: MIT
  33:main.c        **** //
  34:main.c        **** // // Description: builtin (CY8CKIT-049-42XX)
  35:main.c        **** 
  36:main.c        **** #define INIT_INTERRUPTS()   CyGlobalIntEnable
  37:main.c        **** 
  38:main.c        **** void  main__init();
  39:main.c        **** u16  adc__read(i32 channel);
  40:main.c        **** char __temp_str[20];
  41:main.c        **** 
  42:main.c        **** #define _const_main__led1 led1
  43:main.c        **** #define _const_main___led2 led2
  44:main.c        **** #define _const_main__do0 3
  45:main.c        **** #define _const_main__do1 4
  46:main.c        **** #define _const_main__do2 5
  47:main.c        **** #define _const_main__do3 6
  48:main.c        **** #define _const_main__do4 7
  49:main.c        **** #define _const_main__do5 8
  50:main.c        **** #define _const_main__do6 9
  51:main.c        **** #define _const_main__do7 10
  52:main.c        **** #define _const_main__do8 11
  53:main.c        **** #define _const_main__do9 12
  54:main.c        **** #define _const_main__do10 13
  55:main.c        **** #define _const_main__sw1 sw1
  56:main.c        **** #define _const_main__di0 20
  57:main.c        **** #define _const_main__di1 21
  58:main.c        **** #define _const_main__di2 22
  59:main.c        **** #define _const_main__di3 23
  60:main.c        **** #define _const_main__di4 24
  61:main.c        **** #define _const_main__di5 25
  62:main.c        **** #define _const_main__di6 26
  63:main.c        **** #define _const_main__di7 27
  64:main.c        **** #define _const_main__di8 28
  65:main.c        **** #define _const_main__di9 29
  66:main.c        **** #define _const_main__di10 30
  67:main.c        **** 
  68:main.c        **** void  main__init() {
  28              		.loc 1 68 0
  29              		.cfi_startproc
  30              		@ args = 0, pretend = 0, frame = 0
  31              		@ frame_needed = 0, uses_anonymous_args = 0
  32              		@ link register save eliminated.
  69:main.c        **** 	INIT_INTERRUPTS(); 
  33              		.loc 1 69 0
  34              		.syntax divided
  35              	@ 69 "main.c" 1
  36 0000 62B6     		CPSIE   i
  37              	@ 0 "" 2
  70:main.c        **** }
  38              		.loc 1 70 0
  39              		.thumb
  40              		.syntax unified
  41              		@ sp needed
  42 0002 7047     		bx	lr
  43              		.cfi_endproc
  44              	.LFE33:
ARM GAS  C:\Users\ASUS\AppData\Local\Temp\ccAOduKb.s 			page 3


  45              		.size	main__init, .-main__init
  46              		.section	.text.adc__read,"ax",%progbits
  47              		.align	2
  48              		.global	adc__read
  49              		.code	16
  50              		.thumb_func
  51              		.type	adc__read, %function
  52              	adc__read:
  53              	.LFB34:
  71:main.c        **** 
  72:main.c        **** #define _const_adc__ch0 0
  73:main.c        **** #define _const_adc__ch1 1
  74:main.c        **** #define _const_adc__ch2 2
  75:main.c        **** #define _const_adc__ch3 3
  76:main.c        **** 
  77:main.c        **** inline u16  adc__read(i32 channel) {
  54              		.loc 1 77 0
  55              		.cfi_startproc
  56              		@ args = 0, pretend = 0, frame = 0
  57              		@ frame_needed = 0, uses_anonymous_args = 0
  58              	.LVL0:
  59 0000 10B5     		push	{r4, lr}
  60              		.cfi_def_cfa_offset 8
  61              		.cfi_offset 4, -8
  62              		.cfi_offset 14, -4
  78:main.c        **** 	amux_FastSelect(channel); 
  63              		.loc 1 78 0
  64 0002 C0B2     		uxtb	r0, r0
  65              	.LVL1:
  66 0004 FFF7FEFF 		bl	amux_FastSelect
  67              	.LVL2:
  79:main.c        **** 	CyDelay(5); 
  68              		.loc 1 79 0
  69 0008 0520     		movs	r0, #5
  70 000a FFF7FEFF 		bl	CyDelay
  71              	.LVL3:
  80:main.c        **** 	adc_StartConvert(); 
  72              		.loc 1 80 0
  73 000e FFF7FEFF 		bl	adc_StartConvert
  74              	.LVL4:
  75              	.L3:
  81:main.c        **** 	while( !adc_IsEndConversion(adc_RETURN_STATUS) ) { 
  76              		.loc 1 81 0 discriminator 1
  77 0012 0120     		movs	r0, #1
  78 0014 FFF7FEFF 		bl	adc_IsEndConversion
  79              	.LVL5:
  80 0018 0028     		cmp	r0, #0
  81 001a FAD0     		beq	.L3
  82:main.c        **** 	} 
  83:main.c        **** 	adc_StopConvert(); 
  82              		.loc 1 83 0
  83 001c FFF7FEFF 		bl	adc_StopConvert
  84              	.LVL6:
  84:main.c        **** 	return adc_GetResult16(0); 
  85              		.loc 1 84 0
  86 0020 0020     		movs	r0, #0
  87 0022 FFF7FEFF 		bl	adc_GetResult16
ARM GAS  C:\Users\ASUS\AppData\Local\Temp\ccAOduKb.s 			page 4


  88              	.LVL7:
  89 0026 80B2     		uxth	r0, r0
  85:main.c        **** }
  90              		.loc 1 85 0
  91              		@ sp needed
  92 0028 10BD     		pop	{r4, pc}
  93              		.cfi_endproc
  94              	.LFE34:
  95              		.size	adc__read, .-adc__read
  96 002a C046     		.section	.text.main,"ax",%progbits
  97              		.align	2
  98              		.global	main
  99              		.code	16
 100              		.thumb_func
 101              		.type	main, %function
 102              	main:
 103              	.LFB35:
  86:main.c        **** 
  87:main.c        **** #define adc__setup() \
  88:main.c        **** adc_Start(); \
  89:main.c        **** amux_Start(); 
  90:main.c        **** 
  91:main.c        **** #define uart__print(message) uart_UartPutString(message)
  92:main.c        **** 
  93:main.c        **** #define uart__println(message) \
  94:main.c        **** uart_UartPutString(message); \
  95:main.c        **** uart_UartPutChar(0x0D); \
  96:main.c        **** uart_UartPutChar(0x0A); 
  97:main.c        **** 
  98:main.c        **** #define uart__read()  uart_UartGetChar()
  99:main.c        **** 
 100:main.c        **** #define uart__setup() uart_Start()
 101:main.c        **** 
 102:main.c        **** #define uart__write(character) uart_UartPutChar(character)
 103:main.c        **** 
 104:main.c        **** #define time__sleep_ms(tms) CyDelay(tms)
 105:main.c        **** 
 106:main.c        **** #define time__sleep_us(tus) CyDelayUs(tus)
 107:main.c        **** 
 108:main.c        **** int main() {
 104              		.loc 1 108 0
 105              		.cfi_startproc
 106              		@ args = 0, pretend = 0, frame = 0
 107              		@ frame_needed = 0, uses_anonymous_args = 0
 108 0000 10B5     		push	{r4, lr}
 109              		.cfi_def_cfa_offset 8
 110              		.cfi_offset 4, -8
 111              		.cfi_offset 14, -4
 109:main.c        **** 	main__init();
 112              		.loc 1 109 0
 113 0002 FFF7FEFF 		bl	main__init
 114              	.LVL8:
 110:main.c        **** 	uart__setup(); 
 115              		.loc 1 110 0
 116 0006 FFF7FEFF 		bl	uart_Start
 117              	.LVL9:
 111:main.c        **** 	adc__setup(); 
ARM GAS  C:\Users\ASUS\AppData\Local\Temp\ccAOduKb.s 			page 5


 118              		.loc 1 111 0
 119 000a FFF7FEFF 		bl	adc_Start
 120              	.LVL10:
 121 000e FFF7FEFF 		bl	amux_Start
 122              	.LVL11:
 123              	.L6:
 124              	.LBB5:
 125              	.LBB6:
 126              	.LBB7:
  78:main.c        **** 	CyDelay(5); 
 127              		.loc 1 78 0 discriminator 1
 128 0012 0020     		movs	r0, #0
 129 0014 FFF7FEFF 		bl	amux_FastSelect
 130              	.LVL12:
  79:main.c        **** 	adc_StartConvert(); 
 131              		.loc 1 79 0 discriminator 1
 132 0018 0520     		movs	r0, #5
 133 001a FFF7FEFF 		bl	CyDelay
 134              	.LVL13:
  80:main.c        **** 	while( !adc_IsEndConversion(adc_RETURN_STATUS) ) { 
 135              		.loc 1 80 0 discriminator 1
 136 001e FFF7FEFF 		bl	adc_StartConvert
 137              	.LVL14:
 138              	.L5:
  81:main.c        **** 	} 
 139              		.loc 1 81 0
 140 0022 0120     		movs	r0, #1
 141 0024 FFF7FEFF 		bl	adc_IsEndConversion
 142              	.LVL15:
 143 0028 0028     		cmp	r0, #0
 144 002a FAD0     		beq	.L5
  83:main.c        **** 	return adc_GetResult16(0); 
 145              		.loc 1 83 0
 146 002c FFF7FEFF 		bl	adc_StopConvert
 147              	.LVL16:
  84:main.c        **** }
 148              		.loc 1 84 0
 149 0030 0020     		movs	r0, #0
 150 0032 FFF7FEFF 		bl	adc_GetResult16
 151              	.LVL17:
 152 0036 82B2     		uxth	r2, r0
 153              	.LVL18:
 154              	.LBE7:
 155              	.LBE6:
 112:main.c        **** 	while( true ) {
 113:main.c        **** 		u16 analog = (u16)(adc__read(_const_adc__ch0)); 
 114:main.c        **** 		sprintf(__temp_str, "ADC channel 0: %u", (unsigned int)analog);
 156              		.loc 1 114 0
 157 0038 094C     		ldr	r4, .L7
 158 003a 0A49     		ldr	r1, .L7+4
 159 003c 2000     		movs	r0, r4
 160 003e FFF7FEFF 		bl	sprintf
 161              	.LVL19:
 115:main.c        **** 		uart__println(__temp_str); 
 162              		.loc 1 115 0
 163 0042 2000     		movs	r0, r4
 164 0044 FFF7FEFF 		bl	uart_UartPutString
ARM GAS  C:\Users\ASUS\AppData\Local\Temp\ccAOduKb.s 			page 6


 165              	.LVL20:
 166 0048 0D20     		movs	r0, #13
 167 004a FFF7FEFF 		bl	uart_SpiUartWriteTxData
 168              	.LVL21:
 169 004e 0A20     		movs	r0, #10
 170 0050 FFF7FEFF 		bl	uart_SpiUartWriteTxData
 171              	.LVL22:
 116:main.c        **** 		time__sleep_ms(1000); 
 172              		.loc 1 116 0
 173 0054 FA20     		movs	r0, #250
 174 0056 8000     		lsls	r0, r0, #2
 175 0058 FFF7FEFF 		bl	CyDelay
 176              	.LVL23:
 177              	.LBE5:
 117:main.c        **** 	} 
 178              		.loc 1 117 0
 179 005c D9E7     		b	.L6
 180              	.L8:
 181 005e C046     		.align	2
 182              	.L7:
 183 0060 00000000 		.word	__temp_str
 184 0064 00000000 		.word	.LC0
 185              		.cfi_endproc
 186              	.LFE35:
 187              		.size	main, .-main
 188              		.comm	__temp_str,20,4
 189              		.section	.rodata.str1.4,"aMS",%progbits,1
 190              		.align	2
 191              	.LC0:
 192 0000 41444320 		.ascii	"ADC channel 0: %u\000"
 192      6368616E 
 192      6E656C20 
 192      303A2025 
 192      7500
 193              		.text
 194              	.Letext0:
 195              		.file 2 "c:\\program files (x86)\\cypress\\psoc creator\\4.4\\psoc creator\\import\\gnu\\arm\\5.4.
 196              		.file 3 "c:\\program files (x86)\\cypress\\psoc creator\\4.4\\psoc creator\\import\\gnu\\arm\\5.4.
 197              		.file 4 "Generated_Source\\PSoC4/cytypes.h"
 198              		.file 5 "Generated_Source\\PSoC4/amux.h"
 199              		.file 6 "Generated_Source\\PSoC4/CyLib.h"
 200              		.file 7 "Generated_Source\\PSoC4/adc.h"
 201              		.file 8 "c:\\program files (x86)\\cypress\\psoc creator\\4.4\\psoc creator\\import\\gnu\\arm\\5.4.
 202              		.file 9 "Generated_Source\\PSoC4/uart_SPI_UART.h"
 203              		.file 10 "Generated_Source\\PSoC4/uart.h"