ARM GAS  C:\Users\ASUS\AppData\Local\Temp\ccJim9J2.s 			page 1


   1              		.syntax unified
   2              		.cpu cortex-m0
   3              		.fpu softvfp
   4              		.eabi_attribute 20, 1
   5              		.eabi_attribute 21, 1
   6              		.eabi_attribute 23, 3
   7              		.eabi_attribute 24, 1
   8              		.eabi_attribute 25, 1
   9              		.eabi_attribute 26, 1
  10              		.eabi_attribute 30, 6
  11              		.eabi_attribute 34, 0
  12              		.eabi_attribute 18, 4
  13              		.thumb
  14              		.syntax unified
  15              		.file	"Bootloader_1.c"
  16              		.text
  17              	.Ltext0:
  18              		.cfi_sections	.debug_frame
  19              		.global	Bootloader_1_Checksum
  20              		.section	.bootloader,"a",%progbits
  21              		.type	Bootloader_1_Checksum, %object
  22              		.size	Bootloader_1_Checksum, 1
  23              	Bootloader_1_Checksum:
  24 0000 00       		.space	1
  25              		.global	Bootloader_1_SizeBytes
  26 0001 000000   		.align	2
  27              		.type	Bootloader_1_SizeBytes, %object
  28              		.size	Bootloader_1_SizeBytes, 4
  29              	Bootloader_1_SizeBytes:
  30 0004 FFFFFFFF 		.word	-1
  31              		.global	Bootloader_1_ChecksumAccess
  32              		.data
  33              		.align	2
  34              		.type	Bootloader_1_ChecksumAccess, %object
  35              		.size	Bootloader_1_ChecksumAccess, 4
  36              	Bootloader_1_ChecksumAccess:
  37 0000 00000000 		.word	Bootloader_1_Checksum
  38              		.global	Bootloader_1_SizeBytesAccess
  39              		.align	2
  40              		.type	Bootloader_1_SizeBytesAccess, %object
  41              		.size	Bootloader_1_SizeBytesAccess, 4
  42              	Bootloader_1_SizeBytesAccess:
  43 0004 00000000 		.word	Bootloader_1_SizeBytes
  44              		.bss
  45              		.align	2
  46              	Bootloader_1_callback:
  47 0000 00000000 		.space	4
  48              		.section	.text.Bootloader_1_CalcPacketChecksum,"ax",%progbits
  49              		.align	2
  50              		.code	16
  51              		.thumb_func
  52              		.type	Bootloader_1_CalcPacketChecksum, %function
  53              	Bootloader_1_CalcPacketChecksum:
  54              	.LFB32:
  55              		.file 1 "Generated_Source\\PSoC4\\Bootloader_1.c"
   1:Generated_Source\PSoC4/Bootloader_1.c **** /****************************************************************************//**
   2:Generated_Source\PSoC4/Bootloader_1.c **** * \file Bootloader_1.c
ARM GAS  C:\Users\ASUS\AppData\Local\Temp\ccJim9J2.s 			page 2


   3:Generated_Source\PSoC4/Bootloader_1.c **** * \version 1.60
   4:Generated_Source\PSoC4/Bootloader_1.c **** *
   5:Generated_Source\PSoC4/Bootloader_1.c **** * \brief
   6:Generated_Source\PSoC4/Bootloader_1.c **** *   Provides an API for the Bootloader component. The API includes functions
   7:Generated_Source\PSoC4/Bootloader_1.c **** *   for starting bootloading operations, validating the application and
   8:Generated_Source\PSoC4/Bootloader_1.c **** *   jumping to the application.
   9:Generated_Source\PSoC4/Bootloader_1.c **** *
  10:Generated_Source\PSoC4/Bootloader_1.c **** ********************************************************************************
  11:Generated_Source\PSoC4/Bootloader_1.c **** * \copyright
  12:Generated_Source\PSoC4/Bootloader_1.c **** * Copyright 2008-2018, Cypress Semiconductor Corporation.  All rights reserved.
  13:Generated_Source\PSoC4/Bootloader_1.c **** * You may use this file only in accordance with the license, terms, conditions,
  14:Generated_Source\PSoC4/Bootloader_1.c **** * disclaimers, and limitations in the end user license agreement accompanying
  15:Generated_Source\PSoC4/Bootloader_1.c **** * the software package with which this file was provided.
  16:Generated_Source\PSoC4/Bootloader_1.c **** *******************************************************************************/
  17:Generated_Source\PSoC4/Bootloader_1.c **** 
  18:Generated_Source\PSoC4/Bootloader_1.c **** #include "Bootloader_1_PVT.h"
  19:Generated_Source\PSoC4/Bootloader_1.c **** 
  20:Generated_Source\PSoC4/Bootloader_1.c **** #include "cyapicallbacks.h"
  21:Generated_Source\PSoC4/Bootloader_1.c **** 
  22:Generated_Source\PSoC4/Bootloader_1.c **** #include "project.h"
  23:Generated_Source\PSoC4/Bootloader_1.c **** #include <string.h>
  24:Generated_Source\PSoC4/Bootloader_1.c **** 
  25:Generated_Source\PSoC4/Bootloader_1.c **** #if (CY_BOOT_VERSION < CY_BOOT_5_0)
  26:Generated_Source\PSoC4/Bootloader_1.c **** #error Component Bootloader_v1_60 requires cy_boot v5.00 or later
  27:Generated_Source\PSoC4/Bootloader_1.c **** #endif /* (CY_BOOT_VERSION >= CY_BOOT_5_0) */
  28:Generated_Source\PSoC4/Bootloader_1.c **** 
  29:Generated_Source\PSoC4/Bootloader_1.c **** /*******************************************************************************
  30:Generated_Source\PSoC4/Bootloader_1.c **** * The Checksum and SizeBytes are forcefully set in code. We then post process
  31:Generated_Source\PSoC4/Bootloader_1.c **** * the hex file from the linker and inject their values. When the hex file
  32:Generated_Source\PSoC4/Bootloader_1.c **** * is loaded into the device, these two variables should have valid values.
  33:Generated_Source\PSoC4/Bootloader_1.c **** * Because the compiler can do optimization to remove the constant
  34:Generated_Source\PSoC4/Bootloader_1.c **** * accesses, these should not be accessed directly. Instead, the variables
  35:Generated_Source\PSoC4/Bootloader_1.c **** * CyBtldr_ChecksumAccess & CyBtldr_SizeBytesAccess should be used to get the
  36:Generated_Source\PSoC4/Bootloader_1.c **** * proper values at the runtime.
  37:Generated_Source\PSoC4/Bootloader_1.c **** *******************************************************************************/
  38:Generated_Source\PSoC4/Bootloader_1.c **** #if (CYDEV_PROJ_TYPE != CYDEV_PROJ_TYPE_LOADABLEANDBOOTLOADER)
  39:Generated_Source\PSoC4/Bootloader_1.c **** #if defined(__ARMCC_VERSION) || defined (__GNUC__)
  40:Generated_Source\PSoC4/Bootloader_1.c ****     __attribute__((section (".bootloader"), used))
  41:Generated_Source\PSoC4/Bootloader_1.c **** #elif defined (__ICCARM__)
  42:Generated_Source\PSoC4/Bootloader_1.c ****     #pragma location=".bootloader"
  43:Generated_Source\PSoC4/Bootloader_1.c **** #endif  /* defined(__ARMCC_VERSION) || defined (__GNUC__) */
  44:Generated_Source\PSoC4/Bootloader_1.c **** 
  45:Generated_Source\PSoC4/Bootloader_1.c **** #if defined(__ARMCC_VERSION) || defined (__GNUC__) || defined (__C51__)
  46:Generated_Source\PSoC4/Bootloader_1.c ****            const uint8  CYCODE Bootloader_1_Checksum = 0u;
  47:Generated_Source\PSoC4/Bootloader_1.c **** #elif defined (__ICCARM__)
  48:Generated_Source\PSoC4/Bootloader_1.c ****     __root const uint8  CYCODE Bootloader_1_Checksum = 0u;
  49:Generated_Source\PSoC4/Bootloader_1.c **** #endif  /* defined(__ARMCC_VERSION) || defined (__GNUC__) || defined (__C51__) */
  50:Generated_Source\PSoC4/Bootloader_1.c **** const uint8  CYCODE *Bootloader_1_ChecksumAccess  = (const uint8  CYCODE *)(&Bootloader_1_Checksum)
  51:Generated_Source\PSoC4/Bootloader_1.c **** 
  52:Generated_Source\PSoC4/Bootloader_1.c **** #if defined(__ARMCC_VERSION) || defined (__GNUC__)
  53:Generated_Source\PSoC4/Bootloader_1.c ****     __attribute__((section (".bootloader"), used))
  54:Generated_Source\PSoC4/Bootloader_1.c ****     const uint32 CYCODE Bootloader_1_SizeBytes = 0xFFFFFFFFu;
  55:Generated_Source\PSoC4/Bootloader_1.c **** #elif defined (__ICCARM__)
  56:Generated_Source\PSoC4/Bootloader_1.c ****     #pragma location=".bootloader"
  57:Generated_Source\PSoC4/Bootloader_1.c ****     __root const uint32 CYCODE Bootloader_1_SizeBytes = 0xFFFFFFFFu;
  58:Generated_Source\PSoC4/Bootloader_1.c **** #elif defined (__C51__)
  59:Generated_Source\PSoC4/Bootloader_1.c ****     const uint32 CYCODE Bootloader_1_SizeBytes = 0xFFFFFFFFu;
ARM GAS  C:\Users\ASUS\AppData\Local\Temp\ccJim9J2.s 			page 3


  60:Generated_Source\PSoC4/Bootloader_1.c **** #endif  /* defined(__ARMCC_VERSION) || defined (__GNUC__) */
  61:Generated_Source\PSoC4/Bootloader_1.c **** 
  62:Generated_Source\PSoC4/Bootloader_1.c **** const uint32 CYCODE *Bootloader_1_SizeBytesAccess = (const uint32 CYCODE *)(&Bootloader_1_SizeBytes
  63:Generated_Source\PSoC4/Bootloader_1.c **** #endif /*(CYDEV_PROJ_TYPE != CYDEV_PROJ_TYPE_LOADABLEANDBOOTLOADER)*/
  64:Generated_Source\PSoC4/Bootloader_1.c **** 
  65:Generated_Source\PSoC4/Bootloader_1.c **** /**
  66:Generated_Source\PSoC4/Bootloader_1.c ****  \defgroup variables_group Variables
  67:Generated_Source\PSoC4/Bootloader_1.c ****  @{
  68:Generated_Source\PSoC4/Bootloader_1.c **** */
  69:Generated_Source\PSoC4/Bootloader_1.c **** #if (CYDEV_PROJ_TYPE == CYDEV_PROJ_TYPE_LOADABLEANDBOOTLOADER) 
  70:Generated_Source\PSoC4/Bootloader_1.c **** /**
  71:Generated_Source\PSoC4/Bootloader_1.c ****  *  This variable is intended to indicate that in-application 
  72:Generated_Source\PSoC4/Bootloader_1.c ****  *  bootloading initialization is done. The initialization itself is performed in the
  73:Generated_Source\PSoC4/Bootloader_1.c ****  *  Bootloader_1_Initialize() function. Once the initialization is done,
  74:Generated_Source\PSoC4/Bootloader_1.c ****  *  the variable is set and this prevents the functionality from reinitialization.
  75:Generated_Source\PSoC4/Bootloader_1.c ****  */
  76:Generated_Source\PSoC4/Bootloader_1.c **** uint8 Bootloader_1_initVar = Bootloader_1_BOOTLOADING_NOT_INITIALIZED;
  77:Generated_Source\PSoC4/Bootloader_1.c **** 
  78:Generated_Source\PSoC4/Bootloader_1.c **** /**
  79:Generated_Source\PSoC4/Bootloader_1.c ****  *  This variable is intended to keep the current application number. It applies
  80:Generated_Source\PSoC4/Bootloader_1.c ****  *  only to in-application bootloading.
  81:Generated_Source\PSoC4/Bootloader_1.c ****  */
  82:Generated_Source\PSoC4/Bootloader_1.c **** uint8 Bootloader_1_runningApp = Bootloader_1_RUNNING_APPLICATION_UNKNOWN;
  83:Generated_Source\PSoC4/Bootloader_1.c **** 
  84:Generated_Source\PSoC4/Bootloader_1.c **** /**
  85:Generated_Source\PSoC4/Bootloader_1.c ****  *  This variable is intended to indicate that 'Enter bootloader' command has
  86:Generated_Source\PSoC4/Bootloader_1.c ****  *  been received. It applies only to in-application bootloading.
  87:Generated_Source\PSoC4/Bootloader_1.c ****  */
  88:Generated_Source\PSoC4/Bootloader_1.c **** uint8 Bootloader_1_isBootloading = Bootloader_1_BOOTLOADING_COMPLETED;
  89:Generated_Source\PSoC4/Bootloader_1.c **** #endif /*CYDEV_PROJ_TYPE == CYDEV_PROJ_TYPE_LOADABLEANDBOOTLOADER*/
  90:Generated_Source\PSoC4/Bootloader_1.c **** 
  91:Generated_Source\PSoC4/Bootloader_1.c **** #if ((0u != Bootloader_1_DUAL_APP_BOOTLOADER)  || (CYDEV_PROJ_TYPE == CYDEV_PROJ_TYPE_LOADABLEANDBO
  92:Generated_Source\PSoC4/Bootloader_1.c **** /**
  93:Generated_Source\PSoC4/Bootloader_1.c ****  *  This variable is intended to keep the active application number. It applies
  94:Generated_Source\PSoC4/Bootloader_1.c ****  *  to Classic Dual-app Bootloader and in-application bootloading.
  95:Generated_Source\PSoC4/Bootloader_1.c ****  */
  96:Generated_Source\PSoC4/Bootloader_1.c **** volatile uint8 Bootloader_1_activeApp = Bootloader_1_MD_BTLDB_ACTIVE_NONE;
  97:Generated_Source\PSoC4/Bootloader_1.c **** #else /*SINGLE-APP BOOTLOADER*/
  98:Generated_Source\PSoC4/Bootloader_1.c ****     #define Bootloader_1_activeApp      (Bootloader_1_MD_BTLDB_ACTIVE_0)
  99:Generated_Source\PSoC4/Bootloader_1.c **** #endif  /* (0u != Bootloader_1_DUAL_APP_BOOTLOADER) */
 100:Generated_Source\PSoC4/Bootloader_1.c **** 
 101:Generated_Source\PSoC4/Bootloader_1.c **** 
 102:Generated_Source\PSoC4/Bootloader_1.c **** #if (0u != Bootloader_1_SECURITY_KEY_AVAIL) 
 103:Generated_Source\PSoC4/Bootloader_1.c **** /**
 104:Generated_Source\PSoC4/Bootloader_1.c ****  *  This variable holds the security key for additional safety during communication.
 105:Generated_Source\PSoC4/Bootloader_1.c ****  */
 106:Generated_Source\PSoC4/Bootloader_1.c **** static const uint8 CYCODE Bootloader_1_securityKey[Bootloader_1_SECURITY_KEY_LENGTH] = {0x11u, 0x22
 107:Generated_Source\PSoC4/Bootloader_1.c **** #endif /*(0u != Bootloader_1_SECURITY_KEY_AVAIL)*/
 108:Generated_Source\PSoC4/Bootloader_1.c **** 
 109:Generated_Source\PSoC4/Bootloader_1.c **** #if ((CYDEV_PROJ_TYPE != CYDEV_PROJ_TYPE_LAUNCHER) && (!CY_PSOC3))
 110:Generated_Source\PSoC4/Bootloader_1.c **** /**
 111:Generated_Source\PSoC4/Bootloader_1.c ****  *  This variable holds the pointer on the user's callback-function that implements the custom 
 112:Generated_Source\PSoC4/Bootloader_1.c ****  *  bootloader command processing.
 113:Generated_Source\PSoC4/Bootloader_1.c ****  */
 114:Generated_Source\PSoC4/Bootloader_1.c **** static Bootloader_1_callback_type Bootloader_1_callback = NULL;
 115:Generated_Source\PSoC4/Bootloader_1.c **** #endif /*(CYDEV_PROJ_TYPE != CYDEV_PROJ_TYPE_LAUNCHER) && (!CY_PSOC3)*/
 116:Generated_Source\PSoC4/Bootloader_1.c **** /** @}*/
ARM GAS  C:\Users\ASUS\AppData\Local\Temp\ccJim9J2.s 			page 4


 117:Generated_Source\PSoC4/Bootloader_1.c ****  
 118:Generated_Source\PSoC4/Bootloader_1.c **** /***************************************
 119:Generated_Source\PSoC4/Bootloader_1.c **** *     Function Prototypes
 120:Generated_Source\PSoC4/Bootloader_1.c **** ***************************************/
 121:Generated_Source\PSoC4/Bootloader_1.c **** #if (CYDEV_PROJ_TYPE != CYDEV_PROJ_TYPE_LOADABLEANDBOOTLOADER)
 122:Generated_Source\PSoC4/Bootloader_1.c ****     static void  Bootloader_1_LaunchApplication(void) CYSMALL \
 123:Generated_Source\PSoC4/Bootloader_1.c ****                     ; 
 124:Generated_Source\PSoC4/Bootloader_1.c **** #if(!CY_PSOC3)
 125:Generated_Source\PSoC4/Bootloader_1.c ****     /* Implementation for PSoC 3 resides in Bootloader_psoc3.a51 file.  */
 126:Generated_Source\PSoC4/Bootloader_1.c ****     static void     Bootloader_1_LaunchBootloadable(uint32 appAddr);
 127:Generated_Source\PSoC4/Bootloader_1.c **** #endif  /* (!CY_PSOC3) */
 128:Generated_Source\PSoC4/Bootloader_1.c **** #endif /* CYDEV_PROJ_TYPE != CYDEV_PROJ_TYPE_LOADABLEANDBOOTLOADER */ 
 129:Generated_Source\PSoC4/Bootloader_1.c **** 
 130:Generated_Source\PSoC4/Bootloader_1.c **** #if (CYDEV_PROJ_TYPE != CYDEV_PROJ_TYPE_LAUNCHER)
 131:Generated_Source\PSoC4/Bootloader_1.c ****     static cystatus Bootloader_1_WritePacket(uint8 status, uint8 buffer[], uint16 size) CYSMALL \
 132:Generated_Source\PSoC4/Bootloader_1.c ****                                     ;
 133:Generated_Source\PSoC4/Bootloader_1.c **** 
 134:Generated_Source\PSoC4/Bootloader_1.c ****     static uint16   Bootloader_1_CalcPacketChecksum(const uint8 buffer[], uint16 size) CYSMALL \
 135:Generated_Source\PSoC4/Bootloader_1.c ****                                     ;
 136:Generated_Source\PSoC4/Bootloader_1.c ****                                     
 137:Generated_Source\PSoC4/Bootloader_1.c ****     #if (0u != Bootloader_1_CMD_VERIFY_FLS_ROW_AVAIL)
 138:Generated_Source\PSoC4/Bootloader_1.c ****     static uint8 Bootloader_1_VerifyRow(uint32 flashStart, const uint8 ramStart[], uint16 size) \
 139:Generated_Source\PSoC4/Bootloader_1.c ****                 CYSMALL ;                                
 140:Generated_Source\PSoC4/Bootloader_1.c ****     #endif /*(0u != Bootloader_1_CMD_VERIFY_FLS_ROW_AVAIL)*/            
 141:Generated_Source\PSoC4/Bootloader_1.c **** 
 142:Generated_Source\PSoC4/Bootloader_1.c **** #if (CYDEV_PROJ_TYPE != CYDEV_PROJ_TYPE_LOADABLEANDBOOTLOADER)                                    
 143:Generated_Source\PSoC4/Bootloader_1.c ****     static void Bootloader_1_HostLink(uint8 timeOut) CYLARGE ;
 144:Generated_Source\PSoC4/Bootloader_1.c **** #endif /* (CYDEV_PROJ_TYPE != CYDEV_PROJ_TYPE_LOADABLEANDBOOTLOADER) */                            
 145:Generated_Source\PSoC4/Bootloader_1.c **** #endif /*(CYDEV_PROJ_TYPE != CYDEV_PROJ_TYPE_LAUNCHER)*/
 146:Generated_Source\PSoC4/Bootloader_1.c ****                                     
 147:Generated_Source\PSoC4/Bootloader_1.c **** #if (((0u != Bootloader_1_DUAL_APP_BOOTLOADER) && (CYDEV_PROJ_TYPE != CYDEV_PROJ_TYPE_LAUNCHER)) \
 148:Generated_Source\PSoC4/Bootloader_1.c ****                                           || (CYDEV_PROJ_TYPE == CYDEV_PROJ_TYPE_LOADABLEANDBOOTLOA
 149:Generated_Source\PSoC4/Bootloader_1.c ****     static uint8 Bootloader_1_CheckImage(uint8 appNumber, uint8 arrayNumber, uint16 row, uint16 row
 150:Generated_Source\PSoC4/Bootloader_1.c ****                                     ;                                    
 151:Generated_Source\PSoC4/Bootloader_1.c **** #endif /*(((0u != Bootloader_1_DUAL_APP_BOOTLOADER) && (CYDEV_PROJ_TYPE != CYDEV_PROJ_TYPE_LAUNCHER
 152:Generated_Source\PSoC4/Bootloader_1.c ****                                           || (CYDEV_PROJ_TYPE == CYDEV_PROJ_TYPE_LOADABLEANDBOOTLOA
 153:Generated_Source\PSoC4/Bootloader_1.c **** 
 154:Generated_Source\PSoC4/Bootloader_1.c **** #if ((CYDEV_PROJ_TYPE == CYDEV_PROJ_TYPE_LOADABLEANDBOOTLOADER) || (0u != Bootloader_1_DUAL_APP_BOO
 155:Generated_Source\PSoC4/Bootloader_1.c ****     static void Bootloader_1_SetActiveAppInMetadata(uint8 activeApp) CYSMALL \
 156:Generated_Source\PSoC4/Bootloader_1.c ****                 ;
 157:Generated_Source\PSoC4/Bootloader_1.c **** #endif /* (CYDEV_PROJ_TYPE == CYDEV_PROJ_TYPE_LOADABLEANDBOOTLOADER) || (0u != Bootloader_1_DUAL_AP
 158:Generated_Source\PSoC4/Bootloader_1.c **** 
 159:Generated_Source\PSoC4/Bootloader_1.c **** #if ((CYDEV_PROJ_TYPE == CYDEV_PROJ_TYPE_LOADABLEANDBOOTLOADER) || \
 160:Generated_Source\PSoC4/Bootloader_1.c ****      (CYDEV_PROJ_TYPE == CYDEV_PROJ_TYPE_MULTIAPPBOOTLOADER) || \
 161:Generated_Source\PSoC4/Bootloader_1.c ****      (CYDEV_PROJ_TYPE == CYDEV_PROJ_TYPE_LAUNCHER))
 162:Generated_Source\PSoC4/Bootloader_1.c ****     static uint8 Bootloader_1_GetActiveAppFromMetadata(void) CYSMALL \
 163:Generated_Source\PSoC4/Bootloader_1.c ****                 ;                     
 164:Generated_Source\PSoC4/Bootloader_1.c **** #endif /*((CYDEV_PROJ_TYPE == CYDEV_PROJ_TYPE_LOADABLEANDBOOTLOADER) || \
 165:Generated_Source\PSoC4/Bootloader_1.c ****           (CYDEV_PROJ_TYPE == CYDEV_PROJ_TYPE_MULTIAPPBOOTLOADER) || \
 166:Generated_Source\PSoC4/Bootloader_1.c ****           (CYDEV_PROJ_TYPE == CYDEV_PROJ_TYPE_LAUNCHER)) */
 167:Generated_Source\PSoC4/Bootloader_1.c ****           
 168:Generated_Source\PSoC4/Bootloader_1.c **** #if (CYDEV_PROJ_TYPE == CYDEV_PROJ_TYPE_LAUNCHER)
 169:Generated_Source\PSoC4/Bootloader_1.c **** #if ((0u != Bootloader_1_COPIER_AVAIL) && (CY_PSOC4)) 
 170:Generated_Source\PSoC4/Bootloader_1.c ****     static cystatus Bootloader_1_CopyRow(uint16 srcRowNum, uint16 dstRowNum) \
 171:Generated_Source\PSoC4/Bootloader_1.c ****                  CYSMALL ;
 172:Generated_Source\PSoC4/Bootloader_1.c ****     static void Bootloader_1_Copier(void) CYSMALL ;
 173:Generated_Source\PSoC4/Bootloader_1.c **** #endif /*(0u != Bootloader_1_COPIER_AVAIL) && (CY_PSOC4)*/
ARM GAS  C:\Users\ASUS\AppData\Local\Temp\ccJim9J2.s 			page 5


 174:Generated_Source\PSoC4/Bootloader_1.c **** #endif /*(CYDEV_PROJ_TYPE == CYDEV_PROJ_TYPE_LAUNCHER)*/
 175:Generated_Source\PSoC4/Bootloader_1.c ****                        
 176:Generated_Source\PSoC4/Bootloader_1.c **** 
 177:Generated_Source\PSoC4/Bootloader_1.c **** /**
 178:Generated_Source\PSoC4/Bootloader_1.c ****  \defgroup functions_group Functions
 179:Generated_Source\PSoC4/Bootloader_1.c ****  @{
 180:Generated_Source\PSoC4/Bootloader_1.c **** */
 181:Generated_Source\PSoC4/Bootloader_1.c **** #if ((CYDEV_PROJ_TYPE == CYDEV_PROJ_TYPE_LOADABLEANDBOOTLOADER) || \
 182:Generated_Source\PSoC4/Bootloader_1.c ****                                   (0u != Bootloader_1_DUAL_APP_BOOTLOADER))                        
 183:Generated_Source\PSoC4/Bootloader_1.c **** /*******************************************************************************
 184:Generated_Source\PSoC4/Bootloader_1.c **** * Function Name: Bootloader_1_SetActiveAppInMetadata
 185:Generated_Source\PSoC4/Bootloader_1.c **** ****************************************************************************//**
 186:Generated_Source\PSoC4/Bootloader_1.c **** * \internal
 187:Generated_Source\PSoC4/Bootloader_1.c **** *
 188:Generated_Source\PSoC4/Bootloader_1.c **** * \brief
 189:Generated_Source\PSoC4/Bootloader_1.c **** *    This function sets the active application in metadata.
 190:Generated_Source\PSoC4/Bootloader_1.c **** *    The other application is set inactive. 
 191:Generated_Source\PSoC4/Bootloader_1.c **** *
 192:Generated_Source\PSoC4/Bootloader_1.c **** * \param activeApp
 193:Generated_Source\PSoC4/Bootloader_1.c **** *   The active application number (0 or 1). If the active application number is
 194:Generated_Source\PSoC4/Bootloader_1.c **** *   greater than 1, then nothing is done.  
 195:Generated_Source\PSoC4/Bootloader_1.c **** *
 196:Generated_Source\PSoC4/Bootloader_1.c **** * \endinternal
 197:Generated_Source\PSoC4/Bootloader_1.c **** *******************************************************************************/
 198:Generated_Source\PSoC4/Bootloader_1.c **** static void Bootloader_1_SetActiveAppInMetadata(uint8 activeApp) CYSMALL \
 199:Generated_Source\PSoC4/Bootloader_1.c ****                      
 200:Generated_Source\PSoC4/Bootloader_1.c **** {
 201:Generated_Source\PSoC4/Bootloader_1.c ****     if (Bootloader_1_MD_BTLDB_ACTIVE_NONE > activeApp)
 202:Generated_Source\PSoC4/Bootloader_1.c ****     {
 203:Generated_Source\PSoC4/Bootloader_1.c ****         uint8 CYDATA idx;    
 204:Generated_Source\PSoC4/Bootloader_1.c ****     #if(!CY_PSOC4)      
 205:Generated_Source\PSoC4/Bootloader_1.c ****         if (CYRET_SUCCESS != CySetTemp())
 206:Generated_Source\PSoC4/Bootloader_1.c ****         {
 207:Generated_Source\PSoC4/Bootloader_1.c ****             CyHalt(0x00u);
 208:Generated_Source\PSoC4/Bootloader_1.c ****         }
 209:Generated_Source\PSoC4/Bootloader_1.c ****     #endif  /* (!CY_PSOC4) */    
 210:Generated_Source\PSoC4/Bootloader_1.c ****         for(idx = 0u; idx < Bootloader_1_MAX_NUM_OF_BTLDB; idx++)
 211:Generated_Source\PSoC4/Bootloader_1.c ****         {
 212:Generated_Source\PSoC4/Bootloader_1.c ****             (void)Bootloader_1_SetFlashByte((uint32) Bootloader_1_MD_BTLDB_ACTIVE_OFFSET(idx),
 213:Generated_Source\PSoC4/Bootloader_1.c ****                                                 (uint8)(idx == activeApp));
 214:Generated_Source\PSoC4/Bootloader_1.c ****         }
 215:Generated_Source\PSoC4/Bootloader_1.c ****     }    
 216:Generated_Source\PSoC4/Bootloader_1.c **** }
 217:Generated_Source\PSoC4/Bootloader_1.c **** #endif /* (CYDEV_PROJ_TYPE == CYDEV_PROJ_TYPE_LOADABLEANDBOOTLOADER) || 
 218:Generated_Source\PSoC4/Bootloader_1.c ****                            (0u != Bootloader_1_DUAL_APP_BOOTLOADER) */ 
 219:Generated_Source\PSoC4/Bootloader_1.c **** 
 220:Generated_Source\PSoC4/Bootloader_1.c **** #if ((CYDEV_PROJ_TYPE == CYDEV_PROJ_TYPE_LOADABLEANDBOOTLOADER) || \
 221:Generated_Source\PSoC4/Bootloader_1.c ****      (CYDEV_PROJ_TYPE == CYDEV_PROJ_TYPE_MULTIAPPBOOTLOADER) || \
 222:Generated_Source\PSoC4/Bootloader_1.c ****      (CYDEV_PROJ_TYPE == CYDEV_PROJ_TYPE_LAUNCHER))                   
 223:Generated_Source\PSoC4/Bootloader_1.c **** /*******************************************************************************
 224:Generated_Source\PSoC4/Bootloader_1.c **** * Function Name: Bootloader_1_GetActiveAppFromMetadata
 225:Generated_Source\PSoC4/Bootloader_1.c **** ****************************************************************************//**
 226:Generated_Source\PSoC4/Bootloader_1.c **** * \internal
 227:Generated_Source\PSoC4/Bootloader_1.c **** *
 228:Generated_Source\PSoC4/Bootloader_1.c **** * \brief
 229:Generated_Source\PSoC4/Bootloader_1.c **** *    This function performs reading of both metadata sections to
 230:Generated_Source\PSoC4/Bootloader_1.c **** *    identify an active application. If none application is set active, 
ARM GAS  C:\Users\ASUS\AppData\Local\Temp\ccJim9J2.s 			page 6


 231:Generated_Source\PSoC4/Bootloader_1.c **** *    then Bootloader_1_MD_BTLDB_ACTIVE_NONE (0x02) is returned.
 232:Generated_Source\PSoC4/Bootloader_1.c **** *
 233:Generated_Source\PSoC4/Bootloader_1.c **** * \return
 234:Generated_Source\PSoC4/Bootloader_1.c **** *   The number of active applications. In the case of error:
 235:Generated_Source\PSoC4/Bootloader_1.c **** *   -  Bootloader_1_MD_BTLDB_ACTIVE_NONE (0x02) - neither application is initialized;
 236:Generated_Source\PSoC4/Bootloader_1.c **** *   -  Bootloader_1_BOTH_ACTIVE (0x03) - both applications are set active;
 237:Generated_Source\PSoC4/Bootloader_1.c **** *
 238:Generated_Source\PSoC4/Bootloader_1.c **** * \endinternal 
 239:Generated_Source\PSoC4/Bootloader_1.c **** *******************************************************************************/
 240:Generated_Source\PSoC4/Bootloader_1.c **** static  uint8 Bootloader_1_GetActiveAppFromMetadata(void) CYSMALL \
 241:Generated_Source\PSoC4/Bootloader_1.c ****        
 242:Generated_Source\PSoC4/Bootloader_1.c **** {
 243:Generated_Source\PSoC4/Bootloader_1.c ****     uint8 CYDATA result;
 244:Generated_Source\PSoC4/Bootloader_1.c ****     uint8 CYDATA app0 = (uint8)Bootloader_1_GetMetadata(Bootloader_1_GET_BTLDB_ACTIVE, 
 245:Generated_Source\PSoC4/Bootloader_1.c ****                                                      Bootloader_1_MD_BTLDB_ACTIVE_0);
 246:Generated_Source\PSoC4/Bootloader_1.c ****     uint8 CYDATA app1 = (uint8)Bootloader_1_GetMetadata(Bootloader_1_GET_BTLDB_ACTIVE, 
 247:Generated_Source\PSoC4/Bootloader_1.c ****                                                      Bootloader_1_MD_BTLDB_ACTIVE_1);        
 248:Generated_Source\PSoC4/Bootloader_1.c **** 
 249:Generated_Source\PSoC4/Bootloader_1.c ****     if (0u != app0)                                                     
 250:Generated_Source\PSoC4/Bootloader_1.c ****     {
 251:Generated_Source\PSoC4/Bootloader_1.c ****         if (0u == app1)
 252:Generated_Source\PSoC4/Bootloader_1.c ****         {
 253:Generated_Source\PSoC4/Bootloader_1.c ****             /* app0 is active */
 254:Generated_Source\PSoC4/Bootloader_1.c ****             result = Bootloader_1_MD_BTLDB_ACTIVE_0;
 255:Generated_Source\PSoC4/Bootloader_1.c ****         }
 256:Generated_Source\PSoC4/Bootloader_1.c ****         else 
 257:Generated_Source\PSoC4/Bootloader_1.c ****         {
 258:Generated_Source\PSoC4/Bootloader_1.c ****             /* Both are active */
 259:Generated_Source\PSoC4/Bootloader_1.c ****             result = Bootloader_1_BOTH_ACTIVE;
 260:Generated_Source\PSoC4/Bootloader_1.c ****         }
 261:Generated_Source\PSoC4/Bootloader_1.c ****     }
 262:Generated_Source\PSoC4/Bootloader_1.c ****     else /* (0u == app0) */
 263:Generated_Source\PSoC4/Bootloader_1.c ****     {
 264:Generated_Source\PSoC4/Bootloader_1.c ****         if (0u != app1)
 265:Generated_Source\PSoC4/Bootloader_1.c ****         {
 266:Generated_Source\PSoC4/Bootloader_1.c ****             /* app1 is active */
 267:Generated_Source\PSoC4/Bootloader_1.c ****             result = Bootloader_1_MD_BTLDB_ACTIVE_1;
 268:Generated_Source\PSoC4/Bootloader_1.c ****         }
 269:Generated_Source\PSoC4/Bootloader_1.c ****         else
 270:Generated_Source\PSoC4/Bootloader_1.c ****         {
 271:Generated_Source\PSoC4/Bootloader_1.c ****             /* Neither app is active. */
 272:Generated_Source\PSoC4/Bootloader_1.c ****             result = Bootloader_1_MD_BTLDB_ACTIVE_NONE;
 273:Generated_Source\PSoC4/Bootloader_1.c ****         }          
 274:Generated_Source\PSoC4/Bootloader_1.c ****     }
 275:Generated_Source\PSoC4/Bootloader_1.c **** 
 276:Generated_Source\PSoC4/Bootloader_1.c ****     return (result);
 277:Generated_Source\PSoC4/Bootloader_1.c **** }
 278:Generated_Source\PSoC4/Bootloader_1.c **** #endif /*((CYDEV_PROJ_TYPE == CYDEV_PROJ_TYPE_LOADABLEANDBOOTLOADER) || \
 279:Generated_Source\PSoC4/Bootloader_1.c ****           (CYDEV_PROJ_TYPE == CYDEV_PROJ_TYPE_MULTIAPPBOOTLOADER) || \
 280:Generated_Source\PSoC4/Bootloader_1.c ****           (CYDEV_PROJ_TYPE == CYDEV_PROJ_TYPE_LAUNCHER)) */
 281:Generated_Source\PSoC4/Bootloader_1.c ****         
 282:Generated_Source\PSoC4/Bootloader_1.c **** #if (CYDEV_PROJ_TYPE == CYDEV_PROJ_TYPE_LOADABLEANDBOOTLOADER)
 283:Generated_Source\PSoC4/Bootloader_1.c **** /*******************************************************************************
 284:Generated_Source\PSoC4/Bootloader_1.c **** * Function Name: Bootloader_1_Initialize
 285:Generated_Source\PSoC4/Bootloader_1.c **** ****************************************************************************//**
 286:Generated_Source\PSoC4/Bootloader_1.c **** * 
 287:Generated_Source\PSoC4/Bootloader_1.c **** * \brief 
ARM GAS  C:\Users\ASUS\AppData\Local\Temp\ccJim9J2.s 			page 7


 288:Generated_Source\PSoC4/Bootloader_1.c **** *   Used for in-app bootloading. This function updates the global variable 
 289:Generated_Source\PSoC4/Bootloader_1.c **** *   Bootloader_1_runningApp with a running application number.
 290:Generated_Source\PSoC4/Bootloader_1.c **** *
 291:Generated_Source\PSoC4/Bootloader_1.c **** *   If the running application number is valid (0 or 1), this function also 
 292:Generated_Source\PSoC4/Bootloader_1.c **** *   sets the global variable Bootloader_1_initVar that is used to determine 
 293:Generated_Source\PSoC4/Bootloader_1.c **** *   if the component can process bootloader commands or not.
 294:Generated_Source\PSoC4/Bootloader_1.c **** *   This function should be called once in the application project after a startup.
 295:Generated_Source\PSoC4/Bootloader_1.c **** *
 296:Generated_Source\PSoC4/Bootloader_1.c **** * \return
 297:Generated_Source\PSoC4/Bootloader_1.c **** *   Global variables: 
 298:Generated_Source\PSoC4/Bootloader_1.c **** *     - Bootloader_1_runningApp
 299:Generated_Source\PSoC4/Bootloader_1.c **** *     - Bootloader_1_activeApp
 300:Generated_Source\PSoC4/Bootloader_1.c **** *     - Bootloader_1_initVar
 301:Generated_Source\PSoC4/Bootloader_1.c **** *
 302:Generated_Source\PSoC4/Bootloader_1.c **** * \details 
 303:Generated_Source\PSoC4/Bootloader_1.c **** *   This API should be called first to be able to capture the active application 
 304:Generated_Source\PSoC4/Bootloader_1.c **** *   number that is actually the running application number.
 305:Generated_Source\PSoC4/Bootloader_1.c **** *******************************************************************************/
 306:Generated_Source\PSoC4/Bootloader_1.c **** void Bootloader_1_Initialize(void) CYSMALL \
 307:Generated_Source\PSoC4/Bootloader_1.c ****                                
 308:Generated_Source\PSoC4/Bootloader_1.c **** {
 309:Generated_Source\PSoC4/Bootloader_1.c ****     if (Bootloader_1_BOOTLOADING_NOT_INITIALIZED ==Bootloader_1_initVar)
 310:Generated_Source\PSoC4/Bootloader_1.c ****     {
 311:Generated_Source\PSoC4/Bootloader_1.c ****         Bootloader_1_activeApp = Bootloader_1_GetActiveAppFromMetadata();
 312:Generated_Source\PSoC4/Bootloader_1.c ****         
 313:Generated_Source\PSoC4/Bootloader_1.c ****         /* Updating with number of active application */    
 314:Generated_Source\PSoC4/Bootloader_1.c ****         if ((Bootloader_1_MD_BTLDB_ACTIVE_NONE != Bootloader_1_activeApp) &&
 315:Generated_Source\PSoC4/Bootloader_1.c ****             (Bootloader_1_BOTH_ACTIVE != Bootloader_1_activeApp))
 316:Generated_Source\PSoC4/Bootloader_1.c ****         {
 317:Generated_Source\PSoC4/Bootloader_1.c ****             Bootloader_1_runningApp = Bootloader_1_activeApp;
 318:Generated_Source\PSoC4/Bootloader_1.c ****             
 319:Generated_Source\PSoC4/Bootloader_1.c ****             /* Bootloader commands are to be processed */
 320:Generated_Source\PSoC4/Bootloader_1.c ****             Bootloader_1_initVar = Bootloader_1_BOOTLADING_INITIALIZED;
 321:Generated_Source\PSoC4/Bootloader_1.c ****         }
 322:Generated_Source\PSoC4/Bootloader_1.c ****         else 
 323:Generated_Source\PSoC4/Bootloader_1.c ****         {
 324:Generated_Source\PSoC4/Bootloader_1.c ****             Bootloader_1_runningApp = Bootloader_1_RUNNING_APPLICATION_UNKNOWN;
 325:Generated_Source\PSoC4/Bootloader_1.c ****         }
 326:Generated_Source\PSoC4/Bootloader_1.c ****     }
 327:Generated_Source\PSoC4/Bootloader_1.c **** }
 328:Generated_Source\PSoC4/Bootloader_1.c **** 
 329:Generated_Source\PSoC4/Bootloader_1.c **** /*****************************************************************************
 330:Generated_Source\PSoC4/Bootloader_1.c **** * Function Name: Bootloader_1_GetRunningAppStatus
 331:Generated_Source\PSoC4/Bootloader_1.c **** **************************************************************************//**
 332:Generated_Source\PSoC4/Bootloader_1.c **** *
 333:Generated_Source\PSoC4/Bootloader_1.c **** * \brief 
 334:Generated_Source\PSoC4/Bootloader_1.c **** *   Used for dual-app or in-app bootloader. Returns the value of the global 
 335:Generated_Source\PSoC4/Bootloader_1.c **** *   variable Bootloader_1_runningApp. This function should be called only after the 
 336:Generated_Source\PSoC4/Bootloader_1.c **** *   Bootloader_1_Initialize() has been called once.
 337:Generated_Source\PSoC4/Bootloader_1.c **** *
 338:Generated_Source\PSoC4/Bootloader_1.c **** * \return 
 339:Generated_Source\PSoC4/Bootloader_1.c **** *   The application number that is currently being executed. Values are 0 or 1; 
 340:Generated_Source\PSoC4/Bootloader_1.c **** *     other values indicate "not defined".
 341:Generated_Source\PSoC4/Bootloader_1.c **** *
 342:Generated_Source\PSoC4/Bootloader_1.c **** *******************************************************************************/
 343:Generated_Source\PSoC4/Bootloader_1.c **** uint8 Bootloader_1_GetRunningAppStatus(void) CYSMALL \
 344:Generated_Source\PSoC4/Bootloader_1.c ****             
ARM GAS  C:\Users\ASUS\AppData\Local\Temp\ccJim9J2.s 			page 8


 345:Generated_Source\PSoC4/Bootloader_1.c **** {  
 346:Generated_Source\PSoC4/Bootloader_1.c ****     return (Bootloader_1_runningApp);
 347:Generated_Source\PSoC4/Bootloader_1.c **** }
 348:Generated_Source\PSoC4/Bootloader_1.c **** 
 349:Generated_Source\PSoC4/Bootloader_1.c **** 
 350:Generated_Source\PSoC4/Bootloader_1.c **** /*******************************************************************************
 351:Generated_Source\PSoC4/Bootloader_1.c **** * Function Name: Bootloader_1_GetActiveAppStatus
 352:Generated_Source\PSoC4/Bootloader_1.c **** ****************************************************************************//**
 353:Generated_Source\PSoC4/Bootloader_1.c **** *
 354:Generated_Source\PSoC4/Bootloader_1.c **** * \brief 
 355:Generated_Source\PSoC4/Bootloader_1.c **** *   Used for dual-app or in-app bootloader. Returns the value of the global 
 356:Generated_Source\PSoC4/Bootloader_1.c **** *   variable Bootloader_1_activeApp. This function should be called only after the 
 357:Generated_Source\PSoC4/Bootloader_1.c **** *   Bootloader_1_Initialize() has been called once.
 358:Generated_Source\PSoC4/Bootloader_1.c **** *
 359:Generated_Source\PSoC4/Bootloader_1.c **** * \return 
 360:Generated_Source\PSoC4/Bootloader_1.c **** *   The desired application to be executed. Values are 0 or 1; other values 
 361:Generated_Source\PSoC4/Bootloader_1.c **** *     indicate "not defined".
 362:Generated_Source\PSoC4/Bootloader_1.c **** *
 363:Generated_Source\PSoC4/Bootloader_1.c **** *******************************************************************************/
 364:Generated_Source\PSoC4/Bootloader_1.c **** uint8 Bootloader_1_GetActiveAppStatus(void) CYSMALL \
 365:Generated_Source\PSoC4/Bootloader_1.c ****       
 366:Generated_Source\PSoC4/Bootloader_1.c **** {  
 367:Generated_Source\PSoC4/Bootloader_1.c ****     /* Read active application number from metadata */
 368:Generated_Source\PSoC4/Bootloader_1.c ****     Bootloader_1_activeApp = Bootloader_1_GetActiveAppFromMetadata();
 369:Generated_Source\PSoC4/Bootloader_1.c ****     
 370:Generated_Source\PSoC4/Bootloader_1.c ****     return (Bootloader_1_activeApp);
 371:Generated_Source\PSoC4/Bootloader_1.c **** }
 372:Generated_Source\PSoC4/Bootloader_1.c **** #endif /*(CYDEV_PROJ_TYPE == CYDEV_PROJ_TYPE_LOADABLEANDBOOTLOADER)*/
 373:Generated_Source\PSoC4/Bootloader_1.c **** 
 374:Generated_Source\PSoC4/Bootloader_1.c **** #if (CYDEV_PROJ_TYPE != CYDEV_PROJ_TYPE_LAUNCHER)
 375:Generated_Source\PSoC4/Bootloader_1.c **** /*******************************************************************************
 376:Generated_Source\PSoC4/Bootloader_1.c **** * Function Name: Bootloader_1_CalcPacketChecksum
 377:Generated_Source\PSoC4/Bootloader_1.c **** ****************************************************************************//**
 378:Generated_Source\PSoC4/Bootloader_1.c **** *  \internal
 379:Generated_Source\PSoC4/Bootloader_1.c **** *
 380:Generated_Source\PSoC4/Bootloader_1.c **** *  \brief
 381:Generated_Source\PSoC4/Bootloader_1.c **** *     This computes a 16-bit checksum for the provided number of bytes contained
 382:Generated_Source\PSoC4/Bootloader_1.c **** *     in the provided buffer.
 383:Generated_Source\PSoC4/Bootloader_1.c **** *
 384:Generated_Source\PSoC4/Bootloader_1.c **** *  \param buffer
 385:Generated_Source\PSoC4/Bootloader_1.c **** *     The buffer containing the data to compute the checksum.
 386:Generated_Source\PSoC4/Bootloader_1.c **** *  \param size
 387:Generated_Source\PSoC4/Bootloader_1.c **** *     The number of bytes in the buffer to compute the checksum.
 388:Generated_Source\PSoC4/Bootloader_1.c **** *
 389:Generated_Source\PSoC4/Bootloader_1.c **** *  \return 
 390:Generated_Source\PSoC4/Bootloader_1.c **** *     A 16-bit checksum for the provided data.
 391:Generated_Source\PSoC4/Bootloader_1.c **** *
 392:Generated_Source\PSoC4/Bootloader_1.c **** *  \endinternal
 393:Generated_Source\PSoC4/Bootloader_1.c **** *******************************************************************************/
 394:Generated_Source\PSoC4/Bootloader_1.c **** static uint16 Bootloader_1_CalcPacketChecksum(const uint8 buffer[], uint16 size) \
 395:Generated_Source\PSoC4/Bootloader_1.c ****                     CYSMALL 
 396:Generated_Source\PSoC4/Bootloader_1.c **** {
  56              		.loc 1 396 0
  57              		.cfi_startproc
  58              		@ args = 0, pretend = 0, frame = 16
  59              		@ frame_needed = 1, uses_anonymous_args = 0
  60 0000 80B5     		push	{r7, lr}
ARM GAS  C:\Users\ASUS\AppData\Local\Temp\ccJim9J2.s 			page 9


  61              		.cfi_def_cfa_offset 8
  62              		.cfi_offset 7, -8
  63              		.cfi_offset 14, -4
  64 0002 84B0     		sub	sp, sp, #16
  65              		.cfi_def_cfa_offset 24
  66 0004 00AF     		add	r7, sp, #0
  67              		.cfi_def_cfa_register 7
  68 0006 7860     		str	r0, [r7, #4]
  69 0008 0A00     		movs	r2, r1
  70 000a BB1C     		adds	r3, r7, #2
  71 000c 1A80     		strh	r2, [r3]
 397:Generated_Source\PSoC4/Bootloader_1.c ****     #if(0u != Bootloader_1_PACKET_CHECKSUM_CRC)
 398:Generated_Source\PSoC4/Bootloader_1.c **** 
 399:Generated_Source\PSoC4/Bootloader_1.c ****         uint16 CYDATA crc = Bootloader_1_CRC_CCITT_INITIAL_VALUE;
 400:Generated_Source\PSoC4/Bootloader_1.c ****         uint16 CYDATA tmp;
 401:Generated_Source\PSoC4/Bootloader_1.c ****         uint8  CYDATA i;
 402:Generated_Source\PSoC4/Bootloader_1.c ****         uint16 CYDATA tmpIndex = size;
 403:Generated_Source\PSoC4/Bootloader_1.c **** 
 404:Generated_Source\PSoC4/Bootloader_1.c ****         if(0u == size)
 405:Generated_Source\PSoC4/Bootloader_1.c ****         {
 406:Generated_Source\PSoC4/Bootloader_1.c ****             crc = ~crc;
 407:Generated_Source\PSoC4/Bootloader_1.c ****         }
 408:Generated_Source\PSoC4/Bootloader_1.c ****         else
 409:Generated_Source\PSoC4/Bootloader_1.c ****         {
 410:Generated_Source\PSoC4/Bootloader_1.c ****             do
 411:Generated_Source\PSoC4/Bootloader_1.c ****             {
 412:Generated_Source\PSoC4/Bootloader_1.c ****                 tmp = buffer[tmpIndex - size];
 413:Generated_Source\PSoC4/Bootloader_1.c **** 
 414:Generated_Source\PSoC4/Bootloader_1.c ****                 for (i = 0u; i < 8u; i++)
 415:Generated_Source\PSoC4/Bootloader_1.c ****                 {
 416:Generated_Source\PSoC4/Bootloader_1.c ****                     if (0u != ((crc & 0x0001u) ^ (tmp & 0x0001u)))
 417:Generated_Source\PSoC4/Bootloader_1.c ****                     {
 418:Generated_Source\PSoC4/Bootloader_1.c ****                         crc = (crc >> 1u) ^ Bootloader_1_CRC_CCITT_POLYNOMIAL;
 419:Generated_Source\PSoC4/Bootloader_1.c ****                     }
 420:Generated_Source\PSoC4/Bootloader_1.c ****                     else
 421:Generated_Source\PSoC4/Bootloader_1.c ****                     {
 422:Generated_Source\PSoC4/Bootloader_1.c ****                         crc >>= 1u;
 423:Generated_Source\PSoC4/Bootloader_1.c ****                     }
 424:Generated_Source\PSoC4/Bootloader_1.c **** 
 425:Generated_Source\PSoC4/Bootloader_1.c ****                     tmp >>= 1u;
 426:Generated_Source\PSoC4/Bootloader_1.c ****                 }
 427:Generated_Source\PSoC4/Bootloader_1.c **** 
 428:Generated_Source\PSoC4/Bootloader_1.c ****                 size--;
 429:Generated_Source\PSoC4/Bootloader_1.c ****             }
 430:Generated_Source\PSoC4/Bootloader_1.c ****             while(0u != size);
 431:Generated_Source\PSoC4/Bootloader_1.c **** 
 432:Generated_Source\PSoC4/Bootloader_1.c ****             crc = ~crc;
 433:Generated_Source\PSoC4/Bootloader_1.c ****             tmp = crc;
 434:Generated_Source\PSoC4/Bootloader_1.c ****             crc = ( uint16 )(crc << 8u) | (tmp >> 8u);
 435:Generated_Source\PSoC4/Bootloader_1.c ****         }
 436:Generated_Source\PSoC4/Bootloader_1.c **** 
 437:Generated_Source\PSoC4/Bootloader_1.c ****         return(crc);
 438:Generated_Source\PSoC4/Bootloader_1.c **** 
 439:Generated_Source\PSoC4/Bootloader_1.c ****     #else
 440:Generated_Source\PSoC4/Bootloader_1.c **** 
 441:Generated_Source\PSoC4/Bootloader_1.c ****         uint16 CYDATA sum = 0u;
  72              		.loc 1 441 0
ARM GAS  C:\Users\ASUS\AppData\Local\Temp\ccJim9J2.s 			page 10


  73 000e 0E23     		movs	r3, #14
  74 0010 FB18     		adds	r3, r7, r3
  75 0012 0022     		movs	r2, #0
  76 0014 1A80     		strh	r2, [r3]
 442:Generated_Source\PSoC4/Bootloader_1.c **** 
 443:Generated_Source\PSoC4/Bootloader_1.c ****         while (size > 0u)
  77              		.loc 1 443 0
  78 0016 12E0     		b	.L2
  79              	.L3:
 444:Generated_Source\PSoC4/Bootloader_1.c ****         {
 445:Generated_Source\PSoC4/Bootloader_1.c ****             sum += buffer[size - 1u];
  80              		.loc 1 445 0
  81 0018 BB1C     		adds	r3, r7, #2
  82 001a 1B88     		ldrh	r3, [r3]
  83 001c 013B     		subs	r3, r3, #1
  84 001e 7A68     		ldr	r2, [r7, #4]
  85 0020 D318     		adds	r3, r2, r3
  86 0022 1B78     		ldrb	r3, [r3]
  87 0024 99B2     		uxth	r1, r3
  88 0026 0E23     		movs	r3, #14
  89 0028 FB18     		adds	r3, r7, r3
  90 002a 0E22     		movs	r2, #14
  91 002c BA18     		adds	r2, r7, r2
  92 002e 1288     		ldrh	r2, [r2]
  93 0030 8A18     		adds	r2, r1, r2
  94 0032 1A80     		strh	r2, [r3]
 446:Generated_Source\PSoC4/Bootloader_1.c ****             size--;
  95              		.loc 1 446 0
  96 0034 BB1C     		adds	r3, r7, #2
  97 0036 1A88     		ldrh	r2, [r3]
  98 0038 BB1C     		adds	r3, r7, #2
  99 003a 013A     		subs	r2, r2, #1
 100 003c 1A80     		strh	r2, [r3]
 101              	.L2:
 443:Generated_Source\PSoC4/Bootloader_1.c ****         {
 102              		.loc 1 443 0
 103 003e BB1C     		adds	r3, r7, #2
 104 0040 1B88     		ldrh	r3, [r3]
 105 0042 002B     		cmp	r3, #0
 106 0044 E8D1     		bne	.L3
 447:Generated_Source\PSoC4/Bootloader_1.c ****         }
 448:Generated_Source\PSoC4/Bootloader_1.c **** 
 449:Generated_Source\PSoC4/Bootloader_1.c ****         return(( uint16 )1u + ( uint16 )(~sum));
 107              		.loc 1 449 0
 108 0046 0E23     		movs	r3, #14
 109 0048 FB18     		adds	r3, r7, r3
 110 004a 1B88     		ldrh	r3, [r3]
 111 004c 5B42     		rsbs	r3, r3, #0
 112 004e 9BB2     		uxth	r3, r3
 450:Generated_Source\PSoC4/Bootloader_1.c **** 
 451:Generated_Source\PSoC4/Bootloader_1.c ****     #endif /* (0u != Bootloader_1_PACKET_CHECKSUM_CRC) */
 452:Generated_Source\PSoC4/Bootloader_1.c **** }
 113              		.loc 1 452 0
 114 0050 1800     		movs	r0, r3
 115 0052 BD46     		mov	sp, r7
 116 0054 04B0     		add	sp, sp, #16
 117              		@ sp needed
ARM GAS  C:\Users\ASUS\AppData\Local\Temp\ccJim9J2.s 			page 11


 118 0056 80BD     		pop	{r7, pc}
 119              		.cfi_endproc
 120              	.LFE32:
 121              		.size	Bootloader_1_CalcPacketChecksum, .-Bootloader_1_CalcPacketChecksum
 122              		.section	.text.Bootloader_1_InitCallback,"ax",%progbits
 123              		.align	2
 124              		.global	Bootloader_1_InitCallback
 125              		.code	16
 126              		.thumb_func
 127              		.type	Bootloader_1_InitCallback, %function
 128              	Bootloader_1_InitCallback:
 129              	.LFB33:
 453:Generated_Source\PSoC4/Bootloader_1.c **** 
 454:Generated_Source\PSoC4/Bootloader_1.c **** #if (!CY_PSOC3)
 455:Generated_Source\PSoC4/Bootloader_1.c **** /*******************************************************************************
 456:Generated_Source\PSoC4/Bootloader_1.c **** * Function Name: Bootloader_1_InitCallback
 457:Generated_Source\PSoC4/Bootloader_1.c **** ****************************************************************************//**
 458:Generated_Source\PSoC4/Bootloader_1.c **** *
 459:Generated_Source\PSoC4/Bootloader_1.c **** * \brief
 460:Generated_Source\PSoC4/Bootloader_1.c **** *  This function initializes the callback functionality.
 461:Generated_Source\PSoC4/Bootloader_1.c **** *  
 462:Generated_Source\PSoC4/Bootloader_1.c **** * \param userCallback
 463:Generated_Source\PSoC4/Bootloader_1.c **** *  The user's callback function.
 464:Generated_Source\PSoC4/Bootloader_1.c **** *
 465:Generated_Source\PSoC4/Bootloader_1.c **** *******************************************************************************/
 466:Generated_Source\PSoC4/Bootloader_1.c **** void Bootloader_1_InitCallback(Bootloader_1_callback_type userCallback) \
 467:Generated_Source\PSoC4/Bootloader_1.c ****            CYSMALL 
 468:Generated_Source\PSoC4/Bootloader_1.c **** {
 130              		.loc 1 468 0
 131              		.cfi_startproc
 132              		@ args = 0, pretend = 0, frame = 8
 133              		@ frame_needed = 1, uses_anonymous_args = 0
 134 0000 80B5     		push	{r7, lr}
 135              		.cfi_def_cfa_offset 8
 136              		.cfi_offset 7, -8
 137              		.cfi_offset 14, -4
 138 0002 82B0     		sub	sp, sp, #8
 139              		.cfi_def_cfa_offset 16
 140 0004 00AF     		add	r7, sp, #0
 141              		.cfi_def_cfa_register 7
 142 0006 7860     		str	r0, [r7, #4]
 469:Generated_Source\PSoC4/Bootloader_1.c ****     Bootloader_1_callback = userCallback;
 143              		.loc 1 469 0
 144 0008 034B     		ldr	r3, .L6
 145 000a 7A68     		ldr	r2, [r7, #4]
 146 000c 1A60     		str	r2, [r3]
 470:Generated_Source\PSoC4/Bootloader_1.c **** }
 147              		.loc 1 470 0
 148 000e C046     		nop
 149 0010 BD46     		mov	sp, r7
 150 0012 02B0     		add	sp, sp, #8
 151              		@ sp needed
 152 0014 80BD     		pop	{r7, pc}
 153              	.L7:
 154 0016 C046     		.align	2
 155              	.L6:
 156 0018 00000000 		.word	Bootloader_1_callback
ARM GAS  C:\Users\ASUS\AppData\Local\Temp\ccJim9J2.s 			page 12


 157              		.cfi_endproc
 158              	.LFE33:
 159              		.size	Bootloader_1_InitCallback, .-Bootloader_1_InitCallback
 160              		.section	.text.Bootloader_1_Calc8BitSum,"ax",%progbits
 161              		.align	2
 162              		.global	Bootloader_1_Calc8BitSum
 163              		.code	16
 164              		.thumb_func
 165              		.type	Bootloader_1_Calc8BitSum, %function
 166              	Bootloader_1_Calc8BitSum:
 167              	.LFB34:
 471:Generated_Source\PSoC4/Bootloader_1.c **** #endif /* (!CY_PSOC3) */
 472:Generated_Source\PSoC4/Bootloader_1.c **** 
 473:Generated_Source\PSoC4/Bootloader_1.c **** 
 474:Generated_Source\PSoC4/Bootloader_1.c **** #if (0u != Bootloader_1_CMD_VERIFY_FLS_ROW_AVAIL)
 475:Generated_Source\PSoC4/Bootloader_1.c **** /*******************************************************************************
 476:Generated_Source\PSoC4/Bootloader_1.c **** * Function Name: Bootloader_1_VerifyRow
 477:Generated_Source\PSoC4/Bootloader_1.c **** ****************************************************************************//**
 478:Generated_Source\PSoC4/Bootloader_1.c **** *  \internal
 479:Generated_Source\PSoC4/Bootloader_1.c **** * 
 480:Generated_Source\PSoC4/Bootloader_1.c **** *  \brief
 481:Generated_Source\PSoC4/Bootloader_1.c **** *   This API performs a byte to byte verifying of the flash row against the data 
 482:Generated_Source\PSoC4/Bootloader_1.c **** *   in the input buffer. 
 483:Generated_Source\PSoC4/Bootloader_1.c **** *
 484:Generated_Source\PSoC4/Bootloader_1.c **** *  \param flashStart 
 485:Generated_Source\PSoC4/Bootloader_1.c **** *        The start address of a row in flash.
 486:Generated_Source\PSoC4/Bootloader_1.c **** *  \param ramStart 
 487:Generated_Source\PSoC4/Bootloader_1.c **** *        The start address of corresponding data to compare in the RAM buffer.
 488:Generated_Source\PSoC4/Bootloader_1.c **** *  \param size 
 489:Generated_Source\PSoC4/Bootloader_1.c **** *        The data length (common for both arrays).
 490:Generated_Source\PSoC4/Bootloader_1.c **** *
 491:Generated_Source\PSoC4/Bootloader_1.c **** *  \return
 492:Generated_Source\PSoC4/Bootloader_1.c **** *   CYRET_SUCCESS - If all data matches.
 493:Generated_Source\PSoC4/Bootloader_1.c **** *  \n Bootloader_1_ERR_VERIFY - If there is any mismatch.
 494:Generated_Source\PSoC4/Bootloader_1.c **** *
 495:Generated_Source\PSoC4/Bootloader_1.c **** * \endinternal 
 496:Generated_Source\PSoC4/Bootloader_1.c **** *******************************************************************************/
 497:Generated_Source\PSoC4/Bootloader_1.c **** static uint8 Bootloader_1_VerifyRow(uint32 flashStart, const uint8 ramStart[], uint16 size) \
 498:Generated_Source\PSoC4/Bootloader_1.c ****                 CYSMALL 
 499:Generated_Source\PSoC4/Bootloader_1.c **** {
 500:Generated_Source\PSoC4/Bootloader_1.c ****     uint8 CYDATA result = CYRET_SUCCESS;
 501:Generated_Source\PSoC4/Bootloader_1.c ****     uint16 CYDATA idx;
 502:Generated_Source\PSoC4/Bootloader_1.c **** 
 503:Generated_Source\PSoC4/Bootloader_1.c ****     for(idx = 0u; idx < size; idx++)
 504:Generated_Source\PSoC4/Bootloader_1.c ****     {
 505:Generated_Source\PSoC4/Bootloader_1.c ****         if (CY_GET_XTND_REG8((uint8 CYFAR *)(flashStart + idx)) != ramStart[idx])
 506:Generated_Source\PSoC4/Bootloader_1.c ****         {
 507:Generated_Source\PSoC4/Bootloader_1.c ****             result = Bootloader_1_ERR_VERIFY;
 508:Generated_Source\PSoC4/Bootloader_1.c ****             break;
 509:Generated_Source\PSoC4/Bootloader_1.c ****         }    
 510:Generated_Source\PSoC4/Bootloader_1.c ****     }
 511:Generated_Source\PSoC4/Bootloader_1.c **** 
 512:Generated_Source\PSoC4/Bootloader_1.c ****     return (result);
 513:Generated_Source\PSoC4/Bootloader_1.c **** }
 514:Generated_Source\PSoC4/Bootloader_1.c **** #endif /*(0u != Bootloader_1_CMD_VERIFY_FLS_ROW_AVAIL)*/
 515:Generated_Source\PSoC4/Bootloader_1.c **** #endif /*CYDEV_PROJ_TYPE != CYDEV_PROJ_TYPE_LAUNCHER*/
 516:Generated_Source\PSoC4/Bootloader_1.c **** 
ARM GAS  C:\Users\ASUS\AppData\Local\Temp\ccJim9J2.s 			page 13


 517:Generated_Source\PSoC4/Bootloader_1.c **** 
 518:Generated_Source\PSoC4/Bootloader_1.c **** /*******************************************************************************
 519:Generated_Source\PSoC4/Bootloader_1.c **** * Function Name: Bootloader_1_Calc8BitSum
 520:Generated_Source\PSoC4/Bootloader_1.c **** ****************************************************************************//**
 521:Generated_Source\PSoC4/Bootloader_1.c **** *
 522:Generated_Source\PSoC4/Bootloader_1.c **** * \brief
 523:Generated_Source\PSoC4/Bootloader_1.c **** *  This computes an 8-bit sum for the provided number of bytes contained in
 524:Generated_Source\PSoC4/Bootloader_1.c **** *  flash (if baseAddr equals CY_FLASH_BASE) or EEPROM (if baseAddr equals
 525:Generated_Source\PSoC4/Bootloader_1.c **** *  CY_EEPROM_BASE).
 526:Generated_Source\PSoC4/Bootloader_1.c **** *
 527:Generated_Source\PSoC4/Bootloader_1.c **** * \param baseAddr
 528:Generated_Source\PSoC4/Bootloader_1.c **** *   CY_FLASH_BASE
 529:Generated_Source\PSoC4/Bootloader_1.c **** *   CY_EEPROM_BASE - applicable only for PSoC 3 / PSoC 5LP devices.
 530:Generated_Source\PSoC4/Bootloader_1.c **** *
 531:Generated_Source\PSoC4/Bootloader_1.c **** * \param start
 532:Generated_Source\PSoC4/Bootloader_1.c **** *     The starting address to start summing data.
 533:Generated_Source\PSoC4/Bootloader_1.c **** * \param size
 534:Generated_Source\PSoC4/Bootloader_1.c **** *     The number of bytes to read and compute the sum.
 535:Generated_Source\PSoC4/Bootloader_1.c **** *
 536:Generated_Source\PSoC4/Bootloader_1.c **** * \return
 537:Generated_Source\PSoC4/Bootloader_1.c **** *   An 8-bit sum for the provided data.
 538:Generated_Source\PSoC4/Bootloader_1.c **** *
 539:Generated_Source\PSoC4/Bootloader_1.c **** *******************************************************************************/
 540:Generated_Source\PSoC4/Bootloader_1.c **** uint8 Bootloader_1_Calc8BitSum(uint32 baseAddr, uint32 start, uint32 size) \
 541:Generated_Source\PSoC4/Bootloader_1.c ****                 CYSMALL 
 542:Generated_Source\PSoC4/Bootloader_1.c **** {
 168              		.loc 1 542 0
 169              		.cfi_startproc
 170              		@ args = 0, pretend = 0, frame = 24
 171              		@ frame_needed = 1, uses_anonymous_args = 0
 172 0000 80B5     		push	{r7, lr}
 173              		.cfi_def_cfa_offset 8
 174              		.cfi_offset 7, -8
 175              		.cfi_offset 14, -4
 176 0002 86B0     		sub	sp, sp, #24
 177              		.cfi_def_cfa_offset 32
 178 0004 00AF     		add	r7, sp, #0
 179              		.cfi_def_cfa_register 7
 180 0006 F860     		str	r0, [r7, #12]
 181 0008 B960     		str	r1, [r7, #8]
 182 000a 7A60     		str	r2, [r7, #4]
 543:Generated_Source\PSoC4/Bootloader_1.c ****     uint8 CYDATA sum = 0u;
 183              		.loc 1 543 0
 184 000c 1723     		movs	r3, #23
 185 000e FB18     		adds	r3, r7, r3
 186 0010 0022     		movs	r2, #0
 187 0012 1A70     		strb	r2, [r3]
 544:Generated_Source\PSoC4/Bootloader_1.c **** 
 545:Generated_Source\PSoC4/Bootloader_1.c ****     #if(!CY_PSOC4)
 546:Generated_Source\PSoC4/Bootloader_1.c ****         CYASSERT((baseAddr == CY_EEPROM_BASE) || (baseAddr == CY_FLASH_BASE));
 547:Generated_Source\PSoC4/Bootloader_1.c ****     #else
 548:Generated_Source\PSoC4/Bootloader_1.c ****         CYASSERT(baseAddr == CY_FLASH_BASE);
 188              		.loc 1 548 0
 189 0014 FB68     		ldr	r3, [r7, #12]
 190 0016 002B     		cmp	r3, #0
 191 0018 14D0     		beq	.L10
 192              		.loc 1 548 0 is_stmt 0 discriminator 1
ARM GAS  C:\Users\ASUS\AppData\Local\Temp\ccJim9J2.s 			page 14


 193 001a 0020     		movs	r0, #0
 194 001c FFF7FEFF 		bl	CyHalt
 549:Generated_Source\PSoC4/Bootloader_1.c ****     #endif  /* (!CY_PSOC4) */
 550:Generated_Source\PSoC4/Bootloader_1.c **** 
 551:Generated_Source\PSoC4/Bootloader_1.c ****     while (size > 0u)
 195              		.loc 1 551 0 is_stmt 1 discriminator 1
 196 0020 10E0     		b	.L10
 197              	.L11:
 552:Generated_Source\PSoC4/Bootloader_1.c ****     {
 553:Generated_Source\PSoC4/Bootloader_1.c ****         size--;
 198              		.loc 1 553 0
 199 0022 7B68     		ldr	r3, [r7, #4]
 200 0024 013B     		subs	r3, r3, #1
 201 0026 7B60     		str	r3, [r7, #4]
 554:Generated_Source\PSoC4/Bootloader_1.c ****         sum += CY_GET_XTND_REG8((uint8 CYFAR *)(baseAddr + start + size));
 202              		.loc 1 554 0
 203 0028 FA68     		ldr	r2, [r7, #12]
 204 002a BB68     		ldr	r3, [r7, #8]
 205 002c D218     		adds	r2, r2, r3
 206 002e 7B68     		ldr	r3, [r7, #4]
 207 0030 D318     		adds	r3, r2, r3
 208 0032 1B78     		ldrb	r3, [r3]
 209 0034 D9B2     		uxtb	r1, r3
 210 0036 1723     		movs	r3, #23
 211 0038 FB18     		adds	r3, r7, r3
 212 003a 1722     		movs	r2, #23
 213 003c BA18     		adds	r2, r7, r2
 214 003e 1278     		ldrb	r2, [r2]
 215 0040 8A18     		adds	r2, r1, r2
 216 0042 1A70     		strb	r2, [r3]
 217              	.L10:
 551:Generated_Source\PSoC4/Bootloader_1.c ****     {
 218              		.loc 1 551 0
 219 0044 7B68     		ldr	r3, [r7, #4]
 220 0046 002B     		cmp	r3, #0
 221 0048 EBD1     		bne	.L11
 555:Generated_Source\PSoC4/Bootloader_1.c ****     }
 556:Generated_Source\PSoC4/Bootloader_1.c **** 
 557:Generated_Source\PSoC4/Bootloader_1.c ****     return(sum);
 222              		.loc 1 557 0
 223 004a 1723     		movs	r3, #23
 224 004c FB18     		adds	r3, r7, r3
 225 004e 1B78     		ldrb	r3, [r3]
 558:Generated_Source\PSoC4/Bootloader_1.c **** }
 226              		.loc 1 558 0
 227 0050 1800     		movs	r0, r3
 228 0052 BD46     		mov	sp, r7
 229 0054 06B0     		add	sp, sp, #24
 230              		@ sp needed
 231 0056 80BD     		pop	{r7, pc}
 232              		.cfi_endproc
 233              	.LFE34:
 234              		.size	Bootloader_1_Calc8BitSum, .-Bootloader_1_Calc8BitSum
 235              		.section	.text.Bootloader_1_Start,"ax",%progbits
 236              		.align	2
 237              		.global	Bootloader_1_Start
 238              		.code	16
ARM GAS  C:\Users\ASUS\AppData\Local\Temp\ccJim9J2.s 			page 15


 239              		.thumb_func
 240              		.type	Bootloader_1_Start, %function
 241              	Bootloader_1_Start:
 242              	.LFB35:
 559:Generated_Source\PSoC4/Bootloader_1.c **** 
 560:Generated_Source\PSoC4/Bootloader_1.c **** 
 561:Generated_Source\PSoC4/Bootloader_1.c **** #if (CYDEV_PROJ_TYPE == CYDEV_PROJ_TYPE_LAUNCHER)
 562:Generated_Source\PSoC4/Bootloader_1.c **** #if ((0u != Bootloader_1_COPIER_AVAIL) && (CY_PSOC4)) 
 563:Generated_Source\PSoC4/Bootloader_1.c **** /*******************************************************************************
 564:Generated_Source\PSoC4/Bootloader_1.c **** * Function Name: Bootloader_1_CopyRow
 565:Generated_Source\PSoC4/Bootloader_1.c **** ****************************************************************************//**
 566:Generated_Source\PSoC4/Bootloader_1.c **** * \internal
 567:Generated_Source\PSoC4/Bootloader_1.c **** *
 568:Generated_Source\PSoC4/Bootloader_1.c **** * \brief
 569:Generated_Source\PSoC4/Bootloader_1.c **** *   This function performs copying of a specified row to specified 
 570:Generated_Source\PSoC4/Bootloader_1.c **** *     location.
 571:Generated_Source\PSoC4/Bootloader_1.c **** *
 572:Generated_Source\PSoC4/Bootloader_1.c **** * \param
 573:Generated_Source\PSoC4/Bootloader_1.c **** *   srcRowNum - The number of a row to copy from.
 574:Generated_Source\PSoC4/Bootloader_1.c **** * \param             
 575:Generated_Source\PSoC4/Bootloader_1.c **** *   dstRowNum - The number of a row to be copied to.
 576:Generated_Source\PSoC4/Bootloader_1.c **** *
 577:Generated_Source\PSoC4/Bootloader_1.c **** * \return
 578:Generated_Source\PSoC4/Bootloader_1.c **** *   \n CYRET_SUCCESS - If everything went right. 
 579:Generated_Source\PSoC4/Bootloader_1.c **** *   \n Otherwise, produce an error code indicating a problem.  
 580:Generated_Source\PSoC4/Bootloader_1.c **** * 
 581:Generated_Source\PSoC4/Bootloader_1.c **** * \endinternal
 582:Generated_Source\PSoC4/Bootloader_1.c **** *******************************************************************************/
 583:Generated_Source\PSoC4/Bootloader_1.c **** static cystatus Bootloader_1_CopyRow(uint16 srcRowNum, uint16 dstRowNum) \
 584:Generated_Source\PSoC4/Bootloader_1.c ****                  CYSMALL 
 585:Generated_Source\PSoC4/Bootloader_1.c **** {
 586:Generated_Source\PSoC4/Bootloader_1.c ****     /*Buffer for row copy procedure*/
 587:Generated_Source\PSoC4/Bootloader_1.c ****     uint8  rowBuffer[CYDEV_FLS_ROW_SIZE];
 588:Generated_Source\PSoC4/Bootloader_1.c ****     cystatus result = CYRET_SUCCESS;
 589:Generated_Source\PSoC4/Bootloader_1.c **** 
 590:Generated_Source\PSoC4/Bootloader_1.c ****     uint32 srcBaseAddr = CYDEV_FLASH_BASE + srcRowNum * CYDEV_FLS_ROW_SIZE;
 591:Generated_Source\PSoC4/Bootloader_1.c ****     uint16 idx;
 592:Generated_Source\PSoC4/Bootloader_1.c **** 
 593:Generated_Source\PSoC4/Bootloader_1.c ****     for(idx = 0u; idx < CYDEV_FLS_ROW_SIZE; idx++)
 594:Generated_Source\PSoC4/Bootloader_1.c ****     {
 595:Generated_Source\PSoC4/Bootloader_1.c ****         rowBuffer[idx] = Bootloader_1_GET_CODE_BYTE(srcBaseAddr + idx);
 596:Generated_Source\PSoC4/Bootloader_1.c ****     }
 597:Generated_Source\PSoC4/Bootloader_1.c ****     
 598:Generated_Source\PSoC4/Bootloader_1.c ****     result = CySysFlashWriteRow((uint16) dstRowNum, rowBuffer);
 599:Generated_Source\PSoC4/Bootloader_1.c ****     
 600:Generated_Source\PSoC4/Bootloader_1.c ****     return (result);
 601:Generated_Source\PSoC4/Bootloader_1.c **** }
 602:Generated_Source\PSoC4/Bootloader_1.c **** 
 603:Generated_Source\PSoC4/Bootloader_1.c **** /*******************************************************************************
 604:Generated_Source\PSoC4/Bootloader_1.c **** * Function Name: Bootloader_1_Copier
 605:Generated_Source\PSoC4/Bootloader_1.c **** ****************************************************************************//**
 606:Generated_Source\PSoC4/Bootloader_1.c **** *  \internal
 607:Generated_Source\PSoC4/Bootloader_1.c **** *  
 608:Generated_Source\PSoC4/Bootloader_1.c **** *  \brief
 609:Generated_Source\PSoC4/Bootloader_1.c **** *    This option is specific for Launcher-Combination architecture only and to 
 610:Generated_Source\PSoC4/Bootloader_1.c **** *    the case when there is a large communication component like BLE. To save 
 611:Generated_Source\PSoC4/Bootloader_1.c **** *    flash space for the user application, such a large communication component 
ARM GAS  C:\Users\ASUS\AppData\Local\Temp\ccJim9J2.s 			page 16


 612:Generated_Source\PSoC4/Bootloader_1.c **** *    is present only in the first application (Stack application) and is "shared" 
 613:Generated_Source\PSoC4/Bootloader_1.c **** *    with the second application (the user's application actually) by "Code 
 614:Generated_Source\PSoC4/Bootloader_1.c **** *    sharing feature" (See code sharing and BLE Upgradable Stack example project). 
 615:Generated_Source\PSoC4/Bootloader_1.c **** *
 616:Generated_Source\PSoC4/Bootloader_1.c **** * \n If this option is enabled and the "need-to-copy" flag is set in the second 
 617:Generated_Source\PSoC4/Bootloader_1.c **** *    application's metadata, Copier performs copying of a previously saved Stack 
 618:Generated_Source\PSoC4/Bootloader_1.c **** *    application image from a "temporary location" to the app#1 flash 
 619:Generated_Source\PSoC4/Bootloader_1.c **** *    space (over the current app#1).
 620:Generated_Source\PSoC4/Bootloader_1.c **** *   
 621:Generated_Source\PSoC4/Bootloader_1.c **** * \n Before performing the copying operation the new Stack application image 
 622:Generated_Source\PSoC4/Bootloader_1.c **** *    should be received and stored at the temporary location by the current 
 623:Generated_Source\PSoC4/Bootloader_1.c **** *    Stack application. The "need-to-copy" flag should be set in app#2 metadata 
 624:Generated_Source\PSoC4/Bootloader_1.c **** *    indicating that copying operation is required.
 625:Generated_Source\PSoC4/Bootloader_1.c **** *
 626:Generated_Source\PSoC4/Bootloader_1.c **** * \n The temporary location is half of the flash space that left after Launcher 
 627:Generated_Source\PSoC4/Bootloader_1.c **** *    and 2 metadata rows. This implies that Stack application should fit in 
 628:Generated_Source\PSoC4/Bootloader_1.c **** *    that half of the flash space. 
 629:Generated_Source\PSoC4/Bootloader_1.c **** *
 630:Generated_Source\PSoC4/Bootloader_1.c **** * \n The destination for the copy operation is obtained as the first row after 
 631:Generated_Source\PSoC4/Bootloader_1.c **** *    Launcher (from app#1 metadata). 
 632:Generated_Source\PSoC4/Bootloader_1.c **** *
 633:Generated_Source\PSoC4/Bootloader_1.c **** * \n The source of copy operation is the first row of temporary location that 
 634:Generated_Source\PSoC4/Bootloader_1.c **** *    is calculated by the following formula: 
 635:Generated_Source\PSoC4/Bootloader_1.c **** * \n     srcRow = (((CY_FLASH_NUMBER_ROWS - dstRow - metaRows) / 2) + dstRow);
 636:Generated_Source\PSoC4/Bootloader_1.c **** * \n     where:
 637:Generated_Source\PSoC4/Bootloader_1.c **** *          - dstRow - the destination's first row (mentioned above);
 638:Generated_Source\PSoC4/Bootloader_1.c **** *          - CY_FLASH_NUMBER_ROWS - number of all flash rows; 
 639:Generated_Source\PSoC4/Bootloader_1.c **** *          - metaRows - 2 metadata rows;   
 640:Generated_Source\PSoC4/Bootloader_1.c **** *
 641:Generated_Source\PSoC4/Bootloader_1.c **** * \n Copying itself means row-by-row copying of the stored application's image.
 642:Generated_Source\PSoC4/Bootloader_1.c **** *    If it fails to copy some row, there is a defined number of attempts 
 643:Generated_Source\PSoC4/Bootloader_1.c **** *    (Bootloader_1_MAX_ATTEMPTS) to try again. In case of no success, 
 644:Generated_Source\PSoC4/Bootloader_1.c **** *    a user callback function Launcher_CopierCallback() is called. 
 645:Generated_Source\PSoC4/Bootloader_1.c **** *    If it is not defined, then the device is going to be halted.
 646:Generated_Source\PSoC4/Bootloader_1.c **** * 
 647:Generated_Source\PSoC4/Bootloader_1.c **** * \n After performing the application image copying, in case of success 
 648:Generated_Source\PSoC4/Bootloader_1.c **** *    the app#2 metadata is copied in the stead of app#1 metadata and then
 649:Generated_Source\PSoC4/Bootloader_1.c **** *    app#2 metadata is cleared.
 650:Generated_Source\PSoC4/Bootloader_1.c **** *
 651:Generated_Source\PSoC4/Bootloader_1.c **** * \n A "need-to-copy" flag is cleared just after performing the app#1 image
 652:Generated_Source\PSoC4/Bootloader_1.c **** *    copying from the temporary location to avoid another consecutive 
 653:Generated_Source\PSoC4/Bootloader_1.c **** *    copying operation.
 654:Generated_Source\PSoC4/Bootloader_1.c **** *   
 655:Generated_Source\PSoC4/Bootloader_1.c **** * \endinternal 
 656:Generated_Source\PSoC4/Bootloader_1.c **** *******************************************************************************/
 657:Generated_Source\PSoC4/Bootloader_1.c **** static void Bootloader_1_Copier(void) CYSMALL \
 658:Generated_Source\PSoC4/Bootloader_1.c ****            
 659:Generated_Source\PSoC4/Bootloader_1.c **** {
 660:Generated_Source\PSoC4/Bootloader_1.c ****     uint16 idx = 0u;
 661:Generated_Source\PSoC4/Bootloader_1.c **** 
 662:Generated_Source\PSoC4/Bootloader_1.c ****     /* Number of attempts to perform copying again */
 663:Generated_Source\PSoC4/Bootloader_1.c ****     uint8 copierAttempts;
 664:Generated_Source\PSoC4/Bootloader_1.c ****     
 665:Generated_Source\PSoC4/Bootloader_1.c ****     /* "need-to-copy" flag from second application metadata */
 666:Generated_Source\PSoC4/Bootloader_1.c ****     uint8 copyFlag = Bootloader_1_GetMetadata(Bootloader_1_GET_BTLDB_COPY_FLAG, Bootloader_1_MD_BTL
 667:Generated_Source\PSoC4/Bootloader_1.c **** 
 668:Generated_Source\PSoC4/Bootloader_1.c ****     /* Buffer to temporary hold metadata before flashing */
ARM GAS  C:\Users\ASUS\AppData\Local\Temp\ccJim9J2.s 			page 17


 669:Generated_Source\PSoC4/Bootloader_1.c ****     uint8 metaBuf[CYDEV_FLS_ROW_SIZE];
 670:Generated_Source\PSoC4/Bootloader_1.c **** 
 671:Generated_Source\PSoC4/Bootloader_1.c ****     /* Launcher's last row number */
 672:Generated_Source\PSoC4/Bootloader_1.c ****     uint16 launcherLastRow = Bootloader_1_GetMetadata(Bootloader_1_GET_BTLDR_LAST_ROW, Bootloader_1
 673:Generated_Source\PSoC4/Bootloader_1.c **** 
 674:Generated_Source\PSoC4/Bootloader_1.c ****     /* Calculating destination's start row number (first row of app#1) */
 675:Generated_Source\PSoC4/Bootloader_1.c ****     uint16 dstRow = launcherLastRow + 1u;
 676:Generated_Source\PSoC4/Bootloader_1.c ****     
 677:Generated_Source\PSoC4/Bootloader_1.c ****     /* Calculating the source's/temporary location's start row number */
 678:Generated_Source\PSoC4/Bootloader_1.c ****     uint16 srcRow = ((((CY_FLASH_NUMBER_ROWS - dstRow - 2u) + 1u) >> 1u) + dstRow); 
 679:Generated_Source\PSoC4/Bootloader_1.c ****     
 680:Generated_Source\PSoC4/Bootloader_1.c ****     /* Taking length from app#2's metadata*/
 681:Generated_Source\PSoC4/Bootloader_1.c ****     uint32 srcLength = Bootloader_1_GetMetadata(Bootloader_1_GET_BTLDB_LENGTH, Bootloader_1_MD_BTLD
 682:Generated_Source\PSoC4/Bootloader_1.c **** 
 683:Generated_Source\PSoC4/Bootloader_1.c ****     /* Copy operation status initialization */
 684:Generated_Source\PSoC4/Bootloader_1.c ****     cystatus copyStatus = CYRET_SUCCESS;
 685:Generated_Source\PSoC4/Bootloader_1.c ****     
 686:Generated_Source\PSoC4/Bootloader_1.c ****     /* Calculating number of rows for copying */
 687:Generated_Source\PSoC4/Bootloader_1.c ****     uint16 numberOfRows = srcLength / CYDEV_FLS_ROW_SIZE;
 688:Generated_Source\PSoC4/Bootloader_1.c ****     
 689:Generated_Source\PSoC4/Bootloader_1.c ****     if (0u != (srcLength % CYDEV_FLS_ROW_SIZE))
 690:Generated_Source\PSoC4/Bootloader_1.c ****     {
 691:Generated_Source\PSoC4/Bootloader_1.c ****         numberOfRows++;
 692:Generated_Source\PSoC4/Bootloader_1.c ****     }
 693:Generated_Source\PSoC4/Bootloader_1.c ****         
 694:Generated_Source\PSoC4/Bootloader_1.c ****     /*************************************************************************
 695:Generated_Source\PSoC4/Bootloader_1.c ****     * Copying the number of rows from source (temporary location) to destination.
 696:Generated_Source\PSoC4/Bootloader_1.c ****     * If the operation is unsuccessful, there will be a few more attempts to
 697:Generated_Source\PSoC4/Bootloader_1.c ****     * perform the copying operation (a number is defined by Bootloader_1_MAX_ATTEMPTS)
 698:Generated_Source\PSoC4/Bootloader_1.c ****     ***************************************************************************/
 699:Generated_Source\PSoC4/Bootloader_1.c ****     for(idx = 0; idx < numberOfRows; idx++)
 700:Generated_Source\PSoC4/Bootloader_1.c ****     {
 701:Generated_Source\PSoC4/Bootloader_1.c ****         copierAttempts = Bootloader_1_MAX_ATTEMPTS;
 702:Generated_Source\PSoC4/Bootloader_1.c ****         
 703:Generated_Source\PSoC4/Bootloader_1.c ****         do 
 704:Generated_Source\PSoC4/Bootloader_1.c ****         {
 705:Generated_Source\PSoC4/Bootloader_1.c ****             /* Copying row */
 706:Generated_Source\PSoC4/Bootloader_1.c ****             copyStatus = Bootloader_1_CopyRow(srcRow + idx, dstRow + idx);
 707:Generated_Source\PSoC4/Bootloader_1.c ****             
 708:Generated_Source\PSoC4/Bootloader_1.c ****             /* Decrementing counter of attempts to repeat copying operation */
 709:Generated_Source\PSoC4/Bootloader_1.c ****             copierAttempts--;       
 710:Generated_Source\PSoC4/Bootloader_1.c ****         } while ((CYRET_SUCCESS != copyStatus) && (0u != copierAttempts));
 711:Generated_Source\PSoC4/Bootloader_1.c **** 
 712:Generated_Source\PSoC4/Bootloader_1.c ****         
 713:Generated_Source\PSoC4/Bootloader_1.c ****         /*************************************************************************
 714:Generated_Source\PSoC4/Bootloader_1.c ****         * If a problem occurs, when a row can't be copied, "CopyFlag" should be
 715:Generated_Source\PSoC4/Bootloader_1.c ****         * cleared to prevent the recurrent copying that might follow the software reset.        
 716:Generated_Source\PSoC4/Bootloader_1.c ****         ***************************************************************************/
 717:Generated_Source\PSoC4/Bootloader_1.c ****         if (CYRET_SUCCESS != copyStatus)
 718:Generated_Source\PSoC4/Bootloader_1.c ****         {
 719:Generated_Source\PSoC4/Bootloader_1.c ****             /* Clear copy flag in metadata#1 */
 720:Generated_Source\PSoC4/Bootloader_1.c ****             Bootloader_1_SetFlashByte(Bootloader_1_MD_BTLDB_COPY_FLAG_OFFSET(Bootloader_1_MD_BTLDB_
 721:Generated_Source\PSoC4/Bootloader_1.c ****                                          (copyFlag & (~Bootloader_1_NEED_TO_COPY_SET_BIT)));
 722:Generated_Source\PSoC4/Bootloader_1.c ****                 
 723:Generated_Source\PSoC4/Bootloader_1.c ****             /* Callback macro definition */
 724:Generated_Source\PSoC4/Bootloader_1.c ****             #if (0u != LAUNCHER_COPIER_CALLBACK)
 725:Generated_Source\PSoC4/Bootloader_1.c ****                 Bootloader_1_CopierCallback();
ARM GAS  C:\Users\ASUS\AppData\Local\Temp\ccJim9J2.s 			page 18


 726:Generated_Source\PSoC4/Bootloader_1.c ****             #endif /* 0u != LAUNCHER_COPIER_CALLBACK */ 
 727:Generated_Source\PSoC4/Bootloader_1.c ****             
 728:Generated_Source\PSoC4/Bootloader_1.c ****             /*************************************************************************
 729:Generated_Source\PSoC4/Bootloader_1.c ****             * If the copying operation was unsuccessful after certain number of attempts
 730:Generated_Source\PSoC4/Bootloader_1.c ****             * and Bootloader_1_CopierCallback() is either undefined or returns, then the
 731:Generated_Source\PSoC4/Bootloader_1.c ****             * device should be halted.
 732:Generated_Source\PSoC4/Bootloader_1.c ****             *************************************************************************/
 733:Generated_Source\PSoC4/Bootloader_1.c ****             CyHalt(0x00u);
 734:Generated_Source\PSoC4/Bootloader_1.c ****         }
 735:Generated_Source\PSoC4/Bootloader_1.c ****     }    
 736:Generated_Source\PSoC4/Bootloader_1.c ****     
 737:Generated_Source\PSoC4/Bootloader_1.c ****     /* Copy metadata app#2 -> app#1*/
 738:Generated_Source\PSoC4/Bootloader_1.c ****     if (CYRET_SUCCESS == copyStatus)
 739:Generated_Source\PSoC4/Bootloader_1.c ****     {
 740:Generated_Source\PSoC4/Bootloader_1.c ****         /******************************************************************************
 741:Generated_Source\PSoC4/Bootloader_1.c ****         *                               Metadata#1 update             
 742:Generated_Source\PSoC4/Bootloader_1.c ****         ******************************************************************************/
 743:Generated_Source\PSoC4/Bootloader_1.c ****         /* Getting start address of metadata #2 */
 744:Generated_Source\PSoC4/Bootloader_1.c ****         uint32 metaStartAddr = Bootloader_1_MD_BASE_ADDR(Bootloader_1_MD_BTLDB_ACTIVE_1) + 
 745:Generated_Source\PSoC4/Bootloader_1.c ****                                Bootloader_1_MD_SIZEOF - CYDEV_FLS_ROW_SIZE; 
 746:Generated_Source\PSoC4/Bootloader_1.c ****         
 747:Generated_Source\PSoC4/Bootloader_1.c ****         /* Read all data from metadata #2 */
 748:Generated_Source\PSoC4/Bootloader_1.c ****         for (idx = 0u; idx < CYDEV_FLS_ROW_SIZE; idx++)
 749:Generated_Source\PSoC4/Bootloader_1.c ****         {
 750:Generated_Source\PSoC4/Bootloader_1.c ****             metaBuf[idx] = Bootloader_1_GET_CODE_BYTE(metaStartAddr + idx);
 751:Generated_Source\PSoC4/Bootloader_1.c ****         }
 752:Generated_Source\PSoC4/Bootloader_1.c ****         
 753:Generated_Source\PSoC4/Bootloader_1.c ****         /* Setting 'Copier available' flag (copyFlag field) in buffer to be stored in metadata#1 */
 754:Generated_Source\PSoC4/Bootloader_1.c ****         metaBuf[Bootloader_1_MD_BUFFER_START_OFFSET + Bootloader_1_MD_COPY_FLAG_BYTE_OFFSET] = Boot
 755:Generated_Source\PSoC4/Bootloader_1.c **** 
 756:Generated_Source\PSoC4/Bootloader_1.c ****         /* Set active app#1 */
 757:Generated_Source\PSoC4/Bootloader_1.c ****         Bootloader_1_activeApp = Bootloader_1_MD_BTLDB_ACTIVE_0;
 758:Generated_Source\PSoC4/Bootloader_1.c ****         
 759:Generated_Source\PSoC4/Bootloader_1.c ****         /* Setting app#1 as active application in buffer to be stored in metadata#1 */
 760:Generated_Source\PSoC4/Bootloader_1.c ****         metaBuf[Bootloader_1_MD_BUFFER_START_OFFSET + Bootloader_1_MD_ACTIVE_APP_BYTE_OFFSET] = 0x0
 761:Generated_Source\PSoC4/Bootloader_1.c **** 
 762:Generated_Source\PSoC4/Bootloader_1.c ****         /* Setting app#1 as valid for 'Fast validation' to be stored in metadata#1 */
 763:Generated_Source\PSoC4/Bootloader_1.c ****         metaBuf[Bootloader_1_MD_BUFFER_START_OFFSET + Bootloader_1_MD_FAST_VALID_BYTE_OFFSET] = 0x0
 764:Generated_Source\PSoC4/Bootloader_1.c **** 
 765:Generated_Source\PSoC4/Bootloader_1.c ****         /* Update metadata#1 in flash */
 766:Generated_Source\PSoC4/Bootloader_1.c ****         copyStatus = CySysFlashWriteRow((uint16) (CY_FLASH_NUMBER_ROWS - 1u), metaBuf);  
 767:Generated_Source\PSoC4/Bootloader_1.c **** 
 768:Generated_Source\PSoC4/Bootloader_1.c ****         /******************************************************************************
 769:Generated_Source\PSoC4/Bootloader_1.c ****         *                               Metadata#2 update  
 770:Generated_Source\PSoC4/Bootloader_1.c ****         * Clear the whole buffer for metadata#2, which will make it invalid. 
 771:Generated_Source\PSoC4/Bootloader_1.c ****         * The 'Need-to-copy' flag will be cleared and app#2 will be set as non-active. 
 772:Generated_Source\PSoC4/Bootloader_1.c ****         *******************************************************************************/
 773:Generated_Source\PSoC4/Bootloader_1.c ****         (void) memset(&metaBuf, 0x00u, sizeof(metaBuf));
 774:Generated_Source\PSoC4/Bootloader_1.c ****         
 775:Generated_Source\PSoC4/Bootloader_1.c ****         /* Updating metadata#2 in flash */
 776:Generated_Source\PSoC4/Bootloader_1.c ****         copyStatus |= CySysFlashWriteRow((uint16) (CY_FLASH_NUMBER_ROWS - 2u), metaBuf);          
 777:Generated_Source\PSoC4/Bootloader_1.c ****     }
 778:Generated_Source\PSoC4/Bootloader_1.c ****     
 779:Generated_Source\PSoC4/Bootloader_1.c ****     if (CYRET_SUCCESS == copyStatus)
 780:Generated_Source\PSoC4/Bootloader_1.c ****     {
 781:Generated_Source\PSoC4/Bootloader_1.c ****         /* Schedule*/
 782:Generated_Source\PSoC4/Bootloader_1.c ****         Bootloader_1_SET_RUN_TYPE(Bootloader_1_SCHEDULE_BTLDB);
ARM GAS  C:\Users\ASUS\AppData\Local\Temp\ccJim9J2.s 			page 19


 783:Generated_Source\PSoC4/Bootloader_1.c **** 
 784:Generated_Source\PSoC4/Bootloader_1.c ****         /* Software reset */
 785:Generated_Source\PSoC4/Bootloader_1.c ****         CySoftwareReset();
 786:Generated_Source\PSoC4/Bootloader_1.c ****     }
 787:Generated_Source\PSoC4/Bootloader_1.c ****     else
 788:Generated_Source\PSoC4/Bootloader_1.c ****     {
 789:Generated_Source\PSoC4/Bootloader_1.c ****         /* Halt device */
 790:Generated_Source\PSoC4/Bootloader_1.c ****         CyHalt(0x00u);
 791:Generated_Source\PSoC4/Bootloader_1.c ****     }
 792:Generated_Source\PSoC4/Bootloader_1.c **** }
 793:Generated_Source\PSoC4/Bootloader_1.c **** #endif /*(0u != Bootloader_1_COPIER_AVAIL) && (CY_PSOC4)*/
 794:Generated_Source\PSoC4/Bootloader_1.c **** #endif /*(CYDEV_PROJ_TYPE == CYDEV_PROJ_TYPE_LAUNCHER)*/
 795:Generated_Source\PSoC4/Bootloader_1.c **** 
 796:Generated_Source\PSoC4/Bootloader_1.c **** 
 797:Generated_Source\PSoC4/Bootloader_1.c **** /*******************************************************************************
 798:Generated_Source\PSoC4/Bootloader_1.c **** * Function Name: Bootloader_1_Start
 799:Generated_Source\PSoC4/Bootloader_1.c **** ****************************************************************************//**
 800:Generated_Source\PSoC4/Bootloader_1.c **** * \brief
 801:Generated_Source\PSoC4/Bootloader_1.c **** *  This function is called to execute the following algorithm:
 802:Generated_Source\PSoC4/Bootloader_1.c **** *
 803:Generated_Source\PSoC4/Bootloader_1.c **** * -    Validate the Bootloadable application for the Classic Single-app Bootloader or 
 804:Generated_Source\PSoC4/Bootloader_1.c **** *   both Bootloadable/Combination applications for the Classic Dual-app Bootloader/
 805:Generated_Source\PSoC4/Bootloader_1.c **** *   Launch-only Bootloader (Launcher for short) respectively.
 806:Generated_Source\PSoC4/Bootloader_1.c **** *  
 807:Generated_Source\PSoC4/Bootloader_1.c **** * -    For the Classic Single-app Bootloader: if the Bootloadable application is valid, 
 808:Generated_Source\PSoC4/Bootloader_1.c **** *   then the flow switches to it after a software reset. Otherwise it stays in 
 809:Generated_Source\PSoC4/Bootloader_1.c **** *   the Bootloader, waiting for a command(s) from the host.
 810:Generated_Source\PSoC4/Bootloader_1.c **** * 
 811:Generated_Source\PSoC4/Bootloader_1.c **** * -    For the Classic Dual-app Bootloader: the flow acts according to the switching table 
 812:Generated_Source\PSoC4/Bootloader_1.c **** *  (see in the code below) and enabled/disabled options (for instance, auto-switching).
 813:Generated_Source\PSoC4/Bootloader_1.c **** *   NOTE If the valid Bootloadable application is identified, then the control is passed 
 814:Generated_Source\PSoC4/Bootloader_1.c **** *   to it after a software reset. Otherwise it stays in the Classic Dual-app Bootloader 
 815:Generated_Source\PSoC4/Bootloader_1.c **** *   waiting for a command(s) from the host.
 816:Generated_Source\PSoC4/Bootloader_1.c **** * 
 817:Generated_Source\PSoC4/Bootloader_1.c **** * -    For the Launcher: the flow acts according to the switching table (see below) and 
 818:Generated_Source\PSoC4/Bootloader_1.c **** *   enabled/disabled options. NOTE If the valid Combination application is identified, then 
 819:Generated_Source\PSoC4/Bootloader_1.c **** *   the control is passed to it after a software reset. Otherwise it stays in the Launcher 
 820:Generated_Source\PSoC4/Bootloader_1.c **** *   forever.
 821:Generated_Source\PSoC4/Bootloader_1.c **** * 
 822:Generated_Source\PSoC4/Bootloader_1.c **** * -    Validate the Bootloader/Launcher application(s) (design-time configurable, Bootloader 
 823:Generated_Source\PSoC4/Bootloader_1.c **** *   application validation option of the component customizer).
 824:Generated_Source\PSoC4/Bootloader_1.c **** * 
 825:Generated_Source\PSoC4/Bootloader_1.c **** * -    Run a communication subroutine (design-time configurable, the Wait for command 
 826:Generated_Source\PSoC4/Bootloader_1.c **** *   option of the component customizer). NOTE This is NOT applicable for the Launcher.
 827:Generated_Source\PSoC4/Bootloader_1.c **** *
 828:Generated_Source\PSoC4/Bootloader_1.c **** * -    Schedule the Bootloadable and reset the device.
 829:Generated_Source\PSoC4/Bootloader_1.c **** *
 830:Generated_Source\PSoC4/Bootloader_1.c **** *  \ref page_switching_logic
 831:Generated_Source\PSoC4/Bootloader_1.c **** *
 832:Generated_Source\PSoC4/Bootloader_1.c **** * \return
 833:Generated_Source\PSoC4/Bootloader_1.c **** *  This method will never return. It will either load a new application and
 834:Generated_Source\PSoC4/Bootloader_1.c **** *  reset the device or jump directly to the existing application. The CPU is
 835:Generated_Source\PSoC4/Bootloader_1.c **** *  halted, if the validation fails when the "Bootloader application validation" 
 836:Generated_Source\PSoC4/Bootloader_1.c **** *  option is enabled.
 837:Generated_Source\PSoC4/Bootloader_1.c **** *  PSoC 3/PSoC 5: The CPU is halted if flash initialization fails.
 838:Generated_Source\PSoC4/Bootloader_1.c **** *
 839:Generated_Source\PSoC4/Bootloader_1.c **** * \details
ARM GAS  C:\Users\ASUS\AppData\Local\Temp\ccJim9J2.s 			page 20


 840:Generated_Source\PSoC4/Bootloader_1.c **** *  If the "Bootloader application validation" option is enabled and this method
 841:Generated_Source\PSoC4/Bootloader_1.c **** *  determines that the Bootloader application itself is corrupt, this method
 842:Generated_Source\PSoC4/Bootloader_1.c **** *  will not return, instead it will simply hang the application.   
 843:Generated_Source\PSoC4/Bootloader_1.c **** *******************************************************************************/
 844:Generated_Source\PSoC4/Bootloader_1.c **** void Bootloader_1_Start(void) CYSMALL 
 845:Generated_Source\PSoC4/Bootloader_1.c **** {
 243              		.loc 1 845 0
 244              		.cfi_startproc
 245              		@ args = 0, pretend = 0, frame = 8
 246              		@ frame_needed = 1, uses_anonymous_args = 0
 247 0000 90B5     		push	{r4, r7, lr}
 248              		.cfi_def_cfa_offset 12
 249              		.cfi_offset 4, -12
 250              		.cfi_offset 7, -8
 251              		.cfi_offset 14, -4
 252 0002 83B0     		sub	sp, sp, #12
 253              		.cfi_def_cfa_offset 24
 254 0004 00AF     		add	r7, sp, #0
 255              		.cfi_def_cfa_register 7
 846:Generated_Source\PSoC4/Bootloader_1.c **** 
 847:Generated_Source\PSoC4/Bootloader_1.c **** #if (CYDEV_PROJ_TYPE != CYDEV_PROJ_TYPE_LOADABLEANDBOOTLOADER)
 848:Generated_Source\PSoC4/Bootloader_1.c **** 
 849:Generated_Source\PSoC4/Bootloader_1.c ****     #if(0u != Bootloader_1_DUAL_APP_BOOTLOADER)
 850:Generated_Source\PSoC4/Bootloader_1.c ****         cystatus app0Status = CYRET_BAD_DATA;
 851:Generated_Source\PSoC4/Bootloader_1.c ****         cystatus app1Status = CYRET_BAD_DATA;  
 852:Generated_Source\PSoC4/Bootloader_1.c ****     #endif /*0u != Bootloader_1_DUAL_APP_BOOTLOADER*/
 853:Generated_Source\PSoC4/Bootloader_1.c ****     
 854:Generated_Source\PSoC4/Bootloader_1.c ****     cystatus validApp  = CYRET_BAD_DATA;
 256              		.loc 1 854 0
 257 0006 0623     		movs	r3, #6
 258 0008 7B60     		str	r3, [r7, #4]
 855:Generated_Source\PSoC4/Bootloader_1.c **** 
 856:Generated_Source\PSoC4/Bootloader_1.c ****     #if(0u != Bootloader_1_BOOTLOADER_APP_VALIDATION)
 857:Generated_Source\PSoC4/Bootloader_1.c ****         uint8 CYDATA calcedChecksum;
 858:Generated_Source\PSoC4/Bootloader_1.c ****     #endif    /* (0u != Bootloader_1_BOOTLOADER_APP_VALIDATION) */
 859:Generated_Source\PSoC4/Bootloader_1.c **** 
 860:Generated_Source\PSoC4/Bootloader_1.c ****     #if(!CY_PSOC4)
 861:Generated_Source\PSoC4/Bootloader_1.c ****         #if(0u != Bootloader_1_FAST_APP_VALIDATION)
 862:Generated_Source\PSoC4/Bootloader_1.c ****             /* Initialize flash subsystem for non-PSoC 4 devices */
 863:Generated_Source\PSoC4/Bootloader_1.c ****             if (CYRET_SUCCESS != CySetTemp())
 864:Generated_Source\PSoC4/Bootloader_1.c ****             {
 865:Generated_Source\PSoC4/Bootloader_1.c ****                 CyHalt(0x00u);
 866:Generated_Source\PSoC4/Bootloader_1.c ****             }
 867:Generated_Source\PSoC4/Bootloader_1.c **** 
 868:Generated_Source\PSoC4/Bootloader_1.c ****             #if !defined(CY_BOOT_VERSION)
 869:Generated_Source\PSoC4/Bootloader_1.c ****                 /* Not required with cy_boot 4.20 */
 870:Generated_Source\PSoC4/Bootloader_1.c ****                 if (CYRET_SUCCESS != CySetFlashEEBuffer(Bootloader_1_flashBuffer))
 871:Generated_Source\PSoC4/Bootloader_1.c ****                 {
 872:Generated_Source\PSoC4/Bootloader_1.c ****                     CyHalt(0x00u);
 873:Generated_Source\PSoC4/Bootloader_1.c ****                 }
 874:Generated_Source\PSoC4/Bootloader_1.c **** 
 875:Generated_Source\PSoC4/Bootloader_1.c ****                 uint8 CYXDATA Bootloader_1_flashBuffer[Bootloader_1_FROW_SIZE];
 876:Generated_Source\PSoC4/Bootloader_1.c ****             #endif /* !defined(CY_BOOT_VERSION) */
 877:Generated_Source\PSoC4/Bootloader_1.c ****         #endif  /* (0u != Bootloader_1_FAST_APP_VALIDATION) */
 878:Generated_Source\PSoC4/Bootloader_1.c ****     #endif  /* (!CY_PSOC4) */
 879:Generated_Source\PSoC4/Bootloader_1.c **** 
 880:Generated_Source\PSoC4/Bootloader_1.c ****     #if (CYDEV_PROJ_TYPE == CYDEV_PROJ_TYPE_LAUNCHER) 
ARM GAS  C:\Users\ASUS\AppData\Local\Temp\ccJim9J2.s 			page 21


 881:Generated_Source\PSoC4/Bootloader_1.c ****     #if ((0u != Bootloader_1_COPIER_AVAIL) && (CY_PSOC4))
 882:Generated_Source\PSoC4/Bootloader_1.c ****         /* Checking "need-to-copy" flag in metadata#1. If it is set, then copy operation is require
 883:Generated_Source\PSoC4/Bootloader_1.c ****         uint8 needToCopyFlag = Bootloader_1_GetMetadata(Bootloader_1_GET_BTLDB_COPY_FLAG, 
 884:Generated_Source\PSoC4/Bootloader_1.c ****                                                         Bootloader_1_MD_BTLDB_ACTIVE_1);           
 885:Generated_Source\PSoC4/Bootloader_1.c ****         
 886:Generated_Source\PSoC4/Bootloader_1.c ****         /* Checking "Need to copy" flag in metadata#1 */
 887:Generated_Source\PSoC4/Bootloader_1.c ****         if (0u != (needToCopyFlag & Bootloader_1_NEED_TO_COPY_MASK))
 888:Generated_Source\PSoC4/Bootloader_1.c ****         {
 889:Generated_Source\PSoC4/Bootloader_1.c ****             /* Note that this function never returns */
 890:Generated_Source\PSoC4/Bootloader_1.c ****             Bootloader_1_Copier();
 891:Generated_Source\PSoC4/Bootloader_1.c ****         }
 892:Generated_Source\PSoC4/Bootloader_1.c ****     #endif  /* (CYDEV_PROJ_TYPE == CYDEV_PROJ_TYPE_LAUNCHER) */
 893:Generated_Source\PSoC4/Bootloader_1.c ****     #endif  /* (0u != Bootloader_1_COPIER_AVAIL) && (CY_PSOC4)*/
 894:Generated_Source\PSoC4/Bootloader_1.c ****         
 895:Generated_Source\PSoC4/Bootloader_1.c ****     /* Identify active Bootloadable/Combination application */
 896:Generated_Source\PSoC4/Bootloader_1.c ****     #if (0u != Bootloader_1_DUAL_APP_BOOTLOADER)
 897:Generated_Source\PSoC4/Bootloader_1.c ****         app0Status = Bootloader_1_ValidateBootloadable(Bootloader_1_MD_BTLDB_ACTIVE_0);
 898:Generated_Source\PSoC4/Bootloader_1.c ****         app1Status = Bootloader_1_ValidateBootloadable(Bootloader_1_MD_BTLDB_ACTIVE_1);  
 899:Generated_Source\PSoC4/Bootloader_1.c **** 
 900:Generated_Source\PSoC4/Bootloader_1.c ****         /* Assumes no active Bootloadable application. Bootloader is active. */
 901:Generated_Source\PSoC4/Bootloader_1.c ****         Bootloader_1_activeApp = Bootloader_1_MD_BTLDB_ACTIVE_NONE;
 902:Generated_Source\PSoC4/Bootloader_1.c **** 
 903:Generated_Source\PSoC4/Bootloader_1.c ****         /* Bootloadable app#1 is active */
 904:Generated_Source\PSoC4/Bootloader_1.c ****         if(Bootloader_1_GetMetadata(Bootloader_1_GET_BTLDB_ACTIVE, Bootloader_1_MD_BTLDB_ACTIVE_0) 
 905:Generated_Source\PSoC4/Bootloader_1.c ****                                                                            Bootloader_1_MD_BTLDB_IS
 906:Generated_Source\PSoC4/Bootloader_1.c ****         {
 907:Generated_Source\PSoC4/Bootloader_1.c ****             /**************************************************************************************
 908:Generated_Source\PSoC4/Bootloader_1.c ****             * -------------------------------------------------------------------------------------
 909:Generated_Source\PSoC4/Bootloader_1.c ****             * |      |      app#1     |      app#2     |        Classic Dual-app       |     Launch
 910:Generated_Source\PSoC4/Bootloader_1.c ****             * | Case |---------------------------------|          Bootloader           |           
 911:Generated_Source\PSoC4/Bootloader_1.c ****             * |      | Active | Valid | Active | Valid |                               |           
 912:Generated_Source\PSoC4/Bootloader_1.c ****             * |------------------------------------------------------------------------------------
 913:Generated_Source\PSoC4/Bootloader_1.c ****             * |  9   |    1   |   0   |   0    |   0   | Bootloader                    | Launcher  
 914:Generated_Source\PSoC4/Bootloader_1.c ****             * |  10  |    1   |   0   |   0    |   1   | app#2, except if auto-app     | app#2     
 915:Generated_Source\PSoC4/Bootloader_1.c ****             * |      |        |       |        |       | switching is disabled, then   |           
 916:Generated_Source\PSoC4/Bootloader_1.c ****             * |      |        |       |        |       | stay in Bootloader            |           
 917:Generated_Source\PSoC4/Bootloader_1.c ****             * |  11  |    1   |   0   |   1    |   0   | Bootloader                    | Launcher  
 918:Generated_Source\PSoC4/Bootloader_1.c ****             * |  12  |    1   |   0   |   1    |   1   | app#2                         | app#2     
 919:Generated_Source\PSoC4/Bootloader_1.c ****             * |  13  |    1   |   1   |   0    |   0   | app#1                         | app#1     
 920:Generated_Source\PSoC4/Bootloader_1.c ****             * |  14  |    1   |   1   |   0    |   1   | app#1                         | app#1     
 921:Generated_Source\PSoC4/Bootloader_1.c ****             * |  15  |    1   |   1   |   1    |   0   | app#1                         | app#1     
 922:Generated_Source\PSoC4/Bootloader_1.c ****             * |  16  |    1   |   1   |   1    |   1   | app#1                         | app#1     
 923:Generated_Source\PSoC4/Bootloader_1.c ****             * -------------------------------------------------------------------------------------
 924:Generated_Source\PSoC4/Bootloader_1.c ****             ***************************************************************************************
 925:Generated_Source\PSoC4/Bootloader_1.c ****             if (CYRET_SUCCESS == app0Status)
 926:Generated_Source\PSoC4/Bootloader_1.c ****             {
 927:Generated_Source\PSoC4/Bootloader_1.c ****                 /* Cases # 13,  14, 15, and 16 */
 928:Generated_Source\PSoC4/Bootloader_1.c ****                 Bootloader_1_activeApp = Bootloader_1_MD_BTLDB_ACTIVE_0;
 929:Generated_Source\PSoC4/Bootloader_1.c ****                 validApp = CYRET_SUCCESS;
 930:Generated_Source\PSoC4/Bootloader_1.c ****             }
 931:Generated_Source\PSoC4/Bootloader_1.c ****             else /*Bootloadable app#1 is not valid*/
 932:Generated_Source\PSoC4/Bootloader_1.c ****             {
 933:Generated_Source\PSoC4/Bootloader_1.c ****                 #if (((1u == Bootloader_1_AUTO_SWITCHING_AVAIL) &&  \
 934:Generated_Source\PSoC4/Bootloader_1.c ****                       (CYDEV_PROJ_TYPE == CYDEV_PROJ_TYPE_MULTIAPPBOOTLOADER)) || \
 935:Generated_Source\PSoC4/Bootloader_1.c ****                       (CYDEV_PROJ_TYPE == CYDEV_PROJ_TYPE_LAUNCHER)) 
 936:Generated_Source\PSoC4/Bootloader_1.c ****                 if (CYRET_SUCCESS == app1Status )
 937:Generated_Source\PSoC4/Bootloader_1.c ****                 {
ARM GAS  C:\Users\ASUS\AppData\Local\Temp\ccJim9J2.s 			page 22


 938:Generated_Source\PSoC4/Bootloader_1.c ****                     /* Cases # 10 and 12 */
 939:Generated_Source\PSoC4/Bootloader_1.c ****                     Bootloader_1_activeApp = Bootloader_1_MD_BTLDB_ACTIVE_1;
 940:Generated_Source\PSoC4/Bootloader_1.c ****                     validApp = CYRET_SUCCESS;
 941:Generated_Source\PSoC4/Bootloader_1.c ****                 }
 942:Generated_Source\PSoC4/Bootloader_1.c ****                 #endif /*((1u == Bootloader_1_AUTO_SWITCHING_AVAIL) && 
 943:Generated_Source\PSoC4/Bootloader_1.c ****                           (CYDEV_PROJ_TYPE == CYDEV_PROJ_TYPE_MULTIAPPBOOTLOADER)) || 
 944:Generated_Source\PSoC4/Bootloader_1.c ****                           (CYDEV_PROJ_TYPE == CYDEV_PROJ_TYPE_LAUNCHER)*/
 945:Generated_Source\PSoC4/Bootloader_1.c ****             }
 946:Generated_Source\PSoC4/Bootloader_1.c ****         }
 947:Generated_Source\PSoC4/Bootloader_1.c **** 
 948:Generated_Source\PSoC4/Bootloader_1.c ****         /*  Active Bootloadable application is not identified */
 949:Generated_Source\PSoC4/Bootloader_1.c ****         if(Bootloader_1_activeApp == Bootloader_1_MD_BTLDB_ACTIVE_NONE)
 950:Generated_Source\PSoC4/Bootloader_1.c ****         {
 951:Generated_Source\PSoC4/Bootloader_1.c ****             /**************************************************************************************
 952:Generated_Source\PSoC4/Bootloader_1.c ****             * -------------------------------------------------------------------------------------
 953:Generated_Source\PSoC4/Bootloader_1.c ****             * |      |       app#1    |       app#2    |        Classic Dual-app       |     Launch
 954:Generated_Source\PSoC4/Bootloader_1.c ****             * | Case |---------------------------------|          Bootloader           |           
 955:Generated_Source\PSoC4/Bootloader_1.c ****             * |      | Active | Valid | Active | Valid |                               |           
 956:Generated_Source\PSoC4/Bootloader_1.c ****             * |------|-----------------------------------------------------------------------------
 957:Generated_Source\PSoC4/Bootloader_1.c ****             * |  1   |    0   |   0   |   0    |   0   | Bootloader                    | Launcher  
 958:Generated_Source\PSoC4/Bootloader_1.c ****             * |  2   |    0   |   0   |   0    |   1   | Bootloader                    | app#2     
 959:Generated_Source\PSoC4/Bootloader_1.c ****             * |  3   |    0   |   0   |   1    |   0   | Bootloader                    | Launcher  
 960:Generated_Source\PSoC4/Bootloader_1.c ****             * |  4   |    0   |   0   |   1    |   1   | app#2                         | app#2     
 961:Generated_Source\PSoC4/Bootloader_1.c ****             * |  5   |    0   |   1   |   0    |   0   | Bootloader                    | app#1     
 962:Generated_Source\PSoC4/Bootloader_1.c ****             * |  6   |    0   |   1   |   0    |   1   | Bootloader                    | app#1     
 963:Generated_Source\PSoC4/Bootloader_1.c ****             * |  7   |    0   |   1   |   1    |   0   | app#1, except if auto-app     | app#1     
 964:Generated_Source\PSoC4/Bootloader_1.c ****             * |      |        |       |        |       | switching is disabled, then   |           
 965:Generated_Source\PSoC4/Bootloader_1.c ****             * |      |        |       |        |       | stay in Bootloader            |           
 966:Generated_Source\PSoC4/Bootloader_1.c ****             * |  8   |    0   |   1   |   1    |   1   | app#2                         | app#2     
 967:Generated_Source\PSoC4/Bootloader_1.c ****             * -------------------------------------------------------------------------------------
 968:Generated_Source\PSoC4/Bootloader_1.c ****             ***************************************************************************************
 969:Generated_Source\PSoC4/Bootloader_1.c ****             if (Bootloader_1_GetMetadata(Bootloader_1_GET_BTLDB_ACTIVE, 1u) ==
 970:Generated_Source\PSoC4/Bootloader_1.c ****                     Bootloader_1_MD_BTLDB_IS_ACTIVE)
 971:Generated_Source\PSoC4/Bootloader_1.c ****             {
 972:Generated_Source\PSoC4/Bootloader_1.c ****                 /* Cases # 3, 4, 7, and 8 */
 973:Generated_Source\PSoC4/Bootloader_1.c ****                 if (CYRET_SUCCESS == app1Status)
 974:Generated_Source\PSoC4/Bootloader_1.c ****                 {
 975:Generated_Source\PSoC4/Bootloader_1.c ****                     /* Cases # 4 and 8 */
 976:Generated_Source\PSoC4/Bootloader_1.c ****                     Bootloader_1_activeApp = Bootloader_1_MD_BTLDB_ACTIVE_1;
 977:Generated_Source\PSoC4/Bootloader_1.c ****                     validApp = CYRET_SUCCESS;
 978:Generated_Source\PSoC4/Bootloader_1.c ****                 }
 979:Generated_Source\PSoC4/Bootloader_1.c ****                 else
 980:Generated_Source\PSoC4/Bootloader_1.c ****                 {
 981:Generated_Source\PSoC4/Bootloader_1.c ****                  #if (((1u == Bootloader_1_AUTO_SWITCHING_AVAIL) && \
 982:Generated_Source\PSoC4/Bootloader_1.c ****                        (CYDEV_PROJ_TYPE == CYDEV_PROJ_TYPE_MULTIAPPBOOTLOADER)) \
 983:Generated_Source\PSoC4/Bootloader_1.c ****                     || (CYDEV_PROJ_TYPE == CYDEV_PROJ_TYPE_LAUNCHER)) 
 984:Generated_Source\PSoC4/Bootloader_1.c ****                     if (CYRET_SUCCESS == app0Status)
 985:Generated_Source\PSoC4/Bootloader_1.c ****                     {
 986:Generated_Source\PSoC4/Bootloader_1.c ****                         /* Cases # 7 */
 987:Generated_Source\PSoC4/Bootloader_1.c ****                         Bootloader_1_activeApp = Bootloader_1_MD_BTLDB_ACTIVE_0;
 988:Generated_Source\PSoC4/Bootloader_1.c ****                         validApp = CYRET_SUCCESS;
 989:Generated_Source\PSoC4/Bootloader_1.c ****                     }
 990:Generated_Source\PSoC4/Bootloader_1.c ****                     #endif /*(((1u == Bootloader_1_AUTO_SWITCHING_AVAIL) && \
 991:Generated_Source\PSoC4/Bootloader_1.c ****                                (CYDEV_PROJ_TYPE == CYDEV_PROJ_TYPE_MULTIAPPBOOTLOADER)) \
 992:Generated_Source\PSoC4/Bootloader_1.c ****                             || (CYDEV_PROJ_TYPE == CYDEV_PROJ_TYPE_LAUNCHER))*/
 993:Generated_Source\PSoC4/Bootloader_1.c ****                 }
 994:Generated_Source\PSoC4/Bootloader_1.c ****             }
ARM GAS  C:\Users\ASUS\AppData\Local\Temp\ccJim9J2.s 			page 23


 995:Generated_Source\PSoC4/Bootloader_1.c ****         }
 996:Generated_Source\PSoC4/Bootloader_1.c ****         
 997:Generated_Source\PSoC4/Bootloader_1.c ****         #if (CYDEV_PROJ_TYPE == CYDEV_PROJ_TYPE_LAUNCHER) 
 998:Generated_Source\PSoC4/Bootloader_1.c ****             /*None of applications is active*/
 999:Generated_Source\PSoC4/Bootloader_1.c ****             if (Bootloader_1_MD_BTLDB_ACTIVE_NONE ==Bootloader_1_activeApp)
1000:Generated_Source\PSoC4/Bootloader_1.c ****             {
1001:Generated_Source\PSoC4/Bootloader_1.c ****                 /*case#5, case#6: pass control to Bootloadable app#1*/
1002:Generated_Source\PSoC4/Bootloader_1.c ****                 if(CYRET_SUCCESS == app0Status)
1003:Generated_Source\PSoC4/Bootloader_1.c ****                 {
1004:Generated_Source\PSoC4/Bootloader_1.c ****                     Bootloader_1_activeApp = Bootloader_1_MD_BTLDB_ACTIVE_0;
1005:Generated_Source\PSoC4/Bootloader_1.c ****                     validApp = CYRET_SUCCESS;
1006:Generated_Source\PSoC4/Bootloader_1.c ****                 }
1007:Generated_Source\PSoC4/Bootloader_1.c ****                 /*case#2: pass control to Bootloadable app#2*/
1008:Generated_Source\PSoC4/Bootloader_1.c ****                 else if (CYRET_SUCCESS == app1Status)
1009:Generated_Source\PSoC4/Bootloader_1.c ****                 {
1010:Generated_Source\PSoC4/Bootloader_1.c ****                     Bootloader_1_activeApp = Bootloader_1_MD_BTLDB_ACTIVE_1;
1011:Generated_Source\PSoC4/Bootloader_1.c ****                     validApp = CYRET_SUCCESS;
1012:Generated_Source\PSoC4/Bootloader_1.c ****                 }
1013:Generated_Source\PSoC4/Bootloader_1.c ****                 else
1014:Generated_Source\PSoC4/Bootloader_1.c ****                 {
1015:Generated_Source\PSoC4/Bootloader_1.c ****                     /* case#1, case#3, case#9, case#11: very bad situation, no valid application */
1016:Generated_Source\PSoC4/Bootloader_1.c ****                     /* Do nothing, stay in Bootloader/Launcher */
1017:Generated_Source\PSoC4/Bootloader_1.c ****                 }
1018:Generated_Source\PSoC4/Bootloader_1.c ****             }
1019:Generated_Source\PSoC4/Bootloader_1.c **** 
1020:Generated_Source\PSoC4/Bootloader_1.c **** 
1021:Generated_Source\PSoC4/Bootloader_1.c ****              /*********************************************************************************
1022:Generated_Source\PSoC4/Bootloader_1.c ****             * The next logic is an invalidation of the non-active application in the metadata
1023:Generated_Source\PSoC4/Bootloader_1.c ****             * section, because there could be a situation due to some error, when both  
1024:Generated_Source\PSoC4/Bootloader_1.c ****             * applications are set active (cases #12,15,16). Only one application can be active.
1025:Generated_Source\PSoC4/Bootloader_1.c ****             * This logic also stores the active application number in the metadata section.        
1026:Generated_Source\PSoC4/Bootloader_1.c ****             *********************************************************************************/
1027:Generated_Source\PSoC4/Bootloader_1.c ****             if (CYRET_SUCCESS == validApp)
1028:Generated_Source\PSoC4/Bootloader_1.c ****             {
1029:Generated_Source\PSoC4/Bootloader_1.c ****                 Bootloader_1_SetActiveAppInMetadata(Bootloader_1_activeApp);      
1030:Generated_Source\PSoC4/Bootloader_1.c ****             }
1031:Generated_Source\PSoC4/Bootloader_1.c ****         #endif /* CYDEV_PROJ_TYPE == CYDEV_PROJ_TYPE_LAUNCHER */
1032:Generated_Source\PSoC4/Bootloader_1.c ****     #else /*SINGLE_APP BOOTLOADER*/
1033:Generated_Source\PSoC4/Bootloader_1.c ****         if (CYRET_SUCCESS == Bootloader_1_ValidateBootloadable(Bootloader_1_MD_BTLDB_ACTIVE_0))
 259              		.loc 1 1033 0
 260 000a 0020     		movs	r0, #0
 261 000c FFF7FEFF 		bl	Bootloader_1_ValidateBootloadable
 262 0010 031E     		subs	r3, r0, #0
 263 0012 01D1     		bne	.L14
1034:Generated_Source\PSoC4/Bootloader_1.c ****         {
1035:Generated_Source\PSoC4/Bootloader_1.c ****             validApp = CYRET_SUCCESS;
 264              		.loc 1 1035 0
 265 0014 0023     		movs	r3, #0
 266 0016 7B60     		str	r3, [r7, #4]
 267              	.L14:
1036:Generated_Source\PSoC4/Bootloader_1.c ****         }
1037:Generated_Source\PSoC4/Bootloader_1.c ****     #endif  /* (0u != Bootloader_1_DUAL_APP_BOOTLOADER) */
1038:Generated_Source\PSoC4/Bootloader_1.c **** 
1039:Generated_Source\PSoC4/Bootloader_1.c ****     
1040:Generated_Source\PSoC4/Bootloader_1.c ****     /***********************************************************************
1041:Generated_Source\PSoC4/Bootloader_1.c ****     * Bootloader Application Validation
1042:Generated_Source\PSoC4/Bootloader_1.c ****     *
ARM GAS  C:\Users\ASUS\AppData\Local\Temp\ccJim9J2.s 			page 24


1043:Generated_Source\PSoC4/Bootloader_1.c ****     * Halt the device if:
1044:Generated_Source\PSoC4/Bootloader_1.c ****     *  - A calculated checksum does not match the one stored in the metadata
1045:Generated_Source\PSoC4/Bootloader_1.c ****     *     section.
1046:Generated_Source\PSoC4/Bootloader_1.c ****     *  - There is an invalid pointer to the place where the Bootloader
1047:Generated_Source\PSoC4/Bootloader_1.c ****     *    application ends.
1048:Generated_Source\PSoC4/Bootloader_1.c ****     *  - The flash subsystem was not initialized correctly.
1049:Generated_Source\PSoC4/Bootloader_1.c ****     ***********************************************************************/
1050:Generated_Source\PSoC4/Bootloader_1.c ****     #if(0u != Bootloader_1_BOOTLOADER_APP_VALIDATION)
1051:Generated_Source\PSoC4/Bootloader_1.c **** 
1052:Generated_Source\PSoC4/Bootloader_1.c ****         /* Calculate Bootloader application checksum */
1053:Generated_Source\PSoC4/Bootloader_1.c ****         calcedChecksum = Bootloader_1_Calc8BitSum(CY_FLASH_BASE,
1054:Generated_Source\PSoC4/Bootloader_1.c ****                 Bootloader_1_MD_BTLDR_ADDR_PTR,
1055:Generated_Source\PSoC4/Bootloader_1.c ****                 *Bootloader_1_SizeBytesAccess - Bootloader_1_MD_BTLDR_ADDR_PTR);
 268              		.loc 1 1055 0
 269 0018 1E4B     		ldr	r3, .L19
 270 001a 1B68     		ldr	r3, [r3]
 271 001c 1B68     		ldr	r3, [r3]
1053:Generated_Source\PSoC4/Bootloader_1.c ****                 Bootloader_1_MD_BTLDR_ADDR_PTR,
 272              		.loc 1 1053 0
 273 001e C03B     		subs	r3, r3, #192
 274 0020 FC1C     		adds	r4, r7, #3
 275 0022 1A00     		movs	r2, r3
 276 0024 C021     		movs	r1, #192
 277 0026 0020     		movs	r0, #0
 278 0028 FFF7FEFF 		bl	Bootloader_1_Calc8BitSum
 279 002c 0300     		movs	r3, r0
 280 002e 2370     		strb	r3, [r4]
1056:Generated_Source\PSoC4/Bootloader_1.c **** 
1057:Generated_Source\PSoC4/Bootloader_1.c ****         /* We included checksum, so remove it */
1058:Generated_Source\PSoC4/Bootloader_1.c ****         calcedChecksum -= *Bootloader_1_ChecksumAccess;
 281              		.loc 1 1058 0
 282 0030 194B     		ldr	r3, .L19+4
 283 0032 1B68     		ldr	r3, [r3]
 284 0034 1A78     		ldrb	r2, [r3]
 285 0036 FB1C     		adds	r3, r7, #3
 286 0038 F91C     		adds	r1, r7, #3
 287 003a 0978     		ldrb	r1, [r1]
 288 003c 8A1A     		subs	r2, r1, r2
 289 003e 1A70     		strb	r2, [r3]
1059:Generated_Source\PSoC4/Bootloader_1.c ****         calcedChecksum = ( uint8 )1u + ( uint8 )(~calcedChecksum);
 290              		.loc 1 1059 0
 291 0040 FB1C     		adds	r3, r7, #3
 292 0042 FA1C     		adds	r2, r7, #3
 293 0044 1278     		ldrb	r2, [r2]
 294 0046 5242     		rsbs	r2, r2, #0
 295 0048 1A70     		strb	r2, [r3]
1060:Generated_Source\PSoC4/Bootloader_1.c **** 
1061:Generated_Source\PSoC4/Bootloader_1.c ****         /* Checksum and pointer to Bootloader verification */
1062:Generated_Source\PSoC4/Bootloader_1.c ****         if((calcedChecksum != *Bootloader_1_ChecksumAccess) ||
 296              		.loc 1 1062 0
 297 004a 134B     		ldr	r3, .L19+4
 298 004c 1B68     		ldr	r3, [r3]
 299 004e 1B78     		ldrb	r3, [r3]
 300 0050 FA1C     		adds	r2, r7, #3
 301 0052 1278     		ldrb	r2, [r2]
 302 0054 9A42     		cmp	r2, r3
 303 0056 04D1     		bne	.L15
ARM GAS  C:\Users\ASUS\AppData\Local\Temp\ccJim9J2.s 			page 25


1063:Generated_Source\PSoC4/Bootloader_1.c ****            (0u == *Bootloader_1_SizeBytesAccess))
 304              		.loc 1 1063 0 discriminator 1
 305 0058 0E4B     		ldr	r3, .L19
 306 005a 1B68     		ldr	r3, [r3]
 307 005c 1B68     		ldr	r3, [r3]
1062:Generated_Source\PSoC4/Bootloader_1.c ****            (0u == *Bootloader_1_SizeBytesAccess))
 308              		.loc 1 1062 0 discriminator 1
 309 005e 002B     		cmp	r3, #0
 310 0060 02D1     		bne	.L16
 311              	.L15:
1064:Generated_Source\PSoC4/Bootloader_1.c ****         {
1065:Generated_Source\PSoC4/Bootloader_1.c ****             /***********************************************************************
1066:Generated_Source\PSoC4/Bootloader_1.c ****             * If the Bootloader/Launcher application calculated checksum does not match
1067:Generated_Source\PSoC4/Bootloader_1.c ****             * the checksum stored in special Bootloader_1_Checksum constant 
1068:Generated_Source\PSoC4/Bootloader_1.c ****             * (accessed through Bootloader_1_ChecksumAccess) constant or its size 
1069:Generated_Source\PSoC4/Bootloader_1.c ****             * stored in Bootloader_1_SizeBytes constant (accessed through
1070:Generated_Source\PSoC4/Bootloader_1.c ****             * Bootloader_1_SizeBytesAccess) then CPU is halted, all software 
1071:Generated_Source\PSoC4/Bootloader_1.c ****             * processing stops. 
1072:Generated_Source\PSoC4/Bootloader_1.c ****             ***********************************************************************/
1073:Generated_Source\PSoC4/Bootloader_1.c ****             CyHalt(0x00u);
 312              		.loc 1 1073 0
 313 0062 0020     		movs	r0, #0
 314 0064 FFF7FEFF 		bl	CyHalt
 315              	.L16:
1074:Generated_Source\PSoC4/Bootloader_1.c ****         }
1075:Generated_Source\PSoC4/Bootloader_1.c **** 
1076:Generated_Source\PSoC4/Bootloader_1.c ****     #endif /* 0u != Bootloader_1_BOOTLOADER_APP_VALIDATION */
1077:Generated_Source\PSoC4/Bootloader_1.c **** #endif /* CYDEV_PROJ_TYPE != CYDEV_PROJ_TYPE_LOADABLEANDBOOTLOADER*/ 
1078:Generated_Source\PSoC4/Bootloader_1.c **** 
1079:Generated_Source\PSoC4/Bootloader_1.c **** #if (CYDEV_PROJ_TYPE != CYDEV_PROJ_TYPE_LAUNCHER)    
1080:Generated_Source\PSoC4/Bootloader_1.c ****     /***********************************************************************
1081:Generated_Source\PSoC4/Bootloader_1.c ****     * If the active Bootloadable application is invalid or scheduled - do the following:
1082:Generated_Source\PSoC4/Bootloader_1.c ****     *  - schedule the Bootloader application to be run after a software reset;
1083:Generated_Source\PSoC4/Bootloader_1.c ****     *  - go to the communication subroutine. The HostLink() will wait for
1084:Generated_Source\PSoC4/Bootloader_1.c ****     *    commands forever.
1085:Generated_Source\PSoC4/Bootloader_1.c ****     ***********************************************************************/
1086:Generated_Source\PSoC4/Bootloader_1.c ****     if ((Bootloader_1_GET_RUN_TYPE == Bootloader_1_SCHEDULE_BTLDR) 
 316              		.loc 1 1086 0
 317 0068 0C4B     		ldr	r3, .L19+8
 318 006a 1B68     		ldr	r3, [r3]
 319 006c 402B     		cmp	r3, #64
 320 006e 02D0     		beq	.L17
1087:Generated_Source\PSoC4/Bootloader_1.c **** #if (CYDEV_PROJ_TYPE != CYDEV_PROJ_TYPE_LOADABLEANDBOOTLOADER)        
1088:Generated_Source\PSoC4/Bootloader_1.c ****         || (CYRET_SUCCESS != validApp)
 321              		.loc 1 1088 0
 322 0070 7B68     		ldr	r3, [r7, #4]
 323 0072 002B     		cmp	r3, #0
 324 0074 05D0     		beq	.L18
 325              	.L17:
1089:Generated_Source\PSoC4/Bootloader_1.c **** #endif        
1090:Generated_Source\PSoC4/Bootloader_1.c ****         )
1091:Generated_Source\PSoC4/Bootloader_1.c ****     {
1092:Generated_Source\PSoC4/Bootloader_1.c ****         Bootloader_1_SET_RUN_TYPE(Bootloader_1_SCHEDULE_BTLDR_INIT_STATE);
 326              		.loc 1 1092 0
 327 0076 094B     		ldr	r3, .L19+8
 328 0078 0022     		movs	r2, #0
 329 007a 1A60     		str	r2, [r3]
ARM GAS  C:\Users\ASUS\AppData\Local\Temp\ccJim9J2.s 			page 26


1093:Generated_Source\PSoC4/Bootloader_1.c **** 
1094:Generated_Source\PSoC4/Bootloader_1.c ****         Bootloader_1_HostLink(Bootloader_1_WAIT_FOR_COMMAND_FOREVER);
 330              		.loc 1 1094 0
 331 007c 0020     		movs	r0, #0
 332 007e FFF7FEFF 		bl	Bootloader_1_HostLink
 333              	.L18:
1095:Generated_Source\PSoC4/Bootloader_1.c ****     }
1096:Generated_Source\PSoC4/Bootloader_1.c **** 
1097:Generated_Source\PSoC4/Bootloader_1.c ****     /* Go to communication subroutine. Will wait for commands for specified time */
1098:Generated_Source\PSoC4/Bootloader_1.c ****     #if(0u != Bootloader_1_WAIT_FOR_COMMAND)
1099:Generated_Source\PSoC4/Bootloader_1.c **** 
1100:Generated_Source\PSoC4/Bootloader_1.c ****         /* Timeout is in 100s of milliseconds */
1101:Generated_Source\PSoC4/Bootloader_1.c ****         Bootloader_1_HostLink(Bootloader_1_WAIT_FOR_COMMAND_TIME);
 334              		.loc 1 1101 0
 335 0082 1420     		movs	r0, #20
 336 0084 FFF7FEFF 		bl	Bootloader_1_HostLink
1102:Generated_Source\PSoC4/Bootloader_1.c **** 
1103:Generated_Source\PSoC4/Bootloader_1.c ****     #endif  /* (0u != Bootloader_1_WAIT_FOR_COMMAND) */
1104:Generated_Source\PSoC4/Bootloader_1.c **** #else /* Launcher */
1105:Generated_Source\PSoC4/Bootloader_1.c ****     /* If none Bootloadable application is valid */
1106:Generated_Source\PSoC4/Bootloader_1.c ****     if (CYRET_SUCCESS != validApp)
1107:Generated_Source\PSoC4/Bootloader_1.c ****     {   
1108:Generated_Source\PSoC4/Bootloader_1.c ****         CyHalt(0x00u);
1109:Generated_Source\PSoC4/Bootloader_1.c ****     }         
1110:Generated_Source\PSoC4/Bootloader_1.c **** #endif /*CYDEV_PROJ_TYPE != CYDEV_PROJ_TYPE_LAUNCHER*/    
1111:Generated_Source\PSoC4/Bootloader_1.c **** 
1112:Generated_Source\PSoC4/Bootloader_1.c **** #if (CYDEV_PROJ_TYPE != CYDEV_PROJ_TYPE_LOADABLEANDBOOTLOADER)             
1113:Generated_Source\PSoC4/Bootloader_1.c ****     /* Schedule Bootloadable application and perform software reset */
1114:Generated_Source\PSoC4/Bootloader_1.c ****     Bootloader_1_LaunchApplication();
 337              		.loc 1 1114 0
 338 0088 FFF7FEFF 		bl	Bootloader_1_LaunchApplication
1115:Generated_Source\PSoC4/Bootloader_1.c **** #endif /*(CYDEV_PROJ_TYPE != CYDEV_PROJ_TYPE_LOADABLEANDBOOTLOADER)*/    
1116:Generated_Source\PSoC4/Bootloader_1.c **** }
 339              		.loc 1 1116 0
 340 008c C046     		nop
 341 008e BD46     		mov	sp, r7
 342 0090 03B0     		add	sp, sp, #12
 343              		@ sp needed
 344 0092 90BD     		pop	{r4, r7, pc}
 345              	.L20:
 346              		.align	2
 347              	.L19:
 348 0094 00000000 		.word	Bootloader_1_SizeBytesAccess
 349 0098 00000000 		.word	Bootloader_1_ChecksumAccess
 350 009c 00000000 		.word	cyBtldrRunType
 351              		.cfi_endproc
 352              	.LFE35:
 353              		.size	Bootloader_1_Start, .-Bootloader_1_Start
 354              		.section	.text.Bootloader_1_LaunchApplication,"ax",%progbits
 355              		.align	2
 356              		.code	16
 357              		.thumb_func
 358              		.type	Bootloader_1_LaunchApplication, %function
 359              	Bootloader_1_LaunchApplication:
 360              	.LFB36:
1117:Generated_Source\PSoC4/Bootloader_1.c **** 
1118:Generated_Source\PSoC4/Bootloader_1.c **** #if (CYDEV_PROJ_TYPE != CYDEV_PROJ_TYPE_LOADABLEANDBOOTLOADER)
ARM GAS  C:\Users\ASUS\AppData\Local\Temp\ccJim9J2.s 			page 27


1119:Generated_Source\PSoC4/Bootloader_1.c **** /*******************************************************************************
1120:Generated_Source\PSoC4/Bootloader_1.c **** * Function Name: Bootloader_1_LaunchApplication
1121:Generated_Source\PSoC4/Bootloader_1.c **** ****************************************************************************//**
1122:Generated_Source\PSoC4/Bootloader_1.c **** * \internal
1123:Generated_Source\PSoC4/Bootloader_1.c **** *
1124:Generated_Source\PSoC4/Bootloader_1.c **** * \brief
1125:Generated_Source\PSoC4/Bootloader_1.c **** *  Schedules the Bootloadable application and resets the device.
1126:Generated_Source\PSoC4/Bootloader_1.c **** *
1127:Generated_Source\PSoC4/Bootloader_1.c **** * \return
1128:Generated_Source\PSoC4/Bootloader_1.c **** *  This method will never return.
1129:Generated_Source\PSoC4/Bootloader_1.c **** *
1130:Generated_Source\PSoC4/Bootloader_1.c **** * \endinternal
1131:Generated_Source\PSoC4/Bootloader_1.c **** *******************************************************************************/
1132:Generated_Source\PSoC4/Bootloader_1.c **** static void Bootloader_1_LaunchApplication(void) CYSMALL \
1133:Generated_Source\PSoC4/Bootloader_1.c ****                     
1134:Generated_Source\PSoC4/Bootloader_1.c **** {
 361              		.loc 1 1134 0
 362              		.cfi_startproc
 363              		@ args = 0, pretend = 0, frame = 0
 364              		@ frame_needed = 1, uses_anonymous_args = 0
 365 0000 80B5     		push	{r7, lr}
 366              		.cfi_def_cfa_offset 8
 367              		.cfi_offset 7, -8
 368              		.cfi_offset 14, -4
 369 0002 00AF     		add	r7, sp, #0
 370              		.cfi_def_cfa_register 7
1135:Generated_Source\PSoC4/Bootloader_1.c ****     /* Schedule Bootloadable to start after a reset */
1136:Generated_Source\PSoC4/Bootloader_1.c ****     Bootloader_1_SET_RUN_TYPE(Bootloader_1_SCHEDULE_BTLDB);
 371              		.loc 1 1136 0
 372 0004 034B     		ldr	r3, .L22
 373 0006 8022     		movs	r2, #128
 374 0008 1A60     		str	r2, [r3]
1137:Generated_Source\PSoC4/Bootloader_1.c **** 
1138:Generated_Source\PSoC4/Bootloader_1.c ****     CySoftwareReset();
 375              		.loc 1 1138 0
 376 000a FFF7FEFF 		bl	CySoftwareReset
1139:Generated_Source\PSoC4/Bootloader_1.c **** }
 377              		.loc 1 1139 0
 378 000e C046     		nop
 379 0010 BD46     		mov	sp, r7
 380              		@ sp needed
 381 0012 80BD     		pop	{r7, pc}
 382              	.L23:
 383              		.align	2
 384              	.L22:
 385 0014 00000000 		.word	cyBtldrRunType
 386              		.cfi_endproc
 387              	.LFE36:
 388              		.size	Bootloader_1_LaunchApplication, .-Bootloader_1_LaunchApplication
 389              		.section	.text.Bootloader_1_Exit,"ax",%progbits
 390              		.align	2
 391              		.global	Bootloader_1_Exit
 392              		.code	16
 393              		.thumb_func
 394              		.type	Bootloader_1_Exit, %function
 395              	Bootloader_1_Exit:
 396              	.LFB37:
ARM GAS  C:\Users\ASUS\AppData\Local\Temp\ccJim9J2.s 			page 28


1140:Generated_Source\PSoC4/Bootloader_1.c **** #endif /*(CYDEV_PROJ_TYPE != CYDEV_PROJ_TYPE_LOADABLEANDBOOTLOADER)*/
1141:Generated_Source\PSoC4/Bootloader_1.c **** 
1142:Generated_Source\PSoC4/Bootloader_1.c **** /*******************************************************************************
1143:Generated_Source\PSoC4/Bootloader_1.c **** * Function Name: Bootloader_1_Exit
1144:Generated_Source\PSoC4/Bootloader_1.c **** ****************************************************************************//**
1145:Generated_Source\PSoC4/Bootloader_1.c **** *
1146:Generated_Source\PSoC4/Bootloader_1.c **** *\brief
1147:Generated_Source\PSoC4/Bootloader_1.c **** *  Schedules the specified application and performs a software reset to launch
1148:Generated_Source\PSoC4/Bootloader_1.c **** *  a specified application.
1149:Generated_Source\PSoC4/Bootloader_1.c **** *
1150:Generated_Source\PSoC4/Bootloader_1.c **** *  If the specified application is not valid, the Bootloader (the result of the
1151:Generated_Source\PSoC4/Bootloader_1.c **** *  ValidateBootloadable() function execution returns other than CYRET_SUCCESS,
1152:Generated_Source\PSoC4/Bootloader_1.c **** *  the Bootloader application is launched.
1153:Generated_Source\PSoC4/Bootloader_1.c **** *
1154:Generated_Source\PSoC4/Bootloader_1.c **** * \param appId 
1155:Generated_Source\PSoC4/Bootloader_1.c **** *   The application to be started:
1156:Generated_Source\PSoC4/Bootloader_1.c **** *   - Bootloader_1_EXIT_TO_BTLDR - The Bootloader application will be started on
1157:Generated_Source\PSoC4/Bootloader_1.c **** *                                     a software reset.
1158:Generated_Source\PSoC4/Bootloader_1.c **** *   - Bootloader_1_EXIT_TO_BTLDB;
1159:Generated_Source\PSoC4/Bootloader_1.c **** *   - Bootloader_1_EXIT_TO_BTLDB_1 - Bootloadable application # 1 will be
1160:Generated_Source\PSoC4/Bootloader_1.c **** *                                     started on a software reset.
1161:Generated_Source\PSoC4/Bootloader_1.c **** *   - Bootloader_1_EXIT_TO_BTLDB_2 - Bootloadable application # 2 will be
1162:Generated_Source\PSoC4/Bootloader_1.c **** *                                     started on a software reset. Available only
1163:Generated_Source\PSoC4/Bootloader_1.c **** *                                     if the "Dual-application" option is enabled in
1164:Generated_Source\PSoC4/Bootloader_1.c **** *                                     the component customizer.
1165:Generated_Source\PSoC4/Bootloader_1.c **** * \return
1166:Generated_Source\PSoC4/Bootloader_1.c **** *  This function never returns.
1167:Generated_Source\PSoC4/Bootloader_1.c **** *
1168:Generated_Source\PSoC4/Bootloader_1.c **** *******************************************************************************/
1169:Generated_Source\PSoC4/Bootloader_1.c **** void Bootloader_1_Exit(uint8 appId) CYSMALL 
1170:Generated_Source\PSoC4/Bootloader_1.c **** {
 397              		.loc 1 1170 0
 398              		.cfi_startproc
 399              		@ args = 0, pretend = 0, frame = 16
 400              		@ frame_needed = 1, uses_anonymous_args = 0
 401 0000 80B5     		push	{r7, lr}
 402              		.cfi_def_cfa_offset 8
 403              		.cfi_offset 7, -8
 404              		.cfi_offset 14, -4
 405 0002 84B0     		sub	sp, sp, #16
 406              		.cfi_def_cfa_offset 24
 407 0004 00AF     		add	r7, sp, #0
 408              		.cfi_def_cfa_register 7
 409 0006 0200     		movs	r2, r0
 410 0008 FB1D     		adds	r3, r7, #7
 411 000a 1A70     		strb	r2, [r3]
1171:Generated_Source\PSoC4/Bootloader_1.c ****     if(Bootloader_1_EXIT_TO_BTLDR == appId)
 412              		.loc 1 1171 0
 413 000c FB1D     		adds	r3, r7, #7
 414 000e 1B78     		ldrb	r3, [r3]
 415 0010 022B     		cmp	r3, #2
 416 0012 03D1     		bne	.L25
1172:Generated_Source\PSoC4/Bootloader_1.c ****     {
1173:Generated_Source\PSoC4/Bootloader_1.c ****         Bootloader_1_SET_RUN_TYPE(Bootloader_1_SCHEDULE_BTLDR_INIT_STATE);
 417              		.loc 1 1173 0
 418 0014 1E4B     		ldr	r3, .L30
 419 0016 0022     		movs	r2, #0
ARM GAS  C:\Users\ASUS\AppData\Local\Temp\ccJim9J2.s 			page 29


 420 0018 1A60     		str	r2, [r3]
 421 001a 33E0     		b	.L26
 422              	.L25:
1174:Generated_Source\PSoC4/Bootloader_1.c ****     }
1175:Generated_Source\PSoC4/Bootloader_1.c ****     else
1176:Generated_Source\PSoC4/Bootloader_1.c ****     {
1177:Generated_Source\PSoC4/Bootloader_1.c ****         if(CYRET_SUCCESS == Bootloader_1_ValidateBootloadable(appId))
 423              		.loc 1 1177 0
 424 001c FB1D     		adds	r3, r7, #7
 425 001e 1B78     		ldrb	r3, [r3]
 426 0020 1800     		movs	r0, r3
 427 0022 FFF7FEFF 		bl	Bootloader_1_ValidateBootloadable
 428 0026 031E     		subs	r3, r0, #0
 429 0028 29D1     		bne	.L27
 430              	.LBB2:
1178:Generated_Source\PSoC4/Bootloader_1.c ****         {
1179:Generated_Source\PSoC4/Bootloader_1.c ****             /* Set active application in metadata */
1180:Generated_Source\PSoC4/Bootloader_1.c ****             uint8 CYDATA idx;
1181:Generated_Source\PSoC4/Bootloader_1.c ****             for(idx = 0u; idx < Bootloader_1_MAX_NUM_OF_BTLDB; idx++)
 431              		.loc 1 1181 0
 432 002a 0F23     		movs	r3, #15
 433 002c FB18     		adds	r3, r7, r3
 434 002e 0022     		movs	r2, #0
 435 0030 1A70     		strb	r2, [r3]
 436 0032 1BE0     		b	.L28
 437              	.L29:
1182:Generated_Source\PSoC4/Bootloader_1.c ****             {
1183:Generated_Source\PSoC4/Bootloader_1.c ****                 Bootloader_1_SetFlashByte((uint32) Bootloader_1_MD_BTLDB_ACTIVE_OFFSET(idx),
 438              		.loc 1 1183 0 discriminator 3
 439 0034 0F23     		movs	r3, #15
 440 0036 FB18     		adds	r3, r7, r3
 441 0038 1A78     		ldrb	r2, [r3]
 442 003a 1300     		movs	r3, r2
 443 003c 5B06     		lsls	r3, r3, #25
 444 003e 9B1A     		subs	r3, r3, r2
 445 0040 DB01     		lsls	r3, r3, #7
 446 0042 144A     		ldr	r2, .L30+4
 447 0044 9818     		adds	r0, r3, r2
 448 0046 0F23     		movs	r3, #15
 449 0048 FA18     		adds	r2, r7, r3
 450 004a FB1D     		adds	r3, r7, #7
 451 004c 1278     		ldrb	r2, [r2]
 452 004e 1B78     		ldrb	r3, [r3]
 453 0050 D31A     		subs	r3, r2, r3
 454 0052 5A42     		rsbs	r2, r3, #0
 455 0054 5341     		adcs	r3, r3, r2
 456 0056 DBB2     		uxtb	r3, r3
 457 0058 1900     		movs	r1, r3
 458 005a FFF7FEFF 		bl	Bootloader_1_SetFlashByte
1181:Generated_Source\PSoC4/Bootloader_1.c ****             {
 459              		.loc 1 1181 0 discriminator 3
 460 005e 0F23     		movs	r3, #15
 461 0060 FB18     		adds	r3, r7, r3
 462 0062 1A78     		ldrb	r2, [r3]
 463 0064 0F23     		movs	r3, #15
 464 0066 FB18     		adds	r3, r7, r3
 465 0068 0132     		adds	r2, r2, #1
ARM GAS  C:\Users\ASUS\AppData\Local\Temp\ccJim9J2.s 			page 30


 466 006a 1A70     		strb	r2, [r3]
 467              	.L28:
1181:Generated_Source\PSoC4/Bootloader_1.c ****             {
 468              		.loc 1 1181 0 is_stmt 0 discriminator 1
 469 006c 0F23     		movs	r3, #15
 470 006e FB18     		adds	r3, r7, r3
 471 0070 1B78     		ldrb	r3, [r3]
 472 0072 002B     		cmp	r3, #0
 473 0074 DED0     		beq	.L29
1184:Generated_Source\PSoC4/Bootloader_1.c ****                                               (uint8 )(idx == appId));
1185:Generated_Source\PSoC4/Bootloader_1.c ****             }
1186:Generated_Source\PSoC4/Bootloader_1.c **** 
1187:Generated_Source\PSoC4/Bootloader_1.c ****         #if((0u != Bootloader_1_DUAL_APP_BOOTLOADER) || \
1188:Generated_Source\PSoC4/Bootloader_1.c ****             (CYDEV_PROJ_TYPE == CYDEV_PROJ_TYPE_LOADABLEANDBOOTLOADER))
1189:Generated_Source\PSoC4/Bootloader_1.c ****             Bootloader_1_activeApp = appId;
1190:Generated_Source\PSoC4/Bootloader_1.c ****         #endif /* (0u != Bootloader_1_DUAL_APP_BOOTLOADER) || 
1191:Generated_Source\PSoC4/Bootloader_1.c ****                   (CYDEV_PROJ_TYPE == CYDEV_PROJ_TYPE_LOADABLEANDBOOTLOADER))*/
1192:Generated_Source\PSoC4/Bootloader_1.c **** 
1193:Generated_Source\PSoC4/Bootloader_1.c ****             Bootloader_1_SET_RUN_TYPE(Bootloader_1_SCHEDULE_BTLDB);
 474              		.loc 1 1193 0 is_stmt 1
 475 0076 064B     		ldr	r3, .L30
 476 0078 8022     		movs	r2, #128
 477 007a 1A60     		str	r2, [r3]
 478              	.LBE2:
 479 007c 02E0     		b	.L26
 480              	.L27:
1194:Generated_Source\PSoC4/Bootloader_1.c ****         }
1195:Generated_Source\PSoC4/Bootloader_1.c ****         else
1196:Generated_Source\PSoC4/Bootloader_1.c ****         {
1197:Generated_Source\PSoC4/Bootloader_1.c ****             Bootloader_1_SET_RUN_TYPE(Bootloader_1_SCHEDULE_BTLDR_INIT_STATE);
 481              		.loc 1 1197 0
 482 007e 044B     		ldr	r3, .L30
 483 0080 0022     		movs	r2, #0
 484 0082 1A60     		str	r2, [r3]
 485              	.L26:
1198:Generated_Source\PSoC4/Bootloader_1.c ****         }
1199:Generated_Source\PSoC4/Bootloader_1.c ****     }
1200:Generated_Source\PSoC4/Bootloader_1.c **** 
1201:Generated_Source\PSoC4/Bootloader_1.c ****     CySoftwareReset();
 486              		.loc 1 1201 0
 487 0084 FFF7FEFF 		bl	CySoftwareReset
1202:Generated_Source\PSoC4/Bootloader_1.c **** }
 488              		.loc 1 1202 0
 489 0088 C046     		nop
 490 008a BD46     		mov	sp, r7
 491 008c 04B0     		add	sp, sp, #16
 492              		@ sp needed
 493 008e 80BD     		pop	{r7, pc}
 494              	.L31:
 495              		.align	2
 496              	.L30:
 497 0090 00000000 		.word	cyBtldrRunType
 498 0094 D07F0000 		.word	32720
 499              		.cfi_endproc
 500              	.LFE37:
 501              		.size	Bootloader_1_Exit, .-Bootloader_1_Exit
 502              		.section	.text.CyBtldr_CheckLaunch,"ax",%progbits
ARM GAS  C:\Users\ASUS\AppData\Local\Temp\ccJim9J2.s 			page 31


 503              		.align	2
 504              		.global	CyBtldr_CheckLaunch
 505              		.code	16
 506              		.thumb_func
 507              		.type	CyBtldr_CheckLaunch, %function
 508              	CyBtldr_CheckLaunch:
 509              	.LFB38:
1203:Generated_Source\PSoC4/Bootloader_1.c **** 
1204:Generated_Source\PSoC4/Bootloader_1.c **** #if (CYDEV_PROJ_TYPE != CYDEV_PROJ_TYPE_LOADABLEANDBOOTLOADER)
1205:Generated_Source\PSoC4/Bootloader_1.c **** /*******************************************************************************
1206:Generated_Source\PSoC4/Bootloader_1.c **** * Function Name: CyBtldr_CheckLaunch
1207:Generated_Source\PSoC4/Bootloader_1.c **** ****************************************************************************//**
1208:Generated_Source\PSoC4/Bootloader_1.c **** * \internal
1209:Generated_Source\PSoC4/Bootloader_1.c **** *
1210:Generated_Source\PSoC4/Bootloader_1.c **** * \brief
1211:Generated_Source\PSoC4/Bootloader_1.c **** *  This routine checks if the Bootloader or Bootloadable application has to
1212:Generated_Source\PSoC4/Bootloader_1.c **** *  be run.  If the application has to be run, it will start executing.
1213:Generated_Source\PSoC4/Bootloader_1.c **** *  If the Bootloader has to be run, it will return, so the Bootloader can
1214:Generated_Source\PSoC4/Bootloader_1.c **** *  continue starting up.
1215:Generated_Source\PSoC4/Bootloader_1.c **** *
1216:Generated_Source\PSoC4/Bootloader_1.c **** * \return
1217:Generated_Source\PSoC4/Bootloader_1.c **** *  It will not return if it determines that the Bootloadable application should
1218:Generated_Source\PSoC4/Bootloader_1.c **** *  be run.
1219:Generated_Source\PSoC4/Bootloader_1.c **** *
1220:Generated_Source\PSoC4/Bootloader_1.c **** * \endinternal
1221:Generated_Source\PSoC4/Bootloader_1.c **** *******************************************************************************/
1222:Generated_Source\PSoC4/Bootloader_1.c **** void CyBtldr_CheckLaunch(void) CYSMALL 
1223:Generated_Source\PSoC4/Bootloader_1.c **** {
 510              		.loc 1 1223 0
 511              		.cfi_startproc
 512              		@ args = 0, pretend = 0, frame = 8
 513              		@ frame_needed = 1, uses_anonymous_args = 0
 514 0000 80B5     		push	{r7, lr}
 515              		.cfi_def_cfa_offset 8
 516              		.cfi_offset 7, -8
 517              		.cfi_offset 14, -4
 518 0002 82B0     		sub	sp, sp, #8
 519              		.cfi_def_cfa_offset 16
 520 0004 00AF     		add	r7, sp, #0
 521              		.cfi_def_cfa_register 7
1224:Generated_Source\PSoC4/Bootloader_1.c **** 
1225:Generated_Source\PSoC4/Bootloader_1.c **** #if(CY_PSOC4)
1226:Generated_Source\PSoC4/Bootloader_1.c **** 
1227:Generated_Source\PSoC4/Bootloader_1.c ****     /*******************************************************************************
1228:Generated_Source\PSoC4/Bootloader_1.c ****     * Set cyBtldrRunType to zero in the case of a non-software reset. This means
1229:Generated_Source\PSoC4/Bootloader_1.c ****     * that the Bootloader application is scheduled - the initial clean state. The
1230:Generated_Source\PSoC4/Bootloader_1.c ****     * value of cyBtldrRunType is valid only in the case of a software reset.
1231:Generated_Source\PSoC4/Bootloader_1.c ****     *******************************************************************************/
1232:Generated_Source\PSoC4/Bootloader_1.c ****     if (0u == (Bootloader_1_RES_CAUSE_REG & Bootloader_1_RES_CAUSE_RESET_SOFT))
 522              		.loc 1 1232 0
 523 0006 144B     		ldr	r3, .L36
 524 0008 1B68     		ldr	r3, [r3]
 525 000a 1022     		movs	r2, #16
 526 000c 1340     		ands	r3, r2
 527 000e 02D1     		bne	.L33
1233:Generated_Source\PSoC4/Bootloader_1.c ****     {
1234:Generated_Source\PSoC4/Bootloader_1.c ****         cyBtldrRunType = Bootloader_1_SCHEDULE_BTLDR_INIT_STATE;
ARM GAS  C:\Users\ASUS\AppData\Local\Temp\ccJim9J2.s 			page 32


 528              		.loc 1 1234 0
 529 0010 124B     		ldr	r3, .L36+4
 530 0012 0022     		movs	r2, #0
 531 0014 1A60     		str	r2, [r3]
 532              	.L33:
1235:Generated_Source\PSoC4/Bootloader_1.c ****     }
1236:Generated_Source\PSoC4/Bootloader_1.c **** 
1237:Generated_Source\PSoC4/Bootloader_1.c **** #endif /* (CY_PSOC4) */
1238:Generated_Source\PSoC4/Bootloader_1.c **** 
1239:Generated_Source\PSoC4/Bootloader_1.c **** 
1240:Generated_Source\PSoC4/Bootloader_1.c ****     if (Bootloader_1_GET_RUN_TYPE == Bootloader_1_SCHEDULE_BTLDB)
 533              		.loc 1 1240 0
 534 0016 114B     		ldr	r3, .L36+4
 535 0018 1B68     		ldr	r3, [r3]
 536 001a 802B     		cmp	r3, #128
 537 001c 17D1     		bne	.L35
 538              	.LBB3:
1241:Generated_Source\PSoC4/Bootloader_1.c ****     {
1242:Generated_Source\PSoC4/Bootloader_1.c **** 
1243:Generated_Source\PSoC4/Bootloader_1.c **** 
1244:Generated_Source\PSoC4/Bootloader_1.c ****     #if (CYDEV_PROJ_TYPE != CYDEV_PROJ_TYPE_LAUNCHER)
1245:Generated_Source\PSoC4/Bootloader_1.c ****         /******************************************************************************* 
1246:Generated_Source\PSoC4/Bootloader_1.c ****         * Classic Single-app or Dual-app Bootloader use cases.
1247:Generated_Source\PSoC4/Bootloader_1.c ****         * The active application number is taken from Bootloader_1_activeApp not
1248:Generated_Source\PSoC4/Bootloader_1.c ****         * to break backward compatibility.
1249:Generated_Source\PSoC4/Bootloader_1.c ****         *******************************************************************************/
1250:Generated_Source\PSoC4/Bootloader_1.c ****         uint8 activeApp = Bootloader_1_activeApp;
 539              		.loc 1 1250 0
 540 001e FB1D     		adds	r3, r7, #7
 541 0020 0022     		movs	r2, #0
 542 0022 1A70     		strb	r2, [r3]
1251:Generated_Source\PSoC4/Bootloader_1.c ****         
1252:Generated_Source\PSoC4/Bootloader_1.c ****         
1253:Generated_Source\PSoC4/Bootloader_1.c ****         /******************************************************************************* 
1254:Generated_Source\PSoC4/Bootloader_1.c ****         * Classic Dual-app Bootloader with 2 Combination projects use case.
1255:Generated_Source\PSoC4/Bootloader_1.c ****         * In this use case Classic Dual-app Bootloader is not the only one, who switches
1256:Generated_Source\PSoC4/Bootloader_1.c ****         * between applications. So if there is no valid value for Bootloader_1_activeApp,
1257:Generated_Source\PSoC4/Bootloader_1.c ****         * then we should additionally check the metadata if one of the Combination application
1258:Generated_Source\PSoC4/Bootloader_1.c ****         * has set a value there.
1259:Generated_Source\PSoC4/Bootloader_1.c ****         *******************************************************************************/ 
1260:Generated_Source\PSoC4/Bootloader_1.c ****         #if (CYDEV_PROJ_TYPE == CYDEV_PROJ_TYPE_MULTIAPPBOOTLOADER)
1261:Generated_Source\PSoC4/Bootloader_1.c ****         if (activeApp >= Bootloader_1_MD_BTLDB_ACTIVE_NONE) 
1262:Generated_Source\PSoC4/Bootloader_1.c ****         {
1263:Generated_Source\PSoC4/Bootloader_1.c ****             activeApp = Bootloader_1_GetActiveAppFromMetadata();
1264:Generated_Source\PSoC4/Bootloader_1.c ****         }
1265:Generated_Source\PSoC4/Bootloader_1.c ****         #endif /*(CYDEV_PROJ_TYPE == CYDEV_PROJ_TYPE_MULTIAPPBOOTLOADER)*/ 
1266:Generated_Source\PSoC4/Bootloader_1.c ****     #else 
1267:Generated_Source\PSoC4/Bootloader_1.c ****         /* Launcher use case.  The active application number is taken from metadata. */
1268:Generated_Source\PSoC4/Bootloader_1.c ****         uint8 activeApp = Bootloader_1_GetActiveAppFromMetadata(); 
1269:Generated_Source\PSoC4/Bootloader_1.c ****     #endif /* (CYDEV_PROJ_TYPE != CYDEV_PROJ_TYPE_LAUNCHER) */
1270:Generated_Source\PSoC4/Bootloader_1.c ****         
1271:Generated_Source\PSoC4/Bootloader_1.c ****         Bootloader_1_SET_RUN_TYPE(Bootloader_1_SCHEDULE_BTLDR_INIT_STATE);
 543              		.loc 1 1271 0
 544 0024 0D4B     		ldr	r3, .L36+4
 545 0026 0022     		movs	r2, #0
 546 0028 1A60     		str	r2, [r3]
1272:Generated_Source\PSoC4/Bootloader_1.c **** 
ARM GAS  C:\Users\ASUS\AppData\Local\Temp\ccJim9J2.s 			page 33


1273:Generated_Source\PSoC4/Bootloader_1.c ****         /*******************************************************************************
1274:Generated_Source\PSoC4/Bootloader_1.c ****         * Indicates that we have told ourselves to jump to the application because we have
1275:Generated_Source\PSoC4/Bootloader_1.c ****         * already told ourselves to jump, we do not do any expensive verification of the
1276:Generated_Source\PSoC4/Bootloader_1.c ****         * application. We just check to make sure that the value at CY_APP_ADDR_ADDRESS
1277:Generated_Source\PSoC4/Bootloader_1.c ****         * is something other than 0 and active application is valid.
1278:Generated_Source\PSoC4/Bootloader_1.c ****         *******************************************************************************/
1279:Generated_Source\PSoC4/Bootloader_1.c ****         if ((0u != Bootloader_1_GetMetadata(Bootloader_1_GET_BTLDB_ADDR, activeApp)) 
 547              		.loc 1 1279 0
 548 002a FB1D     		adds	r3, r7, #7
 549 002c 1B78     		ldrb	r3, [r3]
 550 002e 1900     		movs	r1, r3
 551 0030 0220     		movs	r0, #2
 552 0032 FFF7FEFF 		bl	Bootloader_1_GetMetadata
 553 0036 031E     		subs	r3, r0, #0
 554 0038 09D0     		beq	.L35
1280:Generated_Source\PSoC4/Bootloader_1.c ****     #if (CYDEV_PROJ_TYPE != CYDEV_PROJ_TYPE_BOOTLOADER)
1281:Generated_Source\PSoC4/Bootloader_1.c ****             && (activeApp < Bootloader_1_MD_BTLDB_ACTIVE_NONE)
1282:Generated_Source\PSoC4/Bootloader_1.c ****     #endif /* (CYDEV_PROJ_TYPE != CYDEV_PROJ_TYPE_BOOTLOADER) */        
1283:Generated_Source\PSoC4/Bootloader_1.c ****             )
1284:Generated_Source\PSoC4/Bootloader_1.c ****         {
1285:Generated_Source\PSoC4/Bootloader_1.c ****             /* Never returns from this method */
1286:Generated_Source\PSoC4/Bootloader_1.c ****             Bootloader_1_LaunchBootloadable(Bootloader_1_GetMetadata(Bootloader_1_GET_BTLDB_ADDR,
 555              		.loc 1 1286 0
 556 003a FB1D     		adds	r3, r7, #7
 557 003c 1B78     		ldrb	r3, [r3]
 558 003e 1900     		movs	r1, r3
 559 0040 0220     		movs	r0, #2
 560 0042 FFF7FEFF 		bl	Bootloader_1_GetMetadata
 561 0046 0300     		movs	r3, r0
 562 0048 1800     		movs	r0, r3
 563 004a FFF7FEFF 		bl	Bootloader_1_LaunchBootloadable
 564              	.L35:
 565              	.LBE3:
1287:Generated_Source\PSoC4/Bootloader_1.c ****                                                                              activeApp));
1288:Generated_Source\PSoC4/Bootloader_1.c ****         }
1289:Generated_Source\PSoC4/Bootloader_1.c ****     }
1290:Generated_Source\PSoC4/Bootloader_1.c **** }
 566              		.loc 1 1290 0
 567 004e C046     		nop
 568 0050 BD46     		mov	sp, r7
 569 0052 02B0     		add	sp, sp, #8
 570              		@ sp needed
 571 0054 80BD     		pop	{r7, pc}
 572              	.L37:
 573 0056 C046     		.align	2
 574              	.L36:
 575 0058 00030B40 		.word	1074463488
 576 005c 00000000 		.word	cyBtldrRunType
 577              		.cfi_endproc
 578              	.LFE38:
 579              		.size	CyBtldr_CheckLaunch, .-CyBtldr_CheckLaunch
 580              		.section	.text.Bootloader_1_LaunchBootloadable,"ax",%progbits
 581              		.align	2
 582              		.code	16
 583              		.thumb_func
 584              		.type	Bootloader_1_LaunchBootloadable, %function
 585              	Bootloader_1_LaunchBootloadable:
ARM GAS  C:\Users\ASUS\AppData\Local\Temp\ccJim9J2.s 			page 34


 586              	.LFB39:
1291:Generated_Source\PSoC4/Bootloader_1.c **** 
1292:Generated_Source\PSoC4/Bootloader_1.c **** 
1293:Generated_Source\PSoC4/Bootloader_1.c **** /* Moves argument appAddr (RO) into PC, moving execution to appAddr */
1294:Generated_Source\PSoC4/Bootloader_1.c **** #if defined (__ARMCC_VERSION)
1295:Generated_Source\PSoC4/Bootloader_1.c **** 
1296:Generated_Source\PSoC4/Bootloader_1.c ****     __asm static void Bootloader_1_LaunchBootloadable(uint32 appAddr)
1297:Generated_Source\PSoC4/Bootloader_1.c ****     {
1298:Generated_Source\PSoC4/Bootloader_1.c ****         BX  R0
1299:Generated_Source\PSoC4/Bootloader_1.c ****         ALIGN
1300:Generated_Source\PSoC4/Bootloader_1.c ****     }
1301:Generated_Source\PSoC4/Bootloader_1.c **** 
1302:Generated_Source\PSoC4/Bootloader_1.c **** #elif defined(__GNUC__)
1303:Generated_Source\PSoC4/Bootloader_1.c **** 
1304:Generated_Source\PSoC4/Bootloader_1.c ****     __attribute__((noinline)) /* Workaround for GCC toolchain bug with inlining */
1305:Generated_Source\PSoC4/Bootloader_1.c ****     __attribute__((naked))
1306:Generated_Source\PSoC4/Bootloader_1.c ****     static void Bootloader_1_LaunchBootloadable(uint32 appAddr)
1307:Generated_Source\PSoC4/Bootloader_1.c ****     {
 587              		.loc 1 1307 0
 588              		.cfi_startproc
 589              		@ Naked Function: prologue and epilogue provided by programmer.
 590              		@ args = 0, pretend = 0, frame = 0
 591              		@ frame_needed = 1, uses_anonymous_args = 0
1308:Generated_Source\PSoC4/Bootloader_1.c ****         __asm volatile("    BX  R0\n");
 592              		.loc 1 1308 0
 593              		.syntax divided
 594              	@ 1308 "Generated_Source\PSoC4\Bootloader_1.c" 1
 595 0000 0047     		    BX  R0
 596              	
 597              	@ 0 "" 2
1309:Generated_Source\PSoC4/Bootloader_1.c ****     }
 598              		.loc 1 1309 0
 599              		.thumb
 600              		.syntax unified
 601 0002 C046     		nop
 602              		.cfi_endproc
 603              	.LFE39:
 604              		.size	Bootloader_1_LaunchBootloadable, .-Bootloader_1_LaunchBootloadable
 605              		.section	.text.Bootloader_1_ValidateBootloadable,"ax",%progbits
 606              		.align	2
 607              		.global	Bootloader_1_ValidateBootloadable
 608              		.code	16
 609              		.thumb_func
 610              		.type	Bootloader_1_ValidateBootloadable, %function
 611              	Bootloader_1_ValidateBootloadable:
 612              	.LFB40:
1310:Generated_Source\PSoC4/Bootloader_1.c **** 
1311:Generated_Source\PSoC4/Bootloader_1.c **** #elif defined (__ICCARM__)
1312:Generated_Source\PSoC4/Bootloader_1.c **** 
1313:Generated_Source\PSoC4/Bootloader_1.c ****     static void Bootloader_1_LaunchBootloadable(uint32 appAddr)
1314:Generated_Source\PSoC4/Bootloader_1.c ****     {
1315:Generated_Source\PSoC4/Bootloader_1.c ****         __asm volatile("    BX  R0\n");
1316:Generated_Source\PSoC4/Bootloader_1.c ****     }
1317:Generated_Source\PSoC4/Bootloader_1.c **** 
1318:Generated_Source\PSoC4/Bootloader_1.c **** #endif  /* (__ARMCC_VERSION) */
1319:Generated_Source\PSoC4/Bootloader_1.c **** #endif /* (CYDEV_PROJ_TYPE != CYDEV_PROJ_TYPE_LOADABLEANDBOOTLOADER)*/
1320:Generated_Source\PSoC4/Bootloader_1.c **** 
ARM GAS  C:\Users\ASUS\AppData\Local\Temp\ccJim9J2.s 			page 35


1321:Generated_Source\PSoC4/Bootloader_1.c **** /*******************************************************************************
1322:Generated_Source\PSoC4/Bootloader_1.c **** * Function Name: Bootloader_1_ValidateBootloadable
1323:Generated_Source\PSoC4/Bootloader_1.c **** ****************************************************************************//**
1324:Generated_Source\PSoC4/Bootloader_1.c **** * \brief
1325:Generated_Source\PSoC4/Bootloader_1.c **** *  Performs the Bootloadable application validation by calculating the
1326:Generated_Source\PSoC4/Bootloader_1.c **** *  application image checksum and comparing it with the checksum value stored
1327:Generated_Source\PSoC4/Bootloader_1.c **** *  in the Bootloadable Application Checksum field of the metadata section.
1328:Generated_Source\PSoC4/Bootloader_1.c **** *
1329:Generated_Source\PSoC4/Bootloader_1.c **** *  If the "Fast bootloadable application validation" option is enabled in the
1330:Generated_Source\PSoC4/Bootloader_1.c **** *  component customizer and Bootloadable application successfully passes
1331:Generated_Source\PSoC4/Bootloader_1.c **** *  validation, the Bootloadable Application Verification Status field of the
1332:Generated_Source\PSoC4/Bootloader_1.c **** *  metadata section is updated. Refer to the "Metadata Layout" section for the
1333:Generated_Source\PSoC4/Bootloader_1.c **** *  details.
1334:Generated_Source\PSoC4/Bootloader_1.c **** *
1335:Generated_Source\PSoC4/Bootloader_1.c **** *  If the "Fast bootloadable application validation" option is enabled and
1336:Generated_Source\PSoC4/Bootloader_1.c **** *  the Bootloadable Application Verification Status field of the metadata section
1337:Generated_Source\PSoC4/Bootloader_1.c **** *  claims that the Bootloadable application is valid, the function returns
1338:Generated_Source\PSoC4/Bootloader_1.c **** *  CYRET_SUCCESS without further checksum calculation.
1339:Generated_Source\PSoC4/Bootloader_1.c **** *
1340:Generated_Source\PSoC4/Bootloader_1.c **** *  \param appId
1341:Generated_Source\PSoC4/Bootloader_1.c **** *  The number of the Bootloadable application should be 0 for the normal
1342:Generated_Source\PSoC4/Bootloader_1.c **** *  bootloader and 0 or 1 for the dual-application bootloader.
1343:Generated_Source\PSoC4/Bootloader_1.c **** *
1344:Generated_Source\PSoC4/Bootloader_1.c **** * \return
1345:Generated_Source\PSoC4/Bootloader_1.c **** *  CYRET_SUCCESS - If the specified the Bootloadable application is valid.
1346:Generated_Source\PSoC4/Bootloader_1.c **** *  CYRET_BAD_DATA is returned if the input parameter is out of the specified range
1347:Generated_Source\PSoC4/Bootloader_1.c **** *      or the calculated checksum does not match the stored checksum.
1348:Generated_Source\PSoC4/Bootloader_1.c **** *******************************************************************************/
1349:Generated_Source\PSoC4/Bootloader_1.c **** cystatus Bootloader_1_ValidateBootloadable(uint8 appId) CYSMALL \
1350:Generated_Source\PSoC4/Bootloader_1.c **** 
1351:Generated_Source\PSoC4/Bootloader_1.c ****     {
 613              		.loc 1 1351 0
 614              		.cfi_startproc
 615              		@ args = 0, pretend = 0, frame = 24
 616              		@ frame_needed = 1, uses_anonymous_args = 0
 617 0000 90B5     		push	{r4, r7, lr}
 618              		.cfi_def_cfa_offset 12
 619              		.cfi_offset 4, -12
 620              		.cfi_offset 7, -8
 621              		.cfi_offset 14, -4
 622 0002 87B0     		sub	sp, sp, #28
 623              		.cfi_def_cfa_offset 40
 624 0004 00AF     		add	r7, sp, #0
 625              		.cfi_def_cfa_register 7
 626 0006 0200     		movs	r2, r0
 627 0008 FB1D     		adds	r3, r7, #7
 628 000a 1A70     		strb	r2, [r3]
1352:Generated_Source\PSoC4/Bootloader_1.c ****         uint32 CYDATA idx;
1353:Generated_Source\PSoC4/Bootloader_1.c **** 
1354:Generated_Source\PSoC4/Bootloader_1.c ****         uint32 CYDATA end   = Bootloader_1_FIRST_APP_BYTE(appId) +
 629              		.loc 1 1354 0
 630 000c FB1D     		adds	r3, r7, #7
 631 000e 1B78     		ldrb	r3, [r3]
 632 0010 1900     		movs	r1, r3
 633 0012 0320     		movs	r0, #3
 634 0014 FFF7FEFF 		bl	Bootloader_1_GetMetadata
 635 0018 0300     		movs	r3, r0
ARM GAS  C:\Users\ASUS\AppData\Local\Temp\ccJim9J2.s 			page 36


 636 001a 0133     		adds	r3, r3, #1
 637 001c DC01     		lsls	r4, r3, #7
1355:Generated_Source\PSoC4/Bootloader_1.c ****                               Bootloader_1_GetMetadata(Bootloader_1_GET_BTLDB_LENGTH, appId);
 638              		.loc 1 1355 0
 639 001e FB1D     		adds	r3, r7, #7
 640 0020 1B78     		ldrb	r3, [r3]
 641 0022 1900     		movs	r1, r3
 642 0024 0420     		movs	r0, #4
 643 0026 FFF7FEFF 		bl	Bootloader_1_GetMetadata
 644 002a 0300     		movs	r3, r0
1354:Generated_Source\PSoC4/Bootloader_1.c ****                               Bootloader_1_GetMetadata(Bootloader_1_GET_BTLDB_LENGTH, appId);
 645              		.loc 1 1354 0
 646 002c E318     		adds	r3, r4, r3
 647 002e FB60     		str	r3, [r7, #12]
1356:Generated_Source\PSoC4/Bootloader_1.c **** 
1357:Generated_Source\PSoC4/Bootloader_1.c ****         CYBIT  valid = 0u; /* Assume bad flash image */
 648              		.loc 1 1357 0
 649 0030 1323     		movs	r3, #19
 650 0032 FB18     		adds	r3, r7, r3
 651 0034 0022     		movs	r2, #0
 652 0036 1A70     		strb	r2, [r3]
1358:Generated_Source\PSoC4/Bootloader_1.c ****         uint8  CYDATA calcedChecksum = 0u;
 653              		.loc 1 1358 0
 654 0038 1223     		movs	r3, #18
 655 003a FB18     		adds	r3, r7, r3
 656 003c 0022     		movs	r2, #0
 657 003e 1A70     		strb	r2, [r3]
1359:Generated_Source\PSoC4/Bootloader_1.c **** 
1360:Generated_Source\PSoC4/Bootloader_1.c **** 
1361:Generated_Source\PSoC4/Bootloader_1.c ****         #if(0u != Bootloader_1_DUAL_APP_BOOTLOADER)
1362:Generated_Source\PSoC4/Bootloader_1.c **** 
1363:Generated_Source\PSoC4/Bootloader_1.c ****             if(appId > 1u)
1364:Generated_Source\PSoC4/Bootloader_1.c ****             {
1365:Generated_Source\PSoC4/Bootloader_1.c ****                 return(CYRET_BAD_DATA);
1366:Generated_Source\PSoC4/Bootloader_1.c ****             }
1367:Generated_Source\PSoC4/Bootloader_1.c **** 
1368:Generated_Source\PSoC4/Bootloader_1.c ****         #endif  /* (0u != Bootloader_1_DUAL_APP_BOOTLOADER) */
1369:Generated_Source\PSoC4/Bootloader_1.c **** 
1370:Generated_Source\PSoC4/Bootloader_1.c **** 
1371:Generated_Source\PSoC4/Bootloader_1.c ****         #if(0u != Bootloader_1_FAST_APP_VALIDATION)
1372:Generated_Source\PSoC4/Bootloader_1.c ****             if(Bootloader_1_GetMetadata(Bootloader_1_GET_BTLDB_STATUS, appId) ==
1373:Generated_Source\PSoC4/Bootloader_1.c ****                Bootloader_1_MD_BTLDB_IS_VERIFIED)
1374:Generated_Source\PSoC4/Bootloader_1.c ****             {
1375:Generated_Source\PSoC4/Bootloader_1.c ****                 return(CYRET_SUCCESS);
1376:Generated_Source\PSoC4/Bootloader_1.c ****             }
1377:Generated_Source\PSoC4/Bootloader_1.c ****         #endif  /* (0u != Bootloader_1_FAST_APP_VALIDATION) */
1378:Generated_Source\PSoC4/Bootloader_1.c **** 
1379:Generated_Source\PSoC4/Bootloader_1.c **** 
1380:Generated_Source\PSoC4/Bootloader_1.c ****         /* Calculate checksum of bootloadable image */
1381:Generated_Source\PSoC4/Bootloader_1.c ****         for(idx = Bootloader_1_FIRST_APP_BYTE(appId); idx < end; ++idx)
 658              		.loc 1 1381 0
 659 0040 FB1D     		adds	r3, r7, #7
 660 0042 1B78     		ldrb	r3, [r3]
 661 0044 1900     		movs	r1, r3
 662 0046 0320     		movs	r0, #3
 663 0048 FFF7FEFF 		bl	Bootloader_1_GetMetadata
 664 004c 0300     		movs	r3, r0
ARM GAS  C:\Users\ASUS\AppData\Local\Temp\ccJim9J2.s 			page 37


 665 004e 0133     		adds	r3, r3, #1
 666 0050 DB01     		lsls	r3, r3, #7
 667 0052 7B61     		str	r3, [r7, #20]
 668 0054 1FE0     		b	.L40
 669              	.L42:
 670              	.LBB4:
1382:Generated_Source\PSoC4/Bootloader_1.c ****         {
1383:Generated_Source\PSoC4/Bootloader_1.c ****             uint8 CYDATA curByte = Bootloader_1_GET_CODE_BYTE(idx);
 671              		.loc 1 1383 0
 672 0056 7A69     		ldr	r2, [r7, #20]
 673 0058 0B23     		movs	r3, #11
 674 005a FB18     		adds	r3, r7, r3
 675 005c 1278     		ldrb	r2, [r2]
 676 005e 1A70     		strb	r2, [r3]
1384:Generated_Source\PSoC4/Bootloader_1.c **** 
1385:Generated_Source\PSoC4/Bootloader_1.c ****             if((curByte != 0u) && (curByte != 0xFFu))
 677              		.loc 1 1385 0
 678 0060 0B23     		movs	r3, #11
 679 0062 FB18     		adds	r3, r7, r3
 680 0064 1B78     		ldrb	r3, [r3]
 681 0066 002B     		cmp	r3, #0
 682 0068 08D0     		beq	.L41
 683              		.loc 1 1385 0 is_stmt 0 discriminator 1
 684 006a 0B23     		movs	r3, #11
 685 006c FB18     		adds	r3, r7, r3
 686 006e 1B78     		ldrb	r3, [r3]
 687 0070 FF2B     		cmp	r3, #255
 688 0072 03D0     		beq	.L41
1386:Generated_Source\PSoC4/Bootloader_1.c ****             {
1387:Generated_Source\PSoC4/Bootloader_1.c ****                 valid = 1u;
 689              		.loc 1 1387 0 is_stmt 1
 690 0074 1323     		movs	r3, #19
 691 0076 FB18     		adds	r3, r7, r3
 692 0078 0122     		movs	r2, #1
 693 007a 1A70     		strb	r2, [r3]
 694              	.L41:
1388:Generated_Source\PSoC4/Bootloader_1.c ****             }
1389:Generated_Source\PSoC4/Bootloader_1.c **** 
1390:Generated_Source\PSoC4/Bootloader_1.c ****             calcedChecksum += curByte;
 695              		.loc 1 1390 0 discriminator 2
 696 007c 1223     		movs	r3, #18
 697 007e FB18     		adds	r3, r7, r3
 698 0080 1222     		movs	r2, #18
 699 0082 B918     		adds	r1, r7, r2
 700 0084 0B22     		movs	r2, #11
 701 0086 BA18     		adds	r2, r7, r2
 702 0088 0978     		ldrb	r1, [r1]
 703 008a 1278     		ldrb	r2, [r2]
 704 008c 8A18     		adds	r2, r1, r2
 705 008e 1A70     		strb	r2, [r3]
 706              	.LBE4:
1381:Generated_Source\PSoC4/Bootloader_1.c ****         {
 707              		.loc 1 1381 0 discriminator 2
 708 0090 7B69     		ldr	r3, [r7, #20]
 709 0092 0133     		adds	r3, r3, #1
 710 0094 7B61     		str	r3, [r7, #20]
 711              	.L40:
ARM GAS  C:\Users\ASUS\AppData\Local\Temp\ccJim9J2.s 			page 38


1381:Generated_Source\PSoC4/Bootloader_1.c ****         {
 712              		.loc 1 1381 0 is_stmt 0 discriminator 1
 713 0096 7A69     		ldr	r2, [r7, #20]
 714 0098 FB68     		ldr	r3, [r7, #12]
 715 009a 9A42     		cmp	r2, r3
 716 009c DBD3     		bcc	.L42
1391:Generated_Source\PSoC4/Bootloader_1.c ****         }
1392:Generated_Source\PSoC4/Bootloader_1.c **** 
1393:Generated_Source\PSoC4/Bootloader_1.c **** 
1394:Generated_Source\PSoC4/Bootloader_1.c ****         /***************************************************************************
1395:Generated_Source\PSoC4/Bootloader_1.c ****         * We do not compute a checksum over the meta data section, so no need to
1396:Generated_Source\PSoC4/Bootloader_1.c ****         * subtract App Verified or App Active information here like we do when
1397:Generated_Source\PSoC4/Bootloader_1.c ****         * verifying a row.
1398:Generated_Source\PSoC4/Bootloader_1.c ****         ***************************************************************************/
1399:Generated_Source\PSoC4/Bootloader_1.c **** 
1400:Generated_Source\PSoC4/Bootloader_1.c ****         #if((!CY_PSOC4) && (CYDEV_ECC_ENABLE == 0u))
1401:Generated_Source\PSoC4/Bootloader_1.c **** 
1402:Generated_Source\PSoC4/Bootloader_1.c ****             /* Add ECC data to checksum */
1403:Generated_Source\PSoC4/Bootloader_1.c ****             idx = ((Bootloader_1_FIRST_APP_BYTE(appId)) >> 3u);
1404:Generated_Source\PSoC4/Bootloader_1.c **** 
1405:Generated_Source\PSoC4/Bootloader_1.c ****             /* Flash may run into meta data, so ECC does not use full row */
1406:Generated_Source\PSoC4/Bootloader_1.c ****             end = (end == (CY_FLASH_SIZE - Bootloader_1_MD_SIZEOF))
1407:Generated_Source\PSoC4/Bootloader_1.c ****                 ? (CY_FLASH_SIZE >> 3u)
1408:Generated_Source\PSoC4/Bootloader_1.c ****                 : (end >> 3u);
1409:Generated_Source\PSoC4/Bootloader_1.c **** 
1410:Generated_Source\PSoC4/Bootloader_1.c ****             for (; idx < end; ++idx)
1411:Generated_Source\PSoC4/Bootloader_1.c ****             {
1412:Generated_Source\PSoC4/Bootloader_1.c ****                 calcedChecksum += CY_GET_XTND_REG8((volatile uint8 *)(CYDEV_ECC_BASE + idx));
1413:Generated_Source\PSoC4/Bootloader_1.c ****             }
1414:Generated_Source\PSoC4/Bootloader_1.c **** 
1415:Generated_Source\PSoC4/Bootloader_1.c ****         #endif  /* ((!CY_PSOC4) && (CYDEV_ECC_ENABLE == 0u)) */
1416:Generated_Source\PSoC4/Bootloader_1.c **** 
1417:Generated_Source\PSoC4/Bootloader_1.c ****         calcedChecksum = ( uint8 )1u + ( uint8 )(~calcedChecksum);
 717              		.loc 1 1417 0 is_stmt 1
 718 009e 1223     		movs	r3, #18
 719 00a0 FB18     		adds	r3, r7, r3
 720 00a2 1222     		movs	r2, #18
 721 00a4 BA18     		adds	r2, r7, r2
 722 00a6 1278     		ldrb	r2, [r2]
 723 00a8 5242     		rsbs	r2, r2, #0
 724 00aa 1A70     		strb	r2, [r3]
1418:Generated_Source\PSoC4/Bootloader_1.c **** 
1419:Generated_Source\PSoC4/Bootloader_1.c ****         if((calcedChecksum != Bootloader_1_GetMetadata(Bootloader_1_GET_BTLDB_CHECKSUM, appId)) ||
 725              		.loc 1 1419 0
 726 00ac 1223     		movs	r3, #18
 727 00ae FB18     		adds	r3, r7, r3
 728 00b0 1C78     		ldrb	r4, [r3]
 729 00b2 FB1D     		adds	r3, r7, #7
 730 00b4 1B78     		ldrb	r3, [r3]
 731 00b6 1900     		movs	r1, r3
 732 00b8 0120     		movs	r0, #1
 733 00ba FFF7FEFF 		bl	Bootloader_1_GetMetadata
 734 00be 0300     		movs	r3, r0
 735 00c0 9C42     		cmp	r4, r3
 736 00c2 04D1     		bne	.L43
 737              		.loc 1 1419 0 is_stmt 0 discriminator 1
 738 00c4 1323     		movs	r3, #19
ARM GAS  C:\Users\ASUS\AppData\Local\Temp\ccJim9J2.s 			page 39


 739 00c6 FB18     		adds	r3, r7, r3
 740 00c8 1B78     		ldrb	r3, [r3]
 741 00ca 002B     		cmp	r3, #0
 742 00cc 01D1     		bne	.L44
 743              	.L43:
1420:Generated_Source\PSoC4/Bootloader_1.c ****            (0u == valid))
1421:Generated_Source\PSoC4/Bootloader_1.c ****         {
1422:Generated_Source\PSoC4/Bootloader_1.c ****             return(CYRET_BAD_DATA);
 744              		.loc 1 1422 0 is_stmt 1
 745 00ce 0623     		movs	r3, #6
 746 00d0 00E0     		b	.L45
 747              	.L44:
1423:Generated_Source\PSoC4/Bootloader_1.c ****         }
1424:Generated_Source\PSoC4/Bootloader_1.c **** 
1425:Generated_Source\PSoC4/Bootloader_1.c **** 
1426:Generated_Source\PSoC4/Bootloader_1.c ****         #if(0u != Bootloader_1_FAST_APP_VALIDATION)
1427:Generated_Source\PSoC4/Bootloader_1.c ****             Bootloader_1_SetFlashByte((uint32) Bootloader_1_MD_BTLDB_VERIFIED_OFFSET(appId),
1428:Generated_Source\PSoC4/Bootloader_1.c ****                                           Bootloader_1_MD_BTLDB_IS_VERIFIED);
1429:Generated_Source\PSoC4/Bootloader_1.c ****         #endif  /* (0u != Bootloader_1_FAST_APP_VALIDATION) */
1430:Generated_Source\PSoC4/Bootloader_1.c **** 
1431:Generated_Source\PSoC4/Bootloader_1.c **** 
1432:Generated_Source\PSoC4/Bootloader_1.c ****         return(CYRET_SUCCESS);
 748              		.loc 1 1432 0
 749 00d2 0023     		movs	r3, #0
 750              	.L45:
1433:Generated_Source\PSoC4/Bootloader_1.c **** }
 751              		.loc 1 1433 0
 752 00d4 1800     		movs	r0, r3
 753 00d6 BD46     		mov	sp, r7
 754 00d8 07B0     		add	sp, sp, #28
 755              		@ sp needed
 756 00da 90BD     		pop	{r4, r7, pc}
 757              		.cfi_endproc
 758              	.LFE40:
 759              		.size	Bootloader_1_ValidateBootloadable, .-Bootloader_1_ValidateBootloadable
 760              		.section	.rodata
 761              		.align	2
 762              	.LC0:
 763 0000 9311C804 		.word	80220563
 764 0004 11       		.byte	17
 765 0005 3C       		.byte	60
 766 0006 01       		.byte	1
 767 0007 01       		.byte	1
 768              		.section	.text.Bootloader_1_HostLink,"ax",%progbits
 769              		.align	2
 770              		.code	16
 771              		.thumb_func
 772              		.type	Bootloader_1_HostLink, %function
 773              	Bootloader_1_HostLink:
 774              	.LFB41:
1434:Generated_Source\PSoC4/Bootloader_1.c **** 
1435:Generated_Source\PSoC4/Bootloader_1.c **** #if (((0u != Bootloader_1_DUAL_APP_BOOTLOADER) && (CYDEV_PROJ_TYPE != CYDEV_PROJ_TYPE_LAUNCHER)) \
1436:Generated_Source\PSoC4/Bootloader_1.c ****                                           || (CYDEV_PROJ_TYPE == CYDEV_PROJ_TYPE_LOADABLEANDBOOTLOA
1437:Generated_Source\PSoC4/Bootloader_1.c **** /*******************************************************************************
1438:Generated_Source\PSoC4/Bootloader_1.c **** * Function Name: Bootloader_1_CheckImage
1439:Generated_Source\PSoC4/Bootloader_1.c **** ********************************************************************************
1440:Generated_Source\PSoC4/Bootloader_1.c **** * \internal
ARM GAS  C:\Users\ASUS\AppData\Local\Temp\ccJim9J2.s 			page 40


1441:Generated_Source\PSoC4/Bootloader_1.c **** *
1442:Generated_Source\PSoC4/Bootloader_1.c **** * \brief 
1443:Generated_Source\PSoC4/Bootloader_1.c **** *   This API checks if there is a permission to write to a certain image.
1444:Generated_Source\PSoC4/Bootloader_1.c **** *   It is used to check the active application as well as to check the Golden image.
1445:Generated_Source\PSoC4/Bootloader_1.c **** *
1446:Generated_Source\PSoC4/Bootloader_1.c **** * \param 
1447:Generated_Source\PSoC4/Bootloader_1.c **** *   appNumber - The application number.
1448:Generated_Source\PSoC4/Bootloader_1.c **** * \param 
1449:Generated_Source\PSoC4/Bootloader_1.c **** *   arrayNumber - The number of the flash page to write to.
1450:Generated_Source\PSoC4/Bootloader_1.c **** * \param 
1451:Generated_Source\PSoC4/Bootloader_1.c **** *   row - The row number to write to the flash.
1452:Generated_Source\PSoC4/Bootloader_1.c **** * \param 
1453:Generated_Source\PSoC4/Bootloader_1.c **** *   rowNumInArray - The row number inside the array.
1454:Generated_Source\PSoC4/Bootloader_1.c **** *
1455:Generated_Source\PSoC4/Bootloader_1.c **** * \return 
1456:Generated_Source\PSoC4/Bootloader_1.c **** *   CYRET_SUCCESS - Writing to a specified image is permitted.
1457:Generated_Source\PSoC4/Bootloader_1.c **** *   Bootloader_1_ERR_ACTIVE - Writing to this image is NOT permitted
1458:Generated_Source\PSoC4/Bootloader_1.c **** *   because the specified image is active or Golden.
1459:Generated_Source\PSoC4/Bootloader_1.c **** *
1460:Generated_Source\PSoC4/Bootloader_1.c **** * \endinternal
1461:Generated_Source\PSoC4/Bootloader_1.c **** *******************************************************************************/
1462:Generated_Source\PSoC4/Bootloader_1.c **** static uint8 Bootloader_1_CheckImage(uint8 appNumber, uint8 arrayNumber, uint16 row, uint16 rowNumI
1463:Generated_Source\PSoC4/Bootloader_1.c ****                                          
1464:Generated_Source\PSoC4/Bootloader_1.c **** {
1465:Generated_Source\PSoC4/Bootloader_1.c ****     uint16 CYDATA firstRow = 0xFFFFu;
1466:Generated_Source\PSoC4/Bootloader_1.c ****     uint16 CYDATA lastRow = 0xFFFFu;
1467:Generated_Source\PSoC4/Bootloader_1.c ****     uint8 CYDATA ackCode = CYRET_SUCCESS;
1468:Generated_Source\PSoC4/Bootloader_1.c **** 
1469:Generated_Source\PSoC4/Bootloader_1.c ****     if (appNumber < Bootloader_1_MAX_NUM_OF_BTLDB)
1470:Generated_Source\PSoC4/Bootloader_1.c ****     {    
1471:Generated_Source\PSoC4/Bootloader_1.c ****         /*******************************************************************************
1472:Generated_Source\PSoC4/Bootloader_1.c ****         * For the first Bootloadable application - gets the last flash row occupied by
1473:Generated_Source\PSoC4/Bootloader_1.c ****         * the Bootloader application image:
1474:Generated_Source\PSoC4/Bootloader_1.c ****         *  ---------------------------------------------------------------------------
1475:Generated_Source\PSoC4/Bootloader_1.c ****         * | Bootloader   | Bootloadable # 1 |     | Bootloadable # 2 |     | M2 | M1 |
1476:Generated_Source\PSoC4/Bootloader_1.c ****         *  ---------------------------------------------------------------------------
1477:Generated_Source\PSoC4/Bootloader_1.c ****         * |<--firstRow---|>
1478:Generated_Source\PSoC4/Bootloader_1.c ****         *
1479:Generated_Source\PSoC4/Bootloader_1.c ****         * For the second Bootloadable application - gets the last flash row occupied by
1480:Generated_Source\PSoC4/Bootloader_1.c ****         * the first Bootloadable application:
1481:Generated_Source\PSoC4/Bootloader_1.c ****         *  ---------------------------------------------------------------------------
1482:Generated_Source\PSoC4/Bootloader_1.c ****         * | Bootloader   | Bootloadable # 1 |     | Bootloadable # 2 |     | M2 | M1 |
1483:Generated_Source\PSoC4/Bootloader_1.c ****         *  ---------------------------------------------------------------------------
1484:Generated_Source\PSoC4/Bootloader_1.c ****         * |<-------------firstRow-----------------|>
1485:Generated_Source\PSoC4/Bootloader_1.c ****         *
1486:Generated_Source\PSoC4/Bootloader_1.c ****         * Incremented by 1 to get the first available row.
1487:Generated_Source\PSoC4/Bootloader_1.c ****         *
1488:Generated_Source\PSoC4/Bootloader_1.c ****         * NOTE M1 and M2 stand for metadata # 1 and metadata # 2, metadata 
1489:Generated_Source\PSoC4/Bootloader_1.c ****         * sections for the 1st and 2nd Bootloadable applications.
1490:Generated_Source\PSoC4/Bootloader_1.c ****         *******************************************************************************/
1491:Generated_Source\PSoC4/Bootloader_1.c ****         firstRow = (uint16) 1u +
1492:Generated_Source\PSoC4/Bootloader_1.c ****             (uint16) Bootloader_1_GetMetadata(Bootloader_1_GET_BTLDR_LAST_ROW,  appNumber);
1493:Generated_Source\PSoC4/Bootloader_1.c **** 
1494:Generated_Source\PSoC4/Bootloader_1.c ****     
1495:Generated_Source\PSoC4/Bootloader_1.c ****     /***********************************************************************************
1496:Generated_Source\PSoC4/Bootloader_1.c ****     * If this is the Upgradable Stack use case, then Stack application and User application
1497:Generated_Source\PSoC4/Bootloader_1.c ****     * do not occupy the half of flash each, as the other applications do for Classic Dual-app 
ARM GAS  C:\Users\ASUS\AppData\Local\Temp\ccJim9J2.s 			page 41


1498:Generated_Source\PSoC4/Bootloader_1.c ****     * and the general Launcher-Combination use cases. Another approach for calculation 
1499:Generated_Source\PSoC4/Bootloader_1.c ****     * lastRow is used for the Upgradable Stack use case. See Bootloader datasheet for more 
1500:Generated_Source\PSoC4/Bootloader_1.c ****     * details (use cases description).
1501:Generated_Source\PSoC4/Bootloader_1.c ****     ***********************************************************************************/
1502:Generated_Source\PSoC4/Bootloader_1.c **** 
1503:Generated_Source\PSoC4/Bootloader_1.c ****     
1504:Generated_Source\PSoC4/Bootloader_1.c ****     #if ((CYDEV_PROJ_TYPE == CYDEV_PROJ_TYPE_LOADABLEANDBOOTLOADER) && \
1505:Generated_Source\PSoC4/Bootloader_1.c ****          (0u != Bootloader_1_IS_STACK_APPLICATION))
1506:Generated_Source\PSoC4/Bootloader_1.c ****         /*******************************************************************************
1507:Generated_Source\PSoC4/Bootloader_1.c ****         * The Upgradable Stack application case implies that only this application can 
1508:Generated_Source\PSoC4/Bootloader_1.c ****         * perform a bootloading operation (the other one can't). So a verification 
1509:Generated_Source\PSoC4/Bootloader_1.c ****         * will be run to check if the Stack application is not overwritten. 
1510:Generated_Source\PSoC4/Bootloader_1.c ****         *
1511:Generated_Source\PSoC4/Bootloader_1.c ****         * The Stack application is defined as the first application.
1512:Generated_Source\PSoC4/Bootloader_1.c ****           * The User application is defined as the second application.
1513:Generated_Source\PSoC4/Bootloader_1.c ****         *
1514:Generated_Source\PSoC4/Bootloader_1.c ****         * This check is intended for the case when the Stack application is active
1515:Generated_Source\PSoC4/Bootloader_1.c ****         * and performs bootloading for the User application:
1516:Generated_Source\PSoC4/Bootloader_1.c ****         *  ---------------------------------------------------------------------------
1517:Generated_Source\PSoC4/Bootloader_1.c ****         * |   Launcher   |       Stack     |           User app            | M2 | M1 |
1518:Generated_Source\PSoC4/Bootloader_1.c ****         *  ---------------------------------------------------------------------------
1519:Generated_Source\PSoC4/Bootloader_1.c ****         *                |<-------------------lastRow -------------------->|
1520:Generated_Source\PSoC4/Bootloader_1.c ****         *******************************************************************************/
1521:Generated_Source\PSoC4/Bootloader_1.c ****         lastRow = (uint16) Bootloader_1_GetMetadata(Bootloader_1_GET_BTLDR_LAST_ROW,
1522:Generated_Source\PSoC4/Bootloader_1.c ****                                                         Bootloader_1_USER_APPLICATION);    
1523:Generated_Source\PSoC4/Bootloader_1.c ****     
1524:Generated_Source\PSoC4/Bootloader_1.c ****     #else /* Classic Dual-app and the general Launcher-Combination use cases */    
1525:Generated_Source\PSoC4/Bootloader_1.c ****         /*******************************************************************************
1526:Generated_Source\PSoC4/Bootloader_1.c ****         * The number of flash rows available for both Bootloadable applications:
1527:Generated_Source\PSoC4/Bootloader_1.c ****         *
1528:Generated_Source\PSoC4/Bootloader_1.c ****         * The first Bootloadable application is active:
1529:Generated_Source\PSoC4/Bootloader_1.c ****         *  ---------------------------------------------------------------------------
1530:Generated_Source\PSoC4/Bootloader_1.c ****         * | Bootloader   | Bootloadable # 1 |     | Bootloadable # 2 |     | M2 | M1 |
1531:Generated_Source\PSoC4/Bootloader_1.c ****         *  ---------------------------------------------------------------------------
1532:Generated_Source\PSoC4/Bootloader_1.c ****         *                |<-------------------lastRow -------------------->|
1533:Generated_Source\PSoC4/Bootloader_1.c ****         *
1534:Generated_Source\PSoC4/Bootloader_1.c ****         * The second Bootloadable application is active:
1535:Generated_Source\PSoC4/Bootloader_1.c ****         *  ---------------------------------------------------------------------------
1536:Generated_Source\PSoC4/Bootloader_1.c ****         * | Bootloader   | Bootloadable # 1 |     | Bootloadable # 2 |     | M2 | M1 |
1537:Generated_Source\PSoC4/Bootloader_1.c ****         *  ---------------------------------------------------------------------------
1538:Generated_Source\PSoC4/Bootloader_1.c ****         *                                         |<-------lastRow-------->|
1539:Generated_Source\PSoC4/Bootloader_1.c ****         *******************************************************************************/
1540:Generated_Source\PSoC4/Bootloader_1.c ****         lastRow = (uint16)(CY_FLASH_NUMBER_ROWS - Bootloader_1_NUMBER_OF_METADATA_ROWS - firstRow);
1541:Generated_Source\PSoC4/Bootloader_1.c **** 
1542:Generated_Source\PSoC4/Bootloader_1.c ****         /*******************************************************************************
1543:Generated_Source\PSoC4/Bootloader_1.c ****         * The number of flash rows available for the active Bootloadable application:
1544:Generated_Source\PSoC4/Bootloader_1.c ****         *
1545:Generated_Source\PSoC4/Bootloader_1.c ****         * The first Bootloadable application is active: the number of flash rows available
1546:Generated_Source\PSoC4/Bootloader_1.c ****         * for both Bootloadable applications should be divided by 2, meaning 2 
1547:Generated_Source\PSoC4/Bootloader_1.c ****         * Bootloadable applications should fit there.
1548:Generated_Source\PSoC4/Bootloader_1.c ****         *
1549:Generated_Source\PSoC4/Bootloader_1.c ****         * The second Bootloadable application is active: the number of flash rows available
1550:Generated_Source\PSoC4/Bootloader_1.c ****         * for both Bootloadable applications should be divided by 1, meaning 1 
1551:Generated_Source\PSoC4/Bootloader_1.c ****         * Bootloadable application should fit there.
1552:Generated_Source\PSoC4/Bootloader_1.c ****         *******************************************************************************/
1553:Generated_Source\PSoC4/Bootloader_1.c ****         lastRow = (uint16)(lastRow / (uint8)(Bootloader_1_NUMBER_OF_BTLDBLE_APPS - appNumber));
1554:Generated_Source\PSoC4/Bootloader_1.c **** 
ARM GAS  C:\Users\ASUS\AppData\Local\Temp\ccJim9J2.s 			page 42


1555:Generated_Source\PSoC4/Bootloader_1.c ****         /*******************************************************************************
1556:Generated_Source\PSoC4/Bootloader_1.c ****         * The last row equals the first row plus the number of rows available for
1557:Generated_Source\PSoC4/Bootloader_1.c ****         * each Bootloadable application. That gives the flash row number right
1558:Generated_Source\PSoC4/Bootloader_1.c ****         * beyond the valid range, so we subtract 1.
1559:Generated_Source\PSoC4/Bootloader_1.c ****         *
1560:Generated_Source\PSoC4/Bootloader_1.c ****         * The first Bootloadable application is active:
1561:Generated_Source\PSoC4/Bootloader_1.c ****         *  ---------------------------------------------------------------------------
1562:Generated_Source\PSoC4/Bootloader_1.c ****         * | Bootloader   | Bootloadable # 1 |     | Bootloadable # 2 |     | M2 | M1 |
1563:Generated_Source\PSoC4/Bootloader_1.c ****         *  ---------------------------------------------------------------------------
1564:Generated_Source\PSoC4/Bootloader_1.c ****         * |<----------------lastRow ------------->|
1565:Generated_Source\PSoC4/Bootloader_1.c ****         *
1566:Generated_Source\PSoC4/Bootloader_1.c ****         * The second Bootloadable application is active:
1567:Generated_Source\PSoC4/Bootloader_1.c ****         *  ---------------------------------------------------------------------------
1568:Generated_Source\PSoC4/Bootloader_1.c ****         * | Bootloader   | Bootloadable # 1 |     | Bootloadable # 2 |     | M2 | M1 |
1569:Generated_Source\PSoC4/Bootloader_1.c ****         *  ---------------------------------------------------------------------------
1570:Generated_Source\PSoC4/Bootloader_1.c ****         * |<-----------------------------lastRow-------------------------->|
1571:Generated_Source\PSoC4/Bootloader_1.c ****         *******************************************************************************/
1572:Generated_Source\PSoC4/Bootloader_1.c ****         lastRow = (firstRow + lastRow) - 1u;
1573:Generated_Source\PSoC4/Bootloader_1.c ****     #endif /*(0u == Bootloader_1_IS_STACK_APPLICATION)*/    
1574:Generated_Source\PSoC4/Bootloader_1.c **** 
1575:Generated_Source\PSoC4/Bootloader_1.c ****         /*******************************************************************************
1576:Generated_Source\PSoC4/Bootloader_1.c ****         * 1. Refuses to write a row within the range of the active application.
1577:Generated_Source\PSoC4/Bootloader_1.c ****         *
1578:Generated_Source\PSoC4/Bootloader_1.c ****         *  The first Bootloadable application is active:
1579:Generated_Source\PSoC4/Bootloader_1.c ****         *   ---------------------------------------------------------------------------
1580:Generated_Source\PSoC4/Bootloader_1.c ****         *  | Bootloader   | Bootloadable # 1 |     | Bootloadable # 2 |     | M2 | M1 |
1581:Generated_Source\PSoC4/Bootloader_1.c ****         *   ---------------------------------------------------------------------------
1582:Generated_Source\PSoC4/Bootloader_1.c ****         *  |<----------------lastRow ------------->|
1583:Generated_Source\PSoC4/Bootloader_1.c ****         *  |<--firstRow---|>
1584:Generated_Source\PSoC4/Bootloader_1.c ****         *                 |<-------protected------>|
1585:Generated_Source\PSoC4/Bootloader_1.c ****         *
1586:Generated_Source\PSoC4/Bootloader_1.c ****         *  the second Bootloadable application is active:
1587:Generated_Source\PSoC4/Bootloader_1.c ****         *   ---------------------------------------------------------------------------
1588:Generated_Source\PSoC4/Bootloader_1.c ****         *  | Bootloader   | Bootloadable # 1 |     | Bootloadable # 2 |     | M2 | M1 |
1589:Generated_Source\PSoC4/Bootloader_1.c ****         *   ---------------------------------------------------------------------------
1590:Generated_Source\PSoC4/Bootloader_1.c ****         *  |<-------------firstRow-----------------|>
1591:Generated_Source\PSoC4/Bootloader_1.c ****         *  |<-----------------------------lastRow-------------------------->|
1592:Generated_Source\PSoC4/Bootloader_1.c ****         *                                          |<-------protected------>|
1593:Generated_Source\PSoC4/Bootloader_1.c ****         *
1594:Generated_Source\PSoC4/Bootloader_1.c ****         * 2. Refuses to write to the row that contains metadata of the active
1595:Generated_Source\PSoC4/Bootloader_1.c ****         *    Bootloadable application.
1596:Generated_Source\PSoC4/Bootloader_1.c ****         *
1597:Generated_Source\PSoC4/Bootloader_1.c ****         *******************************************************************************/
1598:Generated_Source\PSoC4/Bootloader_1.c ****         if (((row >= firstRow) && (row <= lastRow)) || ((arrayNumber == Bootloader_1_MD_FLASH_ARRAY
1599:Generated_Source\PSoC4/Bootloader_1.c ****             (rowNumInArray == Bootloader_1_MD_ROW_NUM(appNumber))))
1600:Generated_Source\PSoC4/Bootloader_1.c ****         {
1601:Generated_Source\PSoC4/Bootloader_1.c ****             ackCode = Bootloader_1_ERR_ACTIVE;
1602:Generated_Source\PSoC4/Bootloader_1.c ****         }
1603:Generated_Source\PSoC4/Bootloader_1.c ****     }
1604:Generated_Source\PSoC4/Bootloader_1.c ****     else /*(appNumber < Bootloader_1_MAX_NUM_OF_BTLDB)*/
1605:Generated_Source\PSoC4/Bootloader_1.c ****     {
1606:Generated_Source\PSoC4/Bootloader_1.c ****         ackCode = Bootloader_1_ERR_ACTIVE;
1607:Generated_Source\PSoC4/Bootloader_1.c ****     }
1608:Generated_Source\PSoC4/Bootloader_1.c ****     
1609:Generated_Source\PSoC4/Bootloader_1.c ****     return ackCode;
1610:Generated_Source\PSoC4/Bootloader_1.c **** }
1611:Generated_Source\PSoC4/Bootloader_1.c **** #endif  /* (0u != Bootloader_1_DUAL_APP_BOOTLOADER) || \
ARM GAS  C:\Users\ASUS\AppData\Local\Temp\ccJim9J2.s 			page 43


1612:Generated_Source\PSoC4/Bootloader_1.c ****            (CYDEV_PROJ_TYPE == CYDEV_PROJ_TYPE_LOADABLEANDBOOTLOADER) */
1613:Generated_Source\PSoC4/Bootloader_1.c **** 
1614:Generated_Source\PSoC4/Bootloader_1.c **** #if (CYDEV_PROJ_TYPE != CYDEV_PROJ_TYPE_LAUNCHER)
1615:Generated_Source\PSoC4/Bootloader_1.c **** /*******************************************************************************
1616:Generated_Source\PSoC4/Bootloader_1.c **** * Function Name: Bootloader_1_HostLink
1617:Generated_Source\PSoC4/Bootloader_1.c **** ****************************************************************************//**
1618:Generated_Source\PSoC4/Bootloader_1.c **** *
1619:Generated_Source\PSoC4/Bootloader_1.c **** * \brief
1620:Generated_Source\PSoC4/Bootloader_1.c **** *  Causes the Bootloader to attempt to read data being transmitted by the
1621:Generated_Source\PSoC4/Bootloader_1.c **** *  host application.  If data is sent from the host, this establishes the
1622:Generated_Source\PSoC4/Bootloader_1.c **** *  communication interface to process all requests.
1623:Generated_Source\PSoC4/Bootloader_1.c **** *
1624:Generated_Source\PSoC4/Bootloader_1.c **** * \param
1625:Generated_Source\PSoC4/Bootloader_1.c **** *  timeOut:
1626:Generated_Source\PSoC4/Bootloader_1.c **** *   The amount of time to listen for data before giving up. The timeout is
1627:Generated_Source\PSoC4/Bootloader_1.c **** *   measured in 10s of ms.  Use 0 for an infinite wait.
1628:Generated_Source\PSoC4/Bootloader_1.c **** * 
1629:Generated_Source\PSoC4/Bootloader_1.c **** * \details
1630:Generated_Source\PSoC4/Bootloader_1.c **** *  This function is public only for Launcher-Combination architecture. For 
1631:Generated_Source\PSoC4/Bootloader_1.c **** *  Classic Bootloader it is static, meaning private. 
1632:Generated_Source\PSoC4/Bootloader_1.c **** *******************************************************************************/
1633:Generated_Source\PSoC4/Bootloader_1.c **** #if (CYDEV_PROJ_TYPE != CYDEV_PROJ_TYPE_LOADABLEANDBOOTLOADER)
1634:Generated_Source\PSoC4/Bootloader_1.c **** static void Bootloader_1_HostLink(uint8 timeOut) CYLARGE 
1635:Generated_Source\PSoC4/Bootloader_1.c ****                    
1636:Generated_Source\PSoC4/Bootloader_1.c **** #else
1637:Generated_Source\PSoC4/Bootloader_1.c **** void Bootloader_1_HostLink(uint8 timeOut) CYLARGE 
1638:Generated_Source\PSoC4/Bootloader_1.c ****                    
1639:Generated_Source\PSoC4/Bootloader_1.c **** #endif /*(CYDEV_PROJ_TYPE != CYDEV_PROJ_TYPE_LOADABLEANDBOOTLOADER)*/    
1640:Generated_Source\PSoC4/Bootloader_1.c **** {
 775              		.loc 1 1640 0
 776              		.cfi_startproc
 777              		@ args = 0, pretend = 0, frame = 680
 778              		@ frame_needed = 1, uses_anonymous_args = 0
 779 0000 90B5     		push	{r4, r7, lr}
 780              		.cfi_def_cfa_offset 12
 781              		.cfi_offset 4, -12
 782              		.cfi_offset 7, -8
 783              		.cfi_offset 14, -4
 784 0002 DA4C     		ldr	r4, .L114
 785 0004 A544     		add	sp, sp, r4
 786              		.cfi_def_cfa_offset 696
 787 0006 00AF     		add	r7, sp, #0
 788              		.cfi_def_cfa_register 7
 789 0008 0200     		movs	r2, r0
 790 000a D94B     		ldr	r3, .L114+4
 791 000c AA21     		movs	r1, #170
 792 000e 8900     		lsls	r1, r1, #2
 793 0010 8C46     		mov	ip, r1
 794 0012 BC44     		add	ip, ip, r7
 795 0014 6344     		add	r3, r3, ip
 796 0016 1A70     		strb	r2, [r3]
1641:Generated_Source\PSoC4/Bootloader_1.c ****     uint16    CYDATA numberRead;
1642:Generated_Source\PSoC4/Bootloader_1.c ****     uint16    CYDATA rspSize;
1643:Generated_Source\PSoC4/Bootloader_1.c ****     uint8     CYDATA ackCode;
1644:Generated_Source\PSoC4/Bootloader_1.c ****     uint16    CYDATA pktChecksum;
1645:Generated_Source\PSoC4/Bootloader_1.c ****     cystatus  CYDATA readStat;
1646:Generated_Source\PSoC4/Bootloader_1.c ****     uint16    CYDATA pktSize    = 0u;
ARM GAS  C:\Users\ASUS\AppData\Local\Temp\ccJim9J2.s 			page 44


 797              		.loc 1 1646 0
 798 0018 D64B     		ldr	r3, .L114+8
 799 001a FB18     		adds	r3, r7, r3
 800 001c 0022     		movs	r2, #0
 801 001e 1A80     		strh	r2, [r3]
1647:Generated_Source\PSoC4/Bootloader_1.c ****     uint8     CYDATA timeOutCnt = 10u;
 802              		.loc 1 1647 0
 803 0020 D54B     		ldr	r3, .L114+12
 804 0022 FB18     		adds	r3, r7, r3
 805 0024 0A22     		movs	r2, #10
 806 0026 1A70     		strb	r2, [r3]
1648:Generated_Source\PSoC4/Bootloader_1.c **** 
1649:Generated_Source\PSoC4/Bootloader_1.c ****     #if(0u != Bootloader_1_FAST_APP_VALIDATION)
1650:Generated_Source\PSoC4/Bootloader_1.c ****         uint8 CYDATA clearedMetaData = 0u;
1651:Generated_Source\PSoC4/Bootloader_1.c ****     #endif  /* (0u != Bootloader_1_FAST_APP_VALIDATION) */
1652:Generated_Source\PSoC4/Bootloader_1.c **** 
1653:Generated_Source\PSoC4/Bootloader_1.c **** #if (CYDEV_PROJ_TYPE == CYDEV_PROJ_TYPE_LOADABLEANDBOOTLOADER)
1654:Generated_Source\PSoC4/Bootloader_1.c ****     static  CYBIT communicationState = Bootloader_1_COMMUNICATION_STATE_IDLE; 
1655:Generated_Source\PSoC4/Bootloader_1.c ****     static uint16 CYDATA dataOffset = 0u; 
1656:Generated_Source\PSoC4/Bootloader_1.c ****     uint16  CYDATA btldrLastRow = 0xFFFFu;
1657:Generated_Source\PSoC4/Bootloader_1.c ****     uint8 needToCopyFlag = 0u;
1658:Generated_Source\PSoC4/Bootloader_1.c ****     uint32 app2StartAddress = Bootloader_1_GetMetadata(Bootloader_1_GET_BTLDB_ADDR, 
1659:Generated_Source\PSoC4/Bootloader_1.c ****                               Bootloader_1_MD_BTLDB_ACTIVE_1);
1660:Generated_Source\PSoC4/Bootloader_1.c **** #else
1661:Generated_Source\PSoC4/Bootloader_1.c ****     CYBIT     communicationState = Bootloader_1_COMMUNICATION_STATE_IDLE;
 807              		.loc 1 1661 0
 808 0028 A823     		movs	r3, #168
 809 002a 9B00     		lsls	r3, r3, #2
 810 002c FB18     		adds	r3, r7, r3
 811 002e 0022     		movs	r2, #0
 812 0030 1A70     		strb	r2, [r3]
1662:Generated_Source\PSoC4/Bootloader_1.c ****     uint16 CYDATA dataOffset = 0u; 
 813              		.loc 1 1662 0
 814 0032 D24B     		ldr	r3, .L114+16
 815 0034 FB18     		adds	r3, r7, r3
 816 0036 0022     		movs	r2, #0
 817 0038 1A80     		strh	r2, [r3]
1663:Generated_Source\PSoC4/Bootloader_1.c **** #endif /*CYDEV_PROJ_TYPE == CYDEV_PROJ_TYPE_LOADABLEANDBOOTLOADER*/
1664:Generated_Source\PSoC4/Bootloader_1.c **** 
1665:Generated_Source\PSoC4/Bootloader_1.c ****     uint8     packetBuffer[Bootloader_1_SIZEOF_COMMAND_BUFFER];
1666:Generated_Source\PSoC4/Bootloader_1.c ****     uint8     dataBuffer  [Bootloader_1_SIZEOF_COMMAND_BUFFER];
1667:Generated_Source\PSoC4/Bootloader_1.c **** 
1668:Generated_Source\PSoC4/Bootloader_1.c **** 
1669:Generated_Source\PSoC4/Bootloader_1.c ****     #if(!CY_PSOC4)
1670:Generated_Source\PSoC4/Bootloader_1.c ****         #if(0u == Bootloader_1_FAST_APP_VALIDATION)
1671:Generated_Source\PSoC4/Bootloader_1.c ****             #if !defined(CY_BOOT_VERSION)
1672:Generated_Source\PSoC4/Bootloader_1.c **** 
1673:Generated_Source\PSoC4/Bootloader_1.c ****                 /* Not required with cy_boot 4.20 */
1674:Generated_Source\PSoC4/Bootloader_1.c ****                 uint8 CYXDATA Bootloader_1_flashBuffer[Bootloader_1_FROW_SIZE];
1675:Generated_Source\PSoC4/Bootloader_1.c **** 
1676:Generated_Source\PSoC4/Bootloader_1.c ****             #endif /* !defined(CY_BOOT_VERSION) */
1677:Generated_Source\PSoC4/Bootloader_1.c ****         #endif  /* (0u == Bootloader_1_FAST_APP_VALIDATION) */
1678:Generated_Source\PSoC4/Bootloader_1.c ****     #endif  /* (CY_PSOC4) */
1679:Generated_Source\PSoC4/Bootloader_1.c **** 
1680:Generated_Source\PSoC4/Bootloader_1.c **** 
1681:Generated_Source\PSoC4/Bootloader_1.c **** 
1682:Generated_Source\PSoC4/Bootloader_1.c ****     #if(!CY_PSOC4)
ARM GAS  C:\Users\ASUS\AppData\Local\Temp\ccJim9J2.s 			page 45


1683:Generated_Source\PSoC4/Bootloader_1.c ****         #if((0u == Bootloader_1_FAST_APP_VALIDATION) || \
1684:Generated_Source\PSoC4/Bootloader_1.c ****             (CYDEV_PROJ_TYPE == CYDEV_PROJ_TYPE_LOADABLEANDBOOTLOADER))
1685:Generated_Source\PSoC4/Bootloader_1.c **** 
1686:Generated_Source\PSoC4/Bootloader_1.c ****             /* Initialize flash subsystem for non-PSoC 4 devices */
1687:Generated_Source\PSoC4/Bootloader_1.c ****             if (CYRET_SUCCESS != CySetTemp())
1688:Generated_Source\PSoC4/Bootloader_1.c ****             {
1689:Generated_Source\PSoC4/Bootloader_1.c ****                 CyHalt(0x00u);
1690:Generated_Source\PSoC4/Bootloader_1.c ****             }
1691:Generated_Source\PSoC4/Bootloader_1.c **** 
1692:Generated_Source\PSoC4/Bootloader_1.c ****         #endif  /* (0u == Bootloader_1_FAST_APP_VALIDATION) ||
1693:Generated_Source\PSoC4/Bootloader_1.c ****                    (CYDEV_PROJ_TYPE == CYDEV_PROJ_TYPE_LOADABLEANDBOOTLOADER) */
1694:Generated_Source\PSoC4/Bootloader_1.c ****     #endif  /* (CY_PSOC4) */
1695:Generated_Source\PSoC4/Bootloader_1.c **** 
1696:Generated_Source\PSoC4/Bootloader_1.c ****     /* Initialize communications channel. */
1697:Generated_Source\PSoC4/Bootloader_1.c ****     CyBtldrCommStart();
 818              		.loc 1 1697 0
 819 003a FFF7FEFF 		bl	CyBtldrCommStart
1698:Generated_Source\PSoC4/Bootloader_1.c **** 
1699:Generated_Source\PSoC4/Bootloader_1.c ****     /* Enable global interrupts */
1700:Generated_Source\PSoC4/Bootloader_1.c ****     CyGlobalIntEnable;
 820              		.loc 1 1700 0
 821              		.syntax divided
 822              	@ 1700 "Generated_Source\PSoC4\Bootloader_1.c" 1
 823 003e 62B6     		CPSIE   i
 824              	@ 0 "" 2
 825              		.thumb
 826              		.syntax unified
 827              	.L104:
1701:Generated_Source\PSoC4/Bootloader_1.c **** 
1702:Generated_Source\PSoC4/Bootloader_1.c ****     do
1703:Generated_Source\PSoC4/Bootloader_1.c ****     {
1704:Generated_Source\PSoC4/Bootloader_1.c ****         ackCode = CYRET_SUCCESS;
 828              		.loc 1 1704 0
 829 0040 CF4B     		ldr	r3, .L114+20
 830 0042 FB18     		adds	r3, r7, r3
 831 0044 0022     		movs	r2, #0
 832 0046 1A70     		strb	r2, [r3]
 833              	.L51:
1705:Generated_Source\PSoC4/Bootloader_1.c **** 
1706:Generated_Source\PSoC4/Bootloader_1.c ****         do
1707:Generated_Source\PSoC4/Bootloader_1.c ****         {
1708:Generated_Source\PSoC4/Bootloader_1.c ****             readStat = CyBtldrCommRead(packetBuffer,
 834              		.loc 1 1708 0
 835 0048 C94B     		ldr	r3, .L114+4
 836 004a AA22     		movs	r2, #170
 837 004c 9200     		lsls	r2, r2, #2
 838 004e 9446     		mov	ip, r2
 839 0050 BC44     		add	ip, ip, r7
 840 0052 6344     		add	r3, r3, ip
 841 0054 1B78     		ldrb	r3, [r3]
 842 0056 002B     		cmp	r3, #0
 843 0058 07D0     		beq	.L47
 844              		.loc 1 1708 0 is_stmt 0 discriminator 1
 845 005a C54B     		ldr	r3, .L114+4
 846 005c AA22     		movs	r2, #170
 847 005e 9200     		lsls	r2, r2, #2
 848 0060 9446     		mov	ip, r2
ARM GAS  C:\Users\ASUS\AppData\Local\Temp\ccJim9J2.s 			page 46


 849 0062 BC44     		add	ip, ip, r7
 850 0064 6344     		add	r3, r3, ip
 851 0066 1B78     		ldrb	r3, [r3]
 852 0068 00E0     		b	.L48
 853              	.L47:
 854              		.loc 1 1708 0 discriminator 2
 855 006a FF23     		movs	r3, #255
 856              	.L48:
 857              		.loc 1 1708 0 discriminator 4
 858 006c A022     		movs	r2, #160
 859 006e 9200     		lsls	r2, r2, #2
 860 0070 BC18     		adds	r4, r7, r2
 861 0072 9622     		movs	r2, #150
 862 0074 5100     		lsls	r1, r2, #1
 863 0076 AA22     		movs	r2, #170
 864 0078 5200     		lsls	r2, r2, #1
 865 007a B818     		adds	r0, r7, r2
 866 007c 2200     		movs	r2, r4
 867 007e FFF7FEFF 		bl	CyBtldrCommRead
 868 0082 0300     		movs	r3, r0
 869 0084 A522     		movs	r2, #165
 870 0086 9200     		lsls	r2, r2, #2
 871 0088 BA18     		adds	r2, r7, r2
 872 008a 1360     		str	r3, [r2]
1709:Generated_Source\PSoC4/Bootloader_1.c ****                                         Bootloader_1_SIZEOF_COMMAND_BUFFER,
1710:Generated_Source\PSoC4/Bootloader_1.c ****                                         &numberRead,
1711:Generated_Source\PSoC4/Bootloader_1.c ****                                         (0u == timeOut) ? 0xFFu : timeOut);
1712:Generated_Source\PSoC4/Bootloader_1.c ****             if (0u != timeOut)
 873              		.loc 1 1712 0 is_stmt 1 discriminator 4
 874 008c B84B     		ldr	r3, .L114+4
 875 008e AA22     		movs	r2, #170
 876 0090 9200     		lsls	r2, r2, #2
 877 0092 9446     		mov	ip, r2
 878 0094 BC44     		add	ip, ip, r7
 879 0096 6344     		add	r3, r3, ip
 880 0098 1B78     		ldrb	r3, [r3]
 881 009a 002B     		cmp	r3, #0
 882 009c 06D0     		beq	.L49
1713:Generated_Source\PSoC4/Bootloader_1.c ****             {
1714:Generated_Source\PSoC4/Bootloader_1.c ****                 timeOutCnt--;
 883              		.loc 1 1714 0
 884 009e B64B     		ldr	r3, .L114+12
 885 00a0 FB18     		adds	r3, r7, r3
 886 00a2 1A78     		ldrb	r2, [r3]
 887 00a4 B44B     		ldr	r3, .L114+12
 888 00a6 FB18     		adds	r3, r7, r3
 889 00a8 013A     		subs	r2, r2, #1
 890 00aa 1A70     		strb	r2, [r3]
 891              	.L49:
1715:Generated_Source\PSoC4/Bootloader_1.c ****             }
1716:Generated_Source\PSoC4/Bootloader_1.c **** 
1717:Generated_Source\PSoC4/Bootloader_1.c ****         } while ( (0u != timeOutCnt) && (readStat != CYRET_SUCCESS) );
 892              		.loc 1 1717 0
 893 00ac B24B     		ldr	r3, .L114+12
 894 00ae FB18     		adds	r3, r7, r3
 895 00b0 1B78     		ldrb	r3, [r3]
 896 00b2 002B     		cmp	r3, #0
ARM GAS  C:\Users\ASUS\AppData\Local\Temp\ccJim9J2.s 			page 47


 897 00b4 05D0     		beq	.L50
 898              		.loc 1 1717 0 is_stmt 0 discriminator 1
 899 00b6 A523     		movs	r3, #165
 900 00b8 9B00     		lsls	r3, r3, #2
 901 00ba FB18     		adds	r3, r7, r3
 902 00bc 1B68     		ldr	r3, [r3]
 903 00be 002B     		cmp	r3, #0
 904 00c0 C2D1     		bne	.L51
 905              	.L50:
1718:Generated_Source\PSoC4/Bootloader_1.c **** 
1719:Generated_Source\PSoC4/Bootloader_1.c **** 
1720:Generated_Source\PSoC4/Bootloader_1.c ****         if( readStat != CYRET_SUCCESS )
 906              		.loc 1 1720 0 is_stmt 1
 907 00c2 A523     		movs	r3, #165
 908 00c4 9B00     		lsls	r3, r3, #2
 909 00c6 FB18     		adds	r3, r7, r3
 910 00c8 1B68     		ldr	r3, [r3]
 911 00ca 002B     		cmp	r3, #0
 912 00cc 01D0     		beq	.LCB740
 913 00ce 00F016FC 		bl	.L105	@far jump
 914              	.LCB740:
1721:Generated_Source\PSoC4/Bootloader_1.c ****         {
1722:Generated_Source\PSoC4/Bootloader_1.c ****             continue;
1723:Generated_Source\PSoC4/Bootloader_1.c ****         }
1724:Generated_Source\PSoC4/Bootloader_1.c **** 
1725:Generated_Source\PSoC4/Bootloader_1.c ****         if((numberRead < Bootloader_1_MIN_PKT_SIZE) ||
 915              		.loc 1 1725 0
 916 00d2 A023     		movs	r3, #160
 917 00d4 9B00     		lsls	r3, r3, #2
 918 00d6 FB18     		adds	r3, r7, r3
 919 00d8 1B88     		ldrh	r3, [r3]
 920 00da 062B     		cmp	r3, #6
 921 00dc 08D9     		bls	.L54
1726:Generated_Source\PSoC4/Bootloader_1.c ****            (packetBuffer[Bootloader_1_SOP_ADDR] != Bootloader_1_SOP))
 922              		.loc 1 1726 0 discriminator 1
 923 00de A94B     		ldr	r3, .L114+24
 924 00e0 AA22     		movs	r2, #170
 925 00e2 9200     		lsls	r2, r2, #2
 926 00e4 9446     		mov	ip, r2
 927 00e6 BC44     		add	ip, ip, r7
 928 00e8 6344     		add	r3, r3, ip
 929 00ea 1B78     		ldrb	r3, [r3]
1725:Generated_Source\PSoC4/Bootloader_1.c ****            (packetBuffer[Bootloader_1_SOP_ADDR] != Bootloader_1_SOP))
 930              		.loc 1 1725 0 discriminator 1
 931 00ec 012B     		cmp	r3, #1
 932 00ee 04D0     		beq	.L55
 933              	.L54:
1727:Generated_Source\PSoC4/Bootloader_1.c ****         {
1728:Generated_Source\PSoC4/Bootloader_1.c ****             ackCode = Bootloader_1_ERR_DATA;
 934              		.loc 1 1728 0
 935 00f0 A34B     		ldr	r3, .L114+20
 936 00f2 FB18     		adds	r3, r7, r3
 937 00f4 0422     		movs	r2, #4
 938 00f6 1A70     		strb	r2, [r3]
 939 00f8 73E0     		b	.L56
 940              	.L55:
1729:Generated_Source\PSoC4/Bootloader_1.c ****         }
ARM GAS  C:\Users\ASUS\AppData\Local\Temp\ccJim9J2.s 			page 48


1730:Generated_Source\PSoC4/Bootloader_1.c ****         else
1731:Generated_Source\PSoC4/Bootloader_1.c ****         {
1732:Generated_Source\PSoC4/Bootloader_1.c ****             pktSize = ((uint16)((uint16)packetBuffer[Bootloader_1_SIZE_ADDR + 1u] << 8u)) |
 941              		.loc 1 1732 0
 942 00fa A24B     		ldr	r3, .L114+24
 943 00fc AA22     		movs	r2, #170
 944 00fe 9200     		lsls	r2, r2, #2
 945 0100 9446     		mov	ip, r2
 946 0102 BC44     		add	ip, ip, r7
 947 0104 6344     		add	r3, r3, ip
 948 0106 DB78     		ldrb	r3, [r3, #3]
 949 0108 9BB2     		uxth	r3, r3
 950 010a 1B02     		lsls	r3, r3, #8
 951 010c 99B2     		uxth	r1, r3
1733:Generated_Source\PSoC4/Bootloader_1.c ****                                packetBuffer[Bootloader_1_SIZE_ADDR];
 952              		.loc 1 1733 0
 953 010e 9D4B     		ldr	r3, .L114+24
 954 0110 AA22     		movs	r2, #170
 955 0112 9200     		lsls	r2, r2, #2
 956 0114 9446     		mov	ip, r2
 957 0116 BC44     		add	ip, ip, r7
 958 0118 6344     		add	r3, r3, ip
 959 011a 9B78     		ldrb	r3, [r3, #2]
1732:Generated_Source\PSoC4/Bootloader_1.c ****                                packetBuffer[Bootloader_1_SIZE_ADDR];
 960              		.loc 1 1732 0
 961 011c 9AB2     		uxth	r2, r3
 962 011e 954B     		ldr	r3, .L114+8
 963 0120 FB18     		adds	r3, r7, r3
 964 0122 0A43     		orrs	r2, r1
 965 0124 1A80     		strh	r2, [r3]
1734:Generated_Source\PSoC4/Bootloader_1.c **** 
1735:Generated_Source\PSoC4/Bootloader_1.c **** 
1736:Generated_Source\PSoC4/Bootloader_1.c ****             /**************************************************************************************
1737:Generated_Source\PSoC4/Bootloader_1.c ****             * If the whole packet length exceeds the number of bytes that have been read by the com
1738:Generated_Source\PSoC4/Bootloader_1.c ****             * component or the size of the buffer that is reserved for the packet, then give an err
1739:Generated_Source\PSoC4/Bootloader_1.c ****             **************************************************************************************/
1740:Generated_Source\PSoC4/Bootloader_1.c ****             if (((pktSize + Bootloader_1_MIN_PKT_SIZE) > numberRead) || 
 966              		.loc 1 1740 0
 967 0126 934B     		ldr	r3, .L114+8
 968 0128 FB18     		adds	r3, r7, r3
 969 012a 1B88     		ldrh	r3, [r3]
 970 012c 0733     		adds	r3, r3, #7
 971 012e A022     		movs	r2, #160
 972 0130 9200     		lsls	r2, r2, #2
 973 0132 BA18     		adds	r2, r7, r2
 974 0134 1288     		ldrh	r2, [r2]
 975 0136 9342     		cmp	r3, r2
 976 0138 07D8     		bhi	.L57
1741:Generated_Source\PSoC4/Bootloader_1.c ****                 ((pktSize + Bootloader_1_MIN_PKT_SIZE) > Bootloader_1_SIZEOF_COMMAND_BUFFER)) 
 977              		.loc 1 1741 0 discriminator 1
 978 013a 8E4B     		ldr	r3, .L114+8
 979 013c FB18     		adds	r3, r7, r3
 980 013e 1B88     		ldrh	r3, [r3]
 981 0140 DA1D     		adds	r2, r3, #7
1740:Generated_Source\PSoC4/Bootloader_1.c ****                 ((pktSize + Bootloader_1_MIN_PKT_SIZE) > Bootloader_1_SIZEOF_COMMAND_BUFFER)) 
 982              		.loc 1 1740 0 discriminator 1
 983 0142 9623     		movs	r3, #150
ARM GAS  C:\Users\ASUS\AppData\Local\Temp\ccJim9J2.s 			page 49


 984 0144 5B00     		lsls	r3, r3, #1
 985 0146 9A42     		cmp	r2, r3
 986 0148 04D9     		bls	.L58
 987              	.L57:
1742:Generated_Source\PSoC4/Bootloader_1.c ****             {
1743:Generated_Source\PSoC4/Bootloader_1.c ****                 ackCode = Bootloader_1_ERR_LENGTH;
 988              		.loc 1 1743 0
 989 014a 8D4B     		ldr	r3, .L114+20
 990 014c FB18     		adds	r3, r7, r3
 991 014e 0322     		movs	r2, #3
 992 0150 1A70     		strb	r2, [r3]
 993 0152 46E0     		b	.L56
 994              	.L58:
1744:Generated_Source\PSoC4/Bootloader_1.c ****             }
1745:Generated_Source\PSoC4/Bootloader_1.c ****             else /* Packet length is OK*/
1746:Generated_Source\PSoC4/Bootloader_1.c ****             {
1747:Generated_Source\PSoC4/Bootloader_1.c ****                 pktChecksum = ((uint16)((uint16)packetBuffer[Bootloader_1_CHK_ADDR(pktSize) + 1u] <
 995              		.loc 1 1747 0
 996 0154 874B     		ldr	r3, .L114+8
 997 0156 FB18     		adds	r3, r7, r3
 998 0158 1B88     		ldrh	r3, [r3]
 999 015a 0533     		adds	r3, r3, #5
 1000 015c 894A     		ldr	r2, .L114+24
 1001 015e AA21     		movs	r1, #170
 1002 0160 8900     		lsls	r1, r1, #2
 1003 0162 8C46     		mov	ip, r1
 1004 0164 BC44     		add	ip, ip, r7
 1005 0166 6244     		add	r2, r2, ip
 1006 0168 D35C     		ldrb	r3, [r2, r3]
 1007 016a 9BB2     		uxth	r3, r3
 1008 016c 1B02     		lsls	r3, r3, #8
 1009 016e 99B2     		uxth	r1, r3
1748:Generated_Source\PSoC4/Bootloader_1.c ****                                    packetBuffer[Bootloader_1_CHK_ADDR(pktSize)];
 1010              		.loc 1 1748 0
 1011 0170 804B     		ldr	r3, .L114+8
 1012 0172 FB18     		adds	r3, r7, r3
 1013 0174 1B88     		ldrh	r3, [r3]
 1014 0176 0433     		adds	r3, r3, #4
 1015 0178 824A     		ldr	r2, .L114+24
 1016 017a AA20     		movs	r0, #170
 1017 017c 8000     		lsls	r0, r0, #2
 1018 017e 8446     		mov	ip, r0
 1019 0180 BC44     		add	ip, ip, r7
 1020 0182 6244     		add	r2, r2, ip
 1021 0184 D35C     		ldrb	r3, [r2, r3]
1747:Generated_Source\PSoC4/Bootloader_1.c ****                                    packetBuffer[Bootloader_1_CHK_ADDR(pktSize)];
 1022              		.loc 1 1747 0
 1023 0186 9AB2     		uxth	r2, r3
 1024 0188 7F4B     		ldr	r3, .L114+28
 1025 018a FB18     		adds	r3, r7, r3
 1026 018c 0A43     		orrs	r2, r1
 1027 018e 1A80     		strh	r2, [r3]
1749:Generated_Source\PSoC4/Bootloader_1.c ****    
1750:Generated_Source\PSoC4/Bootloader_1.c ****                 if (packetBuffer[Bootloader_1_EOP_ADDR(pktSize)] != Bootloader_1_EOP)
 1028              		.loc 1 1750 0
 1029 0190 784B     		ldr	r3, .L114+8
 1030 0192 FB18     		adds	r3, r7, r3
ARM GAS  C:\Users\ASUS\AppData\Local\Temp\ccJim9J2.s 			page 50


 1031 0194 1B88     		ldrh	r3, [r3]
 1032 0196 0633     		adds	r3, r3, #6
 1033 0198 7A4A     		ldr	r2, .L114+24
 1034 019a AA21     		movs	r1, #170
 1035 019c 8900     		lsls	r1, r1, #2
 1036 019e 8C46     		mov	ip, r1
 1037 01a0 BC44     		add	ip, ip, r7
 1038 01a2 6244     		add	r2, r2, ip
 1039 01a4 D35C     		ldrb	r3, [r2, r3]
 1040 01a6 172B     		cmp	r3, #23
 1041 01a8 04D0     		beq	.L59
1751:Generated_Source\PSoC4/Bootloader_1.c ****                 {
1752:Generated_Source\PSoC4/Bootloader_1.c ****                     ackCode = Bootloader_1_ERR_DATA;
 1042              		.loc 1 1752 0
 1043 01aa 754B     		ldr	r3, .L114+20
 1044 01ac FB18     		adds	r3, r7, r3
 1045 01ae 0422     		movs	r2, #4
 1046 01b0 1A70     		strb	r2, [r3]
 1047 01b2 16E0     		b	.L56
 1048              	.L59:
1753:Generated_Source\PSoC4/Bootloader_1.c ****                 }
1754:Generated_Source\PSoC4/Bootloader_1.c ****                 else if(pktChecksum != Bootloader_1_CalcPacketChecksum(packetBuffer,
 1049              		.loc 1 1754 0
 1050 01b4 6F4B     		ldr	r3, .L114+8
 1051 01b6 FB18     		adds	r3, r7, r3
 1052 01b8 1B88     		ldrh	r3, [r3]
 1053 01ba 0433     		adds	r3, r3, #4
 1054 01bc 9AB2     		uxth	r2, r3
 1055 01be AA23     		movs	r3, #170
 1056 01c0 5B00     		lsls	r3, r3, #1
 1057 01c2 FB18     		adds	r3, r7, r3
 1058 01c4 1100     		movs	r1, r2
 1059 01c6 1800     		movs	r0, r3
 1060 01c8 FFF7FEFF 		bl	Bootloader_1_CalcPacketChecksum
 1061 01cc 0300     		movs	r3, r0
 1062 01ce 1A00     		movs	r2, r3
 1063 01d0 6D4B     		ldr	r3, .L114+28
 1064 01d2 FB18     		adds	r3, r7, r3
 1065 01d4 1B88     		ldrh	r3, [r3]
 1066 01d6 9342     		cmp	r3, r2
 1067 01d8 03D0     		beq	.L56
1755:Generated_Source\PSoC4/Bootloader_1.c ****                                                                         pktSize + Bootloader_1_DATA
1756:Generated_Source\PSoC4/Bootloader_1.c ****                 {
1757:Generated_Source\PSoC4/Bootloader_1.c ****                     ackCode = Bootloader_1_ERR_CHECKSUM;
 1068              		.loc 1 1757 0
 1069 01da 694B     		ldr	r3, .L114+20
 1070 01dc FB18     		adds	r3, r7, r3
 1071 01de 0822     		movs	r2, #8
 1072 01e0 1A70     		strb	r2, [r3]
 1073              	.L56:
1758:Generated_Source\PSoC4/Bootloader_1.c ****                 }
1759:Generated_Source\PSoC4/Bootloader_1.c ****                 else
1760:Generated_Source\PSoC4/Bootloader_1.c ****                 {
1761:Generated_Source\PSoC4/Bootloader_1.c ****                     /* Empty section */
1762:Generated_Source\PSoC4/Bootloader_1.c ****                 }
1763:Generated_Source\PSoC4/Bootloader_1.c ****             }    
1764:Generated_Source\PSoC4/Bootloader_1.c ****         }
ARM GAS  C:\Users\ASUS\AppData\Local\Temp\ccJim9J2.s 			page 51


1765:Generated_Source\PSoC4/Bootloader_1.c **** 
1766:Generated_Source\PSoC4/Bootloader_1.c ****         rspSize = Bootloader_1_RSP_SIZE_0;
 1074              		.loc 1 1766 0
 1075 01e2 6A4B     		ldr	r3, .L114+32
 1076 01e4 FB18     		adds	r3, r7, r3
 1077 01e6 0022     		movs	r2, #0
 1078 01e8 1A80     		strh	r2, [r3]
1767:Generated_Source\PSoC4/Bootloader_1.c ****         if(ackCode == CYRET_SUCCESS)
 1079              		.loc 1 1767 0
 1080 01ea 654B     		ldr	r3, .L114+20
 1081 01ec FB18     		adds	r3, r7, r3
 1082 01ee 1B78     		ldrb	r3, [r3]
 1083 01f0 002B     		cmp	r3, #0
 1084 01f2 00D0     		beq	.LCB897
 1085 01f4 76E3     		b	.L60	@long jump
 1086              	.LCB897:
 1087              	.LBB5:
1768:Generated_Source\PSoC4/Bootloader_1.c ****         {
1769:Generated_Source\PSoC4/Bootloader_1.c ****             uint8 CYDATA btldrData = packetBuffer[Bootloader_1_DATA_ADDR];
 1088              		.loc 1 1769 0
 1089 01f6 664B     		ldr	r3, .L114+36
 1090 01f8 FB18     		adds	r3, r7, r3
 1091 01fa 624A     		ldr	r2, .L114+24
 1092 01fc AA21     		movs	r1, #170
 1093 01fe 8900     		lsls	r1, r1, #2
 1094 0200 8C46     		mov	ip, r1
 1095 0202 BC44     		add	ip, ip, r7
 1096 0204 6244     		add	r2, r2, ip
 1097 0206 1279     		ldrb	r2, [r2, #4]
 1098 0208 1A70     		strb	r2, [r3]
1770:Generated_Source\PSoC4/Bootloader_1.c **** 
1771:Generated_Source\PSoC4/Bootloader_1.c ****             ackCode = Bootloader_1_ERR_DATA;
 1099              		.loc 1 1771 0
 1100 020a 5D4B     		ldr	r3, .L114+20
 1101 020c FB18     		adds	r3, r7, r3
 1102 020e 0422     		movs	r2, #4
 1103 0210 1A70     		strb	r2, [r3]
1772:Generated_Source\PSoC4/Bootloader_1.c ****             switch(packetBuffer[Bootloader_1_CMD_ADDR])
 1104              		.loc 1 1772 0
 1105 0212 5C4B     		ldr	r3, .L114+24
 1106 0214 AA22     		movs	r2, #170
 1107 0216 9200     		lsls	r2, r2, #2
 1108 0218 9446     		mov	ip, r2
 1109 021a BC44     		add	ip, ip, r7
 1110 021c 6344     		add	r3, r3, ip
 1111 021e 5B78     		ldrb	r3, [r3, #1]
 1112 0220 313B     		subs	r3, r3, #49
 1113 0222 0A2B     		cmp	r3, #10
 1114 0224 00D9     		bls	.LCB922
 1115 0226 BFE2     		b	.L61	@long jump
 1116              	.LCB922:
 1117 0228 9A00     		lsls	r2, r3, #2
 1118 022a 5A4B     		ldr	r3, .L114+40
 1119 022c D318     		adds	r3, r2, r3
 1120 022e 1B68     		ldr	r3, [r3]
 1121 0230 9F46     		mov	pc, r3
 1122              		.section	.rodata
ARM GAS  C:\Users\ASUS\AppData\Local\Temp\ccJim9J2.s 			page 52


 1123              		.align	2
 1124              	.L63:
 1125 0008 32020000 		.word	.L62
 1126 000c 7C020000 		.word	.L64
 1127 0010 A8070000 		.word	.L61
 1128 0014 9C030000 		.word	.L65
 1129 0018 4E050000 		.word	.L66
 1130 001c A8070000 		.word	.L61
 1131 0020 66050000 		.word	.L67
 1132 0024 D4050000 		.word	.L68
 1133 0028 9C030000 		.word	.L65
 1134 002c 36060000 		.word	.L69
 1135 0030 8E070000 		.word	.L70
 1136              		.section	.text.Bootloader_1_HostLink
 1137              	.L62:
1773:Generated_Source\PSoC4/Bootloader_1.c ****             {
1774:Generated_Source\PSoC4/Bootloader_1.c **** 
1775:Generated_Source\PSoC4/Bootloader_1.c **** 
1776:Generated_Source\PSoC4/Bootloader_1.c ****             /***************************************************************************
1777:Generated_Source\PSoC4/Bootloader_1.c ****             *   Get metadata (0x3C)
1778:Generated_Source\PSoC4/Bootloader_1.c ****             ***************************************************************************/
1779:Generated_Source\PSoC4/Bootloader_1.c ****             #if(0u != Bootloader_1_CMD_GET_METADATA)
1780:Generated_Source\PSoC4/Bootloader_1.c **** 
1781:Generated_Source\PSoC4/Bootloader_1.c ****                 case Bootloader_1_COMMAND_GET_METADATA:
1782:Generated_Source\PSoC4/Bootloader_1.c **** 
1783:Generated_Source\PSoC4/Bootloader_1.c ****                     if((Bootloader_1_COMMUNICATION_STATE_ACTIVE == communicationState) && (pktSize 
1784:Generated_Source\PSoC4/Bootloader_1.c ****                     {
1785:Generated_Source\PSoC4/Bootloader_1.c ****                         if (btldrData >= Bootloader_1_MAX_NUM_OF_BTLDB)
1786:Generated_Source\PSoC4/Bootloader_1.c ****                         {
1787:Generated_Source\PSoC4/Bootloader_1.c ****                             ackCode = Bootloader_1_ERR_APP;
1788:Generated_Source\PSoC4/Bootloader_1.c ****                         }
1789:Generated_Source\PSoC4/Bootloader_1.c ****                         else if(CYRET_SUCCESS == Bootloader_1_ValidateBootloadable(btldrData))
1790:Generated_Source\PSoC4/Bootloader_1.c ****                         {
1791:Generated_Source\PSoC4/Bootloader_1.c ****                             #if(CY_PSOC3)
1792:Generated_Source\PSoC4/Bootloader_1.c ****                                 (void) memcpy(&packetBuffer[Bootloader_1_DATA_ADDR],
1793:Generated_Source\PSoC4/Bootloader_1.c ****                                             ((uint8  CYCODE *) (Bootloader_1_MD_BASE_ADDR(btldrData
1794:Generated_Source\PSoC4/Bootloader_1.c ****                                             (int8)Bootloader_1_GET_METADATA_RESPONSE_SIZE);
1795:Generated_Source\PSoC4/Bootloader_1.c ****                             #else
1796:Generated_Source\PSoC4/Bootloader_1.c ****                                 (void) memcpy(&packetBuffer[Bootloader_1_DATA_ADDR],
1797:Generated_Source\PSoC4/Bootloader_1.c ****                                             (uint8 *) Bootloader_1_MD_BASE_ADDR(btldrData),
1798:Generated_Source\PSoC4/Bootloader_1.c ****                                             Bootloader_1_GET_METADATA_RESPONSE_SIZE);
1799:Generated_Source\PSoC4/Bootloader_1.c ****                             #endif  /* (CY_PSOC3) */
1800:Generated_Source\PSoC4/Bootloader_1.c **** 
1801:Generated_Source\PSoC4/Bootloader_1.c ****                             rspSize = Bootloader_1_RSP_SIZE_GET_METADATA;
1802:Generated_Source\PSoC4/Bootloader_1.c ****                             ackCode = CYRET_SUCCESS;
1803:Generated_Source\PSoC4/Bootloader_1.c ****                         }
1804:Generated_Source\PSoC4/Bootloader_1.c ****                         else
1805:Generated_Source\PSoC4/Bootloader_1.c ****                         {
1806:Generated_Source\PSoC4/Bootloader_1.c ****                             ackCode = Bootloader_1_ERR_APP;
1807:Generated_Source\PSoC4/Bootloader_1.c ****                         }
1808:Generated_Source\PSoC4/Bootloader_1.c ****                     }
1809:Generated_Source\PSoC4/Bootloader_1.c ****                     break;
1810:Generated_Source\PSoC4/Bootloader_1.c **** 
1811:Generated_Source\PSoC4/Bootloader_1.c ****             #endif  /* (0u != Bootloader_1_CMD_GET_METADATA) */
1812:Generated_Source\PSoC4/Bootloader_1.c **** 
1813:Generated_Source\PSoC4/Bootloader_1.c **** 
1814:Generated_Source\PSoC4/Bootloader_1.c ****             /***************************************************************************
ARM GAS  C:\Users\ASUS\AppData\Local\Temp\ccJim9J2.s 			page 53


1815:Generated_Source\PSoC4/Bootloader_1.c ****             *   Verify application checksum (0x31)
1816:Generated_Source\PSoC4/Bootloader_1.c ****             ***************************************************************************/
1817:Generated_Source\PSoC4/Bootloader_1.c ****         #if (0u != Bootloader_1_CMD_VERIFY_APP_CHKSUM_AVAIL)     
1818:Generated_Source\PSoC4/Bootloader_1.c ****             case Bootloader_1_COMMAND_CHECKSUM:
1819:Generated_Source\PSoC4/Bootloader_1.c **** 
1820:Generated_Source\PSoC4/Bootloader_1.c ****                 if((Bootloader_1_COMMUNICATION_STATE_ACTIVE == communicationState) && (pktSize == 0
 1138              		.loc 1 1820 0
 1139 0232 A823     		movs	r3, #168
 1140 0234 9B00     		lsls	r3, r3, #2
 1141 0236 FB18     		adds	r3, r7, r3
 1142 0238 1B78     		ldrb	r3, [r3]
 1143 023a 012B     		cmp	r3, #1
 1144 023c 00D0     		beq	.LCB939
 1145 023e 42E3     		b	.L106	@long jump
 1146              	.LCB939:
 1147              		.loc 1 1820 0 is_stmt 0 discriminator 1
 1148 0240 4C4B     		ldr	r3, .L114+8
 1149 0242 FB18     		adds	r3, r7, r3
 1150 0244 1B88     		ldrh	r3, [r3]
 1151 0246 002B     		cmp	r3, #0
 1152 0248 00D0     		beq	.LCB944
 1153 024a 3CE3     		b	.L106	@long jump
 1154              	.LCB944:
1821:Generated_Source\PSoC4/Bootloader_1.c ****                 {
1822:Generated_Source\PSoC4/Bootloader_1.c ****                     packetBuffer[Bootloader_1_DATA_ADDR] =
1823:Generated_Source\PSoC4/Bootloader_1.c ****                             (uint8)(Bootloader_1_ValidateBootloadable(Bootloader_1_activeApp) == CY
 1155              		.loc 1 1823 0 is_stmt 1
 1156 024c 0020     		movs	r0, #0
 1157 024e FFF7FEFF 		bl	Bootloader_1_ValidateBootloadable
 1158 0252 0300     		movs	r3, r0
 1159 0254 5A42     		rsbs	r2, r3, #0
 1160 0256 5341     		adcs	r3, r3, r2
 1161 0258 DBB2     		uxtb	r3, r3
 1162 025a 1A00     		movs	r2, r3
1822:Generated_Source\PSoC4/Bootloader_1.c ****                             (uint8)(Bootloader_1_ValidateBootloadable(Bootloader_1_activeApp) == CY
 1163              		.loc 1 1822 0
 1164 025c 494B     		ldr	r3, .L114+24
 1165 025e AA21     		movs	r1, #170
 1166 0260 8900     		lsls	r1, r1, #2
 1167 0262 8C46     		mov	ip, r1
 1168 0264 BC44     		add	ip, ip, r7
 1169 0266 6344     		add	r3, r3, ip
 1170 0268 1A71     		strb	r2, [r3, #4]
1824:Generated_Source\PSoC4/Bootloader_1.c **** 
1825:Generated_Source\PSoC4/Bootloader_1.c ****                     rspSize = Bootloader_1_RSP_SIZE_VERIFY_CHKSM;
 1171              		.loc 1 1825 0
 1172 026a 484B     		ldr	r3, .L114+32
 1173 026c FB18     		adds	r3, r7, r3
 1174 026e 0122     		movs	r2, #1
 1175 0270 1A80     		strh	r2, [r3]
1826:Generated_Source\PSoC4/Bootloader_1.c ****                     ackCode = CYRET_SUCCESS;
 1176              		.loc 1 1826 0
 1177 0272 434B     		ldr	r3, .L114+20
 1178 0274 FB18     		adds	r3, r7, r3
 1179 0276 0022     		movs	r2, #0
 1180 0278 1A70     		strb	r2, [r3]
1827:Generated_Source\PSoC4/Bootloader_1.c ****                 }
ARM GAS  C:\Users\ASUS\AppData\Local\Temp\ccJim9J2.s 			page 54


1828:Generated_Source\PSoC4/Bootloader_1.c ****                 break;
 1181              		.loc 1 1828 0
 1182 027a 24E3     		b	.L106
 1183              	.L64:
1829:Generated_Source\PSoC4/Bootloader_1.c ****         #endif /* (0u != Bootloader_1_CMD_VERIFY_APP_CHKSUM_AVAIL) */
1830:Generated_Source\PSoC4/Bootloader_1.c **** 
1831:Generated_Source\PSoC4/Bootloader_1.c ****             /*****************************************************************************
1832:Generated_Source\PSoC4/Bootloader_1.c ****             *   Verify row (0x45u)
1833:Generated_Source\PSoC4/Bootloader_1.c ****             ***************************************************************************/
1834:Generated_Source\PSoC4/Bootloader_1.c ****         #if(0u != Bootloader_1_CMD_VERIFY_FLS_ROW_AVAIL)
1835:Generated_Source\PSoC4/Bootloader_1.c ****             case Bootloader_1_COMMAND_VERIFY_FLS_ROW:
1836:Generated_Source\PSoC4/Bootloader_1.c **** 
1837:Generated_Source\PSoC4/Bootloader_1.c ****                 /* Packet size is either 3 (data is already in buffer) or (3u + Bootloader_1_FROW_S
1838:Generated_Source\PSoC4/Bootloader_1.c ****                  * then data is in packetBuffer[]*/
1839:Generated_Source\PSoC4/Bootloader_1.c ****                 if ((Bootloader_1_COMMUNICATION_STATE_ACTIVE == communicationState) && ((3u == pktS
1840:Generated_Source\PSoC4/Bootloader_1.c ****                    ((3u + Bootloader_1_FROW_SIZE) == pktSize)))
1841:Generated_Source\PSoC4/Bootloader_1.c ****                 {
1842:Generated_Source\PSoC4/Bootloader_1.c ****                     uint16 CYDATA rowNum = ((uint16)((uint16)packetBuffer[Bootloader_1_DATA_ADDR + 
1843:Generated_Source\PSoC4/Bootloader_1.c ****                                                              packetBuffer[Bootloader_1_DATA_ADDR + 
1844:Generated_Source\PSoC4/Bootloader_1.c ****                     
1845:Generated_Source\PSoC4/Bootloader_1.c ****                     uint32 CYDATA startAddr;
1846:Generated_Source\PSoC4/Bootloader_1.c ****                     uint16 upperRange = 0u;
1847:Generated_Source\PSoC4/Bootloader_1.c ****                 #if (!CY_PSOC4)
1848:Generated_Source\PSoC4/Bootloader_1.c ****                     uint16 CYDATA rowSize; 
1849:Generated_Source\PSoC4/Bootloader_1.c ****                 #endif /*(!CY_PSOC4)*/    
1850:Generated_Source\PSoC4/Bootloader_1.c ****                     
1851:Generated_Source\PSoC4/Bootloader_1.c ****                     ackCode = CYRET_SUCCESS;
1852:Generated_Source\PSoC4/Bootloader_1.c ****                     rspSize = Bootloader_1_RSP_SIZE_0;
1853:Generated_Source\PSoC4/Bootloader_1.c ****                         
1854:Generated_Source\PSoC4/Bootloader_1.c ****                     if (3u == pktSize)
1855:Generated_Source\PSoC4/Bootloader_1.c ****                     {
1856:Generated_Source\PSoC4/Bootloader_1.c ****                         /* Do nothing, data is already in dataBuffer[] */
1857:Generated_Source\PSoC4/Bootloader_1.c ****                     }
1858:Generated_Source\PSoC4/Bootloader_1.c ****                     else 
1859:Generated_Source\PSoC4/Bootloader_1.c ****                     {
1860:Generated_Source\PSoC4/Bootloader_1.c ****                     #if (CY_PSOC3)
1861:Generated_Source\PSoC4/Bootloader_1.c ****                         /*Data is in packetBuffer[], needs to be copied to dataBuffer[]*/
1862:Generated_Source\PSoC4/Bootloader_1.c ****                         (void) memcpy(dataBuffer, &packetBuffer[Bootloader_1_DATA_ADDR + 3u],
1863:Generated_Source\PSoC4/Bootloader_1.c ****                                       (int16)pktSize - 3);
1864:Generated_Source\PSoC4/Bootloader_1.c ****                     #else              
1865:Generated_Source\PSoC4/Bootloader_1.c ****                         /*Data is in packetBuffer[], needs to be copied to dataBuffer[]*/
1866:Generated_Source\PSoC4/Bootloader_1.c ****                         (void) memcpy(dataBuffer, &packetBuffer[Bootloader_1_DATA_ADDR + 3u],
1867:Generated_Source\PSoC4/Bootloader_1.c ****                                       (uint32)pktSize - 3u);
1868:Generated_Source\PSoC4/Bootloader_1.c ****                     #endif /*CY_PSOC3)*/              
1869:Generated_Source\PSoC4/Bootloader_1.c ****                     }
1870:Generated_Source\PSoC4/Bootloader_1.c ****                         
1871:Generated_Source\PSoC4/Bootloader_1.c ****                 #if (!CY_PSOC4) 
1872:Generated_Source\PSoC4/Bootloader_1.c ****                     if((btldrData >= Bootloader_1_FIRST_EE_ARRAYID) &&
1873:Generated_Source\PSoC4/Bootloader_1.c ****                        (btldrData <= Bootloader_1_LAST_EE_ARRAYID))
1874:Generated_Source\PSoC4/Bootloader_1.c ****                     {
1875:Generated_Source\PSoC4/Bootloader_1.c ****                         /* EEPROM */
1876:Generated_Source\PSoC4/Bootloader_1.c ****                         /* Both PSoC 3 and PSoC 5LP architecture have one EEPROM array. */
1877:Generated_Source\PSoC4/Bootloader_1.c ****                         startAddr = CY_EEPROM_BASE + ((uint32)rowNum * CYDEV_EEPROM_ROW_SIZE);
1878:Generated_Source\PSoC4/Bootloader_1.c ****                         rowSize = CYDEV_EEPROM_ROW_SIZE;
1879:Generated_Source\PSoC4/Bootloader_1.c ****                         upperRange = Bootloader_1_NUMBER_OF_EEPROM_SECTORS * Bootloader_1_NUMBER_OF
1880:Generated_Source\PSoC4/Bootloader_1.c ****                     }
1881:Generated_Source\PSoC4/Bootloader_1.c ****                     else if (btldrData < CY_FLASH_NUMBER_ARRAYS)    
ARM GAS  C:\Users\ASUS\AppData\Local\Temp\ccJim9J2.s 			page 55


1882:Generated_Source\PSoC4/Bootloader_1.c ****                     {
1883:Generated_Source\PSoC4/Bootloader_1.c ****                         startAddr = CY_FLASH_BASE + ((uint32)btldrData * CYDEV_FLS_SECTOR_SIZE) +
1884:Generated_Source\PSoC4/Bootloader_1.c ****                                                      ((uint32)rowNum * CYDEV_FLS_ROW_SIZE);
1885:Generated_Source\PSoC4/Bootloader_1.c ****                         rowSize = CYDEV_FLS_ROW_SIZE;        
1886:Generated_Source\PSoC4/Bootloader_1.c ****                         upperRange = Bootloader_1_NUMBER_OF_ROWS_IN_ARRAY;                        
1887:Generated_Source\PSoC4/Bootloader_1.c ****                     }
1888:Generated_Source\PSoC4/Bootloader_1.c ****                     else
1889:Generated_Source\PSoC4/Bootloader_1.c ****                     {
1890:Generated_Source\PSoC4/Bootloader_1.c ****                         ackCode = Bootloader_1_ERR_ARRAY;
1891:Generated_Source\PSoC4/Bootloader_1.c ****                         break;                              
1892:Generated_Source\PSoC4/Bootloader_1.c ****                     }
1893:Generated_Source\PSoC4/Bootloader_1.c **** 
1894:Generated_Source\PSoC4/Bootloader_1.c ****                     /*Checking if row number is within array address range*/
1895:Generated_Source\PSoC4/Bootloader_1.c ****                     ackCode = Bootloader_1_CHECK_ROW_NUMBER(rowNum, upperRange);
1896:Generated_Source\PSoC4/Bootloader_1.c ****                     
1897:Generated_Source\PSoC4/Bootloader_1.c ****                     if (CYRET_SUCCESS != ackCode)
1898:Generated_Source\PSoC4/Bootloader_1.c ****                     {
1899:Generated_Source\PSoC4/Bootloader_1.c ****                         break;
1900:Generated_Source\PSoC4/Bootloader_1.c ****                     }
1901:Generated_Source\PSoC4/Bootloader_1.c ****                     
1902:Generated_Source\PSoC4/Bootloader_1.c ****                     ackCode = Bootloader_1_VerifyRow(startAddr, dataBuffer, rowSize);
1903:Generated_Source\PSoC4/Bootloader_1.c ****                     
1904:Generated_Source\PSoC4/Bootloader_1.c ****                     /******************************************************************************
1905:Generated_Source\PSoC4/Bootloader_1.c ****                     * If flash row check has completed successfully and ECC is disabled and there i
1906:Generated_Source\PSoC4/Bootloader_1.c ****                     * data in the buffer for ECC row.
1907:Generated_Source\PSoC4/Bootloader_1.c ****                     *******************************************************************************
1908:Generated_Source\PSoC4/Bootloader_1.c ****                     #if (CYDEV_ECC_ENABLE == 0u)
1909:Generated_Source\PSoC4/Bootloader_1.c ****                         if ((CYRET_SUCCESS == ackCode) && (btldrData < CY_FLASH_NUMBER_ARRAYS) && (
1910:Generated_Source\PSoC4/Bootloader_1.c ****                         {
1911:Generated_Source\PSoC4/Bootloader_1.c ****                             startAddr = CYDEV_ECC_BASE + ((uint32)btldrData * (CYDEV_FLS_SECTOR_SIZ
1912:Generated_Source\PSoC4/Bootloader_1.c ****                                         ((uint32)rowNum * CYDEV_ECC_ROW_SIZE);
1913:Generated_Source\PSoC4/Bootloader_1.c ****                                                 
1914:Generated_Source\PSoC4/Bootloader_1.c ****                             ackCode = Bootloader_1_VerifyRow(startAddr, &dataBuffer[rowSize], (uint
1915:Generated_Source\PSoC4/Bootloader_1.c ****                         }
1916:Generated_Source\PSoC4/Bootloader_1.c ****                     #endif /*(CYDEV_ECC_ENABLE == 0u)*/
1917:Generated_Source\PSoC4/Bootloader_1.c ****                     
1918:Generated_Source\PSoC4/Bootloader_1.c ****                 #else /*CY_PSOC4*/
1919:Generated_Source\PSoC4/Bootloader_1.c ****                     if (btldrData < CY_FLASH_NUMBER_ARRAYS)
1920:Generated_Source\PSoC4/Bootloader_1.c ****                     {
1921:Generated_Source\PSoC4/Bootloader_1.c ****                         startAddr = CY_FLASH_BASE + ((uint32)btldrData * CYDEV_FLS_SECTOR_SIZE)
1922:Generated_Source\PSoC4/Bootloader_1.c ****                                             + ((uint32)rowNum * CYDEV_FLS_ROW_SIZE);
1923:Generated_Source\PSoC4/Bootloader_1.c **** 
1924:Generated_Source\PSoC4/Bootloader_1.c ****                         upperRange = Bootloader_1_NUMBER_OF_ROWS_IN_ARRAY;         
1925:Generated_Source\PSoC4/Bootloader_1.c ****                         
1926:Generated_Source\PSoC4/Bootloader_1.c ****                         /*Checking if row number is within array address range*/
1927:Generated_Source\PSoC4/Bootloader_1.c ****                         ackCode = Bootloader_1_CHECK_ROW_NUMBER(rowNum, upperRange);
1928:Generated_Source\PSoC4/Bootloader_1.c ****                     
1929:Generated_Source\PSoC4/Bootloader_1.c ****                         if (CYRET_SUCCESS != ackCode)
1930:Generated_Source\PSoC4/Bootloader_1.c ****                         {
1931:Generated_Source\PSoC4/Bootloader_1.c ****                             break;
1932:Generated_Source\PSoC4/Bootloader_1.c ****                         }
1933:Generated_Source\PSoC4/Bootloader_1.c ****                         
1934:Generated_Source\PSoC4/Bootloader_1.c ****                         ackCode = Bootloader_1_VerifyRow(startAddr, dataBuffer, (uint16)CYDEV_FLS_R
1935:Generated_Source\PSoC4/Bootloader_1.c ****                     }
1936:Generated_Source\PSoC4/Bootloader_1.c ****                     else
1937:Generated_Source\PSoC4/Bootloader_1.c ****                     {
1938:Generated_Source\PSoC4/Bootloader_1.c ****                         ackCode = Bootloader_1_ERR_ARRAY;
ARM GAS  C:\Users\ASUS\AppData\Local\Temp\ccJim9J2.s 			page 56


1939:Generated_Source\PSoC4/Bootloader_1.c ****                         break;                     
1940:Generated_Source\PSoC4/Bootloader_1.c ****                     }
1941:Generated_Source\PSoC4/Bootloader_1.c ****                 #endif  /* (!CY_PSOC4) */
1942:Generated_Source\PSoC4/Bootloader_1.c ****                 
1943:Generated_Source\PSoC4/Bootloader_1.c ****                 } 
1944:Generated_Source\PSoC4/Bootloader_1.c ****                 break;
1945:Generated_Source\PSoC4/Bootloader_1.c ****         #endif /*(0u != Bootloader_1_CMD_VERIFY_ROW_FLS_AVAIL)*/
1946:Generated_Source\PSoC4/Bootloader_1.c **** 
1947:Generated_Source\PSoC4/Bootloader_1.c ****             /***************************************************************************
1948:Generated_Source\PSoC4/Bootloader_1.c ****             *   Get flash size (0x32)
1949:Generated_Source\PSoC4/Bootloader_1.c ****             ***************************************************************************/
1950:Generated_Source\PSoC4/Bootloader_1.c ****             #if(0u != Bootloader_1_CMD_GET_FLASH_SIZE_AVAIL)
1951:Generated_Source\PSoC4/Bootloader_1.c **** 
1952:Generated_Source\PSoC4/Bootloader_1.c ****                 case Bootloader_1_COMMAND_REPORT_SIZE:
1953:Generated_Source\PSoC4/Bootloader_1.c **** 
1954:Generated_Source\PSoC4/Bootloader_1.c ****                     /* btldrData - holds flash array ID sent by host */
1955:Generated_Source\PSoC4/Bootloader_1.c ****                     if((Bootloader_1_COMMUNICATION_STATE_ACTIVE == communicationState) && (pktSize 
 1184              		.loc 1 1955 0
 1185 027c A823     		movs	r3, #168
 1186 027e 9B00     		lsls	r3, r3, #2
 1187 0280 FB18     		adds	r3, r7, r3
 1188 0282 1B78     		ldrb	r3, [r3]
 1189 0284 012B     		cmp	r3, #1
 1190 0286 00D0     		beq	.LCB975
 1191 0288 1FE3     		b	.L107	@long jump
 1192              	.LCB975:
 1193              		.loc 1 1955 0 is_stmt 0 discriminator 1
 1194 028a 3A4B     		ldr	r3, .L114+8
 1195 028c FB18     		adds	r3, r7, r3
 1196 028e 1B88     		ldrh	r3, [r3]
 1197 0290 012B     		cmp	r3, #1
 1198 0292 00D0     		beq	.LCB980
 1199 0294 19E3     		b	.L107	@long jump
 1200              	.LCB980:
1956:Generated_Source\PSoC4/Bootloader_1.c ****                     {
1957:Generated_Source\PSoC4/Bootloader_1.c ****                         if(btldrData < CY_FLASH_NUMBER_ARRAYS)
 1201              		.loc 1 1957 0 is_stmt 1
 1202 0296 3E4B     		ldr	r3, .L114+36
 1203 0298 FB18     		adds	r3, r7, r3
 1204 029a 1B78     		ldrb	r3, [r3]
 1205 029c 002B     		cmp	r3, #0
 1206 029e 00D0     		beq	.LCB985
 1207 02a0 13E3     		b	.L107	@long jump
 1208              	.LCB985:
 1209              	.LBB6:
1958:Generated_Source\PSoC4/Bootloader_1.c ****                         {
1959:Generated_Source\PSoC4/Bootloader_1.c ****                             uint16 CYDATA startRow;
1960:Generated_Source\PSoC4/Bootloader_1.c ****                             uint8  CYDATA arrayIdBtlderEnds;
1961:Generated_Source\PSoC4/Bootloader_1.c **** 
1962:Generated_Source\PSoC4/Bootloader_1.c ****                             /**********************************************************************
1963:Generated_Source\PSoC4/Bootloader_1.c ****                             * - For the flash array where the Bootloader application ends, returns 
1964:Generated_Source\PSoC4/Bootloader_1.c ****                             *   full row after the Bootloader application.
1965:Generated_Source\PSoC4/Bootloader_1.c ****                             *
1966:Generated_Source\PSoC4/Bootloader_1.c ****                             * - For a fully occupied flash array, the number of rows in the array i
1967:Generated_Source\PSoC4/Bootloader_1.c ****                             *   because there is no space for the Bootloadable application in this 
1968:Generated_Source\PSoC4/Bootloader_1.c ****                             *
1969:Generated_Source\PSoC4/Bootloader_1.c ****                             * - For the arrays next to the occupied array, zero is returned.
ARM GAS  C:\Users\ASUS\AppData\Local\Temp\ccJim9J2.s 			page 57


1970:Generated_Source\PSoC4/Bootloader_1.c ****                             *   The Bootloadable application can be written from those arrays begin
1971:Generated_Source\PSoC4/Bootloader_1.c ****                             *
1972:Generated_Source\PSoC4/Bootloader_1.c ****                             *   If this is a Bootloader that is located in an application (Combinat
1973:Generated_Source\PSoC4/Bootloader_1.c ****                             *   then we do not use the Bootloader_1_SizeBytes and Bootloader_1_Size
1974:Generated_Source\PSoC4/Bootloader_1.c ****                             *   variables, instead we take the Launcher's last row from metadata.
1975:Generated_Source\PSoC4/Bootloader_1.c ****                             ***********************************************************************
1976:Generated_Source\PSoC4/Bootloader_1.c ****                         #if (CYDEV_PROJ_TYPE != CYDEV_PROJ_TYPE_LOADABLEANDBOOTLOADER) 
1977:Generated_Source\PSoC4/Bootloader_1.c ****                             arrayIdBtlderEnds = (uint8) (*Bootloader_1_SizeBytesAccess / CY_FLASH_S
 1210              		.loc 1 1977 0
 1211 02a2 3D4B     		ldr	r3, .L114+44
 1212 02a4 1B68     		ldr	r3, [r3]
 1213 02a6 1B68     		ldr	r3, [r3]
 1214 02a8 DA0B     		lsrs	r2, r3, #15
 1215 02aa A423     		movs	r3, #164
 1216 02ac 9B00     		lsls	r3, r3, #2
 1217 02ae FB18     		adds	r3, r7, r3
 1218 02b0 1A70     		strb	r2, [r3]
1978:Generated_Source\PSoC4/Bootloader_1.c **** 
1979:Generated_Source\PSoC4/Bootloader_1.c ****                             if (btldrData == arrayIdBtlderEnds)
 1219              		.loc 1 1979 0
 1220 02b2 374B     		ldr	r3, .L114+36
 1221 02b4 FA18     		adds	r2, r7, r3
 1222 02b6 A423     		movs	r3, #164
 1223 02b8 9B00     		lsls	r3, r3, #2
 1224 02ba FB18     		adds	r3, r7, r3
 1225 02bc 1278     		ldrb	r2, [r2]
 1226 02be 1B78     		ldrb	r3, [r3]
 1227 02c0 9A42     		cmp	r2, r3
 1228 02c2 0BD1     		bne	.L73
1980:Generated_Source\PSoC4/Bootloader_1.c ****                             {
1981:Generated_Source\PSoC4/Bootloader_1.c ****                                 startRow = (uint16) (*Bootloader_1_SizeBytesAccess / CY_FLASH_SIZEO
 1229              		.loc 1 1981 0
 1230 02c4 344B     		ldr	r3, .L114+44
 1231 02c6 1B68     		ldr	r3, [r3]
 1232 02c8 1B68     		ldr	r3, [r3]
 1233 02ca DB09     		lsrs	r3, r3, #7
 1234 02cc 9AB2     		uxth	r2, r3
 1235 02ce A723     		movs	r3, #167
 1236 02d0 9B00     		lsls	r3, r3, #2
 1237 02d2 FB18     		adds	r3, r7, r3
 1238 02d4 FF21     		movs	r1, #255
 1239 02d6 0A40     		ands	r2, r1
 1240 02d8 1A80     		strh	r2, [r3]
 1241 02da 14E0     		b	.L74
 1242              	.L73:
1982:Generated_Source\PSoC4/Bootloader_1.c ****                                             Bootloader_1_NUMBER_OF_ROWS_IN_ARRAY;
1983:Generated_Source\PSoC4/Bootloader_1.c ****                             }
1984:Generated_Source\PSoC4/Bootloader_1.c ****                         #else /*Combination project type*/   
1985:Generated_Source\PSoC4/Bootloader_1.c ****                             btldrLastRow = (uint16)(Bootloader_1_GetMetadata(Bootloader_1_GET_BTLDR
1986:Generated_Source\PSoC4/Bootloader_1.c ****                                                                                 Bootloader_1_MD_BTL
1987:Generated_Source\PSoC4/Bootloader_1.c ****                             arrayIdBtlderEnds = (uint8) (((uint32)btldrLastRow * CY_FLASH_SIZEOF_RO
1988:Generated_Source\PSoC4/Bootloader_1.c ****                             if (btldrData == arrayIdBtlderEnds)
1989:Generated_Source\PSoC4/Bootloader_1.c ****                             {
1990:Generated_Source\PSoC4/Bootloader_1.c ****                                 startRow = (uint16)((btldrLastRow) % Bootloader_1_NUMBER_OF_ROWS_IN
1991:Generated_Source\PSoC4/Bootloader_1.c ****                             }
1992:Generated_Source\PSoC4/Bootloader_1.c ****                         #endif /*(CYDEV_PROJ_TYPE != CYDEV_PROJ_TYPE_LOADABLEANDBOOTLOADER)*/
1993:Generated_Source\PSoC4/Bootloader_1.c ****                         
ARM GAS  C:\Users\ASUS\AppData\Local\Temp\ccJim9J2.s 			page 58


1994:Generated_Source\PSoC4/Bootloader_1.c ****                             else if (btldrData > arrayIdBtlderEnds)
 1243              		.loc 1 1994 0
 1244 02dc 2C4B     		ldr	r3, .L114+36
 1245 02de FA18     		adds	r2, r7, r3
 1246 02e0 A423     		movs	r3, #164
 1247 02e2 9B00     		lsls	r3, r3, #2
 1248 02e4 FB18     		adds	r3, r7, r3
 1249 02e6 1278     		ldrb	r2, [r2]
 1250 02e8 1B78     		ldrb	r3, [r3]
 1251 02ea 9A42     		cmp	r2, r3
 1252 02ec 05D9     		bls	.L75
1995:Generated_Source\PSoC4/Bootloader_1.c ****                             {
1996:Generated_Source\PSoC4/Bootloader_1.c ****                                 startRow = Bootloader_1_FIRST_ROW_IN_ARRAY;
 1253              		.loc 1 1996 0
 1254 02ee A723     		movs	r3, #167
 1255 02f0 9B00     		lsls	r3, r3, #2
 1256 02f2 FB18     		adds	r3, r7, r3
 1257 02f4 0022     		movs	r2, #0
 1258 02f6 1A80     		strh	r2, [r3]
 1259 02f8 05E0     		b	.L74
 1260              	.L75:
1997:Generated_Source\PSoC4/Bootloader_1.c ****                             }
1998:Generated_Source\PSoC4/Bootloader_1.c ****                             else /* (btldrData < ArrayIdBtlderEnds) */
1999:Generated_Source\PSoC4/Bootloader_1.c ****                             {
2000:Generated_Source\PSoC4/Bootloader_1.c ****                                 startRow = Bootloader_1_NUMBER_OF_ROWS_IN_ARRAY;
 1261              		.loc 1 2000 0
 1262 02fa A723     		movs	r3, #167
 1263 02fc 9B00     		lsls	r3, r3, #2
 1264 02fe FB18     		adds	r3, r7, r3
 1265 0300 8022     		movs	r2, #128
 1266 0302 5200     		lsls	r2, r2, #1
 1267 0304 1A80     		strh	r2, [r3]
 1268              	.L74:
2001:Generated_Source\PSoC4/Bootloader_1.c ****                             }
2002:Generated_Source\PSoC4/Bootloader_1.c **** 
2003:Generated_Source\PSoC4/Bootloader_1.c ****                             packetBuffer[Bootloader_1_DATA_ADDR]      = LO8(startRow);
 1269              		.loc 1 2003 0
 1270 0306 A723     		movs	r3, #167
 1271 0308 9B00     		lsls	r3, r3, #2
 1272 030a FB18     		adds	r3, r7, r3
 1273 030c 1B88     		ldrh	r3, [r3]
 1274 030e DAB2     		uxtb	r2, r3
 1275 0310 1C4B     		ldr	r3, .L114+24
 1276 0312 AA21     		movs	r1, #170
 1277 0314 8900     		lsls	r1, r1, #2
 1278 0316 8C46     		mov	ip, r1
 1279 0318 BC44     		add	ip, ip, r7
 1280 031a 6344     		add	r3, r3, ip
 1281 031c 1A71     		strb	r2, [r3, #4]
2004:Generated_Source\PSoC4/Bootloader_1.c ****                             packetBuffer[Bootloader_1_DATA_ADDR + 1u] = HI8(startRow);
 1282              		.loc 1 2004 0
 1283 031e A723     		movs	r3, #167
 1284 0320 9B00     		lsls	r3, r3, #2
 1285 0322 FB18     		adds	r3, r7, r3
 1286 0324 1B88     		ldrh	r3, [r3]
 1287 0326 1B0A     		lsrs	r3, r3, #8
 1288 0328 9BB2     		uxth	r3, r3
ARM GAS  C:\Users\ASUS\AppData\Local\Temp\ccJim9J2.s 			page 59


 1289 032a DAB2     		uxtb	r2, r3
 1290 032c 154B     		ldr	r3, .L114+24
 1291 032e AA21     		movs	r1, #170
 1292 0330 8900     		lsls	r1, r1, #2
 1293 0332 8C46     		mov	ip, r1
 1294 0334 BC44     		add	ip, ip, r7
 1295 0336 6344     		add	r3, r3, ip
 1296 0338 5A71     		strb	r2, [r3, #5]
2005:Generated_Source\PSoC4/Bootloader_1.c **** 
2006:Generated_Source\PSoC4/Bootloader_1.c ****                             packetBuffer[Bootloader_1_DATA_ADDR + 2u] =
 1297              		.loc 1 2006 0
 1298 033a 124B     		ldr	r3, .L114+24
 1299 033c AA22     		movs	r2, #170
 1300 033e 9200     		lsls	r2, r2, #2
 1301 0340 9446     		mov	ip, r2
 1302 0342 BC44     		add	ip, ip, r7
 1303 0344 6344     		add	r3, r3, ip
 1304 0346 FF22     		movs	r2, #255
 1305 0348 9A71     		strb	r2, [r3, #6]
2007:Generated_Source\PSoC4/Bootloader_1.c ****                                         LO8(Bootloader_1_NUMBER_OF_ROWS_IN_ARRAY - 1u);
2008:Generated_Source\PSoC4/Bootloader_1.c **** 
2009:Generated_Source\PSoC4/Bootloader_1.c ****                             packetBuffer[Bootloader_1_DATA_ADDR + 3u] =
 1306              		.loc 1 2009 0
 1307 034a 0E4B     		ldr	r3, .L114+24
 1308 034c AA22     		movs	r2, #170
 1309 034e 9200     		lsls	r2, r2, #2
 1310 0350 9446     		mov	ip, r2
 1311 0352 BC44     		add	ip, ip, r7
 1312 0354 6344     		add	r3, r3, ip
 1313 0356 0022     		movs	r2, #0
 1314 0358 DA71     		strb	r2, [r3, #7]
2010:Generated_Source\PSoC4/Bootloader_1.c ****                                         HI8(Bootloader_1_NUMBER_OF_ROWS_IN_ARRAY - 1u);
2011:Generated_Source\PSoC4/Bootloader_1.c **** 
2012:Generated_Source\PSoC4/Bootloader_1.c ****                             rspSize = Bootloader_1_RSP_SIZE_GET_FLASH_SIZE;
 1315              		.loc 1 2012 0
 1316 035a 0C4B     		ldr	r3, .L114+32
 1317 035c FB18     		adds	r3, r7, r3
 1318 035e 0422     		movs	r2, #4
 1319 0360 1A80     		strh	r2, [r3]
2013:Generated_Source\PSoC4/Bootloader_1.c ****                             ackCode = CYRET_SUCCESS;
 1320              		.loc 1 2013 0
 1321 0362 074B     		ldr	r3, .L114+20
 1322 0364 FB18     		adds	r3, r7, r3
 1323 0366 0022     		movs	r2, #0
 1324 0368 1A70     		strb	r2, [r3]
 1325              	.LBE6:
2014:Generated_Source\PSoC4/Bootloader_1.c ****                         }
2015:Generated_Source\PSoC4/Bootloader_1.c **** 
2016:Generated_Source\PSoC4/Bootloader_1.c ****                     }
2017:Generated_Source\PSoC4/Bootloader_1.c ****                     break;
 1326              		.loc 1 2017 0
 1327 036a AEE2     		b	.L107
 1328              	.L115:
 1329              		.align	2
 1330              	.L114:
 1331 036c 54FDFFFF 		.word	-684
 1332 0370 5FFDFFFF 		.word	-673
ARM GAS  C:\Users\ASUS\AppData\Local\Temp\ccJim9J2.s 			page 60


 1333 0374 A2020000 		.word	674
 1334 0378 A1020000 		.word	673
 1335 037c 9E020000 		.word	670
 1336 0380 A5020000 		.word	677
 1337 0384 ACFEFFFF 		.word	-340
 1338 0388 92020000 		.word	658
 1339 038c A6020000 		.word	678
 1340 0390 91020000 		.word	657
 1341 0394 08000000 		.word	.L63
 1342 0398 00000000 		.word	Bootloader_1_SizeBytesAccess
 1343              	.L65:
2018:Generated_Source\PSoC4/Bootloader_1.c **** 
2019:Generated_Source\PSoC4/Bootloader_1.c ****             #endif  /* (0u != Bootloader_1_CMD_GET_FLASH_SIZE_AVAIL) */
2020:Generated_Source\PSoC4/Bootloader_1.c **** 
2021:Generated_Source\PSoC4/Bootloader_1.c **** 
2022:Generated_Source\PSoC4/Bootloader_1.c ****             /***************************************************************************
2023:Generated_Source\PSoC4/Bootloader_1.c ****             *   Get application status (0x33)
2024:Generated_Source\PSoC4/Bootloader_1.c ****             ***************************************************************************/
2025:Generated_Source\PSoC4/Bootloader_1.c ****             #if ((0u != Bootloader_1_DUAL_APP_BOOTLOADER) || (CYDEV_PROJ_TYPE == CYDEV_PROJ_TYPE_LO
2026:Generated_Source\PSoC4/Bootloader_1.c **** 
2027:Generated_Source\PSoC4/Bootloader_1.c ****                 #if(0u != Bootloader_1_CMD_GET_APP_STATUS_AVAIL)
2028:Generated_Source\PSoC4/Bootloader_1.c **** 
2029:Generated_Source\PSoC4/Bootloader_1.c ****                     case Bootloader_1_COMMAND_APP_STATUS:
2030:Generated_Source\PSoC4/Bootloader_1.c **** 
2031:Generated_Source\PSoC4/Bootloader_1.c ****                         if((Bootloader_1_COMMUNICATION_STATE_ACTIVE == communicationState) && (1u =
2032:Generated_Source\PSoC4/Bootloader_1.c ****                         {
2033:Generated_Source\PSoC4/Bootloader_1.c **** 
2034:Generated_Source\PSoC4/Bootloader_1.c ****                             packetBuffer[Bootloader_1_DATA_ADDR] =
2035:Generated_Source\PSoC4/Bootloader_1.c ****                                 (uint8)Bootloader_1_ValidateBootloadable(btldrData);
2036:Generated_Source\PSoC4/Bootloader_1.c **** 
2037:Generated_Source\PSoC4/Bootloader_1.c ****                             packetBuffer[Bootloader_1_DATA_ADDR + 1u] =
2038:Generated_Source\PSoC4/Bootloader_1.c ****                                 (uint8) Bootloader_1_GetMetadata(Bootloader_1_GET_BTLDB_ACTIVE, btl
2039:Generated_Source\PSoC4/Bootloader_1.c **** 
2040:Generated_Source\PSoC4/Bootloader_1.c ****                             rspSize = Bootloader_1_RSP_SIZE_GET_APP_STATUS;
2041:Generated_Source\PSoC4/Bootloader_1.c ****                             ackCode = CYRET_SUCCESS;
2042:Generated_Source\PSoC4/Bootloader_1.c ****                         }
2043:Generated_Source\PSoC4/Bootloader_1.c ****                         break;
2044:Generated_Source\PSoC4/Bootloader_1.c **** 
2045:Generated_Source\PSoC4/Bootloader_1.c ****                 #endif  /* (0u != Bootloader_1_CMD_GET_APP_STATUS_AVAIL) */
2046:Generated_Source\PSoC4/Bootloader_1.c **** 
2047:Generated_Source\PSoC4/Bootloader_1.c ****             #endif  /* (0u != Bootloader_1_DUAL_APP_BOOTLOADER || (CYDEV_PROJ_TYPE == CYDEV_PROJ_TY
2048:Generated_Source\PSoC4/Bootloader_1.c **** 
2049:Generated_Source\PSoC4/Bootloader_1.c ****             /***************************************************************************
2050:Generated_Source\PSoC4/Bootloader_1.c ****             *   Program / Erase row (0x39 / 0x34)
2051:Generated_Source\PSoC4/Bootloader_1.c ****             ***************************************************************************/
2052:Generated_Source\PSoC4/Bootloader_1.c ****             case Bootloader_1_COMMAND_PROGRAM:
2053:Generated_Source\PSoC4/Bootloader_1.c **** 
2054:Generated_Source\PSoC4/Bootloader_1.c ****             /* btldrData variable holds Flash Array ID */
2055:Generated_Source\PSoC4/Bootloader_1.c **** 
2056:Generated_Source\PSoC4/Bootloader_1.c ****         #if (0u != Bootloader_1_CMD_ERASE_ROW_AVAIL)
2057:Generated_Source\PSoC4/Bootloader_1.c **** 
2058:Generated_Source\PSoC4/Bootloader_1.c ****             case Bootloader_1_COMMAND_ERASE:
2059:Generated_Source\PSoC4/Bootloader_1.c ****                 if (Bootloader_1_COMMAND_ERASE == packetBuffer[Bootloader_1_CMD_ADDR])
 1344              		.loc 1 2059 0
 1345 039c C14B     		ldr	r3, .L116
 1346 039e AA22     		movs	r2, #170
 1347 03a0 9200     		lsls	r2, r2, #2
ARM GAS  C:\Users\ASUS\AppData\Local\Temp\ccJim9J2.s 			page 61


 1348 03a2 9446     		mov	ip, r2
 1349 03a4 BC44     		add	ip, ip, r7
 1350 03a6 6344     		add	r3, r3, ip
 1351 03a8 5B78     		ldrb	r3, [r3, #1]
 1352 03aa 342B     		cmp	r3, #52
 1353 03ac 19D1     		bne	.L76
2060:Generated_Source\PSoC4/Bootloader_1.c ****                 {
2061:Generated_Source\PSoC4/Bootloader_1.c ****                     if ((Bootloader_1_COMMUNICATION_STATE_ACTIVE == communicationState) && (pktSize
 1354              		.loc 1 2061 0
 1355 03ae A823     		movs	r3, #168
 1356 03b0 9B00     		lsls	r3, r3, #2
 1357 03b2 FB18     		adds	r3, r7, r3
 1358 03b4 1B78     		ldrb	r3, [r3]
 1359 03b6 012B     		cmp	r3, #1
 1360 03b8 00D0     		beq	.LCB1131
 1361 03ba 93E2     		b	.L60	@long jump
 1362              	.LCB1131:
 1363              		.loc 1 2061 0 is_stmt 0 discriminator 1
 1364 03bc BA4B     		ldr	r3, .L116+4
 1365 03be FB18     		adds	r3, r7, r3
 1366 03c0 1B88     		ldrh	r3, [r3]
 1367 03c2 032B     		cmp	r3, #3
 1368 03c4 00D0     		beq	.LCB1136
 1369 03c6 8DE2     		b	.L60	@long jump
 1370              	.LCB1136:
2062:Generated_Source\PSoC4/Bootloader_1.c ****                     {
2063:Generated_Source\PSoC4/Bootloader_1.c ****                         #if(!CY_PSOC4)
2064:Generated_Source\PSoC4/Bootloader_1.c ****                             if((btldrData >= Bootloader_1_FIRST_EE_ARRAYID) &&
2065:Generated_Source\PSoC4/Bootloader_1.c ****                                (btldrData <= Bootloader_1_LAST_EE_ARRAYID))
2066:Generated_Source\PSoC4/Bootloader_1.c ****                             {
2067:Generated_Source\PSoC4/Bootloader_1.c ****                                 /* Size of EEPROM row */
2068:Generated_Source\PSoC4/Bootloader_1.c ****                                 dataOffset = CY_EEPROM_SIZEOF_ROW;
2069:Generated_Source\PSoC4/Bootloader_1.c ****                             }
2070:Generated_Source\PSoC4/Bootloader_1.c ****                             else
2071:Generated_Source\PSoC4/Bootloader_1.c ****                             {
2072:Generated_Source\PSoC4/Bootloader_1.c ****                                 /* Size of flash row (depends on ECC configuration) */
2073:Generated_Source\PSoC4/Bootloader_1.c ****                                 dataOffset = Bootloader_1_FROW_SIZE;
2074:Generated_Source\PSoC4/Bootloader_1.c ****                             }
2075:Generated_Source\PSoC4/Bootloader_1.c ****                         #else
2076:Generated_Source\PSoC4/Bootloader_1.c ****                             /* Size of flash row (no ECC available) */
2077:Generated_Source\PSoC4/Bootloader_1.c ****                             dataOffset = Bootloader_1_FROW_SIZE;
 1371              		.loc 1 2077 0 is_stmt 1
 1372 03c8 B84B     		ldr	r3, .L116+8
 1373 03ca FB18     		adds	r3, r7, r3
 1374 03cc 8022     		movs	r2, #128
 1375 03ce 1A80     		strh	r2, [r3]
2078:Generated_Source\PSoC4/Bootloader_1.c ****                         #endif  /* (!CY_PSOC4) */
2079:Generated_Source\PSoC4/Bootloader_1.c **** 
2080:Generated_Source\PSoC4/Bootloader_1.c ****                         #if(CY_PSOC3)
2081:Generated_Source\PSoC4/Bootloader_1.c ****                             (void) memset(dataBuffer, (char8) 0, (int16) dataOffset);
2082:Generated_Source\PSoC4/Bootloader_1.c ****                         #else
2083:Generated_Source\PSoC4/Bootloader_1.c ****                             (void) memset(dataBuffer, 0, (uint32) dataOffset);
 1376              		.loc 1 2083 0
 1377 03d0 B64B     		ldr	r3, .L116+8
 1378 03d2 FB18     		adds	r3, r7, r3
 1379 03d4 1A88     		ldrh	r2, [r3]
 1380 03d6 2823     		movs	r3, #40
ARM GAS  C:\Users\ASUS\AppData\Local\Temp\ccJim9J2.s 			page 62


 1381 03d8 FB18     		adds	r3, r7, r3
 1382 03da 0021     		movs	r1, #0
 1383 03dc 1800     		movs	r0, r3
 1384 03de FFF7FEFF 		bl	memset
 1385              	.L76:
2084:Generated_Source\PSoC4/Bootloader_1.c ****                         #endif  /* (CY_PSOC3) */
2085:Generated_Source\PSoC4/Bootloader_1.c ****                     }
2086:Generated_Source\PSoC4/Bootloader_1.c ****                     else
2087:Generated_Source\PSoC4/Bootloader_1.c ****                     {
2088:Generated_Source\PSoC4/Bootloader_1.c ****                         break;
2089:Generated_Source\PSoC4/Bootloader_1.c ****                     }
2090:Generated_Source\PSoC4/Bootloader_1.c ****                 }
2091:Generated_Source\PSoC4/Bootloader_1.c **** 
2092:Generated_Source\PSoC4/Bootloader_1.c ****         #endif  /* (0u != Bootloader_1_CMD_ERASE_ROW_AVAIL) */
2093:Generated_Source\PSoC4/Bootloader_1.c **** 
