ARM GAS  C:\Users\ASUS\AppData\Local\Temp\ccOr11ZR.s 			page 1


   1              		.syntax unified
   2              		.cpu cortex-m0
   3              		.fpu softvfp
   4              		.eabi_attribute 20, 1
   5              		.eabi_attribute 21, 1
   6              		.eabi_attribute 23, 3
   7              		.eabi_attribute 24, 1
   8              		.eabi_attribute 25, 1
   9              		.eabi_attribute 26, 1
  10              		.eabi_attribute 30, 6
  11              		.eabi_attribute 34, 0
  12              		.eabi_attribute 18, 4
  13              		.thumb
  14              		.syntax unified
  15              		.file	"cyfitter_cfg.c"
  16              		.text
  17              	.Ltext0:
  18              		.cfi_sections	.debug_frame
  19              		.section	.text.CYMEMZERO,"ax",%progbits
  20              		.align	2
  21              		.code	16
  22              		.thumb_func
  23              		.type	CYMEMZERO, %function
  24              	CYMEMZERO:
  25              	.LFB0:
  26              		.file 1 "Generated_Source\\PSoC4\\cyfitter_cfg.c"
   1:Generated_Source\PSoC4/cyfitter_cfg.c **** 
   2:Generated_Source\PSoC4/cyfitter_cfg.c **** /*******************************************************************************
   3:Generated_Source\PSoC4/cyfitter_cfg.c **** * File Name: cyfitter_cfg.c
   4:Generated_Source\PSoC4/cyfitter_cfg.c **** * 
   5:Generated_Source\PSoC4/cyfitter_cfg.c **** * PSoC Creator  4.4
   6:Generated_Source\PSoC4/cyfitter_cfg.c **** *
   7:Generated_Source\PSoC4/cyfitter_cfg.c **** * Description:
   8:Generated_Source\PSoC4/cyfitter_cfg.c **** * This file contains device initialization code.
   9:Generated_Source\PSoC4/cyfitter_cfg.c **** * Except for the user defined sections in CyClockStartupError(), this file should not be modified.
  10:Generated_Source\PSoC4/cyfitter_cfg.c **** * This file is automatically generated by PSoC Creator.
  11:Generated_Source\PSoC4/cyfitter_cfg.c **** *
  12:Generated_Source\PSoC4/cyfitter_cfg.c **** ********************************************************************************
  13:Generated_Source\PSoC4/cyfitter_cfg.c **** * Copyright (c) 2007-2020 Cypress Semiconductor.  All rights reserved.
  14:Generated_Source\PSoC4/cyfitter_cfg.c **** * You may use this file only in accordance with the license, terms, conditions, 
  15:Generated_Source\PSoC4/cyfitter_cfg.c **** * disclaimers, and limitations in the end user license agreement accompanying 
  16:Generated_Source\PSoC4/cyfitter_cfg.c **** * the software package with which this file was provided.
  17:Generated_Source\PSoC4/cyfitter_cfg.c **** ********************************************************************************/
  18:Generated_Source\PSoC4/cyfitter_cfg.c **** 
  19:Generated_Source\PSoC4/cyfitter_cfg.c **** #include <string.h>
  20:Generated_Source\PSoC4/cyfitter_cfg.c **** #include "cytypes.h"
  21:Generated_Source\PSoC4/cyfitter_cfg.c **** #include "cydevice_trm.h"
  22:Generated_Source\PSoC4/cyfitter_cfg.c **** #include "cyfitter.h"
  23:Generated_Source\PSoC4/cyfitter_cfg.c **** #include "CyLib.h"
  24:Generated_Source\PSoC4/cyfitter_cfg.c **** #include "cyfitter_cfg.h"
  25:Generated_Source\PSoC4/cyfitter_cfg.c **** #include "cyapicallbacks.h"
  26:Generated_Source\PSoC4/cyfitter_cfg.c **** 
  27:Generated_Source\PSoC4/cyfitter_cfg.c **** 
  28:Generated_Source\PSoC4/cyfitter_cfg.c **** #if defined(__GNUC__) || defined(__ARMCC_VERSION)
  29:Generated_Source\PSoC4/cyfitter_cfg.c ****     #define CYPACKED 
  30:Generated_Source\PSoC4/cyfitter_cfg.c ****     #define CYPACKED_ATTR __attribute__ ((packed))
  31:Generated_Source\PSoC4/cyfitter_cfg.c ****     #define CYALIGNED __attribute__ ((aligned))
ARM GAS  C:\Users\ASUS\AppData\Local\Temp\ccOr11ZR.s 			page 2


  32:Generated_Source\PSoC4/cyfitter_cfg.c ****     #define CY_CFG_UNUSED __attribute__ ((unused))
  33:Generated_Source\PSoC4/cyfitter_cfg.c ****     #ifndef CY_CFG_SECTION
  34:Generated_Source\PSoC4/cyfitter_cfg.c ****         #define CY_CFG_SECTION __attribute__ ((section(".psocinit")))
  35:Generated_Source\PSoC4/cyfitter_cfg.c ****     #endif
  36:Generated_Source\PSoC4/cyfitter_cfg.c ****     
  37:Generated_Source\PSoC4/cyfitter_cfg.c ****     #if defined(__ARMCC_VERSION)
  38:Generated_Source\PSoC4/cyfitter_cfg.c ****         #define CY_CFG_MEMORY_BARRIER() __memory_changed()
  39:Generated_Source\PSoC4/cyfitter_cfg.c ****     #else
  40:Generated_Source\PSoC4/cyfitter_cfg.c ****         #define CY_CFG_MEMORY_BARRIER() __sync_synchronize()
  41:Generated_Source\PSoC4/cyfitter_cfg.c ****     #endif
  42:Generated_Source\PSoC4/cyfitter_cfg.c ****     
  43:Generated_Source\PSoC4/cyfitter_cfg.c **** #elif defined(__ICCARM__)
  44:Generated_Source\PSoC4/cyfitter_cfg.c ****     #include <intrinsics.h>
  45:Generated_Source\PSoC4/cyfitter_cfg.c **** 
  46:Generated_Source\PSoC4/cyfitter_cfg.c ****     #define CYPACKED __packed
  47:Generated_Source\PSoC4/cyfitter_cfg.c ****     #define CYPACKED_ATTR 
  48:Generated_Source\PSoC4/cyfitter_cfg.c ****     #define CYALIGNED _Pragma("data_alignment=4")
  49:Generated_Source\PSoC4/cyfitter_cfg.c ****     #define CY_CFG_UNUSED _Pragma("diag_suppress=Pe177")
  50:Generated_Source\PSoC4/cyfitter_cfg.c ****     #define CY_CFG_SECTION _Pragma("location=\".psocinit\"")
  51:Generated_Source\PSoC4/cyfitter_cfg.c ****     
  52:Generated_Source\PSoC4/cyfitter_cfg.c ****     #define CY_CFG_MEMORY_BARRIER() __DMB()
  53:Generated_Source\PSoC4/cyfitter_cfg.c ****     
  54:Generated_Source\PSoC4/cyfitter_cfg.c **** #else
  55:Generated_Source\PSoC4/cyfitter_cfg.c ****     #error Unsupported toolchain
  56:Generated_Source\PSoC4/cyfitter_cfg.c **** #endif
  57:Generated_Source\PSoC4/cyfitter_cfg.c **** 
  58:Generated_Source\PSoC4/cyfitter_cfg.c **** #ifndef CYCODE
  59:Generated_Source\PSoC4/cyfitter_cfg.c ****     #define CYCODE
  60:Generated_Source\PSoC4/cyfitter_cfg.c **** #endif
  61:Generated_Source\PSoC4/cyfitter_cfg.c **** #ifndef CYDATA
  62:Generated_Source\PSoC4/cyfitter_cfg.c ****     #define CYDATA
  63:Generated_Source\PSoC4/cyfitter_cfg.c **** #endif
  64:Generated_Source\PSoC4/cyfitter_cfg.c **** #ifndef CYFAR
  65:Generated_Source\PSoC4/cyfitter_cfg.c ****     #define CYFAR
  66:Generated_Source\PSoC4/cyfitter_cfg.c **** #endif
  67:Generated_Source\PSoC4/cyfitter_cfg.c **** #ifndef CYXDATA
  68:Generated_Source\PSoC4/cyfitter_cfg.c ****     #define CYXDATA
  69:Generated_Source\PSoC4/cyfitter_cfg.c **** #endif
  70:Generated_Source\PSoC4/cyfitter_cfg.c **** 
  71:Generated_Source\PSoC4/cyfitter_cfg.c **** 
  72:Generated_Source\PSoC4/cyfitter_cfg.c **** CY_CFG_UNUSED
  73:Generated_Source\PSoC4/cyfitter_cfg.c **** static void CYMEMZERO(void *s, size_t n);
  74:Generated_Source\PSoC4/cyfitter_cfg.c **** CY_CFG_UNUSED
  75:Generated_Source\PSoC4/cyfitter_cfg.c **** static void CYMEMZERO(void *s, size_t n)
  76:Generated_Source\PSoC4/cyfitter_cfg.c **** {
  27              		.loc 1 76 0
  28              		.cfi_startproc
  29              		@ args = 0, pretend = 0, frame = 8
  30              		@ frame_needed = 1, uses_anonymous_args = 0
  31 0000 80B5     		push	{r7, lr}
  32              		.cfi_def_cfa_offset 8
  33              		.cfi_offset 7, -8
  34              		.cfi_offset 14, -4
  35 0002 82B0     		sub	sp, sp, #8
  36              		.cfi_def_cfa_offset 16
  37 0004 00AF     		add	r7, sp, #0
  38              		.cfi_def_cfa_register 7
ARM GAS  C:\Users\ASUS\AppData\Local\Temp\ccOr11ZR.s 			page 3


  39 0006 7860     		str	r0, [r7, #4]
  40 0008 3960     		str	r1, [r7]
  77:Generated_Source\PSoC4/cyfitter_cfg.c **** 	(void)memset(s, 0, n);
  41              		.loc 1 77 0
  42 000a 3A68     		ldr	r2, [r7]
  43 000c 7B68     		ldr	r3, [r7, #4]
  44 000e 0021     		movs	r1, #0
  45 0010 1800     		movs	r0, r3
  46 0012 FFF7FEFF 		bl	memset
  78:Generated_Source\PSoC4/cyfitter_cfg.c **** }
  47              		.loc 1 78 0
  48 0016 C046     		nop
  49 0018 BD46     		mov	sp, r7
  50 001a 02B0     		add	sp, sp, #8
  51              		@ sp needed
  52 001c 80BD     		pop	{r7, pc}
  53              		.cfi_endproc
  54              	.LFE0:
  55              		.size	CYMEMZERO, .-CYMEMZERO
  56 001e C046     		.section	.text.CYCONFIGCPY,"ax",%progbits
  57              		.align	2
  58              		.code	16
  59              		.thumb_func
  60              		.type	CYCONFIGCPY, %function
  61              	CYCONFIGCPY:
  62              	.LFB1:
  79:Generated_Source\PSoC4/cyfitter_cfg.c **** CY_CFG_UNUSED
  80:Generated_Source\PSoC4/cyfitter_cfg.c **** static void CYCONFIGCPY(void *dest, const void *src, size_t n);
  81:Generated_Source\PSoC4/cyfitter_cfg.c **** CY_CFG_UNUSED
  82:Generated_Source\PSoC4/cyfitter_cfg.c **** static void CYCONFIGCPY(void *dest, const void *src, size_t n)
  83:Generated_Source\PSoC4/cyfitter_cfg.c **** {
  63              		.loc 1 83 0
  64              		.cfi_startproc
  65              		@ args = 0, pretend = 0, frame = 16
  66              		@ frame_needed = 1, uses_anonymous_args = 0
  67 0000 80B5     		push	{r7, lr}
  68              		.cfi_def_cfa_offset 8
  69              		.cfi_offset 7, -8
  70              		.cfi_offset 14, -4
  71 0002 84B0     		sub	sp, sp, #16
  72              		.cfi_def_cfa_offset 24
  73 0004 00AF     		add	r7, sp, #0
  74              		.cfi_def_cfa_register 7
  75 0006 F860     		str	r0, [r7, #12]
  76 0008 B960     		str	r1, [r7, #8]
  77 000a 7A60     		str	r2, [r7, #4]
  84:Generated_Source\PSoC4/cyfitter_cfg.c **** 	(void)memcpy(dest, src, n);
  78              		.loc 1 84 0
  79 000c 7A68     		ldr	r2, [r7, #4]
  80 000e B968     		ldr	r1, [r7, #8]
  81 0010 FB68     		ldr	r3, [r7, #12]
  82 0012 1800     		movs	r0, r3
  83 0014 FFF7FEFF 		bl	memcpy
  85:Generated_Source\PSoC4/cyfitter_cfg.c **** }
  84              		.loc 1 85 0
  85 0018 C046     		nop
  86 001a BD46     		mov	sp, r7
ARM GAS  C:\Users\ASUS\AppData\Local\Temp\ccOr11ZR.s 			page 4


  87 001c 04B0     		add	sp, sp, #16
  88              		@ sp needed
  89 001e 80BD     		pop	{r7, pc}
  90              		.cfi_endproc
  91              	.LFE1:
  92              		.size	CYCONFIGCPY, .-CYCONFIGCPY
  93              		.section	.text.CYCONFIGCPYCODE,"ax",%progbits
  94              		.align	2
  95              		.code	16
  96              		.thumb_func
  97              		.type	CYCONFIGCPYCODE, %function
  98              	CYCONFIGCPYCODE:
  99              	.LFB2:
  86:Generated_Source\PSoC4/cyfitter_cfg.c **** CY_CFG_UNUSED
  87:Generated_Source\PSoC4/cyfitter_cfg.c **** static void CYCONFIGCPYCODE(void *dest, const void *src, size_t n);
  88:Generated_Source\PSoC4/cyfitter_cfg.c **** CY_CFG_UNUSED
  89:Generated_Source\PSoC4/cyfitter_cfg.c **** static void CYCONFIGCPYCODE(void *dest, const void *src, size_t n)
  90:Generated_Source\PSoC4/cyfitter_cfg.c **** {
 100              		.loc 1 90 0
 101              		.cfi_startproc
 102              		@ args = 0, pretend = 0, frame = 16
 103              		@ frame_needed = 1, uses_anonymous_args = 0
 104 0000 80B5     		push	{r7, lr}
 105              		.cfi_def_cfa_offset 8
 106              		.cfi_offset 7, -8
 107              		.cfi_offset 14, -4
 108 0002 84B0     		sub	sp, sp, #16
 109              		.cfi_def_cfa_offset 24
 110 0004 00AF     		add	r7, sp, #0
 111              		.cfi_def_cfa_register 7
 112 0006 F860     		str	r0, [r7, #12]
 113 0008 B960     		str	r1, [r7, #8]
 114 000a 7A60     		str	r2, [r7, #4]
  91:Generated_Source\PSoC4/cyfitter_cfg.c **** 	(void)memcpy(dest, src, n);
 115              		.loc 1 91 0
 116 000c 7A68     		ldr	r2, [r7, #4]
 117 000e B968     		ldr	r1, [r7, #8]
 118 0010 FB68     		ldr	r3, [r7, #12]
 119 0012 1800     		movs	r0, r3
 120 0014 FFF7FEFF 		bl	memcpy
  92:Generated_Source\PSoC4/cyfitter_cfg.c **** }
 121              		.loc 1 92 0
 122 0018 C046     		nop
 123 001a BD46     		mov	sp, r7
 124 001c 04B0     		add	sp, sp, #16
 125              		@ sp needed
 126 001e 80BD     		pop	{r7, pc}
 127              		.cfi_endproc
 128              	.LFE2:
 129              		.size	CYCONFIGCPYCODE, .-CYCONFIGCPYCODE
 130              		.section	.psocinit,"ax",%progbits
 131              		.align	2
 132              		.code	16
 133              		.thumb_func
 134              		.type	ClockSetup, %function
 135              	ClockSetup:
 136              	.LFB3:
ARM GAS  C:\Users\ASUS\AppData\Local\Temp\ccOr11ZR.s 			page 5


  93:Generated_Source\PSoC4/cyfitter_cfg.c **** 
  94:Generated_Source\PSoC4/cyfitter_cfg.c **** 
  95:Generated_Source\PSoC4/cyfitter_cfg.c **** 
  96:Generated_Source\PSoC4/cyfitter_cfg.c **** 
  97:Generated_Source\PSoC4/cyfitter_cfg.c **** /* Clock startup error codes                                                   */
  98:Generated_Source\PSoC4/cyfitter_cfg.c **** #define CYCLOCKSTART_NO_ERROR    0u
  99:Generated_Source\PSoC4/cyfitter_cfg.c **** #define CYCLOCKSTART_XTAL_ERROR  1u
 100:Generated_Source\PSoC4/cyfitter_cfg.c **** #define CYCLOCKSTART_32KHZ_ERROR 2u
 101:Generated_Source\PSoC4/cyfitter_cfg.c **** #define CYCLOCKSTART_PLL_ERROR   3u
 102:Generated_Source\PSoC4/cyfitter_cfg.c **** #define CYCLOCKSTART_FLL_ERROR   4u
 103:Generated_Source\PSoC4/cyfitter_cfg.c **** #define CYCLOCKSTART_WCO_ERROR   5u
 104:Generated_Source\PSoC4/cyfitter_cfg.c **** 
 105:Generated_Source\PSoC4/cyfitter_cfg.c **** 
 106:Generated_Source\PSoC4/cyfitter_cfg.c **** #ifdef CY_NEED_CYCLOCKSTARTUPERROR
 107:Generated_Source\PSoC4/cyfitter_cfg.c **** /*******************************************************************************
 108:Generated_Source\PSoC4/cyfitter_cfg.c **** * Function Name: CyClockStartupError
 109:Generated_Source\PSoC4/cyfitter_cfg.c **** ********************************************************************************
 110:Generated_Source\PSoC4/cyfitter_cfg.c **** * Summary:
 111:Generated_Source\PSoC4/cyfitter_cfg.c **** *  If an error is encountered during clock configuration (crystal startup error,
 112:Generated_Source\PSoC4/cyfitter_cfg.c **** *  PLL lock error, etc.), the system will end up here.  Unless reimplemented by
 113:Generated_Source\PSoC4/cyfitter_cfg.c **** *  the customer, this function will stop in an infinite loop.
 114:Generated_Source\PSoC4/cyfitter_cfg.c **** *
 115:Generated_Source\PSoC4/cyfitter_cfg.c **** * Parameters:
 116:Generated_Source\PSoC4/cyfitter_cfg.c **** *   void
 117:Generated_Source\PSoC4/cyfitter_cfg.c **** *
 118:Generated_Source\PSoC4/cyfitter_cfg.c **** * Return:
 119:Generated_Source\PSoC4/cyfitter_cfg.c **** *   void
 120:Generated_Source\PSoC4/cyfitter_cfg.c **** *
 121:Generated_Source\PSoC4/cyfitter_cfg.c **** *******************************************************************************/
 122:Generated_Source\PSoC4/cyfitter_cfg.c **** CY_CFG_UNUSED
 123:Generated_Source\PSoC4/cyfitter_cfg.c **** static void CyClockStartupError(uint8 errorCode);
 124:Generated_Source\PSoC4/cyfitter_cfg.c **** CY_CFG_UNUSED
 125:Generated_Source\PSoC4/cyfitter_cfg.c **** static void CyClockStartupError(uint8 errorCode)
 126:Generated_Source\PSoC4/cyfitter_cfg.c **** {
 127:Generated_Source\PSoC4/cyfitter_cfg.c ****     /* To remove the compiler warning if errorCode not used.                */
 128:Generated_Source\PSoC4/cyfitter_cfg.c ****     errorCode = errorCode;
 129:Generated_Source\PSoC4/cyfitter_cfg.c **** 
 130:Generated_Source\PSoC4/cyfitter_cfg.c ****     /* If we have a clock startup error (bad MHz crystal, PLL lock, etc.),  */
 131:Generated_Source\PSoC4/cyfitter_cfg.c ****     /* we will end up here to allow the customer to implement something to  */
 132:Generated_Source\PSoC4/cyfitter_cfg.c ****     /* deal with the clock condition.                                       */
 133:Generated_Source\PSoC4/cyfitter_cfg.c **** 
 134:Generated_Source\PSoC4/cyfitter_cfg.c **** #ifdef CY_CFG_CLOCK_STARTUP_ERROR_CALLBACK
 135:Generated_Source\PSoC4/cyfitter_cfg.c ****     CY_CFG_Clock_Startup_ErrorCallback();
 136:Generated_Source\PSoC4/cyfitter_cfg.c **** #else
 137:Generated_Source\PSoC4/cyfitter_cfg.c ****     /*  If not using CY_CFG_CLOCK_STARTUP_ERROR_CALLBACK, place your clock startup code here. */
 138:Generated_Source\PSoC4/cyfitter_cfg.c ****     /* `#START CyClockStartupError` */
 139:Generated_Source\PSoC4/cyfitter_cfg.c **** 
 140:Generated_Source\PSoC4/cyfitter_cfg.c **** 
 141:Generated_Source\PSoC4/cyfitter_cfg.c **** 
 142:Generated_Source\PSoC4/cyfitter_cfg.c ****     /* `#END` */
 143:Generated_Source\PSoC4/cyfitter_cfg.c **** 
 144:Generated_Source\PSoC4/cyfitter_cfg.c ****     while(1) {}
 145:Generated_Source\PSoC4/cyfitter_cfg.c **** #endif /* CY_CFG_CLOCK_STARTUP_ERROR_CALLBACK */
 146:Generated_Source\PSoC4/cyfitter_cfg.c **** }
 147:Generated_Source\PSoC4/cyfitter_cfg.c **** #endif
 148:Generated_Source\PSoC4/cyfitter_cfg.c **** 
 149:Generated_Source\PSoC4/cyfitter_cfg.c **** 
ARM GAS  C:\Users\ASUS\AppData\Local\Temp\ccOr11ZR.s 			page 6


 150:Generated_Source\PSoC4/cyfitter_cfg.c **** 
 151:Generated_Source\PSoC4/cyfitter_cfg.c **** /*******************************************************************************
 152:Generated_Source\PSoC4/cyfitter_cfg.c **** * Function Name: ClockSetup
 153:Generated_Source\PSoC4/cyfitter_cfg.c **** ********************************************************************************
 154:Generated_Source\PSoC4/cyfitter_cfg.c **** *
 155:Generated_Source\PSoC4/cyfitter_cfg.c **** * Summary:
 156:Generated_Source\PSoC4/cyfitter_cfg.c **** *   Performs the initialization of all of the clocks in the device based on the
 157:Generated_Source\PSoC4/cyfitter_cfg.c **** *   settings in the Clock tab of the DWR.  This includes enabling the requested
 158:Generated_Source\PSoC4/cyfitter_cfg.c **** *   clocks and setting the necessary dividers to produce the desired frequency. 
 159:Generated_Source\PSoC4/cyfitter_cfg.c **** *
 160:Generated_Source\PSoC4/cyfitter_cfg.c **** * Parameters:
 161:Generated_Source\PSoC4/cyfitter_cfg.c **** *   void
 162:Generated_Source\PSoC4/cyfitter_cfg.c **** *
 163:Generated_Source\PSoC4/cyfitter_cfg.c **** * Return:
 164:Generated_Source\PSoC4/cyfitter_cfg.c **** *   void
 165:Generated_Source\PSoC4/cyfitter_cfg.c **** *
 166:Generated_Source\PSoC4/cyfitter_cfg.c **** *******************************************************************************/
 167:Generated_Source\PSoC4/cyfitter_cfg.c **** static void ClockSetup(void);
 168:Generated_Source\PSoC4/cyfitter_cfg.c **** CY_CFG_SECTION
 169:Generated_Source\PSoC4/cyfitter_cfg.c **** static void ClockSetup(void)
 170:Generated_Source\PSoC4/cyfitter_cfg.c **** {
 137              		.loc 1 170 0
 138              		.cfi_startproc
 139              		@ args = 0, pretend = 0, frame = 0
 140              		@ frame_needed = 1, uses_anonymous_args = 0
 141 0000 80B5     		push	{r7, lr}
 142              		.cfi_def_cfa_offset 8
 143              		.cfi_offset 7, -8
 144              		.cfi_offset 14, -4
 145 0002 00AF     		add	r7, sp, #0
 146              		.cfi_def_cfa_register 7
 171:Generated_Source\PSoC4/cyfitter_cfg.c **** 	/* Enable HALF_EN before trimming for the flash accelerator. */
 172:Generated_Source\PSoC4/cyfitter_cfg.c **** 	CY_SET_REG32((void CYXDATA *)(CYREG_CLK_SELECT), (CY_GET_REG32((void *)CYREG_CLK_SELECT) | 0x00040
 147              		.loc 1 172 0
 148 0004 124B     		ldr	r3, .L5
 149 0006 124A     		ldr	r2, .L5
 150 0008 1268     		ldr	r2, [r2]
 151 000a 8021     		movs	r1, #128
 152 000c C902     		lsls	r1, r1, #11
 153 000e 0A43     		orrs	r2, r1
 154 0010 1A60     		str	r2, [r3]
 173:Generated_Source\PSoC4/cyfitter_cfg.c **** 
 174:Generated_Source\PSoC4/cyfitter_cfg.c **** 	/* Setup and trim IMO based on desired frequency. */
 175:Generated_Source\PSoC4/cyfitter_cfg.c **** 	CySysClkWriteImoFreq(24u);
 155              		.loc 1 175 0
 156 0012 1820     		movs	r0, #24
 157 0014 FFF7FEFF 		bl	CySysClkWriteImoFreq
 176:Generated_Source\PSoC4/cyfitter_cfg.c **** 
 177:Generated_Source\PSoC4/cyfitter_cfg.c **** 	/* Disable HALF_EN since it is not required at this IMO frequency. */
 178:Generated_Source\PSoC4/cyfitter_cfg.c **** 	CY_SET_REG32((void CYXDATA *)(CYREG_CLK_SELECT), (CY_GET_REG32((void *)CYREG_CLK_SELECT) & 0xFFFBF
 158              		.loc 1 178 0
 159 0018 0D4B     		ldr	r3, .L5
 160 001a 0D4A     		ldr	r2, .L5
 161 001c 1268     		ldr	r2, [r2]
 162 001e 0D49     		ldr	r1, .L5+4
 163 0020 0A40     		ands	r2, r1
 164 0022 1A60     		str	r2, [r3]
ARM GAS  C:\Users\ASUS\AppData\Local\Temp\ccOr11ZR.s 			page 7


 179:Generated_Source\PSoC4/cyfitter_cfg.c **** 	/* CYDEV_CLK_ILO_CONFIG Starting address: CYDEV_CLK_ILO_CONFIG */
 180:Generated_Source\PSoC4/cyfitter_cfg.c **** 	CY_SET_REG32((void *)(CYREG_CLK_ILO_CONFIG), 0x80000006u);
 165              		.loc 1 180 0
 166 0024 0C4B     		ldr	r3, .L5+8
 167 0026 0D4A     		ldr	r2, .L5+12
 168 0028 1A60     		str	r2, [r3]
 181:Generated_Source\PSoC4/cyfitter_cfg.c **** 
 182:Generated_Source\PSoC4/cyfitter_cfg.c **** 
 183:Generated_Source\PSoC4/cyfitter_cfg.c **** 	/* CYDEV_CLK_SELECT00 Starting address: CYDEV_CLK_SELECT00 */
 184:Generated_Source\PSoC4/cyfitter_cfg.c **** 	CY_SET_REG32((void *)(CYREG_CLK_SELECT08), 0x00000010u);
 169              		.loc 1 184 0
 170 002a 0D4B     		ldr	r3, .L5+16
 171 002c 1022     		movs	r2, #16
 172 002e 1A60     		str	r2, [r3]
 185:Generated_Source\PSoC4/cyfitter_cfg.c **** 
 186:Generated_Source\PSoC4/cyfitter_cfg.c **** 	/* CYDEV_CLK_IMO_CONFIG Starting address: CYDEV_CLK_IMO_CONFIG */
 187:Generated_Source\PSoC4/cyfitter_cfg.c **** 	CY_SET_REG32((void *)(CYREG_CLK_IMO_CONFIG), 0x80000000u);
 173              		.loc 1 187 0
 174 0030 0C4B     		ldr	r3, .L5+20
 175 0032 8022     		movs	r2, #128
 176 0034 1206     		lsls	r2, r2, #24
 177 0036 1A60     		str	r2, [r3]
 188:Generated_Source\PSoC4/cyfitter_cfg.c **** 
 189:Generated_Source\PSoC4/cyfitter_cfg.c **** 	/* CYDEV_CLK_SELECT Starting address: CYDEV_CLK_SELECT */
 190:Generated_Source\PSoC4/cyfitter_cfg.c **** 	CY_SET_REG32((void *)(CYREG_CLK_SELECT), 0x00000000u);
 178              		.loc 1 190 0
 179 0038 054B     		ldr	r3, .L5
 180 003a 0022     		movs	r2, #0
 181 003c 1A60     		str	r2, [r3]
 191:Generated_Source\PSoC4/cyfitter_cfg.c **** 
 192:Generated_Source\PSoC4/cyfitter_cfg.c **** 	/* CYDEV_CLK_DIVIDER_A00 Starting address: CYDEV_CLK_DIVIDER_A00 */
 193:Generated_Source\PSoC4/cyfitter_cfg.c **** 	CY_SET_REG32((void *)(CYREG_CLK_DIVIDER_A00), 0x8000752Fu);
 182              		.loc 1 193 0
 183 003e 0A4B     		ldr	r3, .L5+24
 184 0040 0A4A     		ldr	r2, .L5+28
 185 0042 1A60     		str	r2, [r3]
 194:Generated_Source\PSoC4/cyfitter_cfg.c **** 
 195:Generated_Source\PSoC4/cyfitter_cfg.c **** 	CY_SET_REG32((void *)(CYREG_WDT_CONFIG), 0x00000000u);
 186              		.loc 1 195 0
 187 0044 0A4B     		ldr	r3, .L5+32
 188 0046 0022     		movs	r2, #0
 189 0048 1A60     		str	r2, [r3]
 196:Generated_Source\PSoC4/cyfitter_cfg.c **** }
 190              		.loc 1 196 0
 191 004a C046     		nop
 192 004c BD46     		mov	sp, r7
 193              		@ sp needed
 194 004e 80BD     		pop	{r7, pc}
 195              	.L6:
 196              		.align	2
 197              	.L5:
 198 0050 00010B40 		.word	1074462976
 199 0054 FFFFFBFF 		.word	-262145
 200 0058 04010B40 		.word	1074462980
 201 005c 06000080 		.word	-2147483642
 202 0060 20020240 		.word	1073873440
 203 0064 08010B40 		.word	1074462984
ARM GAS  C:\Users\ASUS\AppData\Local\Temp\ccOr11ZR.s 			page 8


 204 0068 00000240 		.word	1073872896
 205 006c 2F750080 		.word	-2147453649
 206 0070 0C020B40 		.word	1074463244
 207              		.cfi_endproc
 208              	.LFE3:
 209              		.size	ClockSetup, .-ClockSetup
 210              		.section	.text.AnalogSetDefault,"ax",%progbits
 211              		.align	2
 212              		.code	16
 213              		.thumb_func
 214              		.type	AnalogSetDefault, %function
 215              	AnalogSetDefault:
 216              	.LFB4:
 197:Generated_Source\PSoC4/cyfitter_cfg.c **** 
 198:Generated_Source\PSoC4/cyfitter_cfg.c **** 
 199:Generated_Source\PSoC4/cyfitter_cfg.c **** /* Analog API Functions */
 200:Generated_Source\PSoC4/cyfitter_cfg.c **** 
 201:Generated_Source\PSoC4/cyfitter_cfg.c **** 
 202:Generated_Source\PSoC4/cyfitter_cfg.c **** /*******************************************************************************
 203:Generated_Source\PSoC4/cyfitter_cfg.c **** * Function Name: AnalogSetDefault
 204:Generated_Source\PSoC4/cyfitter_cfg.c **** ********************************************************************************
 205:Generated_Source\PSoC4/cyfitter_cfg.c **** *
 206:Generated_Source\PSoC4/cyfitter_cfg.c **** * Summary:
 207:Generated_Source\PSoC4/cyfitter_cfg.c **** *  Sets up the analog portions of the chip to default values based on chip
 208:Generated_Source\PSoC4/cyfitter_cfg.c **** *  configuration options from the project.
 209:Generated_Source\PSoC4/cyfitter_cfg.c **** *
 210:Generated_Source\PSoC4/cyfitter_cfg.c **** * Parameters:
 211:Generated_Source\PSoC4/cyfitter_cfg.c **** *  void
 212:Generated_Source\PSoC4/cyfitter_cfg.c **** *
 213:Generated_Source\PSoC4/cyfitter_cfg.c **** * Return:
 214:Generated_Source\PSoC4/cyfitter_cfg.c **** *  void
 215:Generated_Source\PSoC4/cyfitter_cfg.c **** *
 216:Generated_Source\PSoC4/cyfitter_cfg.c **** *******************************************************************************/
 217:Generated_Source\PSoC4/cyfitter_cfg.c **** static void AnalogSetDefault(void);
 218:Generated_Source\PSoC4/cyfitter_cfg.c **** static void AnalogSetDefault(void)
 219:Generated_Source\PSoC4/cyfitter_cfg.c **** {
 217              		.loc 1 219 0
 218              		.cfi_startproc
 219              		@ args = 0, pretend = 0, frame = 0
 220              		@ frame_needed = 1, uses_anonymous_args = 0
 221 0000 80B5     		push	{r7, lr}
 222              		.cfi_def_cfa_offset 8
 223              		.cfi_offset 7, -8
 224              		.cfi_offset 14, -4
 225 0002 00AF     		add	r7, sp, #0
 226              		.cfi_def_cfa_register 7
 220:Generated_Source\PSoC4/cyfitter_cfg.c **** }
 227              		.loc 1 220 0
 228 0004 C046     		nop
 229 0006 BD46     		mov	sp, r7
 230              		@ sp needed
 231 0008 80BD     		pop	{r7, pc}
 232              		.cfi_endproc
 233              	.LFE4:
 234              		.size	AnalogSetDefault, .-AnalogSetDefault
 235 000a C046     		.section	.psocinit
 236              		.align	2
ARM GAS  C:\Users\ASUS\AppData\Local\Temp\ccOr11ZR.s 			page 9


 237              		.global	cyfitter_cfg
 238              		.code	16
 239              		.thumb_func
 240              		.type	cyfitter_cfg, %function
 241              	cyfitter_cfg:
 242              	.LFB5:
 221:Generated_Source\PSoC4/cyfitter_cfg.c **** 
 222:Generated_Source\PSoC4/cyfitter_cfg.c **** 
 223:Generated_Source\PSoC4/cyfitter_cfg.c **** 
 224:Generated_Source\PSoC4/cyfitter_cfg.c **** 
 225:Generated_Source\PSoC4/cyfitter_cfg.c **** /*******************************************************************************
 226:Generated_Source\PSoC4/cyfitter_cfg.c **** * Function Name: cyfitter_cfg
 227:Generated_Source\PSoC4/cyfitter_cfg.c **** ********************************************************************************
 228:Generated_Source\PSoC4/cyfitter_cfg.c **** * Summary:
 229:Generated_Source\PSoC4/cyfitter_cfg.c **** *  This function is called by the start-up code for the selected device. It
 230:Generated_Source\PSoC4/cyfitter_cfg.c **** *  performs all of the necessary device configuration based on the design
 231:Generated_Source\PSoC4/cyfitter_cfg.c **** *  settings.  This includes settings from the Design Wide Resources (DWR) such
 232:Generated_Source\PSoC4/cyfitter_cfg.c **** *  as Clocks and Pins as well as any component configuration that is necessary.
 233:Generated_Source\PSoC4/cyfitter_cfg.c **** *
 234:Generated_Source\PSoC4/cyfitter_cfg.c **** * Parameters:
 235:Generated_Source\PSoC4/cyfitter_cfg.c **** *   void
 236:Generated_Source\PSoC4/cyfitter_cfg.c **** *
 237:Generated_Source\PSoC4/cyfitter_cfg.c **** * Return:
 238:Generated_Source\PSoC4/cyfitter_cfg.c **** *   void
 239:Generated_Source\PSoC4/cyfitter_cfg.c **** *
 240:Generated_Source\PSoC4/cyfitter_cfg.c **** *******************************************************************************/
 241:Generated_Source\PSoC4/cyfitter_cfg.c **** CY_CFG_SECTION
 242:Generated_Source\PSoC4/cyfitter_cfg.c **** void cyfitter_cfg(void)
 243:Generated_Source\PSoC4/cyfitter_cfg.c **** {
 243              		.loc 1 243 0
 244              		.cfi_startproc
 245              		@ args = 0, pretend = 0, frame = 24
 246              		@ frame_needed = 1, uses_anonymous_args = 0
 247 0074 80B5     		push	{r7, lr}
 248              		.cfi_def_cfa_offset 8
 249              		.cfi_offset 7, -8
 250              		.cfi_offset 14, -4
 251 0076 86B0     		sub	sp, sp, #24
 252              		.cfi_def_cfa_offset 32
 253 0078 00AF     		add	r7, sp, #0
 254              		.cfi_def_cfa_register 7
 244:Generated_Source\PSoC4/cyfitter_cfg.c **** 	/* Disable interrupts by default. Let user enable if/when they want. */
 245:Generated_Source\PSoC4/cyfitter_cfg.c **** 	CyGlobalIntDisable;
 255              		.loc 1 245 0
 256              		.syntax divided
 257              	@ 245 "Generated_Source\PSoC4\cyfitter_cfg.c" 1
 258 007a 72B6     		CPSID   i
 259              	@ 0 "" 2
 260              		.thumb
 261              		.syntax unified
 262              	.LBB2:
 246:Generated_Source\PSoC4/cyfitter_cfg.c **** 
 247:Generated_Source\PSoC4/cyfitter_cfg.c **** 	{
 248:Generated_Source\PSoC4/cyfitter_cfg.c **** 
 249:Generated_Source\PSoC4/cyfitter_cfg.c **** 		CYPACKED typedef struct {
 250:Generated_Source\PSoC4/cyfitter_cfg.c **** 			void CYFAR *address;
 251:Generated_Source\PSoC4/cyfitter_cfg.c **** 			uint16 size;
ARM GAS  C:\Users\ASUS\AppData\Local\Temp\ccOr11ZR.s 			page 10


 252:Generated_Source\PSoC4/cyfitter_cfg.c **** 		} CYPACKED_ATTR cfg_memset_t;
 253:Generated_Source\PSoC4/cyfitter_cfg.c **** 
 254:Generated_Source\PSoC4/cyfitter_cfg.c **** 
 255:Generated_Source\PSoC4/cyfitter_cfg.c **** 		CYPACKED typedef struct {
 256:Generated_Source\PSoC4/cyfitter_cfg.c **** 			void CYFAR *dest;
 257:Generated_Source\PSoC4/cyfitter_cfg.c **** 			const void CYCODE *src;
 258:Generated_Source\PSoC4/cyfitter_cfg.c **** 			uint16 size;
 259:Generated_Source\PSoC4/cyfitter_cfg.c **** 		} CYPACKED_ATTR cfg_memcpy_t;
 260:Generated_Source\PSoC4/cyfitter_cfg.c **** 
 261:Generated_Source\PSoC4/cyfitter_cfg.c **** 		static const cfg_memset_t CYCODE cfg_memset_list[] = {
 262:Generated_Source\PSoC4/cyfitter_cfg.c **** 			/* address, size */
 263:Generated_Source\PSoC4/cyfitter_cfg.c **** 			{(void CYFAR *)(CYDEV_UDB_P0_U0_BASE), 896u},
 264:Generated_Source\PSoC4/cyfitter_cfg.c **** 			{(void CYFAR *)(CYDEV_UDB_DSI0_BASE), 256u},
 265:Generated_Source\PSoC4/cyfitter_cfg.c **** 			{(void CYFAR *)(CYDEV_UDB_DSI2_BASE), 256u},
 266:Generated_Source\PSoC4/cyfitter_cfg.c **** 		};
 267:Generated_Source\PSoC4/cyfitter_cfg.c **** 
 268:Generated_Source\PSoC4/cyfitter_cfg.c **** 		/* DSISWITCH_0_0 Address: CYDEV_UDB_DSI3_BASE Size (bytes): 128 */
 269:Generated_Source\PSoC4/cyfitter_cfg.c **** 		static const uint8 CYCODE BS_DSISWITCH_0_0_VAL[] = {
 270:Generated_Source\PSoC4/cyfitter_cfg.c **** 			0x00u, 0x00u, 0x00u, 0x00u, 0x00u, 0x00u, 0x00u, 0x00u, 0x00u, 0x00u, 0x00u, 0x00u, 0x00u, 0x00u
 271:Generated_Source\PSoC4/cyfitter_cfg.c **** 			0x00u, 0x00u, 0x00u, 0x00u, 0x00u, 0x00u, 0x00u, 0x00u, 0x80u, 0x00u, 0x00u, 0x00u, 0x00u, 0x00u
 272:Generated_Source\PSoC4/cyfitter_cfg.c **** 			0x00u, 0x00u, 0x00u, 0x00u, 0x00u, 0x00u, 0x00u, 0x00u, 0x00u, 0x00u, 0x00u, 0x00u, 0x00u, 0x00u
 273:Generated_Source\PSoC4/cyfitter_cfg.c **** 			0x00u, 0x00u, 0x00u, 0x00u, 0x00u, 0x00u, 0x00u, 0x00u, 0x00u, 0x00u, 0x00u, 0x00u, 0x00u, 0x00u
 274:Generated_Source\PSoC4/cyfitter_cfg.c **** 			0x00u, 0x00u, 0x00u, 0x00u, 0x00u, 0x00u, 0x00u, 0x00u, 0x00u, 0x00u, 0x00u, 0x00u, 0x00u, 0x00u
 275:Generated_Source\PSoC4/cyfitter_cfg.c **** 			0x00u, 0x00u, 0x00u, 0x00u, 0x00u, 0x00u, 0x00u, 0x00u, 0x00u, 0x00u, 0x00u, 0x00u, 0x00u, 0x00u
 276:Generated_Source\PSoC4/cyfitter_cfg.c **** 			0x00u, 0x00u, 0x00u, 0x00u, 0x00u, 0x00u, 0x00u, 0x00u, 0x00u, 0x00u, 0x00u, 0x00u, 0x00u, 0x00u
 277:Generated_Source\PSoC4/cyfitter_cfg.c **** 			0x00u, 0x00u, 0x00u, 0x00u, 0x00u, 0x00u, 0x00u, 0x00u, 0x00u, 0x00u, 0x00u, 0x00u, 0x00u, 0x00u
 278:Generated_Source\PSoC4/cyfitter_cfg.c **** 
 279:Generated_Source\PSoC4/cyfitter_cfg.c **** 		/* DSI0_0_HV_ROUTING Address: CYDEV_UDB_DSI3_BASE + 0x00000080u Size (bytes): 128 */
 280:Generated_Source\PSoC4/cyfitter_cfg.c **** 		static const uint8 CYCODE BS_DSI0_0_HV_ROUTING_VAL[] = {
 281:Generated_Source\PSoC4/cyfitter_cfg.c **** 			0x00u, 0x00u, 0x00u, 0x00u, 0x00u, 0x00u, 0x00u, 0x00u, 0x00u, 0x00u, 0x00u, 0x00u, 0x40u, 0x00u
 282:Generated_Source\PSoC4/cyfitter_cfg.c **** 			0x00u, 0x00u, 0x00u, 0x00u, 0x00u, 0x00u, 0x00u, 0x00u, 0x00u, 0x00u, 0x00u, 0x00u, 0x00u, 0x00u
 283:Generated_Source\PSoC4/cyfitter_cfg.c **** 			0x00u, 0x00u, 0x00u, 0x00u, 0x00u, 0x00u, 0x00u, 0x00u, 0x00u, 0x00u, 0x00u, 0x00u, 0x00u, 0x00u
 284:Generated_Source\PSoC4/cyfitter_cfg.c **** 			0x00u, 0x00u, 0x00u, 0x00u, 0x00u, 0x00u, 0x00u, 0x00u, 0x00u, 0x00u, 0x00u, 0x00u, 0x00u, 0x00u
 285:Generated_Source\PSoC4/cyfitter_cfg.c **** 			0x00u, 0x00u, 0x00u, 0x00u, 0x00u, 0x00u, 0x08u, 0x00u, 0x00u, 0x00u, 0x00u, 0x00u, 0x00u, 0x00u
 286:Generated_Source\PSoC4/cyfitter_cfg.c **** 			0x00u, 0x00u, 0x00u, 0x00u, 0x00u, 0x00u, 0x00u, 0x00u, 0x00u, 0x00u, 0x00u, 0x00u, 0x00u, 0x00u
 287:Generated_Source\PSoC4/cyfitter_cfg.c **** 			0x00u, 0x00u, 0x00u, 0x00u, 0x00u, 0x00u, 0x08u, 0x00u, 0x00u, 0x00u, 0x00u, 0x00u, 0x00u, 0x00u
 288:Generated_Source\PSoC4/cyfitter_cfg.c **** 			0x00u, 0x00u, 0x00u, 0x00u, 0x00u, 0x00u, 0x00u, 0x00u, 0x00u, 0x00u, 0x00u, 0x00u, 0x00u, 0x00u
 289:Generated_Source\PSoC4/cyfitter_cfg.c **** 
 290:Generated_Source\PSoC4/cyfitter_cfg.c **** 		/* UDB_1_0_HV_ROUTING Address: CYDEV_UDB_P1_ROUTE_BASE + 0x00000080u Size (bytes): 128 */
 291:Generated_Source\PSoC4/cyfitter_cfg.c **** 		static const uint8 CYCODE BS_UDB_1_0_HV_ROUTING_VAL[] = {
 292:Generated_Source\PSoC4/cyfitter_cfg.c **** 			0x00u, 0x00u, 0x00u, 0x00u, 0x00u, 0x00u, 0x00u, 0x00u, 0x00u, 0x00u, 0x00u, 0x00u, 0x00u, 0x00u
 293:Generated_Source\PSoC4/cyfitter_cfg.c **** 			0x00u, 0x00u, 0x00u, 0x00u, 0x00u, 0x00u, 0x00u, 0x00u, 0x00u, 0x00u, 0x00u, 0x00u, 0x00u, 0x00u
 294:Generated_Source\PSoC4/cyfitter_cfg.c **** 			0x00u, 0x00u, 0x00u, 0x00u, 0x00u, 0x00u, 0x00u, 0x00u, 0x00u, 0x00u, 0x00u, 0x00u, 0x00u, 0x00u
 295:Generated_Source\PSoC4/cyfitter_cfg.c **** 			0x00u, 0x00u, 0x00u, 0x00u, 0x00u, 0x00u, 0x00u, 0x00u, 0x00u, 0x00u, 0x00u, 0x00u, 0x00u, 0x00u
 296:Generated_Source\PSoC4/cyfitter_cfg.c **** 			0x00u, 0x00u, 0x00u, 0x00u, 0x00u, 0x00u, 0x00u, 0x00u, 0x00u, 0x00u, 0x00u, 0x00u, 0x00u, 0x00u
 297:Generated_Source\PSoC4/cyfitter_cfg.c **** 			0x00u, 0x00u, 0x00u, 0x00u, 0x00u, 0x00u, 0x00u, 0x00u, 0x00u, 0x00u, 0x00u, 0x00u, 0x00u, 0x00u
 298:Generated_Source\PSoC4/cyfitter_cfg.c **** 			0x00u, 0x00u, 0x00u, 0x00u, 0x00u, 0x00u, 0x10u, 0x00u, 0x00u, 0x00u, 0x00u, 0x00u, 0x00u, 0x00u
 299:Generated_Source\PSoC4/cyfitter_cfg.c **** 			0x00u, 0x00u, 0x00u, 0x00u, 0x00u, 0x00u, 0x00u, 0x00u, 0x00u, 0x00u, 0x00u, 0x00u, 0x00u, 0x00u
 300:Generated_Source\PSoC4/cyfitter_cfg.c **** 
 301:Generated_Source\PSoC4/cyfitter_cfg.c **** 		/* DSISWITCH_1_0 Address: CYDEV_UDB_DSI1_BASE Size (bytes): 128 */
 302:Generated_Source\PSoC4/cyfitter_cfg.c **** 		static const uint8 CYCODE BS_DSISWITCH_1_0_VAL[] = {
 303:Generated_Source\PSoC4/cyfitter_cfg.c **** 			0x00u, 0x00u, 0x00u, 0x00u, 0x00u, 0x00u, 0x00u, 0x00u, 0x00u, 0x00u, 0x00u, 0x00u, 0x00u, 0x00u
 304:Generated_Source\PSoC4/cyfitter_cfg.c **** 			0x00u, 0x00u, 0x00u, 0x00u, 0x00u, 0x00u, 0x00u, 0x00u, 0x00u, 0x00u, 0x00u, 0x00u, 0x00u, 0x00u
 305:Generated_Source\PSoC4/cyfitter_cfg.c **** 			0x00u, 0x00u, 0x00u, 0x00u, 0x00u, 0x00u, 0x00u, 0x00u, 0x00u, 0x00u, 0x00u, 0x00u, 0x00u, 0x00u
 306:Generated_Source\PSoC4/cyfitter_cfg.c **** 			0x00u, 0x00u, 0x00u, 0x00u, 0x00u, 0x00u, 0x00u, 0x00u, 0x00u, 0x00u, 0x00u, 0x00u, 0x00u, 0x00u
 307:Generated_Source\PSoC4/cyfitter_cfg.c **** 			0x00u, 0x00u, 0x00u, 0x00u, 0x00u, 0x00u, 0x00u, 0x00u, 0x00u, 0x00u, 0x00u, 0x00u, 0x00u, 0x00u
 308:Generated_Source\PSoC4/cyfitter_cfg.c **** 			0x00u, 0x00u, 0x00u, 0x00u, 0x00u, 0x00u, 0x00u, 0x00u, 0x00u, 0x00u, 0x00u, 0x00u, 0x00u, 0x00u
ARM GAS  C:\Users\ASUS\AppData\Local\Temp\ccOr11ZR.s 			page 11


 309:Generated_Source\PSoC4/cyfitter_cfg.c **** 			0x00u, 0x00u, 0x04u, 0x00u, 0x00u, 0x00u, 0x00u, 0x00u, 0x00u, 0x00u, 0x00u, 0x00u, 0x00u, 0x00u
 310:Generated_Source\PSoC4/cyfitter_cfg.c **** 			0x00u, 0x00u, 0x00u, 0x00u, 0x00u, 0x00u, 0x00u, 0x00u, 0x00u, 0x00u, 0x00u, 0x00u, 0x00u, 0x00u
 311:Generated_Source\PSoC4/cyfitter_cfg.c **** 
 312:Generated_Source\PSoC4/cyfitter_cfg.c **** 		/* DSI2_0_HV_ROUTING Address: CYDEV_UDB_DSI1_BASE + 0x00000080u Size (bytes): 128 */
 313:Generated_Source\PSoC4/cyfitter_cfg.c **** 		static const uint8 CYCODE BS_DSI2_0_HV_ROUTING_VAL[] = {
 314:Generated_Source\PSoC4/cyfitter_cfg.c **** 			0x00u, 0x00u, 0x00u, 0x00u, 0x00u, 0x00u, 0x00u, 0x00u, 0x00u, 0x00u, 0x00u, 0x00u, 0x00u, 0x00u
 315:Generated_Source\PSoC4/cyfitter_cfg.c **** 			0x00u, 0x00u, 0x00u, 0x00u, 0x00u, 0x00u, 0x00u, 0x00u, 0x00u, 0x00u, 0x00u, 0x00u, 0x00u, 0x00u
 316:Generated_Source\PSoC4/cyfitter_cfg.c **** 			0x00u, 0x00u, 0x00u, 0x00u, 0x00u, 0x00u, 0x00u, 0x00u, 0x00u, 0x00u, 0x00u, 0x00u, 0x00u, 0x00u
 317:Generated_Source\PSoC4/cyfitter_cfg.c **** 			0x00u, 0x00u, 0x00u, 0x00u, 0x00u, 0x00u, 0x00u, 0x00u, 0x00u, 0x00u, 0x00u, 0x00u, 0x00u, 0x00u
 318:Generated_Source\PSoC4/cyfitter_cfg.c **** 			0x00u, 0x00u, 0x00u, 0x00u, 0x00u, 0x00u, 0x00u, 0x00u, 0x00u, 0x00u, 0x00u, 0x00u, 0x00u, 0x00u
 319:Generated_Source\PSoC4/cyfitter_cfg.c **** 			0x00u, 0x00u, 0x00u, 0x00u, 0x00u, 0x00u, 0x00u, 0x00u, 0x40u, 0x00u, 0x00u, 0x00u, 0x00u, 0x00u
 320:Generated_Source\PSoC4/cyfitter_cfg.c **** 			0x00u, 0x00u, 0x00u, 0x00u, 0x00u, 0x00u, 0x00u, 0x00u, 0x00u, 0x00u, 0x00u, 0x00u, 0x00u, 0x00u
 321:Generated_Source\PSoC4/cyfitter_cfg.c **** 			0x00u, 0x00u, 0x00u, 0x00u, 0x00u, 0x00u, 0x00u, 0x00u, 0x00u, 0x00u, 0x00u, 0x00u, 0x00u, 0x00u
 322:Generated_Source\PSoC4/cyfitter_cfg.c **** 
 323:Generated_Source\PSoC4/cyfitter_cfg.c **** 		static const cfg_memcpy_t CYCODE cfg_memcpy_list [] = {
 324:Generated_Source\PSoC4/cyfitter_cfg.c **** 			/* dest, src, size */
 325:Generated_Source\PSoC4/cyfitter_cfg.c **** 			{(void CYFAR *)(CYDEV_UDB_DSI3_BASE), BS_DSISWITCH_0_0_VAL, 128u},
 326:Generated_Source\PSoC4/cyfitter_cfg.c **** 			{(void CYFAR *)(CYDEV_UDB_DSI3_BASE + 0x00000080u), BS_DSI0_0_HV_ROUTING_VAL, 128u},
 327:Generated_Source\PSoC4/cyfitter_cfg.c **** 			{(void CYFAR *)(CYDEV_UDB_P1_ROUTE_BASE + 0x00000080u), BS_UDB_1_0_HV_ROUTING_VAL, 128u},
 328:Generated_Source\PSoC4/cyfitter_cfg.c **** 			{(void CYFAR *)(CYDEV_UDB_DSI1_BASE), BS_DSISWITCH_1_0_VAL, 128u},
 329:Generated_Source\PSoC4/cyfitter_cfg.c **** 			{(void CYFAR *)(CYDEV_UDB_DSI1_BASE + 0x00000080u), BS_DSI2_0_HV_ROUTING_VAL, 128u},
 330:Generated_Source\PSoC4/cyfitter_cfg.c **** 		};
 331:Generated_Source\PSoC4/cyfitter_cfg.c **** 
 332:Generated_Source\PSoC4/cyfitter_cfg.c **** 		uint8 CYDATA i;
 333:Generated_Source\PSoC4/cyfitter_cfg.c **** 
 334:Generated_Source\PSoC4/cyfitter_cfg.c **** 		/* Zero out critical memory blocks before beginning configuration */
 335:Generated_Source\PSoC4/cyfitter_cfg.c **** 		for (i = 0u; i < (sizeof(cfg_memset_list)/sizeof(cfg_memset_list[0])); i++)
 263              		.loc 1 335 0
 264 007c 1723     		movs	r3, #23
 265 007e FB18     		adds	r3, r7, r3
 266 0080 0022     		movs	r2, #0
 267 0082 1A70     		strb	r2, [r3]
 268 0084 25E0     		b	.L9
 269              	.L10:
 270              	.LBB3:
 336:Generated_Source\PSoC4/cyfitter_cfg.c **** 		{
 337:Generated_Source\PSoC4/cyfitter_cfg.c **** 			const cfg_memset_t CYCODE * CYDATA ms = &cfg_memset_list[i];
 271              		.loc 1 337 0 discriminator 3
 272 0086 1723     		movs	r3, #23
 273 0088 FB18     		adds	r3, r7, r3
 274 008a 1A78     		ldrb	r2, [r3]
 275 008c 1300     		movs	r3, r2
 276 008e 5B00     		lsls	r3, r3, #1
 277 0090 9B18     		adds	r3, r3, r2
 278 0092 5B00     		lsls	r3, r3, #1
 279 0094 494A     		ldr	r2, .L13
 280 0096 9B18     		adds	r3, r3, r2
 281 0098 3B61     		str	r3, [r7, #16]
 338:Generated_Source\PSoC4/cyfitter_cfg.c **** 			CYMEMZERO(ms->address, (size_t)(uint32)(ms->size));
 282              		.loc 1 338 0 discriminator 3
 283 009a 3B69     		ldr	r3, [r7, #16]
 284 009c 1A78     		ldrb	r2, [r3]
 285 009e 5978     		ldrb	r1, [r3, #1]
 286 00a0 0902     		lsls	r1, r1, #8
 287 00a2 0A43     		orrs	r2, r1
 288 00a4 9978     		ldrb	r1, [r3, #2]
 289 00a6 0904     		lsls	r1, r1, #16
ARM GAS  C:\Users\ASUS\AppData\Local\Temp\ccOr11ZR.s 			page 12


 290 00a8 0A43     		orrs	r2, r1
 291 00aa DB78     		ldrb	r3, [r3, #3]
 292 00ac 1B06     		lsls	r3, r3, #24
 293 00ae 1343     		orrs	r3, r2
 294 00b0 1800     		movs	r0, r3
 295 00b2 3B69     		ldr	r3, [r7, #16]
 296 00b4 1A79     		ldrb	r2, [r3, #4]
 297 00b6 5B79     		ldrb	r3, [r3, #5]
 298 00b8 1B02     		lsls	r3, r3, #8
 299 00ba 1343     		orrs	r3, r2
 300 00bc 9BB2     		uxth	r3, r3
 301 00be 1900     		movs	r1, r3
 302 00c0 FFF7FEFF 		bl	CYMEMZERO
 303              	.LBE3:
 335:Generated_Source\PSoC4/cyfitter_cfg.c **** 		{
 304              		.loc 1 335 0 discriminator 3
 305 00c4 1723     		movs	r3, #23
 306 00c6 FB18     		adds	r3, r7, r3
 307 00c8 1A78     		ldrb	r2, [r3]
 308 00ca 1723     		movs	r3, #23
 309 00cc FB18     		adds	r3, r7, r3
 310 00ce 0132     		adds	r2, r2, #1
 311 00d0 1A70     		strb	r2, [r3]
 312              	.L9:
 335:Generated_Source\PSoC4/cyfitter_cfg.c **** 		{
 313              		.loc 1 335 0 is_stmt 0 discriminator 1
 314 00d2 1723     		movs	r3, #23
 315 00d4 FB18     		adds	r3, r7, r3
 316 00d6 1B78     		ldrb	r3, [r3]
 317 00d8 022B     		cmp	r3, #2
 318 00da D4D9     		bls	.L10
 339:Generated_Source\PSoC4/cyfitter_cfg.c **** 		}
 340:Generated_Source\PSoC4/cyfitter_cfg.c **** 
 341:Generated_Source\PSoC4/cyfitter_cfg.c **** 		/* Copy device configuration data into registers */
 342:Generated_Source\PSoC4/cyfitter_cfg.c **** 		for (i = 0u; i < (sizeof(cfg_memcpy_list)/sizeof(cfg_memcpy_list[0])); i++)
 319              		.loc 1 342 0 is_stmt 1
 320 00dc 1723     		movs	r3, #23
 321 00de FB18     		adds	r3, r7, r3
 322 00e0 0022     		movs	r2, #0
 323 00e2 1A70     		strb	r2, [r3]
 324 00e4 36E0     		b	.L11
 325              	.L12:
 326              	.LBB4:
 343:Generated_Source\PSoC4/cyfitter_cfg.c **** 		{
 344:Generated_Source\PSoC4/cyfitter_cfg.c **** 			const cfg_memcpy_t CYCODE * CYDATA mc = &cfg_memcpy_list[i];
 327              		.loc 1 344 0 discriminator 3
 328 00e6 1723     		movs	r3, #23
 329 00e8 FB18     		adds	r3, r7, r3
 330 00ea 1A78     		ldrb	r2, [r3]
 331 00ec 1300     		movs	r3, r2
 332 00ee 9B00     		lsls	r3, r3, #2
 333 00f0 9B18     		adds	r3, r3, r2
 334 00f2 5B00     		lsls	r3, r3, #1
 335 00f4 324A     		ldr	r2, .L13+4
 336 00f6 9B18     		adds	r3, r3, r2
 337 00f8 FB60     		str	r3, [r7, #12]
 345:Generated_Source\PSoC4/cyfitter_cfg.c **** 			void * CYDATA destPtr = mc->dest;
ARM GAS  C:\Users\ASUS\AppData\Local\Temp\ccOr11ZR.s 			page 13


 338              		.loc 1 345 0 discriminator 3
 339 00fa FB68     		ldr	r3, [r7, #12]
 340 00fc 1A78     		ldrb	r2, [r3]
 341 00fe 5978     		ldrb	r1, [r3, #1]
 342 0100 0902     		lsls	r1, r1, #8
 343 0102 0A43     		orrs	r2, r1
 344 0104 9978     		ldrb	r1, [r3, #2]
 345 0106 0904     		lsls	r1, r1, #16
 346 0108 0A43     		orrs	r2, r1
 347 010a DB78     		ldrb	r3, [r3, #3]
 348 010c 1B06     		lsls	r3, r3, #24
 349 010e 1343     		orrs	r3, r2
 350 0110 BB60     		str	r3, [r7, #8]
 346:Generated_Source\PSoC4/cyfitter_cfg.c **** 			const void CYCODE * CYDATA srcPtr = mc->src;
 351              		.loc 1 346 0 discriminator 3
 352 0112 FB68     		ldr	r3, [r7, #12]
 353 0114 1A79     		ldrb	r2, [r3, #4]
 354 0116 5979     		ldrb	r1, [r3, #5]
 355 0118 0902     		lsls	r1, r1, #8
 356 011a 0A43     		orrs	r2, r1
 357 011c 9979     		ldrb	r1, [r3, #6]
 358 011e 0904     		lsls	r1, r1, #16
 359 0120 0A43     		orrs	r2, r1
 360 0122 DB79     		ldrb	r3, [r3, #7]
 361 0124 1B06     		lsls	r3, r3, #24
 362 0126 1343     		orrs	r3, r2
 363 0128 7B60     		str	r3, [r7, #4]
 347:Generated_Source\PSoC4/cyfitter_cfg.c **** 			uint16 CYDATA numBytes = mc->size;
 364              		.loc 1 347 0 discriminator 3
 365 012a BA1C     		adds	r2, r7, #2
 366 012c FB68     		ldr	r3, [r7, #12]
 367 012e 197A     		ldrb	r1, [r3, #8]
 368 0130 5B7A     		ldrb	r3, [r3, #9]
 369 0132 1B02     		lsls	r3, r3, #8
 370 0134 0B43     		orrs	r3, r1
 371 0136 1380     		strh	r3, [r2]
 348:Generated_Source\PSoC4/cyfitter_cfg.c **** 			CYCONFIGCPYCODE(destPtr, srcPtr, numBytes);
 372              		.loc 1 348 0 discriminator 3
 373 0138 BB1C     		adds	r3, r7, #2
 374 013a 1A88     		ldrh	r2, [r3]
 375 013c 7968     		ldr	r1, [r7, #4]
 376 013e BB68     		ldr	r3, [r7, #8]
 377 0140 1800     		movs	r0, r3
 378 0142 FFF7FEFF 		bl	CYCONFIGCPYCODE
 379              	.LBE4:
 342:Generated_Source\PSoC4/cyfitter_cfg.c **** 		{
 380              		.loc 1 342 0 discriminator 3
 381 0146 1723     		movs	r3, #23
 382 0148 FB18     		adds	r3, r7, r3
 383 014a 1A78     		ldrb	r2, [r3]
 384 014c 1723     		movs	r3, #23
 385 014e FB18     		adds	r3, r7, r3
 386 0150 0132     		adds	r2, r2, #1
 387 0152 1A70     		strb	r2, [r3]
 388              	.L11:
 342:Generated_Source\PSoC4/cyfitter_cfg.c **** 		{
 389              		.loc 1 342 0 is_stmt 0 discriminator 1
ARM GAS  C:\Users\ASUS\AppData\Local\Temp\ccOr11ZR.s 			page 14


 390 0154 1723     		movs	r3, #23
 391 0156 FB18     		adds	r3, r7, r3
 392 0158 1B78     		ldrb	r3, [r3]
 393 015a 042B     		cmp	r3, #4
 394 015c C3D9     		bls	.L12
 349:Generated_Source\PSoC4/cyfitter_cfg.c **** 		}
 350:Generated_Source\PSoC4/cyfitter_cfg.c **** 
 351:Generated_Source\PSoC4/cyfitter_cfg.c **** 		/* HSIOM Starting address: CYDEV_HSIOM_BASE */
 352:Generated_Source\PSoC4/cyfitter_cfg.c **** 		CY_SET_REG32((void *)(CYREG_HSIOM_PORT_SEL1), 0x03000000u);
 395              		.loc 1 352 0 is_stmt 1
 396 015e 194B     		ldr	r3, .L13+8
 397 0160 C022     		movs	r2, #192
 398 0162 9204     		lsls	r2, r2, #18
 399 0164 1A60     		str	r2, [r3]
 353:Generated_Source\PSoC4/cyfitter_cfg.c **** 		CY_SET_REG32((void *)(CYREG_HSIOM_PORT_SEL3), 0x0000EE00u);
 400              		.loc 1 353 0
 401 0166 184B     		ldr	r3, .L13+12
 402 0168 EE22     		movs	r2, #238
 403 016a 1202     		lsls	r2, r2, #8
 404 016c 1A60     		str	r2, [r3]
 354:Generated_Source\PSoC4/cyfitter_cfg.c **** 
 355:Generated_Source\PSoC4/cyfitter_cfg.c **** 		/* UDB_PA_1 Starting address: CYDEV_UDB_PA1_BASE */
 356:Generated_Source\PSoC4/cyfitter_cfg.c **** 		CY_SET_REG32((void *)(CYDEV_UDB_PA1_BASE), 0x00990000u);
 405              		.loc 1 356 0
 406 016e 174B     		ldr	r3, .L13+16
 407 0170 9922     		movs	r2, #153
 408 0172 1204     		lsls	r2, r2, #16
 409 0174 1A60     		str	r2, [r3]
 357:Generated_Source\PSoC4/cyfitter_cfg.c **** 		CY_SET_REG32((void *)(CYREG_UDB_PA1_CFG8), 0x20000000u);
 410              		.loc 1 357 0
 411 0176 164B     		ldr	r3, .L13+20
 412 0178 8022     		movs	r2, #128
 413 017a 9205     		lsls	r2, r2, #22
 414 017c 1A60     		str	r2, [r3]
 358:Generated_Source\PSoC4/cyfitter_cfg.c **** 
 359:Generated_Source\PSoC4/cyfitter_cfg.c **** 		/* UDB_PA_3 Starting address: CYDEV_UDB_PA3_BASE */
 360:Generated_Source\PSoC4/cyfitter_cfg.c **** 		CY_SET_REG32((void *)(CYDEV_UDB_PA3_BASE), 0x00990000u);
 415              		.loc 1 360 0
 416 017e 154B     		ldr	r3, .L13+24
 417 0180 9922     		movs	r2, #153
 418 0182 1204     		lsls	r2, r2, #16
 419 0184 1A60     		str	r2, [r3]
 361:Generated_Source\PSoC4/cyfitter_cfg.c **** 
 362:Generated_Source\PSoC4/cyfitter_cfg.c **** 		/* Enable digital routing */
 363:Generated_Source\PSoC4/cyfitter_cfg.c **** 		CY_SET_XTND_REG8((void *)CYREG_UDB_UDBIF_BANK_CTL, (uint8)(CY_GET_XTND_REG8((void *)CYREG_UDB_UDB
 420              		.loc 1 363 0
 421 0186 144A     		ldr	r2, .L13+28
 422 0188 134B     		ldr	r3, .L13+28
 423 018a 1B78     		ldrb	r3, [r3]
 424 018c DBB2     		uxtb	r3, r3
 425 018e 0621     		movs	r1, #6
 426 0190 0B43     		orrs	r3, r1
 427 0192 DBB2     		uxtb	r3, r3
 428 0194 1370     		strb	r3, [r2]
 429              	.LBE2:
 364:Generated_Source\PSoC4/cyfitter_cfg.c **** 	}
 365:Generated_Source\PSoC4/cyfitter_cfg.c **** 
ARM GAS  C:\Users\ASUS\AppData\Local\Temp\ccOr11ZR.s 			page 15


 366:Generated_Source\PSoC4/cyfitter_cfg.c **** 	/* Perform second pass device configuration. These items must be configured in specific order afte
 367:Generated_Source\PSoC4/cyfitter_cfg.c **** 	/* IOPINS0_1 Starting address: CYDEV_PRT1_BASE */
 368:Generated_Source\PSoC4/cyfitter_cfg.c **** 	CY_SET_REG32((void *)(CYDEV_PRT1_BASE), 0x00000040u);
 430              		.loc 1 368 0
 431 0196 114B     		ldr	r3, .L13+32
 432 0198 4022     		movs	r2, #64
 433 019a 1A60     		str	r2, [r3]
 369:Generated_Source\PSoC4/cyfitter_cfg.c **** 	CY_SET_REG32((void *)(CYREG_PRT1_PC), 0x00180000u);
 434              		.loc 1 369 0
 435 019c 104B     		ldr	r3, .L13+36
 436 019e C022     		movs	r2, #192
 437 01a0 5203     		lsls	r2, r2, #13
 438 01a2 1A60     		str	r2, [r3]
 370:Generated_Source\PSoC4/cyfitter_cfg.c **** 
 371:Generated_Source\PSoC4/cyfitter_cfg.c **** 	/* IOPINS0_3 Starting address: CYDEV_PRT3_BASE */
 372:Generated_Source\PSoC4/cyfitter_cfg.c **** 	CY_SET_REG32((void *)(CYREG_PRT3_PC), 0x00000D80u);
 439              		.loc 1 372 0
 440 01a4 0F4B     		ldr	r3, .L13+40
 441 01a6 D822     		movs	r2, #216
 442 01a8 1201     		lsls	r2, r2, #4
 443 01aa 1A60     		str	r2, [r3]
 373:Generated_Source\PSoC4/cyfitter_cfg.c **** 
 374:Generated_Source\PSoC4/cyfitter_cfg.c **** 
 375:Generated_Source\PSoC4/cyfitter_cfg.c **** 	/* Setup clocks based on selections from Clock DWR */
 376:Generated_Source\PSoC4/cyfitter_cfg.c **** 	ClockSetup();
 444              		.loc 1 376 0
 445 01ac FFF728FF 		bl	ClockSetup
 377:Generated_Source\PSoC4/cyfitter_cfg.c **** 
 378:Generated_Source\PSoC4/cyfitter_cfg.c **** 	/* Perform basic analog initialization to defaults */
 379:Generated_Source\PSoC4/cyfitter_cfg.c **** 	AnalogSetDefault();
 446              		.loc 1 379 0
 447 01b0 FFF7FEFF 		bl	AnalogSetDefault
 380:Generated_Source\PSoC4/cyfitter_cfg.c **** 
 381:Generated_Source\PSoC4/cyfitter_cfg.c **** }
 448              		.loc 1 381 0
 449 01b4 C046     		nop
 450 01b6 BD46     		mov	sp, r7
 451 01b8 06B0     		add	sp, sp, #24
 452              		@ sp needed
 453 01ba 80BD     		pop	{r7, pc}
 454              	.L14:
 455              		.align	2
 456              	.L13:
 457 01bc 00000000 		.word	cfg_memset_list.4852
 458 01c0 14000000 		.word	cfg_memcpy_list.4858
 459 01c4 04000140 		.word	1073807364
 460 01c8 0C000140 		.word	1073807372
 461 01cc 10500F40 		.word	1074745360
 462 01d0 18500F40 		.word	1074745368
 463 01d4 30500F40 		.word	1074745392
 464 01d8 00700F40 		.word	1074753536
 465 01dc 00010440 		.word	1074004224
 466 01e0 08010440 		.word	1074004232
 467 01e4 08030440 		.word	1074004744
 468              		.cfi_endproc
 469              	.LFE5:
 470              		.size	cyfitter_cfg, .-cyfitter_cfg
ARM GAS  C:\Users\ASUS\AppData\Local\Temp\ccOr11ZR.s 			page 16


 471              		.section	.rodata
 472              		.align	2
 473              		.type	cfg_memset_list.4852, %object
 474              		.size	cfg_memset_list.4852, 18
 475              	cfg_memset_list.4852:
 476 0000 00300F40 		.word	1074737152
 477 0004 8003     		.short	896
 478 0006 00400F40 		.4byte	1074741248
 479 000a 0001     		.short	256
 480 000c 00420F40 		.word	1074741760
 481 0010 0001     		.short	256
 482 0012 0000     		.align	2
 483              		.type	cfg_memcpy_list.4858, %object
 484              		.size	cfg_memcpy_list.4858, 50
 485              	cfg_memcpy_list.4858:
 486 0014 00430F40 		.word	1074742016
 487 0018 48020000 		.word	BS_DSISWITCH_0_0_VAL.4853
 488 001c 8000     		.short	128
 489 001e 80430F40 		.4byte	1074742144
 490 0022 C8010000 		.4byte	BS_DSI0_0_HV_ROUTING_VAL.4854
 491 0026 8000     		.short	128
 492 0028 80330F40 		.word	1074738048
 493 002c 48010000 		.word	BS_UDB_1_0_HV_ROUTING_VAL.4855
 494 0030 8000     		.short	128
 495 0032 00410F40 		.4byte	1074741504
 496 0036 C8000000 		.4byte	BS_DSISWITCH_1_0_VAL.4856
 497 003a 8000     		.short	128
 498 003c 80410F40 		.word	1074741632
 499 0040 48000000 		.word	BS_DSI2_0_HV_ROUTING_VAL.4857
 500 0044 8000     		.short	128
 501 0046 0000     		.align	2
 502              		.type	BS_DSI2_0_HV_ROUTING_VAL.4857, %object
 503              		.size	BS_DSI2_0_HV_ROUTING_VAL.4857, 128
 504              	BS_DSI2_0_HV_ROUTING_VAL.4857:
 505 0048 00       		.byte	0
 506 0049 00       		.byte	0
 507 004a 00       		.byte	0
 508 004b 00       		.byte	0
 509 004c 00       		.byte	0
 510 004d 00       		.byte	0
 511 004e 00       		.byte	0
 512 004f 00       		.byte	0
 513 0050 00       		.byte	0
 514 0051 00       		.byte	0
 515 0052 00       		.byte	0
 516 0053 00       		.byte	0
 517 0054 00       		.byte	0
 518 0055 00       		.byte	0
 519 0056 04       		.byte	4
 520 0057 00       		.byte	0
 521 0058 00       		.byte	0
 522 0059 00       		.byte	0
 523 005a 00       		.byte	0
 524 005b 00       		.byte	0
 525 005c 00       		.byte	0
 526 005d 00       		.byte	0
 527 005e 00       		.byte	0
ARM GAS  C:\Users\ASUS\AppData\Local\Temp\ccOr11ZR.s 			page 17


 528 005f 00       		.byte	0
 529 0060 00       		.byte	0
 530 0061 00       		.byte	0
 531 0062 00       		.byte	0
 532 0063 00       		.byte	0
 533 0064 00       		.byte	0
 534 0065 00       		.byte	0
 535 0066 00       		.byte	0
 536 0067 00       		.byte	0
 537 0068 00       		.byte	0
 538 0069 00       		.byte	0
 539 006a 00       		.byte	0
 540 006b 00       		.byte	0
 541 006c 00       		.byte	0
 542 006d 00       		.byte	0
 543 006e 00       		.byte	0
 544 006f 00       		.byte	0
 545 0070 00       		.byte	0
 546 0071 00       		.byte	0
 547 0072 00       		.byte	0
 548 0073 00       		.byte	0
 549 0074 00       		.byte	0
 550 0075 00       		.byte	0
 551 0076 00       		.byte	0
 552 0077 00       		.byte	0
 553 0078 00       		.byte	0
 554 0079 00       		.byte	0
 555 007a 00       		.byte	0
 556 007b 00       		.byte	0
 557 007c 00       		.byte	0
 558 007d 00       		.byte	0
 559 007e 00       		.byte	0
 560 007f 00       		.byte	0
 561 0080 00       		.byte	0
 562 0081 00       		.byte	0
 563 0082 00       		.byte	0
 564 0083 00       		.byte	0
 565 0084 00       		.byte	0
 566 0085 00       		.byte	0
 567 0086 00       		.byte	0
 568 0087 00       		.byte	0
 569 0088 00       		.byte	0
 570 0089 00       		.byte	0
 571 008a 00       		.byte	0
 572 008b 00       		.byte	0
 573 008c 00       		.byte	0
 574 008d 00       		.byte	0
 575 008e 00       		.byte	0
 576 008f 00       		.byte	0
 577 0090 00       		.byte	0
 578 0091 00       		.byte	0
 579 0092 00       		.byte	0
 580 0093 00       		.byte	0
 581 0094 00       		.byte	0
 582 0095 00       		.byte	0
 583 0096 00       		.byte	0
 584 0097 00       		.byte	0
ARM GAS  C:\Users\ASUS\AppData\Local\Temp\ccOr11ZR.s 			page 18


 585 0098 00       		.byte	0
 586 0099 00       		.byte	0
 587 009a 00       		.byte	0
 588 009b 00       		.byte	0
 589 009c 00       		.byte	0
 590 009d 00       		.byte	0
 591 009e 00       		.byte	0
 592 009f 00       		.byte	0
 593 00a0 40       		.byte	64
 594 00a1 00       		.byte	0
 595 00a2 00       		.byte	0
 596 00a3 00       		.byte	0
 597 00a4 00       		.byte	0
 598 00a5 00       		.byte	0
 599 00a6 00       		.byte	0
 600 00a7 00       		.byte	0
 601 00a8 00       		.byte	0
 602 00a9 00       		.byte	0
 603 00aa 00       		.byte	0
 604 00ab 00       		.byte	0
 605 00ac 00       		.byte	0
 606 00ad 00       		.byte	0
 607 00ae 00       		.byte	0
 608 00af 00       		.byte	0
 609 00b0 00       		.byte	0
 610 00b1 00       		.byte	0
 611 00b2 00       		.byte	0
 612 00b3 00       		.byte	0
 613 00b4 00       		.byte	0
 614 00b5 00       		.byte	0
 615 00b6 00       		.byte	0
 616 00b7 00       		.byte	0
 617 00b8 00       		.byte	0
 618 00b9 00       		.byte	0
 619 00ba 00       		.byte	0
 620 00bb 00       		.byte	0
 621 00bc 00       		.byte	0
 622 00bd 00       		.byte	0
 623 00be 00       		.byte	0
 624 00bf 00       		.byte	0
 625 00c0 00       		.byte	0
 626 00c1 00       		.byte	0
 627 00c2 00       		.byte	0
 628 00c3 00       		.byte	0
 629 00c4 00       		.byte	0
 630 00c5 00       		.byte	0
 631 00c6 00       		.byte	0
 632 00c7 00       		.byte	0
 633              		.align	2
 634              		.type	BS_DSISWITCH_1_0_VAL.4856, %object
 635              		.size	BS_DSISWITCH_1_0_VAL.4856, 128
 636              	BS_DSISWITCH_1_0_VAL.4856:
 637 00c8 00       		.byte	0
 638 00c9 00       		.byte	0
 639 00ca 00       		.byte	0
 640 00cb 00       		.byte	0
 641 00cc 00       		.byte	0
ARM GAS  C:\Users\ASUS\AppData\Local\Temp\ccOr11ZR.s 			page 19


 642 00cd 00       		.byte	0
 643 00ce 00       		.byte	0
 644 00cf 00       		.byte	0
 645 00d0 00       		.byte	0
 646 00d1 00       		.byte	0
 647 00d2 00       		.byte	0
 648 00d3 00       		.byte	0
 649 00d4 00       		.byte	0
 650 00d5 00       		.byte	0
 651 00d6 00       		.byte	0
 652 00d7 00       		.byte	0
 653 00d8 00       		.byte	0
 654 00d9 00       		.byte	0
 655 00da 00       		.byte	0
 656 00db 00       		.byte	0
 657 00dc 00       		.byte	0
 658 00dd 00       		.byte	0
 659 00de 00       		.byte	0
 660 00df 00       		.byte	0
 661 00e0 00       		.byte	0
 662 00e1 00       		.byte	0
 663 00e2 00       		.byte	0
 664 00e3 00       		.byte	0
 665 00e4 00       		.byte	0
 666 00e5 00       		.byte	0
 667 00e6 00       		.byte	0
 668 00e7 00       		.byte	0
 669 00e8 00       		.byte	0
 670 00e9 00       		.byte	0
 671 00ea 00       		.byte	0
 672 00eb 00       		.byte	0
 673 00ec 00       		.byte	0
 674 00ed 00       		.byte	0
 675 00ee 00       		.byte	0
 676 00ef 00       		.byte	0
 677 00f0 00       		.byte	0
 678 00f1 00       		.byte	0
 679 00f2 00       		.byte	0
 680 00f3 00       		.byte	0
 681 00f4 00       		.byte	0
 682 00f5 00       		.byte	0
 683 00f6 00       		.byte	0
 684 00f7 00       		.byte	0
 685 00f8 00       		.byte	0
 686 00f9 00       		.byte	0
 687 00fa 00       		.byte	0
 688 00fb 00       		.byte	0
 689 00fc 00       		.byte	0
 690 00fd 00       		.byte	0
 691 00fe 00       		.byte	0
 692 00ff 00       		.byte	0
 693 0100 00       		.byte	0
 694 0101 00       		.byte	0
 695 0102 00       		.byte	0
 696 0103 00       		.byte	0
 697 0104 00       		.byte	0
 698 0105 00       		.byte	0
ARM GAS  C:\Users\ASUS\AppData\Local\Temp\ccOr11ZR.s 			page 20


 699 0106 00       		.byte	0
 700 0107 00       		.byte	0
 701 0108 00       		.byte	0
 702 0109 00       		.byte	0
 703 010a 00       		.byte	0
 704 010b 00       		.byte	0
 705 010c 00       		.byte	0
 706 010d 00       		.byte	0
 707 010e 00       		.byte	0
 708 010f 00       		.byte	0
 709 0110 00       		.byte	0
 710 0111 00       		.byte	0
 711 0112 00       		.byte	0
 712 0113 00       		.byte	0
 713 0114 00       		.byte	0
 714 0115 00       		.byte	0
 715 0116 00       		.byte	0
 716 0117 00       		.byte	0
 717 0118 00       		.byte	0
 718 0119 00       		.byte	0
 719 011a 00       		.byte	0
 720 011b 00       		.byte	0
 721 011c 00       		.byte	0
 722 011d 00       		.byte	0
 723 011e 00       		.byte	0
 724 011f 00       		.byte	0
 725 0120 00       		.byte	0
 726 0121 00       		.byte	0
 727 0122 00       		.byte	0
 728 0123 00       		.byte	0
 729 0124 00       		.byte	0
 730 0125 00       		.byte	0
 731 0126 00       		.byte	0
 732 0127 00       		.byte	0
 733 0128 00       		.byte	0
 734 0129 00       		.byte	0
 735 012a 04       		.byte	4
 736 012b 00       		.byte	0
 737 012c 00       		.byte	0
 738 012d 00       		.byte	0
 739 012e 00       		.byte	0
 740 012f 00       		.byte	0
 741 0130 00       		.byte	0
 742 0131 00       		.byte	0
 743 0132 00       		.byte	0
 744 0133 00       		.byte	0
 745 0134 00       		.byte	0
 746 0135 00       		.byte	0
 747 0136 00       		.byte	0
 748 0137 00       		.byte	0
 749 0138 00       		.byte	0
 750 0139 00       		.byte	0
 751 013a 00       		.byte	0
 752 013b 00       		.byte	0
 753 013c 00       		.byte	0
 754 013d 00       		.byte	0
 755 013e 00       		.byte	0
ARM GAS  C:\Users\ASUS\AppData\Local\Temp\ccOr11ZR.s 			page 21


 756 013f 00       		.byte	0
 757 0140 00       		.byte	0
 758 0141 00       		.byte	0
 759 0142 00       		.byte	0
 760 0143 00       		.byte	0
 761 0144 00       		.byte	0
 762 0145 00       		.byte	0
 763 0146 00       		.byte	0
 764 0147 00       		.byte	0
 765              		.align	2
 766              		.type	BS_UDB_1_0_HV_ROUTING_VAL.4855, %object
 767              		.size	BS_UDB_1_0_HV_ROUTING_VAL.4855, 128
 768              	BS_UDB_1_0_HV_ROUTING_VAL.4855:
 769 0148 00       		.byte	0
 770 0149 00       		.byte	0
 771 014a 00       		.byte	0
 772 014b 00       		.byte	0
 773 014c 00       		.byte	0
 774 014d 00       		.byte	0
 775 014e 00       		.byte	0
 776 014f 00       		.byte	0
 777 0150 00       		.byte	0
 778 0151 00       		.byte	0
 779 0152 00       		.byte	0
 780 0153 00       		.byte	0
 781 0154 00       		.byte	0
 782 0155 00       		.byte	0
 783 0156 00       		.byte	0
 784 0157 00       		.byte	0
 785 0158 00       		.byte	0
 786 0159 00       		.byte	0
 787 015a 00       		.byte	0
 788 015b 00       		.byte	0
 789 015c 00       		.byte	0
 790 015d 00       		.byte	0
 791 015e 00       		.byte	0
 792 015f 00       		.byte	0
 793 0160 00       		.byte	0
 794 0161 00       		.byte	0
 795 0162 00       		.byte	0
 796 0163 00       		.byte	0
 797 0164 00       		.byte	0
 798 0165 00       		.byte	0
 799 0166 00       		.byte	0
 800 0167 00       		.byte	0
 801 0168 00       		.byte	0
 802 0169 00       		.byte	0
 803 016a 00       		.byte	0
 804 016b 00       		.byte	0
 805 016c 00       		.byte	0
 806 016d 00       		.byte	0
 807 016e 00       		.byte	0
 808 016f 00       		.byte	0
 809 0170 00       		.byte	0
 810 0171 00       		.byte	0
 811 0172 00       		.byte	0
 812 0173 00       		.byte	0
ARM GAS  C:\Users\ASUS\AppData\Local\Temp\ccOr11ZR.s 			page 22


 813 0174 00       		.byte	0
 814 0175 00       		.byte	0
 815 0176 00       		.byte	0
 816 0177 00       		.byte	0
 817 0178 00       		.byte	0
 818 0179 00       		.byte	0
 819 017a 00       		.byte	0
 820 017b 00       		.byte	0
 821 017c 00       		.byte	0
 822 017d 00       		.byte	0
 823 017e 00       		.byte	0
 824 017f 00       		.byte	0
 825 0180 00       		.byte	0
 826 0181 00       		.byte	0
 827 0182 00       		.byte	0
 828 0183 00       		.byte	0
 829 0184 00       		.byte	0
 830 0185 00       		.byte	0
 831 0186 00       		.byte	0
 832 0187 00       		.byte	0
 833 0188 00       		.byte	0
 834 0189 00       		.byte	0
 835 018a 00       		.byte	0
 836 018b 00       		.byte	0
 837 018c 00       		.byte	0
 838 018d 00       		.byte	0
 839 018e 00       		.byte	0
 840 018f 00       		.byte	0
 841 0190 00       		.byte	0
 842 0191 00       		.byte	0
 843 0192 00       		.byte	0
 844 0193 00       		.byte	0
 845 0194 00       		.byte	0
 846 0195 00       		.byte	0
 847 0196 00       		.byte	0
 848 0197 00       		.byte	0
 849 0198 00       		.byte	0
 850 0199 00       		.byte	0
 851 019a 00       		.byte	0
 852 019b 00       		.byte	0
 853 019c 00       		.byte	0
 854 019d 00       		.byte	0
 855 019e 00       		.byte	0
 856 019f 00       		.byte	0
 857 01a0 00       		.byte	0
 858 01a1 00       		.byte	0
 859 01a2 00       		.byte	0
 860 01a3 00       		.byte	0
 861 01a4 00       		.byte	0
 862 01a5 00       		.byte	0
 863 01a6 00       		.byte	0
 864 01a7 00       		.byte	0
 865 01a8 00       		.byte	0
 866 01a9 00       		.byte	0
 867 01aa 00       		.byte	0
 868 01ab 00       		.byte	0
 869 01ac 00       		.byte	0
ARM GAS  C:\Users\ASUS\AppData\Local\Temp\ccOr11ZR.s 			page 23


 870 01ad 00       		.byte	0
 871 01ae 10       		.byte	16
 872 01af 00       		.byte	0
 873 01b0 00       		.byte	0
 874 01b1 00       		.byte	0
 875 01b2 00       		.byte	0
 876 01b3 00       		.byte	0
 877 01b4 00       		.byte	0
 878 01b5 00       		.byte	0
 879 01b6 00       		.byte	0
 880 01b7 00       		.byte	0
 881 01b8 00       		.byte	0
 882 01b9 00       		.byte	0
 883 01ba 00       		.byte	0
 884 01bb 00       		.byte	0
 885 01bc 00       		.byte	0
 886 01bd 00       		.byte	0
 887 01be 00       		.byte	0
 888 01bf 00       		.byte	0
 889 01c0 00       		.byte	0
 890 01c1 00       		.byte	0
 891 01c2 00       		.byte	0
 892 01c3 00       		.byte	0
 893 01c4 00       		.byte	0
 894 01c5 00       		.byte	0
 895 01c6 00       		.byte	0
 896 01c7 00       		.byte	0
 897              		.align	2
 898              		.type	BS_DSI0_0_HV_ROUTING_VAL.4854, %object
 899              		.size	BS_DSI0_0_HV_ROUTING_VAL.4854, 128
 900              	BS_DSI0_0_HV_ROUTING_VAL.4854:
 901 01c8 00       		.byte	0
 902 01c9 00       		.byte	0
 903 01ca 00       		.byte	0
 904 01cb 00       		.byte	0
 905 01cc 00       		.byte	0
 906 01cd 00       		.byte	0
 907 01ce 00       		.byte	0
 908 01cf 00       		.byte	0
 909 01d0 00       		.byte	0
 910 01d1 00       		.byte	0
 911 01d2 00       		.byte	0
 912 01d3 00       		.byte	0
 913 01d4 40       		.byte	64
 914 01d5 00       		.byte	0
 915 01d6 00       		.byte	0
 916 01d7 00       		.byte	0
 917 01d8 00       		.byte	0
 918 01d9 00       		.byte	0
 919 01da 00       		.byte	0
 920 01db 00       		.byte	0
 921 01dc 00       		.byte	0
 922 01dd 00       		.byte	0
 923 01de 00       		.byte	0
 924 01df 00       		.byte	0
 925 01e0 00       		.byte	0
 926 01e1 00       		.byte	0
ARM GAS  C:\Users\ASUS\AppData\Local\Temp\ccOr11ZR.s 			page 24


 927 01e2 00       		.byte	0
 928 01e3 00       		.byte	0
 929 01e4 00       		.byte	0
 930 01e5 00       		.byte	0
 931 01e6 00       		.byte	0
 932 01e7 00       		.byte	0
 933 01e8 00       		.byte	0
 934 01e9 00       		.byte	0
 935 01ea 00       		.byte	0
 936 01eb 00       		.byte	0
 937 01ec 00       		.byte	0
 938 01ed 00       		.byte	0
 939 01ee 00       		.byte	0
 940 01ef 00       		.byte	0
 941 01f0 00       		.byte	0
 942 01f1 00       		.byte	0
 943 01f2 00       		.byte	0
 944 01f3 00       		.byte	0
 945 01f4 00       		.byte	0
 946 01f5 00       		.byte	0
 947 01f6 00       		.byte	0
 948 01f7 00       		.byte	0
 949 01f8 00       		.byte	0
 950 01f9 00       		.byte	0
 951 01fa 00       		.byte	0
 952 01fb 00       		.byte	0
 953 01fc 00       		.byte	0
 954 01fd 00       		.byte	0
 955 01fe 00       		.byte	0
 956 01ff 00       		.byte	0
 957 0200 00       		.byte	0
 958 0201 00       		.byte	0
 959 0202 00       		.byte	0
 960 0203 00       		.byte	0
 961 0204 00       		.byte	0
 962 0205 00       		.byte	0
 963 0206 00       		.byte	0
 964 0207 00       		.byte	0
 965 0208 00       		.byte	0
 966 0209 00       		.byte	0
 967 020a 00       		.byte	0
 968 020b 00       		.byte	0
 969 020c 00       		.byte	0
 970 020d 00       		.byte	0
 971 020e 08       		.byte	8
 972 020f 00       		.byte	0
 973 0210 00       		.byte	0
 974 0211 00       		.byte	0
 975 0212 00       		.byte	0
 976 0213 00       		.byte	0
 977 0214 00       		.byte	0
 978 0215 00       		.byte	0
 979 0216 00       		.byte	0
 980 0217 00       		.byte	0
 981 0218 00       		.byte	0
 982 0219 00       		.byte	0
 983 021a 00       		.byte	0
ARM GAS  C:\Users\ASUS\AppData\Local\Temp\ccOr11ZR.s 			page 25


 984 021b 00       		.byte	0
 985 021c 00       		.byte	0
 986 021d 00       		.byte	0
 987 021e 00       		.byte	0
 988 021f 00       		.byte	0
 989 0220 00       		.byte	0
 990 0221 00       		.byte	0
 991 0222 00       		.byte	0
 992 0223 00       		.byte	0
 993 0224 00       		.byte	0
 994 0225 00       		.byte	0
 995 0226 00       		.byte	0
 996 0227 00       		.byte	0
 997 0228 00       		.byte	0
 998 0229 00       		.byte	0
 999 022a 00       		.byte	0
 1000 022b 00       		.byte	0
 1001 022c 00       		.byte	0
 1002 022d 00       		.byte	0
 1003 022e 08       		.byte	8
 1004 022f 00       		.byte	0
 1005 0230 00       		.byte	0
 1006 0231 00       		.byte	0
 1007 0232 00       		.byte	0
 1008 0233 00       		.byte	0
 1009 0234 00       		.byte	0
 1010 0235 00       		.byte	0
 1011 0236 00       		.byte	0
 1012 0237 00       		.byte	0
 1013 0238 00       		.byte	0
 1014 0239 00       		.byte	0
 1015 023a 00       		.byte	0
 1016 023b 00       		.byte	0
 1017 023c 00       		.byte	0
 1018 023d 00       		.byte	0
 1019 023e 00       		.byte	0
 1020 023f 00       		.byte	0
 1021 0240 00       		.byte	0
 1022 0241 00       		.byte	0
 1023 0242 00       		.byte	0
 1024 0243 00       		.byte	0
 1025 0244 00       		.byte	0
 1026 0245 00       		.byte	0
 1027 0246 00       		.byte	0
 1028 0247 00       		.byte	0
 1029              		.align	2
 1030              		.type	BS_DSISWITCH_0_0_VAL.4853, %object
 1031              		.size	BS_DSISWITCH_0_0_VAL.4853, 128
 1032              	BS_DSISWITCH_0_0_VAL.4853:
 1033 0248 00       		.byte	0
 1034 0249 00       		.byte	0
 1035 024a 00       		.byte	0
 1036 024b 00       		.byte	0
 1037 024c 00       		.byte	0
 1038 024d 00       		.byte	0
 1039 024e 00       		.byte	0
 1040 024f 00       		.byte	0
ARM GAS  C:\Users\ASUS\AppData\Local\Temp\ccOr11ZR.s 			page 26


 1041 0250 00       		.byte	0
 1042 0251 00       		.byte	0
 1043 0252 00       		.byte	0
 1044 0253 00       		.byte	0
 1045 0254 00       		.byte	0
 1046 0255 00       		.byte	0
 1047 0256 00       		.byte	0
 1048 0257 00       		.byte	0
 1049 0258 00       		.byte	0
 1050 0259 00       		.byte	0
 1051 025a 00       		.byte	0
 1052 025b 00       		.byte	0
 1053 025c 00       		.byte	0
 1054 025d 00       		.byte	0
 1055 025e 00       		.byte	0
 1056 025f 00       		.byte	0
 1057 0260 80       		.byte	-128
 1058 0261 00       		.byte	0
 1059 0262 00       		.byte	0
 1060 0263 00       		.byte	0
 1061 0264 00       		.byte	0
 1062 0265 00       		.byte	0
 1063 0266 00       		.byte	0
 1064 0267 00       		.byte	0
 1065 0268 00       		.byte	0
 1066 0269 00       		.byte	0
 1067 026a 00       		.byte	0
 1068 026b 00       		.byte	0
 1069 026c 00       		.byte	0
 1070 026d 00       		.byte	0
 1071 026e 00       		.byte	0
 1072 026f 00       		.byte	0
 1073 0270 00       		.byte	0
 1074 0271 00       		.byte	0
 1075 0272 00       		.byte	0
 1076 0273 00       		.byte	0
 1077 0274 00       		.byte	0
 1078 0275 00       		.byte	0
 1079 0276 00       		.byte	0
 1080 0277 00       		.byte	0
 1081 0278 00       		.byte	0
 1082 0279 00       		.byte	0
 1083 027a 00       		.byte	0
 1084 027b 00       		.byte	0
 1085 027c 00       		.byte	0
 1086 027d 00       		.byte	0
 1087 027e 00       		.byte	0
 1088 027f 00       		.byte	0
 1089 0280 00       		.byte	0
 1090 0281 00       		.byte	0
 1091 0282 00       		.byte	0
 1092 0283 00       		.byte	0
 1093 0284 00       		.byte	0
 1094 0285 00       		.byte	0
 1095 0286 00       		.byte	0
 1096 0287 00       		.byte	0
 1097 0288 00       		.byte	0
ARM GAS  C:\Users\ASUS\AppData\Local\Temp\ccOr11ZR.s 			page 27


 1098 0289 00       		.byte	0
 1099 028a 00       		.byte	0
 1100 028b 00       		.byte	0
 1101 028c 00       		.byte	0
 1102 028d 00       		.byte	0
 1103 028e 00       		.byte	0
 1104 028f 00       		.byte	0
 1105 0290 00       		.byte	0
 1106 0291 00       		.byte	0
 1107 0292 00       		.byte	0
 1108 0293 00       		.byte	0
 1109 0294 00       		.byte	0
 1110 0295 00       		.byte	0
 1111 0296 00       		.byte	0
 1112 0297 00       		.byte	0
 1113 0298 00       		.byte	0
 1114 0299 00       		.byte	0
 1115 029a 00       		.byte	0
 1116 029b 00       		.byte	0
 1117 029c 00       		.byte	0
 1118 029d 00       		.byte	0
 1119 029e 00       		.byte	0
 1120 029f 00       		.byte	0
 1121 02a0 00       		.byte	0
 1122 02a1 00       		.byte	0
 1123 02a2 00       		.byte	0
 1124 02a3 00       		.byte	0
 1125 02a4 00       		.byte	0
 1126 02a5 00       		.byte	0
 1127 02a6 00       		.byte	0
 1128 02a7 00       		.byte	0
 1129 02a8 00       		.byte	0
 1130 02a9 00       		.byte	0
 1131 02aa 00       		.byte	0
 1132 02ab 00       		.byte	0
 1133 02ac 00       		.byte	0
 1134 02ad 00       		.byte	0
 1135 02ae 00       		.byte	0
 1136 02af 00       		.byte	0
 1137 02b0 00       		.byte	0
 1138 02b1 00       		.byte	0
 1139 02b2 00       		.byte	0
 1140 02b3 00       		.byte	0
 1141 02b4 00       		.byte	0
 1142 02b5 00       		.byte	0
 1143 02b6 00       		.byte	0
 1144 02b7 00       		.byte	0
 1145 02b8 00       		.byte	0
 1146 02b9 00       		.byte	0
 1147 02ba 00       		.byte	0
 1148 02bb 00       		.byte	0
 1149 02bc 00       		.byte	0
 1150 02bd 00       		.byte	0
 1151 02be 00       		.byte	0
 1152 02bf 00       		.byte	0
 1153 02c0 00       		.byte	0
 1154 02c1 00       		.byte	0
ARM GAS  C:\Users\ASUS\AppData\Local\Temp\ccOr11ZR.s 			page 28


 1155 02c2 00       		.byte	0
 1156 02c3 00       		.byte	0
 1157 02c4 00       		.byte	0
 1158 02c5 00       		.byte	0
 1159 02c6 00       		.byte	0
 1160 02c7 00       		.byte	0
 1161              		.text
 1162              	.Letext0:
 1163              		.file 2 "c:\\program files (x86)\\cypress\\psoc creator\\4.4\\psoc creator\\import\\gnu\\arm\\5.4.
 1164              		.file 3 "Generated_Source\\PSoC4\\cytypes.h"