ARM GAS  C:\Users\ASUS\AppData\Local\Temp\ccYDUrWd.s 			page 1


   1              		.syntax unified
   2              		.cpu cortex-m0
   3              		.fpu softvfp
   4              		.eabi_attribute 20, 1
   5              		.eabi_attribute 21, 1
   6              		.eabi_attribute 23, 3
   7              		.eabi_attribute 24, 1
   8              		.eabi_attribute 25, 1
   9              		.eabi_attribute 26, 1
  10              		.eabi_attribute 30, 6
  11              		.eabi_attribute 34, 0
  12              		.eabi_attribute 18, 4
  13              		.thumb
  14              		.syntax unified
  15              		.file	"CyLFClk.c"
  16              		.text
  17              	.Ltext0:
  18              		.cfi_sections	.debug_frame
  19              		.bss
  20              		.align	2
  21              	lfclkPosedgeWdtCounter0Enabled:
  22 0000 00000000 		.space	4
  23              		.align	2
  24              	lfclkPosedgeWdtCounter0Mode:
  25 0004 00000000 		.space	4
  26              		.align	2
  27              	disableServicedIsr:
  28 0008 00000000 		.space	4
  29              		.data
  30              		.align	2
  31              		.type	wdtIsrMask, %object
  32              		.size	wdtIsrMask, 4
  33              	wdtIsrMask:
  34 0000 04040400 		.word	263172
  35              		.section	.rodata
  36              		.align	2
  37              		.type	counterIntMaskTbl, %object
  38              		.size	counterIntMaskTbl, 12
  39              	counterIntMaskTbl:
  40 0000 04000000 		.word	4
  41 0004 00040000 		.word	1024
  42 0008 00000400 		.word	262144
  43              		.bss
  44              		.align	2
  45              	cySysWdtCallback:
  46 000c 00000000 		.space	12
  46      00000000 
  46      00000000 
  47              		.section	.text.CySysClkIloStart,"ax",%progbits
  48              		.align	2
  49              		.global	CySysClkIloStart
  50              		.code	16
  51              		.thumb_func
  52              		.type	CySysClkIloStart, %function
  53              	CySysClkIloStart:
  54              	.LFB0:
  55              		.file 1 "Generated_Source\\PSoC4\\CyLFClk.c"
ARM GAS  C:\Users\ASUS\AppData\Local\Temp\ccYDUrWd.s 			page 2


   1:Generated_Source\PSoC4/CyLFClk.c **** /***************************************************************************//**
   2:Generated_Source\PSoC4/CyLFClk.c **** * \file .c
   3:Generated_Source\PSoC4/CyLFClk.c **** * \version 1.20
   4:Generated_Source\PSoC4/CyLFClk.c **** *
   5:Generated_Source\PSoC4/CyLFClk.c **** * \brief
   6:Generated_Source\PSoC4/CyLFClk.c **** *  This file provides the source code for configuring watchdog timers WDTs, 
   7:Generated_Source\PSoC4/CyLFClk.c **** *  low frequency clocks (LFCLK) and the Real-time Clock (RTC) component in
   8:Generated_Source\PSoC4/CyLFClk.c **** *  PSoC Creator for the PSoC 4 families.
   9:Generated_Source\PSoC4/CyLFClk.c **** *
  10:Generated_Source\PSoC4/CyLFClk.c **** ********************************************************************************
  11:Generated_Source\PSoC4/CyLFClk.c **** * \copyright
  12:Generated_Source\PSoC4/CyLFClk.c **** * Copyright 2008-2017, Cypress Semiconductor Corporation.  All rights reserved.
  13:Generated_Source\PSoC4/CyLFClk.c **** * You may use this file only in accordance with the license, terms, conditions,
  14:Generated_Source\PSoC4/CyLFClk.c **** * disclaimers, and limitations in the end user license agreement accompanying
  15:Generated_Source\PSoC4/CyLFClk.c **** * the software package with which this file was provided.
  16:Generated_Source\PSoC4/CyLFClk.c **** *******************************************************************************/
  17:Generated_Source\PSoC4/CyLFClk.c **** 
  18:Generated_Source\PSoC4/CyLFClk.c **** 
  19:Generated_Source\PSoC4/CyLFClk.c **** #include "CyLFClk.h"
  20:Generated_Source\PSoC4/CyLFClk.c **** #include "CyLib.h"
  21:Generated_Source\PSoC4/CyLFClk.c **** 
  22:Generated_Source\PSoC4/CyLFClk.c **** #if (CY_IP_WCO && CY_IP_SRSSV2)
  23:Generated_Source\PSoC4/CyLFClk.c ****     static uint32 CySysClkGetLfclkSource(void);
  24:Generated_Source\PSoC4/CyLFClk.c **** #endif /* (CY_IP_WCO && CY_IP_SRSSV2) */
  25:Generated_Source\PSoC4/CyLFClk.c **** 
  26:Generated_Source\PSoC4/CyLFClk.c **** 
  27:Generated_Source\PSoC4/CyLFClk.c **** #if(CY_IP_SRSSV2 && (!CY_IP_CPUSS))
  28:Generated_Source\PSoC4/CyLFClk.c ****     /* Default Ilo Trim Register value for ILO trimming*/
  29:Generated_Source\PSoC4/CyLFClk.c ****     static volatile uint16 defaultIloTrimRegValue = CY_SYS_CLK_ILO_TRIM_DEFAULT_VALUE;
  30:Generated_Source\PSoC4/CyLFClk.c **** #endif /* (CY_IP_SRSSV2 && (!CY_IP_CPUSS)) */
  31:Generated_Source\PSoC4/CyLFClk.c **** 
  32:Generated_Source\PSoC4/CyLFClk.c **** #if(CY_IP_SRSSV2)
  33:Generated_Source\PSoC4/CyLFClk.c ****     /* CySysClkLfclkPosedgeCatch() / CySysClkLfclkPosedgeRestore() */
  34:Generated_Source\PSoC4/CyLFClk.c ****     static uint32 lfclkPosedgeWdtCounter0Enabled = 0u;
  35:Generated_Source\PSoC4/CyLFClk.c ****     static uint32 lfclkPosedgeWdtCounter0Mode    = CY_SYS_WDT_MODE_NONE;
  36:Generated_Source\PSoC4/CyLFClk.c **** 
  37:Generated_Source\PSoC4/CyLFClk.c ****     static volatile uint32 disableServicedIsr = 0uL;
  38:Generated_Source\PSoC4/CyLFClk.c ****     static volatile uint32 wdtIsrMask = CY_SYS_WDT_COUNTER0_INT |\
  39:Generated_Source\PSoC4/CyLFClk.c ****                                         CY_SYS_WDT_COUNTER1_INT |\
  40:Generated_Source\PSoC4/CyLFClk.c ****                                         CY_SYS_WDT_COUNTER2_INT;
  41:Generated_Source\PSoC4/CyLFClk.c **** 
  42:Generated_Source\PSoC4/CyLFClk.c ****     static const uint32 counterIntMaskTbl[CY_WDT_NUM_OF_WDT] = {CY_SYS_WDT_COUNTER0_INT,
  43:Generated_Source\PSoC4/CyLFClk.c ****                                                                 CY_SYS_WDT_COUNTER1_INT,
  44:Generated_Source\PSoC4/CyLFClk.c ****                                                                 CY_SYS_WDT_COUNTER2_INT};
  45:Generated_Source\PSoC4/CyLFClk.c **** 
  46:Generated_Source\PSoC4/CyLFClk.c ****     static void CySysClkLfclkPosedgeCatch(void);
  47:Generated_Source\PSoC4/CyLFClk.c ****     static void CySysClkLfclkPosedgeRestore(void);
  48:Generated_Source\PSoC4/CyLFClk.c **** 
  49:Generated_Source\PSoC4/CyLFClk.c ****     static uint32 CySysWdtLocked(void);
  50:Generated_Source\PSoC4/CyLFClk.c ****     static uint32 CySysClkIloEnabled(void);
  51:Generated_Source\PSoC4/CyLFClk.c **** #endif /* (CY_IP_SRSSV2) */
  52:Generated_Source\PSoC4/CyLFClk.c **** 
  53:Generated_Source\PSoC4/CyLFClk.c **** #if (CY_IP_SRSSLT && CY_IP_WCO && CY_IP_WCO_WDT_EN)
  54:Generated_Source\PSoC4/CyLFClk.c ****     static uint32 CySysClkGetTimerSource(void);
  55:Generated_Source\PSoC4/CyLFClk.c ****     static volatile uint32 disableTimerServicedIsr = 0uL;
  56:Generated_Source\PSoC4/CyLFClk.c ****     static volatile uint32 timerIsrMask = CY_SYS_TIMER0_INT |\
  57:Generated_Source\PSoC4/CyLFClk.c ****                                           CY_SYS_TIMER1_INT |\
ARM GAS  C:\Users\ASUS\AppData\Local\Temp\ccYDUrWd.s 			page 3


  58:Generated_Source\PSoC4/CyLFClk.c ****                                           CY_SYS_TIMER2_INT;
  59:Generated_Source\PSoC4/CyLFClk.c **** 
  60:Generated_Source\PSoC4/CyLFClk.c ****     static const uint32 counterTimerIntMaskTbl[CY_SYS_NUM_OF_TIMERS] = {CY_SYS_TIMER0_INT,
  61:Generated_Source\PSoC4/CyLFClk.c ****                                                                         CY_SYS_TIMER1_INT,
  62:Generated_Source\PSoC4/CyLFClk.c ****                                                                         CY_SYS_TIMER2_INT};
  63:Generated_Source\PSoC4/CyLFClk.c **** 
  64:Generated_Source\PSoC4/CyLFClk.c ****     static cyTimerCallback cySysTimerCallback[CY_SYS_NUM_OF_TIMERS] = {(void *)0, (void *)0, (void 
  65:Generated_Source\PSoC4/CyLFClk.c **** #endif /* (CY_IP_SRSSLT && CY_IP_WCO && CY_IP_WCO_DWT_EN) */
  66:Generated_Source\PSoC4/CyLFClk.c **** 
  67:Generated_Source\PSoC4/CyLFClk.c **** #if(CY_IP_SRSSV2)
  68:Generated_Source\PSoC4/CyLFClk.c ****     static cyWdtCallback cySysWdtCallback[CY_WDT_NUM_OF_WDT] = {(void *)0, (void *)0, (void *)0};
  69:Generated_Source\PSoC4/CyLFClk.c **** #else
  70:Generated_Source\PSoC4/CyLFClk.c ****     static cyWdtCallback cySysWdtCallback = (void *)0;
  71:Generated_Source\PSoC4/CyLFClk.c **** #endif /* (CY_IP_SRSSV2) */
  72:Generated_Source\PSoC4/CyLFClk.c **** 
  73:Generated_Source\PSoC4/CyLFClk.c **** 
  74:Generated_Source\PSoC4/CyLFClk.c **** /*******************************************************************************
  75:Generated_Source\PSoC4/CyLFClk.c **** * Function Name: CySysClkIloStart
  76:Generated_Source\PSoC4/CyLFClk.c **** ****************************************************************************//**
  77:Generated_Source\PSoC4/CyLFClk.c **** * \brief
  78:Generated_Source\PSoC4/CyLFClk.c **** *  Enables ILO.
  79:Generated_Source\PSoC4/CyLFClk.c **** *
  80:Generated_Source\PSoC4/CyLFClk.c **** *  Refer to the device datasheet for the ILO startup time.
  81:Generated_Source\PSoC4/CyLFClk.c **** *
  82:Generated_Source\PSoC4/CyLFClk.c **** *******************************************************************************/
  83:Generated_Source\PSoC4/CyLFClk.c **** void CySysClkIloStart(void)
  84:Generated_Source\PSoC4/CyLFClk.c **** {
  56              		.loc 1 84 0
  57              		.cfi_startproc
  58              		@ args = 0, pretend = 0, frame = 0
  59              		@ frame_needed = 1, uses_anonymous_args = 0
  60 0000 80B5     		push	{r7, lr}
  61              		.cfi_def_cfa_offset 8
  62              		.cfi_offset 7, -8
  63              		.cfi_offset 14, -4
  64 0002 00AF     		add	r7, sp, #0
  65              		.cfi_def_cfa_register 7
  85:Generated_Source\PSoC4/CyLFClk.c ****     CY_SYS_CLK_ILO_CONFIG_REG |= CY_SYS_CLK_ILO_CONFIG_ENABLE;
  66              		.loc 1 85 0
  67 0004 044B     		ldr	r3, .L2
  68 0006 044A     		ldr	r2, .L2
  69 0008 1268     		ldr	r2, [r2]
  70 000a 8021     		movs	r1, #128
  71 000c 0906     		lsls	r1, r1, #24
  72 000e 0A43     		orrs	r2, r1
  73 0010 1A60     		str	r2, [r3]
  86:Generated_Source\PSoC4/CyLFClk.c **** }
  74              		.loc 1 86 0
  75 0012 C046     		nop
  76 0014 BD46     		mov	sp, r7
  77              		@ sp needed
  78 0016 80BD     		pop	{r7, pc}
  79              	.L3:
  80              		.align	2
  81              	.L2:
  82 0018 04010B40 		.word	1074462980
  83              		.cfi_endproc
ARM GAS  C:\Users\ASUS\AppData\Local\Temp\ccYDUrWd.s 			page 4


  84              	.LFE0:
  85              		.size	CySysClkIloStart, .-CySysClkIloStart
  86              		.section	.text.CySysClkIloStop,"ax",%progbits
  87              		.align	2
  88              		.global	CySysClkIloStop
  89              		.code	16
  90              		.thumb_func
  91              		.type	CySysClkIloStop, %function
  92              	CySysClkIloStop:
  93              	.LFB1:
  87:Generated_Source\PSoC4/CyLFClk.c **** 
  88:Generated_Source\PSoC4/CyLFClk.c **** 
  89:Generated_Source\PSoC4/CyLFClk.c **** /*******************************************************************************
  90:Generated_Source\PSoC4/CyLFClk.c **** * Function Name: CySysClkIloStop
  91:Generated_Source\PSoC4/CyLFClk.c **** ****************************************************************************//**
  92:Generated_Source\PSoC4/CyLFClk.c **** * \brief
  93:Generated_Source\PSoC4/CyLFClk.c **** *  Disables the ILO.
  94:Generated_Source\PSoC4/CyLFClk.c **** *
  95:Generated_Source\PSoC4/CyLFClk.c **** *  This function has no effect if WDT is locked (CySysWdtLock() is
  96:Generated_Source\PSoC4/CyLFClk.c **** *  called). Call CySysWdtUnlock() to unlock WDT and stop ILO.
  97:Generated_Source\PSoC4/CyLFClk.c **** *
  98:Generated_Source\PSoC4/CyLFClk.c **** *  PSoC 4100 / PSoC 4200: Note that ILO is required for WDT's operation.
  99:Generated_Source\PSoC4/CyLFClk.c **** *
 100:Generated_Source\PSoC4/CyLFClk.c **** *  PSoC 4100 BLE / PSoC 4200 BLE / PSoC 4200L / PSoC 4100M / 
 101:Generated_Source\PSoC4/CyLFClk.c **** *  PSoC 4200M:
 102:Generated_Source\PSoC4/CyLFClk.c **** *  Stopping ILO affects the peripheral clocked by LFCLK, if
 103:Generated_Source\PSoC4/CyLFClk.c **** *  LFCLK is configured to be sourced by ILO.
 104:Generated_Source\PSoC4/CyLFClk.c **** *
 105:Generated_Source\PSoC4/CyLFClk.c **** *  If the ILO is disabled, all blocks run by ILO will stop functioning.
 106:Generated_Source\PSoC4/CyLFClk.c **** *
 107:Generated_Source\PSoC4/CyLFClk.c **** *******************************************************************************/
 108:Generated_Source\PSoC4/CyLFClk.c **** void CySysClkIloStop(void)
 109:Generated_Source\PSoC4/CyLFClk.c **** {
  94              		.loc 1 109 0
  95              		.cfi_startproc
  96              		@ args = 0, pretend = 0, frame = 8
  97              		@ frame_needed = 1, uses_anonymous_args = 0
  98 0000 90B5     		push	{r4, r7, lr}
  99              		.cfi_def_cfa_offset 12
 100              		.cfi_offset 4, -12
 101              		.cfi_offset 7, -8
 102              		.cfi_offset 14, -4
 103 0002 83B0     		sub	sp, sp, #12
 104              		.cfi_def_cfa_offset 24
 105 0004 00AF     		add	r7, sp, #0
 106              		.cfi_def_cfa_register 7
 110:Generated_Source\PSoC4/CyLFClk.c ****     #if(CY_IP_SRSSV2)
 111:Generated_Source\PSoC4/CyLFClk.c ****         uint8  interruptState;
 112:Generated_Source\PSoC4/CyLFClk.c **** 
 113:Generated_Source\PSoC4/CyLFClk.c ****         /* Do nothing if WDT is locked or ILO is disabled */
 114:Generated_Source\PSoC4/CyLFClk.c ****         if (0u == CySysWdtLocked())
 107              		.loc 1 114 0
 108 0006 FFF7FEFF 		bl	CySysWdtLocked
 109 000a 031E     		subs	r3, r0, #0
 110 000c 17D1     		bne	.L6
 115:Generated_Source\PSoC4/CyLFClk.c ****         {
 116:Generated_Source\PSoC4/CyLFClk.c ****             if (0u != CySysClkIloEnabled())
ARM GAS  C:\Users\ASUS\AppData\Local\Temp\ccYDUrWd.s 			page 5


 111              		.loc 1 116 0
 112 000e FFF7FEFF 		bl	CySysClkIloEnabled
 113 0012 031E     		subs	r3, r0, #0
 114 0014 13D0     		beq	.L6
 117:Generated_Source\PSoC4/CyLFClk.c ****             {
 118:Generated_Source\PSoC4/CyLFClk.c **** 
 119:Generated_Source\PSoC4/CyLFClk.c ****             #if (CY_IP_WCO)
 120:Generated_Source\PSoC4/CyLFClk.c ****                 if (CY_SYS_CLK_LFCLK_SRC_ILO == CySysClkGetLfclkSource())
 121:Generated_Source\PSoC4/CyLFClk.c ****                 {
 122:Generated_Source\PSoC4/CyLFClk.c ****             #endif /* (CY_IP_WCO) */
 123:Generated_Source\PSoC4/CyLFClk.c **** 
 124:Generated_Source\PSoC4/CyLFClk.c ****                 interruptState = CyEnterCriticalSection();
 115              		.loc 1 124 0
 116 0016 FC1D     		adds	r4, r7, #7
 117 0018 FFF7FEFF 		bl	CyEnterCriticalSection
 118 001c 0300     		movs	r3, r0
 119 001e 2370     		strb	r3, [r4]
 125:Generated_Source\PSoC4/CyLFClk.c ****                 CySysClkLfclkPosedgeCatch();
 120              		.loc 1 125 0
 121 0020 FFF7FEFF 		bl	CySysClkLfclkPosedgeCatch
 126:Generated_Source\PSoC4/CyLFClk.c ****                 CY_SYS_CLK_ILO_CONFIG_REG &= (uint32) ( ~(uint32)CY_SYS_CLK_ILO_CONFIG_ENABLE);
 122              		.loc 1 126 0
 123 0024 084B     		ldr	r3, .L7
 124 0026 084A     		ldr	r2, .L7
 125 0028 1268     		ldr	r2, [r2]
 126 002a 5200     		lsls	r2, r2, #1
 127 002c 5208     		lsrs	r2, r2, #1
 128 002e 1A60     		str	r2, [r3]
 127:Generated_Source\PSoC4/CyLFClk.c ****                 CySysClkLfclkPosedgeRestore();
 129              		.loc 1 127 0
 130 0030 FFF7FEFF 		bl	CySysClkLfclkPosedgeRestore
 128:Generated_Source\PSoC4/CyLFClk.c ****                 CyExitCriticalSection(interruptState);
 131              		.loc 1 128 0
 132 0034 FB1D     		adds	r3, r7, #7
 133 0036 1B78     		ldrb	r3, [r3]
 134 0038 1800     		movs	r0, r3
 135 003a FFF7FEFF 		bl	CyExitCriticalSection
 136              	.L6:
 129:Generated_Source\PSoC4/CyLFClk.c **** 
 130:Generated_Source\PSoC4/CyLFClk.c ****             #if (CY_IP_WCO)
 131:Generated_Source\PSoC4/CyLFClk.c ****                 }
 132:Generated_Source\PSoC4/CyLFClk.c ****                 else /* Safe to disable - shortened pulse does not impact peripheral */
 133:Generated_Source\PSoC4/CyLFClk.c ****                 {
 134:Generated_Source\PSoC4/CyLFClk.c ****                     CY_SYS_CLK_ILO_CONFIG_REG &= (uint32) ( ~(uint32)CY_SYS_CLK_ILO_CONFIG_ENABLE);
 135:Generated_Source\PSoC4/CyLFClk.c ****                 }
 136:Generated_Source\PSoC4/CyLFClk.c ****             #endif /* (CY_IP_WCO) */
 137:Generated_Source\PSoC4/CyLFClk.c **** 
 138:Generated_Source\PSoC4/CyLFClk.c ****             }
 139:Generated_Source\PSoC4/CyLFClk.c ****         }
 140:Generated_Source\PSoC4/CyLFClk.c ****     #else
 141:Generated_Source\PSoC4/CyLFClk.c ****         CY_SYS_CLK_ILO_CONFIG_REG &= ( uint32 ) ( ~( uint32 )CY_SYS_CLK_ILO_CONFIG_ENABLE);
 142:Generated_Source\PSoC4/CyLFClk.c ****     #endif /* (CY_IP_SRSSV2) */
 143:Generated_Source\PSoC4/CyLFClk.c **** }
 137              		.loc 1 143 0
 138 003e C046     		nop
 139 0040 BD46     		mov	sp, r7
 140 0042 03B0     		add	sp, sp, #12
ARM GAS  C:\Users\ASUS\AppData\Local\Temp\ccYDUrWd.s 			page 6


 141              		@ sp needed
 142 0044 90BD     		pop	{r4, r7, pc}
 143              	.L8:
 144 0046 C046     		.align	2
 145              	.L7:
 146 0048 04010B40 		.word	1074462980
 147              		.cfi_endproc
 148              	.LFE1:
 149              		.size	CySysClkIloStop, .-CySysClkIloStop
 150              		.section	.text.CySysClkIloStartMeasurement,"ax",%progbits
 151              		.align	2
 152              		.global	CySysClkIloStartMeasurement
 153              		.code	16
 154              		.thumb_func
 155              		.type	CySysClkIloStartMeasurement, %function
 156              	CySysClkIloStartMeasurement:
 157              	.LFB2:
 144:Generated_Source\PSoC4/CyLFClk.c **** 
 145:Generated_Source\PSoC4/CyLFClk.c **** 
 146:Generated_Source\PSoC4/CyLFClk.c **** /******************************************************************************
 147:Generated_Source\PSoC4/CyLFClk.c **** * Function Name: CySysClkIloStartMeasurement
 148:Generated_Source\PSoC4/CyLFClk.c **** ***************************************************************************//**
 149:Generated_Source\PSoC4/CyLFClk.c **** * \brief
 150:Generated_Source\PSoC4/CyLFClk.c **** * Starts the ILO accuracy measurement.
 151:Generated_Source\PSoC4/CyLFClk.c **** *
 152:Generated_Source\PSoC4/CyLFClk.c **** * This function is non-blocking and needs to be called before using the 
 153:Generated_Source\PSoC4/CyLFClk.c **** * CySysClkIloTrim() and CySysClkIloCompensate() API.
 154:Generated_Source\PSoC4/CyLFClk.c **** *
 155:Generated_Source\PSoC4/CyLFClk.c **** * This API configures measurement counters to be sourced by SysClk (Counter 1)
 156:Generated_Source\PSoC4/CyLFClk.c **** * and ILO (Counter 2). 
 157:Generated_Source\PSoC4/CyLFClk.c **** *
 158:Generated_Source\PSoC4/CyLFClk.c **** * \note SysClk should be sourced by IMO. Otherwise CySysClkIloTrim() and 
 159:Generated_Source\PSoC4/CyLFClk.c **** * CySysClkIloCompensate() API can give incorrect results.
 160:Generated_Source\PSoC4/CyLFClk.c **** *
 161:Generated_Source\PSoC4/CyLFClk.c **** * In addition, this API stores the factory ILO trim settings on the first call 
 162:Generated_Source\PSoC4/CyLFClk.c **** * after reset. This stored factory setting is used by the 
 163:Generated_Source\PSoC4/CyLFClk.c **** * CySysClkIloRestoreFactoryTrim() API to restore the ILO factory trim. 
 164:Generated_Source\PSoC4/CyLFClk.c **** * Hence, it is important to call this API before restoring the ILO 
 165:Generated_Source\PSoC4/CyLFClk.c **** * factory trim settings.
 166:Generated_Source\PSoC4/CyLFClk.c **** *
 167:Generated_Source\PSoC4/CyLFClk.c **** ******************************************************************************/
 168:Generated_Source\PSoC4/CyLFClk.c **** void CySysClkIloStartMeasurement(void)
 169:Generated_Source\PSoC4/CyLFClk.c **** {
 158              		.loc 1 169 0
 159              		.cfi_startproc
 160              		@ args = 0, pretend = 0, frame = 0
 161              		@ frame_needed = 1, uses_anonymous_args = 0
 162 0000 80B5     		push	{r7, lr}
 163              		.cfi_def_cfa_offset 8
 164              		.cfi_offset 7, -8
 165              		.cfi_offset 14, -4
 166 0002 00AF     		add	r7, sp, #0
 167              		.cfi_def_cfa_register 7
 170:Generated_Source\PSoC4/CyLFClk.c **** #if(CY_IP_SRSSV2 && (!CY_IP_CPUSS))
 171:Generated_Source\PSoC4/CyLFClk.c ****     static uint8 iloTrimTrig = 0u;
 172:Generated_Source\PSoC4/CyLFClk.c **** 
 173:Generated_Source\PSoC4/CyLFClk.c ****     /* Write default ILO trim value while ILO starting ( Cypress ID 225244 )*/
ARM GAS  C:\Users\ASUS\AppData\Local\Temp\ccYDUrWd.s 			page 7


 174:Generated_Source\PSoC4/CyLFClk.c ****     if (0u == iloTrimTrig)
 175:Generated_Source\PSoC4/CyLFClk.c ****     {
 176:Generated_Source\PSoC4/CyLFClk.c ****         defaultIloTrimRegValue = ((uint8)(CY_SYS_CLK_ILO_TRIM_REG & CY_SYS_CLK_ILO_TRIM_MASK));
 177:Generated_Source\PSoC4/CyLFClk.c ****         iloTrimTrig = 1u;
 178:Generated_Source\PSoC4/CyLFClk.c ****     }
 179:Generated_Source\PSoC4/CyLFClk.c **** #endif /* (CY_IP_SRSSV2 && (!CY_IP_CPUSS)) */
 180:Generated_Source\PSoC4/CyLFClk.c **** 
 181:Generated_Source\PSoC4/CyLFClk.c ****     /* Configure measurement counters to source by SysClk (Counter 1) and ILO (Counter 2)*/
 182:Generated_Source\PSoC4/CyLFClk.c ****     CY_SYS_CLK_DFT_REG = (CY_SYS_CLK_DFT_REG & (uint32) ~CY_SYS_CLK_DFT_SELECT_DEFAULT_MASK) |
 168              		.loc 1 182 0
 169 0004 094B     		ldr	r3, .L10
 170 0006 094A     		ldr	r2, .L10
 171 0008 1268     		ldr	r2, [r2]
 172 000a 0949     		ldr	r1, .L10+4
 173 000c 0A40     		ands	r2, r1
 174 000e 8021     		movs	r1, #128
 175 0010 4900     		lsls	r1, r1, #1
 176 0012 0A43     		orrs	r2, r1
 177 0014 1A60     		str	r2, [r3]
 183:Generated_Source\PSoC4/CyLFClk.c ****                             CY_SYS_CLK_SEL_ILO_DFT_SOURCE; 
 184:Generated_Source\PSoC4/CyLFClk.c **** 
 185:Generated_Source\PSoC4/CyLFClk.c ****     CY_SYS_TST_DDFT_CTRL_REG = (CY_SYS_TST_DDFT_CTRL_REG & (uint32) ~ CY_SYS_TST_DDFT_CTRL_REG_DEFA
 178              		.loc 1 185 0
 179 0016 074B     		ldr	r3, .L10+8
 180 0018 064A     		ldr	r2, .L10+8
 181 001a 1268     		ldr	r2, [r2]
 182 001c 0649     		ldr	r1, .L10+12
 183 001e 0A40     		ands	r2, r1
 184 0020 0649     		ldr	r1, .L10+16
 185 0022 0A43     		orrs	r2, r1
 186 0024 1A60     		str	r2, [r3]
 186:Generated_Source\PSoC4/CyLFClk.c ****                             CY_SYS_TST_DDFT_CTRL_REG_SEL2_CLK1;
 187:Generated_Source\PSoC4/CyLFClk.c **** }
 187              		.loc 1 187 0
 188 0026 C046     		nop
 189 0028 BD46     		mov	sp, r7
 190              		@ sp needed
 191 002a 80BD     		pop	{r7, pc}
 192              	.L11:
 193              		.align	2
 194              	.L10:
 195 002c 10010B40 		.word	1074462992
 196 0030 FFF0FFFF 		.word	-3841
 197 0034 08000340 		.word	1073938440
 198 0038 C0C0FFFF 		.word	-16192
 199 003c 01020000 		.word	513
 200              		.cfi_endproc
 201              	.LFE2:
 202              		.size	CySysClkIloStartMeasurement, .-CySysClkIloStartMeasurement
 203              		.section	.text.CySysClkIloStopMeasurement,"ax",%progbits
 204              		.align	2
 205              		.global	CySysClkIloStopMeasurement
 206              		.code	16
 207              		.thumb_func
 208              		.type	CySysClkIloStopMeasurement, %function
 209              	CySysClkIloStopMeasurement:
 210              	.LFB3:
ARM GAS  C:\Users\ASUS\AppData\Local\Temp\ccYDUrWd.s 			page 8


 188:Generated_Source\PSoC4/CyLFClk.c **** 
 189:Generated_Source\PSoC4/CyLFClk.c **** 
 190:Generated_Source\PSoC4/CyLFClk.c **** /******************************************************************************
 191:Generated_Source\PSoC4/CyLFClk.c **** * Function Name: CySysClkIloStopMeasurement
 192:Generated_Source\PSoC4/CyLFClk.c **** ***************************************************************************//**
 193:Generated_Source\PSoC4/CyLFClk.c **** * \brief
 194:Generated_Source\PSoC4/CyLFClk.c **** * Stops the ILO accuracy measurement.
 195:Generated_Source\PSoC4/CyLFClk.c **** *
 196:Generated_Source\PSoC4/CyLFClk.c **** * Calling this function immediately stops the the ILO frequency measurement.
 197:Generated_Source\PSoC4/CyLFClk.c **** * This function should be called before placing the device to deepsleep, if 
 198:Generated_Source\PSoC4/CyLFClk.c **** * CySysClkIloStartMeasurement() API was called before. 
 199:Generated_Source\PSoC4/CyLFClk.c **** *
 200:Generated_Source\PSoC4/CyLFClk.c **** ******************************************************************************/
 201:Generated_Source\PSoC4/CyLFClk.c **** void CySysClkIloStopMeasurement(void)
 202:Generated_Source\PSoC4/CyLFClk.c **** {
 211              		.loc 1 202 0
 212              		.cfi_startproc
 213              		@ args = 0, pretend = 0, frame = 0
 214              		@ frame_needed = 1, uses_anonymous_args = 0
 215 0000 80B5     		push	{r7, lr}
 216              		.cfi_def_cfa_offset 8
 217              		.cfi_offset 7, -8
 218              		.cfi_offset 14, -4
 219 0002 00AF     		add	r7, sp, #0
 220              		.cfi_def_cfa_register 7
 203:Generated_Source\PSoC4/CyLFClk.c ****     /* Set default configurations in 11...8 DFT register bits to zero */
 204:Generated_Source\PSoC4/CyLFClk.c ****     CY_SYS_CLK_DFT_REG &= ~CY_SYS_CLK_DFT_SELECT_DEFAULT_MASK;
 221              		.loc 1 204 0
 222 0004 044B     		ldr	r3, .L13
 223 0006 044A     		ldr	r2, .L13
 224 0008 1268     		ldr	r2, [r2]
 225 000a 0449     		ldr	r1, .L13+4
 226 000c 0A40     		ands	r2, r1
 227 000e 1A60     		str	r2, [r3]
 205:Generated_Source\PSoC4/CyLFClk.c ****     #if(CY_IP_SRSSLT)
 206:Generated_Source\PSoC4/CyLFClk.c ****         CY_SYS_TST_DDFT_CTRL_REG &= ((uint32) CY_SYS_TST_DDFT_CTRL_REG_DEFAULT_MASK);
 207:Generated_Source\PSoC4/CyLFClk.c ****     #endif /* (CY_IP_SRSSLT) */
 208:Generated_Source\PSoC4/CyLFClk.c **** }
 228              		.loc 1 208 0
 229 0010 C046     		nop
 230 0012 BD46     		mov	sp, r7
 231              		@ sp needed
 232 0014 80BD     		pop	{r7, pc}
 233              	.L14:
 234 0016 C046     		.align	2
 235              	.L13:
 236 0018 10010B40 		.word	1074462992
 237 001c FFF0FFFF 		.word	-3841
 238              		.cfi_endproc
 239              	.LFE3:
 240              		.size	CySysClkIloStopMeasurement, .-CySysClkIloStopMeasurement
 241              		.global	__aeabi_uidiv
 242              		.section	.text.CySysClkIloCompensate,"ax",%progbits
 243              		.align	2
 244              		.global	CySysClkIloCompensate
 245              		.code	16
 246              		.thumb_func
ARM GAS  C:\Users\ASUS\AppData\Local\Temp\ccYDUrWd.s 			page 9


 247              		.type	CySysClkIloCompensate, %function
 248              	CySysClkIloCompensate:
 249              	.LFB4:
 209:Generated_Source\PSoC4/CyLFClk.c **** 
 210:Generated_Source\PSoC4/CyLFClk.c **** 
 211:Generated_Source\PSoC4/CyLFClk.c **** /******************************************************************************
 212:Generated_Source\PSoC4/CyLFClk.c **** * Function Name: CySysClkIloCompensate
 213:Generated_Source\PSoC4/CyLFClk.c **** ***************************************************************************//**
 214:Generated_Source\PSoC4/CyLFClk.c **** * \brief
 215:Generated_Source\PSoC4/CyLFClk.c **** * This API measures the current ILO accuracy.
 216:Generated_Source\PSoC4/CyLFClk.c **** *
 217:Generated_Source\PSoC4/CyLFClk.c **** * Basing on the measured frequency the required number of ILO cycles for a 
 218:Generated_Source\PSoC4/CyLFClk.c **** * given delay (in microseconds) is obtained. The desired delay that needs to 
 219:Generated_Source\PSoC4/CyLFClk.c **** * be compensated is passed through the desiredDelay parameter. The compensated 
 220:Generated_Source\PSoC4/CyLFClk.c **** * cycle count is returned through the compesatedCycles pointer.
 221:Generated_Source\PSoC4/CyLFClk.c **** * The compensated ILO cycles can then be used to define the WDT period value, 
 222:Generated_Source\PSoC4/CyLFClk.c **** * effectively compensating for the ILO inaccuracy and allowing a more 
 223:Generated_Source\PSoC4/CyLFClk.c **** * accurate WDT interrupt generation.
 224:Generated_Source\PSoC4/CyLFClk.c **** *
 225:Generated_Source\PSoC4/CyLFClk.c **** * CySysClkIloStartMeasurement() API should be called prior to calling this API. 
 226:Generated_Source\PSoC4/CyLFClk.c **** *
 227:Generated_Source\PSoC4/CyLFClk.c **** * \note SysClk should be sourced by IMO. Otherwise CySysClkIloTrim() and 
 228:Generated_Source\PSoC4/CyLFClk.c **** * CySysClkIloCompensate() API can give incorrect results.
 229:Generated_Source\PSoC4/CyLFClk.c **** *
 230:Generated_Source\PSoC4/CyLFClk.c **** * \note If the System clock frequency is changed in runtime, the CyDelayFreq() 
 231:Generated_Source\PSoC4/CyLFClk.c **** * with the appropriate parameter (Frequency of bus clock in Hertz) should be 
 232:Generated_Source\PSoC4/CyLFClk.c **** * called before calling a next CySysClkIloCompensate().
 233:Generated_Source\PSoC4/CyLFClk.c **** *
 234:Generated_Source\PSoC4/CyLFClk.c **** * \warning Do not enter deep sleep mode until the function returns CYRET_SUCCESS.
 235:Generated_Source\PSoC4/CyLFClk.c **** *
 236:Generated_Source\PSoC4/CyLFClk.c **** * \param desiredDelay Required delay in microseconds.
 237:Generated_Source\PSoC4/CyLFClk.c **** *
 238:Generated_Source\PSoC4/CyLFClk.c **** * \param *compensatedCycles The pointer to the variable in which the required
 239:Generated_Source\PSoC4/CyLFClk.c **** * number of ILO cycles for the given delay will be returned.
 240:Generated_Source\PSoC4/CyLFClk.c **** *
 241:Generated_Source\PSoC4/CyLFClk.c **** * \details
 242:Generated_Source\PSoC4/CyLFClk.c **** * The value returned in *compensatedCycles pointer is not valid until the 
 243:Generated_Source\PSoC4/CyLFClk.c **** * function returns CYRET_SUCCESS.
 244:Generated_Source\PSoC4/CyLFClk.c **** *
 245:Generated_Source\PSoC4/CyLFClk.c **** * The desiredDelay parameter value should be in next range: <br>From 100 to 
 246:Generated_Source\PSoC4/CyLFClk.c **** * 2 000 000 microseconds for PSoC 4000 / PSoC 4000S / PSoC 4100S / PSoC Analog 
 247:Generated_Source\PSoC4/CyLFClk.c **** * Coprocessor devices.<br>From 100 to 4 000 000 000 microseconds for 
 248:Generated_Source\PSoC4/CyLFClk.c **** * PSoC 4100 / PSoC 4200 / PSoC 4100 BLE / PSoC 4200 BLE / PRoC BLE /
 249:Generated_Source\PSoC4/CyLFClk.c **** * PSoC 4200L / PSoC 4100M /PSoC 4200M devices.
 250:Generated_Source\PSoC4/CyLFClk.c **** *
 251:Generated_Source\PSoC4/CyLFClk.c **** * \return CYRET_SUCCESS - The compensation process is complete and the 
 252:Generated_Source\PSoC4/CyLFClk.c **** * compensated cycles value is returned in the compensatedCycles pointer.
 253:Generated_Source\PSoC4/CyLFClk.c **** *
 254:Generated_Source\PSoC4/CyLFClk.c **** * \return CYRET_STARTED - Indicates measurement is in progress. It is 
 255:Generated_Source\PSoC4/CyLFClk.c **** * strongly recommended to do not make pauses between API calling. The 
 256:Generated_Source\PSoC4/CyLFClk.c **** * function should be called repeatedly until the API returns CYRET_SUCCESS.
 257:Generated_Source\PSoC4/CyLFClk.c **** *
 258:Generated_Source\PSoC4/CyLFClk.c **** * \return CYRET_INVALID_STATE - Indicates that measurement not started. 
 259:Generated_Source\PSoC4/CyLFClk.c **** * The user should call CySysClkIloStartMeasurement() API before calling 
 260:Generated_Source\PSoC4/CyLFClk.c **** * this API.
 261:Generated_Source\PSoC4/CyLFClk.c **** *
 262:Generated_Source\PSoC4/CyLFClk.c **** * \note For a correct WDT or DeepSleep Timers functioning with ILO compensating 
ARM GAS  C:\Users\ASUS\AppData\Local\Temp\ccYDUrWd.s 			page 10


 263:Generated_Source\PSoC4/CyLFClk.c **** * the CySysClkIloCompensate() should be called before WDT or DeepSleep Timers 
 264:Generated_Source\PSoC4/CyLFClk.c **** * enabling.
 265:Generated_Source\PSoC4/CyLFClk.c **** *
 266:Generated_Source\PSoC4/CyLFClk.c **** *******************************************************************************/
 267:Generated_Source\PSoC4/CyLFClk.c **** cystatus CySysClkIloCompensate(uint32 desiredDelay , uint32* compensatedCycles)
 268:Generated_Source\PSoC4/CyLFClk.c **** {
 250              		.loc 1 268 0
 251              		.cfi_startproc
 252              		@ args = 0, pretend = 0, frame = 24
 253              		@ frame_needed = 1, uses_anonymous_args = 0
 254 0000 90B5     		push	{r4, r7, lr}
 255              		.cfi_def_cfa_offset 12
 256              		.cfi_offset 4, -12
 257              		.cfi_offset 7, -8
 258              		.cfi_offset 14, -4
 259 0002 87B0     		sub	sp, sp, #28
 260              		.cfi_def_cfa_offset 40
 261 0004 00AF     		add	r7, sp, #0
 262              		.cfi_def_cfa_register 7
 263 0006 7860     		str	r0, [r7, #4]
 264 0008 3960     		str	r1, [r7]
 269:Generated_Source\PSoC4/CyLFClk.c ****     uint32 iloCompensatedCycles;
 270:Generated_Source\PSoC4/CyLFClk.c ****     uint32 desiredDelayInCounts;
 271:Generated_Source\PSoC4/CyLFClk.c ****     static uint32 compensateRunningStatus = CY_SYS_CLK_TRIM_OR_COMP_FINISHED;
 272:Generated_Source\PSoC4/CyLFClk.c ****     uint32 checkStatus;
 273:Generated_Source\PSoC4/CyLFClk.c ****     cystatus returnStatus;
 274:Generated_Source\PSoC4/CyLFClk.c **** 
 275:Generated_Source\PSoC4/CyLFClk.c ****     checkStatus = (uint32) (CY_SYS_CLK_DFT_REG & (uint32) CY_SYS_TST_DDFT_CTRL_REG_DEFAULT_MASK);
 265              		.loc 1 275 0
 266 000a 474B     		ldr	r3, .L27
 267 000c 1B68     		ldr	r3, [r3]
 268 000e 474A     		ldr	r2, .L27+4
 269 0010 1340     		ands	r3, r2
 270 0012 FB60     		str	r3, [r7, #12]
 276:Generated_Source\PSoC4/CyLFClk.c **** 
 277:Generated_Source\PSoC4/CyLFClk.c ****     /* Check if CySysStartMeasurement was called before */
 278:Generated_Source\PSoC4/CyLFClk.c ****     if((checkStatus == CY_SYS_CLK_SEL_ILO_DFT_SOURCE) && 
 271              		.loc 1 278 0
 272 0014 FA68     		ldr	r2, [r7, #12]
 273 0016 8023     		movs	r3, #128
 274 0018 5B00     		lsls	r3, r3, #1
 275 001a 9A42     		cmp	r2, r3
 276 001c 00D0     		beq	.LCB190
 277 001e 7CE0     		b	.L16	@long jump
 278              	.LCB190:
 279:Generated_Source\PSoC4/CyLFClk.c ****        (CY_SYS_TST_DDFT_CTRL_REG == CY_SYS_TST_DDFT_CTRL_REG_SEL2_CLK1) &&
 279              		.loc 1 279 0 discriminator 1
 280 0020 434B     		ldr	r3, .L27+8
 281 0022 1B68     		ldr	r3, [r3]
 278:Generated_Source\PSoC4/CyLFClk.c ****        (CY_SYS_TST_DDFT_CTRL_REG == CY_SYS_TST_DDFT_CTRL_REG_SEL2_CLK1) &&
 282              		.loc 1 278 0 discriminator 1
 283 0024 434A     		ldr	r2, .L27+12
 284 0026 9342     		cmp	r3, r2
 285 0028 00D0     		beq	.LCB195
 286 002a 76E0     		b	.L16	@long jump
 287              	.LCB195:
 288              		.loc 1 279 0
ARM GAS  C:\Users\ASUS\AppData\Local\Temp\ccYDUrWd.s 			page 11


 289 002c 7B68     		ldr	r3, [r7, #4]
 290 002e 424A     		ldr	r2, .L27+16
 291 0030 9342     		cmp	r3, r2
 292 0032 00D9     		bls	.LCB199
 293 0034 71E0     		b	.L16	@long jump
 294              	.LCB199:
 280:Generated_Source\PSoC4/CyLFClk.c ****        (CY_SYS_CLK_MAX_DELAY_US >= desiredDelay) &&
 295              		.loc 1 280 0
 296 0036 7B68     		ldr	r3, [r7, #4]
 297 0038 632B     		cmp	r3, #99
 298 003a 6ED9     		bls	.L16
 281:Generated_Source\PSoC4/CyLFClk.c ****        (CY_SYS_CLK_MIN_DELAY_US <= desiredDelay) &&
 299              		.loc 1 281 0
 300 003c 3B68     		ldr	r3, [r7]
 301 003e 002B     		cmp	r3, #0
 302 0040 6BD0     		beq	.L16
 282:Generated_Source\PSoC4/CyLFClk.c ****        (compensatedCycles !=  NULL))
 283:Generated_Source\PSoC4/CyLFClk.c ****     {
 284:Generated_Source\PSoC4/CyLFClk.c ****         if(CY_SYS_CLK_TRIM_OR_COMP_FINISHED != compensateRunningStatus)
 303              		.loc 1 284 0
 304 0042 3E4B     		ldr	r3, .L27+20
 305 0044 1B68     		ldr	r3, [r3]
 306 0046 002B     		cmp	r3, #0
 307 0048 5CD0     		beq	.L17
 285:Generated_Source\PSoC4/CyLFClk.c ****         {
 286:Generated_Source\PSoC4/CyLFClk.c ****             /* Wait until counter 1 stopped counting and after it calculate compensated cycles */
 287:Generated_Source\PSoC4/CyLFClk.c ****             if(0u != (CY_SYS_CNT_REG1_REG & CY_SYS_CLK_ILO_CALIBR_COMPLETE_MASK))
 308              		.loc 1 287 0
 309 004a 3D4B     		ldr	r3, .L27+24
 310 004c 1B68     		ldr	r3, [r3]
 311 004e 002B     		cmp	r3, #0
 312 0050 55DA     		bge	.L18
 288:Generated_Source\PSoC4/CyLFClk.c ****             {
 289:Generated_Source\PSoC4/CyLFClk.c ****                 if (0u != CY_SYS_CNT_REG2_REG)
 313              		.loc 1 289 0
 314 0052 3C4B     		ldr	r3, .L27+28
 315 0054 1B68     		ldr	r3, [r3]
 316 0056 002B     		cmp	r3, #0
 317 0058 4ED0     		beq	.L19
 290:Generated_Source\PSoC4/CyLFClk.c ****                 {
 291:Generated_Source\PSoC4/CyLFClk.c ****                     /* Calculate required number of ILO cycles for given delay */
 292:Generated_Source\PSoC4/CyLFClk.c ****                     #if(CY_IP_SRSSV2)
 293:Generated_Source\PSoC4/CyLFClk.c ****                         if (CY_SYS_CLK_DELAY_COUNTS_LIMIT < desiredDelay)
 318              		.loc 1 293 0
 319 005a 7B68     		ldr	r3, [r7, #4]
 320 005c 3A4A     		ldr	r2, .L27+32
 321 005e 9342     		cmp	r3, r2
 322 0060 1ED9     		bls	.L20
 294:Generated_Source\PSoC4/CyLFClk.c ****                         {
 295:Generated_Source\PSoC4/CyLFClk.c ****                             desiredDelayInCounts = (desiredDelay / CY_SYS_CLK_ILO_PERIOD);
 323              		.loc 1 295 0
 324 0062 7B68     		ldr	r3, [r7, #4]
 325 0064 1F21     		movs	r1, #31
 326 0066 1800     		movs	r0, r3
 327 0068 FFF7FEFF 		bl	__aeabi_uidiv
 328 006c 0300     		movs	r3, r0
 329 006e BB60     		str	r3, [r7, #8]
ARM GAS  C:\Users\ASUS\AppData\Local\Temp\ccYDUrWd.s 			page 12


 296:Generated_Source\PSoC4/CyLFClk.c ****                             iloCompensatedCycles = 
 297:Generated_Source\PSoC4/CyLFClk.c ****                             (((CY_SYS_CNT_REG2_REG * cydelayFreqHz) / (cydelayFreqHz >> CY_SYS_CLK_
 330              		.loc 1 297 0
 331 0070 344B     		ldr	r3, .L27+28
 332 0072 1A68     		ldr	r2, [r3]
 333 0074 354B     		ldr	r3, .L27+36
 334 0076 1B68     		ldr	r3, [r3]
 335 0078 5A43     		muls	r2, r3
 336 007a 344B     		ldr	r3, .L27+36
 337 007c 1B68     		ldr	r3, [r3]
 338 007e 9B0A     		lsrs	r3, r3, #10
 339 0080 1900     		movs	r1, r3
 340 0082 1000     		movs	r0, r2
 341 0084 FFF7FEFF 		bl	__aeabi_uidiv
 342 0088 0300     		movs	r3, r0
 343 008a 5C09     		lsrs	r4, r3, #5
 298:Generated_Source\PSoC4/CyLFClk.c ****                                 CY_SYS_CLK_ILO_FREQ_2MSB) * (desiredDelayInCounts / CY_SYS_CLK_ILO_
 344              		.loc 1 298 0
 345 008c BA68     		ldr	r2, [r7, #8]
 346 008e FA23     		movs	r3, #250
 347 0090 9900     		lsls	r1, r3, #2
 348 0092 1000     		movs	r0, r2
 349 0094 FFF7FEFF 		bl	__aeabi_uidiv
 350 0098 0300     		movs	r3, r0
 296:Generated_Source\PSoC4/CyLFClk.c ****                             iloCompensatedCycles = 
 351              		.loc 1 296 0
 352 009a 6343     		muls	r3, r4
 353 009c 7B61     		str	r3, [r7, #20]
 354 009e 22E0     		b	.L21
 355              	.L20:
 299:Generated_Source\PSoC4/CyLFClk.c ****                         }
 300:Generated_Source\PSoC4/CyLFClk.c ****                         else
 301:Generated_Source\PSoC4/CyLFClk.c ****                         {
 302:Generated_Source\PSoC4/CyLFClk.c ****                             desiredDelayInCounts = ((desiredDelay * CY_SYS_CLK_COEF_PHUNDRED) + 
 356              		.loc 1 302 0
 357 00a0 7B68     		ldr	r3, [r7, #4]
 358 00a2 6422     		movs	r2, #100
 359 00a4 5343     		muls	r3, r2
 360 00a6 2A4A     		ldr	r2, .L27+40
 361 00a8 9446     		mov	ip, r2
 362 00aa 6344     		add	r3, r3, ip
 363 00ac 2949     		ldr	r1, .L27+44
 364 00ae 1800     		movs	r0, r3
 365 00b0 FFF7FEFF 		bl	__aeabi_uidiv
 366 00b4 0300     		movs	r3, r0
 367 00b6 BB60     		str	r3, [r7, #8]
 303:Generated_Source\PSoC4/CyLFClk.c ****                                                      CY_SYS_CLK_HALF_OF_CLOCK) / CY_SYS_CLK_ILO_PER
 304:Generated_Source\PSoC4/CyLFClk.c **** 
 305:Generated_Source\PSoC4/CyLFClk.c ****                             iloCompensatedCycles = (((CY_SYS_CNT_REG2_REG * cydelayFreqHz) / 
 368              		.loc 1 305 0
 369 00b8 224B     		ldr	r3, .L27+28
 370 00ba 1A68     		ldr	r2, [r3]
 371 00bc 234B     		ldr	r3, .L27+36
 372 00be 1B68     		ldr	r3, [r3]
 373 00c0 5A43     		muls	r2, r3
 306:Generated_Source\PSoC4/CyLFClk.c ****                                                      (cydelayFreqHz >> CY_SYS_CLK_SYS_CLK_DEVIDER))
 374              		.loc 1 306 0
ARM GAS  C:\Users\ASUS\AppData\Local\Temp\ccYDUrWd.s 			page 13


 375 00c2 224B     		ldr	r3, .L27+36
 376 00c4 1B68     		ldr	r3, [r3]
 377 00c6 9B0A     		lsrs	r3, r3, #10
 305:Generated_Source\PSoC4/CyLFClk.c ****                                                      (cydelayFreqHz >> CY_SYS_CLK_SYS_CLK_DEVIDER))
 378              		.loc 1 305 0
 379 00c8 1900     		movs	r1, r3
 380 00ca 1000     		movs	r0, r2
 381 00cc FFF7FEFF 		bl	__aeabi_uidiv
 382 00d0 0300     		movs	r3, r0
 383 00d2 1A00     		movs	r2, r3
 384              		.loc 1 306 0
 385 00d4 BB68     		ldr	r3, [r7, #8]
 386 00d6 5A43     		muls	r2, r3
 305:Generated_Source\PSoC4/CyLFClk.c ****                                                      (cydelayFreqHz >> CY_SYS_CLK_SYS_CLK_DEVIDER))
 387              		.loc 1 305 0
 388 00d8 FA23     		movs	r3, #250
 389 00da D901     		lsls	r1, r3, #7
 390 00dc 1000     		movs	r0, r2
 391 00de FFF7FEFF 		bl	__aeabi_uidiv
 392 00e2 0300     		movs	r3, r0
 393 00e4 7B61     		str	r3, [r7, #20]
 394              	.L21:
 307:Generated_Source\PSoC4/CyLFClk.c ****                                                      desiredDelayInCounts) / CY_SYS_CLK_ILO_DESIRED
 308:Generated_Source\PSoC4/CyLFClk.c ****                         }
 309:Generated_Source\PSoC4/CyLFClk.c ****                     #else /* (CY_IP_SRSSLT) */
 310:Generated_Source\PSoC4/CyLFClk.c ****                         desiredDelayInCounts = ((desiredDelay * CY_SYS_CLK_COEF_PHUNDRED) + CY_SYS_
 311:Generated_Source\PSoC4/CyLFClk.c ****                                                                                            CY_SYS_C
 312:Generated_Source\PSoC4/CyLFClk.c ****                         if(CY_SYS_CLK_MAX_LITE_NUMBER < desiredDelayInCounts)
 313:Generated_Source\PSoC4/CyLFClk.c ****                         {
 314:Generated_Source\PSoC4/CyLFClk.c ****                             iloCompensatedCycles = (((CY_SYS_CNT_REG2_REG * cydelayFreqHz) / (cydel
 315:Generated_Source\PSoC4/CyLFClk.c ****                                                    CY_SYS_CLK_SYS_CLK_DEVIDER)) / CY_SYS_CLK_ILO_FR
 316:Generated_Source\PSoC4/CyLFClk.c ****                                                    (desiredDelayInCounts / CY_SYS_CLK_ILO_FREQ_3LSB
 317:Generated_Source\PSoC4/CyLFClk.c ****                         }
 318:Generated_Source\PSoC4/CyLFClk.c ****                         else
 319:Generated_Source\PSoC4/CyLFClk.c ****                         {
 320:Generated_Source\PSoC4/CyLFClk.c ****                             iloCompensatedCycles = (((CY_SYS_CNT_REG2_REG * cydelayFreqHz) / 
 321:Generated_Source\PSoC4/CyLFClk.c ****                                                      (cydelayFreqHz >> CY_SYS_CLK_SYS_CLK_DEVIDER))
 322:Generated_Source\PSoC4/CyLFClk.c ****                                                      desiredDelayInCounts) / CY_SYS_CLK_ILO_DESIRED
 323:Generated_Source\PSoC4/CyLFClk.c ****                         }
 324:Generated_Source\PSoC4/CyLFClk.c ****                     #endif /* (CY_IP_SRSSV2) */
 325:Generated_Source\PSoC4/CyLFClk.c **** 
 326:Generated_Source\PSoC4/CyLFClk.c ****                     *compensatedCycles = iloCompensatedCycles;
 395              		.loc 1 326 0
 396 00e6 3B68     		ldr	r3, [r7]
 397 00e8 7A69     		ldr	r2, [r7, #20]
 398 00ea 1A60     		str	r2, [r3]
 327:Generated_Source\PSoC4/CyLFClk.c ****                     compensateRunningStatus = CY_SYS_CLK_TRIM_OR_COMP_FINISHED;
 399              		.loc 1 327 0
 400 00ec 134B     		ldr	r3, .L27+20
 401 00ee 0022     		movs	r2, #0
 402 00f0 1A60     		str	r2, [r3]
 328:Generated_Source\PSoC4/CyLFClk.c ****                     returnStatus = CYRET_SUCCESS;
 403              		.loc 1 328 0
 404 00f2 0023     		movs	r3, #0
 405 00f4 3B61     		str	r3, [r7, #16]
 284:Generated_Source\PSoC4/CyLFClk.c ****         {
 406              		.loc 1 284 0
ARM GAS  C:\Users\ASUS\AppData\Local\Temp\ccYDUrWd.s 			page 14


 407 00f6 12E0     		b	.L25
 408              	.L19:
 329:Generated_Source\PSoC4/CyLFClk.c ****                 }
 330:Generated_Source\PSoC4/CyLFClk.c ****                 else
 331:Generated_Source\PSoC4/CyLFClk.c ****                 {
 332:Generated_Source\PSoC4/CyLFClk.c ****                     returnStatus  = CYRET_INVALID_STATE;
 409              		.loc 1 332 0
 410 00f8 1123     		movs	r3, #17
 411 00fa 3B61     		str	r3, [r7, #16]
 284:Generated_Source\PSoC4/CyLFClk.c ****         {
 412              		.loc 1 284 0
 413 00fc 0FE0     		b	.L25
 414              	.L18:
 333:Generated_Source\PSoC4/CyLFClk.c ****                 }
 334:Generated_Source\PSoC4/CyLFClk.c ****             }
 335:Generated_Source\PSoC4/CyLFClk.c ****             else
 336:Generated_Source\PSoC4/CyLFClk.c ****             {
 337:Generated_Source\PSoC4/CyLFClk.c ****                 returnStatus = CYRET_STARTED;
 415              		.loc 1 337 0
 416 00fe 0723     		movs	r3, #7
 417 0100 3B61     		str	r3, [r7, #16]
 284:Generated_Source\PSoC4/CyLFClk.c ****         {
 418              		.loc 1 284 0
 419 0102 0CE0     		b	.L25
 420              	.L17:
 338:Generated_Source\PSoC4/CyLFClk.c ****             }
 339:Generated_Source\PSoC4/CyLFClk.c ****         }
 340:Generated_Source\PSoC4/CyLFClk.c ****         else
 341:Generated_Source\PSoC4/CyLFClk.c ****         {
 342:Generated_Source\PSoC4/CyLFClk.c ****             /* Reload CNTR 1 count value for next measurement cycle*/
 343:Generated_Source\PSoC4/CyLFClk.c ****             CY_SYS_CNT_REG1_REG = (cydelayFreqHz >> CY_SYS_CLK_SYS_CLK_DEVIDER);
 421              		.loc 1 343 0
 422 0104 0E4A     		ldr	r2, .L27+24
 423 0106 114B     		ldr	r3, .L27+36
 424 0108 1B68     		ldr	r3, [r3]
 425 010a 9B0A     		lsrs	r3, r3, #10
 426 010c 1360     		str	r3, [r2]
 344:Generated_Source\PSoC4/CyLFClk.c ****             compensateRunningStatus = CY_SYS_CLK_TRIM_OR_COMP_STARTED;
 427              		.loc 1 344 0
 428 010e 0B4B     		ldr	r3, .L27+20
 429 0110 0122     		movs	r2, #1
 430 0112 1A60     		str	r2, [r3]
 345:Generated_Source\PSoC4/CyLFClk.c ****             returnStatus = CYRET_STARTED;
 431              		.loc 1 345 0
 432 0114 0723     		movs	r3, #7
 433 0116 3B61     		str	r3, [r7, #16]
 284:Generated_Source\PSoC4/CyLFClk.c ****         {
 434              		.loc 1 284 0
 435 0118 01E0     		b	.L25
 436              	.L16:
 346:Generated_Source\PSoC4/CyLFClk.c ****         }
 347:Generated_Source\PSoC4/CyLFClk.c ****     }
 348:Generated_Source\PSoC4/CyLFClk.c ****     else
 349:Generated_Source\PSoC4/CyLFClk.c ****     {
 350:Generated_Source\PSoC4/CyLFClk.c ****         returnStatus = CYRET_INVALID_STATE;
 437              		.loc 1 350 0
 438 011a 1123     		movs	r3, #17
ARM GAS  C:\Users\ASUS\AppData\Local\Temp\ccYDUrWd.s 			page 15


 439 011c 3B61     		str	r3, [r7, #16]
 440              	.L25:
 351:Generated_Source\PSoC4/CyLFClk.c ****     }
 352:Generated_Source\PSoC4/CyLFClk.c **** 
 353:Generated_Source\PSoC4/CyLFClk.c ****     return (returnStatus);
 441              		.loc 1 353 0
 442 011e 3B69     		ldr	r3, [r7, #16]
 354:Generated_Source\PSoC4/CyLFClk.c **** }
 443              		.loc 1 354 0
 444 0120 1800     		movs	r0, r3
 445 0122 BD46     		mov	sp, r7
 446 0124 07B0     		add	sp, sp, #28
 447              		@ sp needed
 448 0126 90BD     		pop	{r4, r7, pc}
 449              	.L28:
 450              		.align	2
 451              	.L27:
 452 0128 10010B40 		.word	1074462992
 453 012c 3F3F0000 		.word	16191
 454 0130 08000340 		.word	1073938440
 455 0134 01020000 		.word	513
 456 0138 00286BEE 		.word	-294967296
 457 013c 18000000 		.word	compensateRunningStatus.4836
 458 0140 18000340 		.word	1073938456
 459 0144 1C000340 		.word	1073938460
 460 0148 60D10000 		.word	53600
 461 014c 00000000 		.word	cydelayFreqHz
 462 0150 0D030000 		.word	781
 463 0154 350C0000 		.word	3125
 464              		.cfi_endproc
 465              	.LFE4:
 466              		.size	CySysClkIloCompensate, .-CySysClkIloCompensate
 467              		.section	.text.CySysClkIloEnabled,"ax",%progbits
 468              		.align	2
 469              		.code	16
 470              		.thumb_func
 471              		.type	CySysClkIloEnabled, %function
 472              	CySysClkIloEnabled:
 473              	.LFB5:
 355:Generated_Source\PSoC4/CyLFClk.c **** 
 356:Generated_Source\PSoC4/CyLFClk.c **** 
 357:Generated_Source\PSoC4/CyLFClk.c **** #if(CY_IP_SRSSV2)
 358:Generated_Source\PSoC4/CyLFClk.c ****     /*******************************************************************************
 359:Generated_Source\PSoC4/CyLFClk.c ****     * Function Name: CySysClkIloEnabled
 360:Generated_Source\PSoC4/CyLFClk.c ****     ****************************************************************************//**
 361:Generated_Source\PSoC4/CyLFClk.c ****     *
 362:Generated_Source\PSoC4/CyLFClk.c ****     * \internal
 363:Generated_Source\PSoC4/CyLFClk.c ****     * Reports the ILO enable state.
 364:Generated_Source\PSoC4/CyLFClk.c ****     *
 365:Generated_Source\PSoC4/CyLFClk.c ****     * \return
 366:Generated_Source\PSoC4/CyLFClk.c ****     * 1 if ILO is enabled, and 0 if ILO is disabled.
 367:Generated_Source\PSoC4/CyLFClk.c ****     *
 368:Generated_Source\PSoC4/CyLFClk.c ****     * \endinternal
 369:Generated_Source\PSoC4/CyLFClk.c ****     ********************************************************************************/
 370:Generated_Source\PSoC4/CyLFClk.c ****     static uint32 CySysClkIloEnabled(void)
 371:Generated_Source\PSoC4/CyLFClk.c ****     {
 474              		.loc 1 371 0
ARM GAS  C:\Users\ASUS\AppData\Local\Temp\ccYDUrWd.s 			page 16


 475              		.cfi_startproc
 476              		@ args = 0, pretend = 0, frame = 0
 477              		@ frame_needed = 1, uses_anonymous_args = 0
 478 0000 80B5     		push	{r7, lr}
 479              		.cfi_def_cfa_offset 8
 480              		.cfi_offset 7, -8
 481              		.cfi_offset 14, -4
 482 0002 00AF     		add	r7, sp, #0
 483              		.cfi_def_cfa_register 7
 372:Generated_Source\PSoC4/CyLFClk.c ****         /* Prohibits writing to WDT registers and ILO/WCO registers when not equal to 0 */
 373:Generated_Source\PSoC4/CyLFClk.c ****         return ((0u != (CY_SYS_CLK_ILO_CONFIG_REG & (uint32)(CY_SYS_CLK_ILO_CONFIG_ENABLE))) ?
 484              		.loc 1 373 0
 485 0004 044B     		ldr	r3, .L33
 486 0006 1B68     		ldr	r3, [r3]
 374:Generated_Source\PSoC4/CyLFClk.c ****             (uint32) 1u :
 487              		.loc 1 374 0
 488 0008 002B     		cmp	r3, #0
 489 000a 01DA     		bge	.L30
 490              		.loc 1 374 0 is_stmt 0 discriminator 1
 491 000c 0123     		movs	r3, #1
 373:Generated_Source\PSoC4/CyLFClk.c ****             (uint32) 1u :
 492              		.loc 1 373 0 is_stmt 1 discriminator 1
 493 000e 00E0     		b	.L32
 494              	.L30:
 495              		.loc 1 374 0 discriminator 2
 496 0010 0023     		movs	r3, #0
 497              	.L32:
 375:Generated_Source\PSoC4/CyLFClk.c ****             (uint32) 0u);
 376:Generated_Source\PSoC4/CyLFClk.c ****     }
 498              		.loc 1 376 0 discriminator 1
 499 0012 1800     		movs	r0, r3
 500 0014 BD46     		mov	sp, r7
 501              		@ sp needed
 502 0016 80BD     		pop	{r7, pc}
 503              	.L34:
 504              		.align	2
 505              	.L33:
 506 0018 04010B40 		.word	1074462980
 507              		.cfi_endproc
 508              	.LFE5:
 509              		.size	CySysClkIloEnabled, .-CySysClkIloEnabled
 510              		.section	.text.CySysWdtLock,"ax",%progbits
 511              		.align	2
 512              		.global	CySysWdtLock
 513              		.code	16
 514              		.thumb_func
 515              		.type	CySysWdtLock, %function
 516              	CySysWdtLock:
 517              	.LFB6:
 377:Generated_Source\PSoC4/CyLFClk.c **** #endif /* (CY_IP_SRSSV2) */
 378:Generated_Source\PSoC4/CyLFClk.c **** 
 379:Generated_Source\PSoC4/CyLFClk.c **** 
 380:Generated_Source\PSoC4/CyLFClk.c **** #if(CY_IP_SRSSV2 && (!CY_IP_CPUSS))
 381:Generated_Source\PSoC4/CyLFClk.c **** /********************************************************************************
 382:Generated_Source\PSoC4/CyLFClk.c **** * Function Name: CySysClkIloTrim
 383:Generated_Source\PSoC4/CyLFClk.c **** *****************************************************************************//**
 384:Generated_Source\PSoC4/CyLFClk.c **** * \brief
ARM GAS  C:\Users\ASUS\AppData\Local\Temp\ccYDUrWd.s 			page 17


 385:Generated_Source\PSoC4/CyLFClk.c **** * The API trims the ILO frequency to +/- 10% accuracy range using accurate 
 386:Generated_Source\PSoC4/CyLFClk.c **** * SysClk.
 387:Generated_Source\PSoC4/CyLFClk.c **** *
 388:Generated_Source\PSoC4/CyLFClk.c **** * The API can be blocking or non-blocking depending on the value of the mode 
 389:Generated_Source\PSoC4/CyLFClk.c **** * parameter passed. The accuracy of ILO after trimming in parts per thousand 
 390:Generated_Source\PSoC4/CyLFClk.c **** * is returned through the iloAccuracyInPPT pointer. A positive number indicates 
 391:Generated_Source\PSoC4/CyLFClk.c **** * that the ILO is running fast and a negative number indicates that the ILO is 
 392:Generated_Source\PSoC4/CyLFClk.c **** * running slowly. This error is relative to the error in the reference clock 
 393:Generated_Source\PSoC4/CyLFClk.c **** * (SysClk), so the absolute error will be higher and depends on the accuracy 
 394:Generated_Source\PSoC4/CyLFClk.c **** * of the reference.
 395:Generated_Source\PSoC4/CyLFClk.c **** *
 396:Generated_Source\PSoC4/CyLFClk.c **** * The CySysClkIloStartMeasurement() API should be called prior to calling this 
 397:Generated_Source\PSoC4/CyLFClk.c **** * API. Otherwise it will return CYRET_INVALID_STATE as the measurement was not 
 398:Generated_Source\PSoC4/CyLFClk.c **** * started.
 399:Generated_Source\PSoC4/CyLFClk.c **** *
 400:Generated_Source\PSoC4/CyLFClk.c **** * \note SysClk should be sourced by IMO. Otherwise CySysClkIloTrim() and 
 401:Generated_Source\PSoC4/CyLFClk.c **** * CySysClkIloCompensate() API can give incorrect results.
 402:Generated_Source\PSoC4/CyLFClk.c **** *
 403:Generated_Source\PSoC4/CyLFClk.c **** * \note If System clock frequency is changed in runtime, the CyDelayFreq() 
 404:Generated_Source\PSoC4/CyLFClk.c **** * with the appropriate parameter (Frequency of bus clock in Hertz) should be 
 405:Generated_Source\PSoC4/CyLFClk.c **** * called before next CySysClkIloCompensate() usage.
 406:Generated_Source\PSoC4/CyLFClk.c **** *
 407:Generated_Source\PSoC4/CyLFClk.c **** * \warning Do not enter deep sleep mode until the function returns CYRET_SUCCESS
 408:Generated_Source\PSoC4/CyLFClk.c **** * or CYRET_TIMEOUT.
 409:Generated_Source\PSoC4/CyLFClk.c **** *
 410:Generated_Source\PSoC4/CyLFClk.c **** * Available for all PSoC 4 devices with ILO trim capability. This excludes 
 411:Generated_Source\PSoC4/CyLFClk.c **** * PSoC 4000 / PSoC 4100 / PSoC 4200 / PSoC 4000S / PSoC 4100S / PSoC
 412:Generated_Source\PSoC4/CyLFClk.c **** * Analog Coprocessor devices.
 413:Generated_Source\PSoC4/CyLFClk.c **** *
 414:Generated_Source\PSoC4/CyLFClk.c **** * \param mode
 415:Generated_Source\PSoC4/CyLFClk.c **** *  CY_SYS_CLK_BLOCKING -  The function does not return until the ILO is 
 416:Generated_Source\PSoC4/CyLFClk.c **** * within +/-10% accuracy range or time out has occurred.<br>
 417:Generated_Source\PSoC4/CyLFClk.c **** * CY_SYS_CLK_NON_BLOCKING - The function returns immediately after 
 418:Generated_Source\PSoC4/CyLFClk.c **** * performing a single iteration of the trim process. The function should be 
 419:Generated_Source\PSoC4/CyLFClk.c **** * called repeatedly until the trimming is completed successfully.
 420:Generated_Source\PSoC4/CyLFClk.c **** *
 421:Generated_Source\PSoC4/CyLFClk.c **** * \param *iloAccuracyInPPT Pointer to an integer in which the trimmed ILO 
 422:Generated_Source\PSoC4/CyLFClk.c **** * accuracy will be returned.
 423:Generated_Source\PSoC4/CyLFClk.c **** *
 424:Generated_Source\PSoC4/CyLFClk.c **** * \details The value returned in *iloAccuracyInPPT pointer is not valid 
 425:Generated_Source\PSoC4/CyLFClk.c **** * until the function returns CYRET_SUCCESS. ILO accuracy in PPT is given by:
 426:Generated_Source\PSoC4/CyLFClk.c **** *
 427:Generated_Source\PSoC4/CyLFClk.c **** * IloAccuracyInPPT = ((MeasuredIloFreq - DesiredIloFreq) * 
 428:Generated_Source\PSoC4/CyLFClk.c **** * CY_SYS_CLK_PERTHOUSAND) / DesiredIloFreq);
 429:Generated_Source\PSoC4/CyLFClk.c **** *
 430:Generated_Source\PSoC4/CyLFClk.c **** * DesiredIloFreq  = 32000, CY_SYS_CLK_PERTHOUSAND = 1000;
 431:Generated_Source\PSoC4/CyLFClk.c **** *
 432:Generated_Source\PSoC4/CyLFClk.c **** * \return CYRET_SUCCESS - Indicates trimming is complete. This value indicates 
 433:Generated_Source\PSoC4/CyLFClk.c **** * trimming is successful and iloAccuracyInPPT is within +/- 10%.
 434:Generated_Source\PSoC4/CyLFClk.c **** *
 435:Generated_Source\PSoC4/CyLFClk.c **** * \return CYRET_STARTED - Indicates measurement is in progress. This is applicable 
 436:Generated_Source\PSoC4/CyLFClk.c **** * only for non-blocking mode.
 437:Generated_Source\PSoC4/CyLFClk.c **** *
 438:Generated_Source\PSoC4/CyLFClk.c **** * \return CYRET_INVALID_STATE - Indicates trimming was unsuccessful. You should 
 439:Generated_Source\PSoC4/CyLFClk.c **** * call CySysClkIloStartMeasurement() before calling this API.
 440:Generated_Source\PSoC4/CyLFClk.c **** *
 441:Generated_Source\PSoC4/CyLFClk.c **** * \return CYRET_TIMEOUT - Indicates trimming was unsuccessful. This is applicable 
ARM GAS  C:\Users\ASUS\AppData\Local\Temp\ccYDUrWd.s 			page 18


 442:Generated_Source\PSoC4/CyLFClk.c **** * only for blocking mode. Timeout means the trimming was tried 5 times without 
 443:Generated_Source\PSoC4/CyLFClk.c **** * success (i.e. ILO accuracy > +/- 10%). The user can call the API again for 
 444:Generated_Source\PSoC4/CyLFClk.c **** * another try or wait for some time before calling it again (to let the system 
 445:Generated_Source\PSoC4/CyLFClk.c **** * to settle to another operating point change in temperature etc.) and continue 
 446:Generated_Source\PSoC4/CyLFClk.c **** * using the previous trim value till the next call.
 447:Generated_Source\PSoC4/CyLFClk.c **** *
 448:Generated_Source\PSoC4/CyLFClk.c **** **********************************************************************************/
 449:Generated_Source\PSoC4/CyLFClk.c **** cystatus CySysClkIloTrim(uint32 mode, int32* iloAccuracyInPPT)
 450:Generated_Source\PSoC4/CyLFClk.c **** {
 451:Generated_Source\PSoC4/CyLFClk.c ****     uint32 timeOutClocks = CY_SYS_CLK_TIMEOUT;
 452:Generated_Source\PSoC4/CyLFClk.c ****     uint32 waitUntilCntr1Stops;
 453:Generated_Source\PSoC4/CyLFClk.c ****     static uint32 trimRunningStatus = CY_SYS_CLK_TRIM_OR_COMP_FINISHED;
 454:Generated_Source\PSoC4/CyLFClk.c ****     uint32 checkStatus;
 455:Generated_Source\PSoC4/CyLFClk.c ****     cystatus returnStatus;
 456:Generated_Source\PSoC4/CyLFClk.c **** 
 457:Generated_Source\PSoC4/CyLFClk.c ****     checkStatus = (uint32) (CY_SYS_CLK_DFT_REG & (uint32) CY_SYS_TST_DDFT_CTRL_REG_DEFAULT_MASK);
 458:Generated_Source\PSoC4/CyLFClk.c **** 
 459:Generated_Source\PSoC4/CyLFClk.c ****     /* Check if DFT and CTRL registers were configures in CySysStartMeasurement*/
 460:Generated_Source\PSoC4/CyLFClk.c ****     if((checkStatus == CY_SYS_CLK_SEL_ILO_DFT_SOURCE) &&
 461:Generated_Source\PSoC4/CyLFClk.c ****        (CY_SYS_TST_DDFT_CTRL_REG == CY_SYS_TST_DDFT_CTRL_REG_SEL2_CLK1) &&
 462:Generated_Source\PSoC4/CyLFClk.c ****        (iloAccuracyInPPT != NULL))
 463:Generated_Source\PSoC4/CyLFClk.c ****     {
 464:Generated_Source\PSoC4/CyLFClk.c ****         if(CY_SYS_CLK_BLOCKING == mode)
 465:Generated_Source\PSoC4/CyLFClk.c ****         {
 466:Generated_Source\PSoC4/CyLFClk.c ****             waitUntilCntr1Stops = cydelayFreqHz >> CY_SYS_CLK_SYS_CLK_DEVIDER;
 467:Generated_Source\PSoC4/CyLFClk.c ****             do
 468:Generated_Source\PSoC4/CyLFClk.c ****             {
 469:Generated_Source\PSoC4/CyLFClk.c ****                 /* Reload CNTR 1 count value for measuring cycle*/
 470:Generated_Source\PSoC4/CyLFClk.c ****                 CY_SYS_CNT_REG1_REG = cydelayFreqHz >> CY_SYS_CLK_SYS_CLK_DEVIDER; 
 471:Generated_Source\PSoC4/CyLFClk.c **** 
 472:Generated_Source\PSoC4/CyLFClk.c ****                 /* Wait until counter CNTR 1 will finish down-counting */
 473:Generated_Source\PSoC4/CyLFClk.c ****                 while (0u == (CY_SYS_CNT_REG1_REG & CY_SYS_CLK_ILO_CALIBR_COMPLETE_MASK))
 474:Generated_Source\PSoC4/CyLFClk.c ****                 {
 475:Generated_Source\PSoC4/CyLFClk.c ****                     waitUntilCntr1Stops--;
 476:Generated_Source\PSoC4/CyLFClk.c ****                     if (0u == waitUntilCntr1Stops)
 477:Generated_Source\PSoC4/CyLFClk.c ****                     {
 478:Generated_Source\PSoC4/CyLFClk.c ****                         break;
 479:Generated_Source\PSoC4/CyLFClk.c ****                     }
 480:Generated_Source\PSoC4/CyLFClk.c ****                 }
 481:Generated_Source\PSoC4/CyLFClk.c ****                 trimRunningStatus = CySysClkIloUpdateTrimReg(iloAccuracyInPPT);
 482:Generated_Source\PSoC4/CyLFClk.c ****                 timeOutClocks--;
 483:Generated_Source\PSoC4/CyLFClk.c **** 
 484:Generated_Source\PSoC4/CyLFClk.c ****             /* Untill ILO accuracy will be in range less than +/- 10% or timeout occurs*/
 485:Generated_Source\PSoC4/CyLFClk.c ****             } while((CYRET_SUCCESS != trimRunningStatus) && 
 486:Generated_Source\PSoC4/CyLFClk.c ****               (CYRET_INVALID_STATE != trimRunningStatus) && 
 487:Generated_Source\PSoC4/CyLFClk.c ****                                (0u != timeOutClocks));
 488:Generated_Source\PSoC4/CyLFClk.c **** 
 489:Generated_Source\PSoC4/CyLFClk.c ****             if (CYRET_SUCCESS == trimRunningStatus)
 490:Generated_Source\PSoC4/CyLFClk.c ****             {
 491:Generated_Source\PSoC4/CyLFClk.c ****                 returnStatus = CYRET_SUCCESS;
 492:Generated_Source\PSoC4/CyLFClk.c ****             }
 493:Generated_Source\PSoC4/CyLFClk.c ****             else
 494:Generated_Source\PSoC4/CyLFClk.c ****             {
 495:Generated_Source\PSoC4/CyLFClk.c ****                 if(0u == timeOutClocks)
 496:Generated_Source\PSoC4/CyLFClk.c ****                 {
 497:Generated_Source\PSoC4/CyLFClk.c ****                     trimRunningStatus = CY_SYS_CLK_TRIM_OR_COMP_FINISHED;
 498:Generated_Source\PSoC4/CyLFClk.c ****                     returnStatus = CYRET_TIMEOUT;
ARM GAS  C:\Users\ASUS\AppData\Local\Temp\ccYDUrWd.s 			page 19


 499:Generated_Source\PSoC4/CyLFClk.c ****                 }
 500:Generated_Source\PSoC4/CyLFClk.c ****                 else
 501:Generated_Source\PSoC4/CyLFClk.c ****                 {
 502:Generated_Source\PSoC4/CyLFClk.c ****                     returnStatus = CYRET_INVALID_STATE;
 503:Generated_Source\PSoC4/CyLFClk.c ****                 }
 504:Generated_Source\PSoC4/CyLFClk.c ****             }
 505:Generated_Source\PSoC4/CyLFClk.c ****         }
 506:Generated_Source\PSoC4/CyLFClk.c ****         /* Non - blocking mode */
 507:Generated_Source\PSoC4/CyLFClk.c ****         else
 508:Generated_Source\PSoC4/CyLFClk.c ****         {
 509:Generated_Source\PSoC4/CyLFClk.c ****             if (CY_SYS_CLK_TRIM_OR_COMP_FINISHED != trimRunningStatus)
 510:Generated_Source\PSoC4/CyLFClk.c ****             {
 511:Generated_Source\PSoC4/CyLFClk.c ****                 /* Checking if the counter CNTR 1 finished down-counting */
 512:Generated_Source\PSoC4/CyLFClk.c ****                 if(0u != (CY_SYS_CNT_REG1_REG & CY_SYS_CLK_ILO_CALIBR_COMPLETE_MASK))
 513:Generated_Source\PSoC4/CyLFClk.c ****                 {
 514:Generated_Source\PSoC4/CyLFClk.c ****                     returnStatus = CySysClkIloUpdateTrimReg(iloAccuracyInPPT);
 515:Generated_Source\PSoC4/CyLFClk.c ****                     trimRunningStatus = CY_SYS_CLK_TRIM_OR_COMP_FINISHED;
 516:Generated_Source\PSoC4/CyLFClk.c ****                 }
 517:Generated_Source\PSoC4/CyLFClk.c ****                 else
 518:Generated_Source\PSoC4/CyLFClk.c ****                 {
 519:Generated_Source\PSoC4/CyLFClk.c ****                     returnStatus = CYRET_STARTED;
 520:Generated_Source\PSoC4/CyLFClk.c ****                 }
 521:Generated_Source\PSoC4/CyLFClk.c ****             }
 522:Generated_Source\PSoC4/CyLFClk.c ****             else
 523:Generated_Source\PSoC4/CyLFClk.c ****             {
 524:Generated_Source\PSoC4/CyLFClk.c ****                 /* Reload CNTR 1 count value for next measuring */
 525:Generated_Source\PSoC4/CyLFClk.c ****                 CY_SYS_CNT_REG1_REG = cydelayFreqHz >> CY_SYS_CLK_SYS_CLK_DEVIDER;
 526:Generated_Source\PSoC4/CyLFClk.c ****                 trimRunningStatus = CY_SYS_CLK_TRIM_OR_COMP_STARTED;
 527:Generated_Source\PSoC4/CyLFClk.c ****                 returnStatus = CYRET_STARTED;
 528:Generated_Source\PSoC4/CyLFClk.c ****             }
 529:Generated_Source\PSoC4/CyLFClk.c ****         }
 530:Generated_Source\PSoC4/CyLFClk.c ****     }
 531:Generated_Source\PSoC4/CyLFClk.c ****     else
 532:Generated_Source\PSoC4/CyLFClk.c ****     {
 533:Generated_Source\PSoC4/CyLFClk.c ****         returnStatus = CYRET_INVALID_STATE;
 534:Generated_Source\PSoC4/CyLFClk.c ****     }
 535:Generated_Source\PSoC4/CyLFClk.c **** 
 536:Generated_Source\PSoC4/CyLFClk.c ****     return (returnStatus);
 537:Generated_Source\PSoC4/CyLFClk.c **** }
 538:Generated_Source\PSoC4/CyLFClk.c **** 
 539:Generated_Source\PSoC4/CyLFClk.c **** 
 540:Generated_Source\PSoC4/CyLFClk.c **** /********************************************************************************
 541:Generated_Source\PSoC4/CyLFClk.c **** * Function Name: CySysClkIloUpdateTrimReg
 542:Generated_Source\PSoC4/CyLFClk.c **** *********************************************************************************
 543:Generated_Source\PSoC4/CyLFClk.c **** *
 544:Generated_Source\PSoC4/CyLFClk.c **** * \internal
 545:Generated_Source\PSoC4/CyLFClk.c **** * Function calculates ILO accuracy and check is error range is higher than 
 546:Generated_Source\PSoC4/CyLFClk.c **** * +/- 10%. If Measured frequency is higher than +/- 10% function updates 
 547:Generated_Source\PSoC4/CyLFClk.c **** * ILO Trim register.
 548:Generated_Source\PSoC4/CyLFClk.c **** *
 549:Generated_Source\PSoC4/CyLFClk.c **** * \param
 550:Generated_Source\PSoC4/CyLFClk.c **** * iloAccuracyInPPT Pointer to an integer in which the trimmed ILO 
 551:Generated_Source\PSoC4/CyLFClk.c **** * accuracy will be returned. The value returned in this pointer is not valid 
 552:Generated_Source\PSoC4/CyLFClk.c **** * until the function returns CYRET_SUCCESS. If ILO frequency error is lower 
 553:Generated_Source\PSoC4/CyLFClk.c **** * than +/- 10% then the value returned in this pointer will be updated.
 554:Generated_Source\PSoC4/CyLFClk.c **** *
 555:Generated_Source\PSoC4/CyLFClk.c **** * \return CYRET_SUCCESS - Indicates that ILO frequency error is lower than 
ARM GAS  C:\Users\ASUS\AppData\Local\Temp\ccYDUrWd.s 			page 20


 556:Generated_Source\PSoC4/CyLFClk.c **** * +/- 10% and no actions are required.
 557:Generated_Source\PSoC4/CyLFClk.c **** *
 558:Generated_Source\PSoC4/CyLFClk.c **** * \return  CYRET_STARTED - Indicates that ILO frequency error is higher than 
 559:Generated_Source\PSoC4/CyLFClk.c **** * +/- 10% and ILO Trim register was updated.
 560:Generated_Source\PSoC4/CyLFClk.c **** *
 561:Generated_Source\PSoC4/CyLFClk.c **** * \return CYRET_INVALID_STATE - Indicates trimming was unsuccessful.
 562:Generated_Source\PSoC4/CyLFClk.c **** *
 563:Generated_Source\PSoC4/CyLFClk.c **** * Post #1 - To obtain 10% ILO accuracy the calculated accuracy should be equal 
 564:Generated_Source\PSoC4/CyLFClk.c **** * CY_SYS_CLK_ERROR_RANGE = 5.6%. Error value should take to account IMO error of 
 565:Generated_Source\PSoC4/CyLFClk.c **** * +/-2% (+/-0.64kHz), trim step of 2.36kHz (+/-1.18kHz) and error while ILO 
 566:Generated_Source\PSoC4/CyLFClk.c **** * frequency measuring.
 567:Generated_Source\PSoC4/CyLFClk.c **** *
 568:Generated_Source\PSoC4/CyLFClk.c **** * \endinternal
 569:Generated_Source\PSoC4/CyLFClk.c **** *
 570:Generated_Source\PSoC4/CyLFClk.c **** **********************************************************************************/
 571:Generated_Source\PSoC4/CyLFClk.c **** cystatus CySysClkIloUpdateTrimReg(int32* iloAccuracyInPPT)
 572:Generated_Source\PSoC4/CyLFClk.c **** {
 573:Generated_Source\PSoC4/CyLFClk.c ****     uint32 measuredIloFreq;
 574:Generated_Source\PSoC4/CyLFClk.c ****     uint32 currentIloTrimValue;
 575:Generated_Source\PSoC4/CyLFClk.c ****     int32 iloAccuracyValue;
 576:Generated_Source\PSoC4/CyLFClk.c ****     int32 trimStep;
 577:Generated_Source\PSoC4/CyLFClk.c ****     cystatus errorRangeStatus;
 578:Generated_Source\PSoC4/CyLFClk.c **** 
 579:Generated_Source\PSoC4/CyLFClk.c ****     if(0u != CY_SYS_CNT_REG2_REG)
 580:Generated_Source\PSoC4/CyLFClk.c ****     {
 581:Generated_Source\PSoC4/CyLFClk.c ****         measuredIloFreq = (CY_SYS_CNT_REG2_REG * cydelayFreqHz) / (cydelayFreqHz >> CY_SYS_CLK_SYS_
 582:Generated_Source\PSoC4/CyLFClk.c **** 
 583:Generated_Source\PSoC4/CyLFClk.c ****         /* Calculate value of error in PPT according to formula - 
 584:Generated_Source\PSoC4/CyLFClk.c ****         *       ((measuredIlofrequency - iloDesired frequency) * 1000 / iloDesired frequency) */
 585:Generated_Source\PSoC4/CyLFClk.c ****         iloAccuracyValue = (((int32) measuredIloFreq - (int32) CY_SYS_CLK_ILO_DESIRED_FREQ_HZ) * \
 586:Generated_Source\PSoC4/CyLFClk.c ****                             ((int32) CY_SYS_CLK_PERTHOUSAND)) / ((int32) CY_SYS_CLK_ILO_DESIRED_FRE
 587:Generated_Source\PSoC4/CyLFClk.c **** 
 588:Generated_Source\PSoC4/CyLFClk.c ****         /* Check if ILO accuracy is more than +/- CY_SYS_CLK_ERROR_RANGE. See post #1 of API descri
 589:Generated_Source\PSoC4/CyLFClk.c ****         if(CY_SYS_CLK_ERROR_RANGE < (uint32) (CY_SYS_CLK_ABS_MACRO(iloAccuracyValue)))
 590:Generated_Source\PSoC4/CyLFClk.c ****         {
 591:Generated_Source\PSoC4/CyLFClk.c ****             if (0 < iloAccuracyValue)
 592:Generated_Source\PSoC4/CyLFClk.c ****             {
 593:Generated_Source\PSoC4/CyLFClk.c ****                 trimStep = (int32) (((iloAccuracyValue * (int32) CY_SYS_CLK_ERROR_COEF) + 
 594:Generated_Source\PSoC4/CyLFClk.c ****                 CY_SYS_CLK_HALF_OF_STEP) / CY_SYS_CLK_ERROR_STEP);
 595:Generated_Source\PSoC4/CyLFClk.c ****             }
 596:Generated_Source\PSoC4/CyLFClk.c ****             else
 597:Generated_Source\PSoC4/CyLFClk.c ****             {
 598:Generated_Source\PSoC4/CyLFClk.c ****                 trimStep = (int32) (((iloAccuracyValue * (int32) CY_SYS_CLK_ERROR_COEF) - 
 599:Generated_Source\PSoC4/CyLFClk.c ****                 CY_SYS_CLK_HALF_OF_STEP) / CY_SYS_CLK_ERROR_STEP);
 600:Generated_Source\PSoC4/CyLFClk.c ****             }
 601:Generated_Source\PSoC4/CyLFClk.c ****             currentIloTrimValue = (CY_SYS_CLK_ILO_TRIM_REG & CY_SYS_CLK_ILO_TRIM_MASK);
 602:Generated_Source\PSoC4/CyLFClk.c ****             trimStep = (int32) currentIloTrimValue - trimStep;
 603:Generated_Source\PSoC4/CyLFClk.c **** 
 604:Generated_Source\PSoC4/CyLFClk.c ****             if(trimStep > CY_SYS_CLK_FOURBITS_MAX)
 605:Generated_Source\PSoC4/CyLFClk.c ****             {
 606:Generated_Source\PSoC4/CyLFClk.c ****                 trimStep = CY_SYS_CLK_FOURBITS_MAX;
 607:Generated_Source\PSoC4/CyLFClk.c ****             }
 608:Generated_Source\PSoC4/CyLFClk.c ****             if(trimStep < 0)
 609:Generated_Source\PSoC4/CyLFClk.c ****             {
 610:Generated_Source\PSoC4/CyLFClk.c ****                 trimStep = 0;
 611:Generated_Source\PSoC4/CyLFClk.c ****             }
 612:Generated_Source\PSoC4/CyLFClk.c ****             CY_SYS_CLK_ILO_TRIM_REG = (CY_SYS_CLK_ILO_TRIM_REG & (uint32)(~CY_SYS_CLK_ILO_TRIM_MASK
ARM GAS  C:\Users\ASUS\AppData\Local\Temp\ccYDUrWd.s 			page 21


 613:Generated_Source\PSoC4/CyLFClk.c ****                                                                  ((uint32) trimStep);
 614:Generated_Source\PSoC4/CyLFClk.c ****             errorRangeStatus = CYRET_STARTED;
 615:Generated_Source\PSoC4/CyLFClk.c ****         } /* Else return success because error is in +/- 10% range*/
 616:Generated_Source\PSoC4/CyLFClk.c ****         else
 617:Generated_Source\PSoC4/CyLFClk.c ****         {
 618:Generated_Source\PSoC4/CyLFClk.c ****             /* Write trimmed ILO accuracy through pointer. */
 619:Generated_Source\PSoC4/CyLFClk.c ****             *iloAccuracyInPPT = iloAccuracyValue;
 620:Generated_Source\PSoC4/CyLFClk.c ****             errorRangeStatus = CYRET_SUCCESS;
 621:Generated_Source\PSoC4/CyLFClk.c ****         }
 622:Generated_Source\PSoC4/CyLFClk.c ****     }
 623:Generated_Source\PSoC4/CyLFClk.c ****     else
 624:Generated_Source\PSoC4/CyLFClk.c ****     {
 625:Generated_Source\PSoC4/CyLFClk.c ****         errorRangeStatus = CYRET_INVALID_STATE;
 626:Generated_Source\PSoC4/CyLFClk.c ****     }
 627:Generated_Source\PSoC4/CyLFClk.c **** return (errorRangeStatus);
 628:Generated_Source\PSoC4/CyLFClk.c **** }
 629:Generated_Source\PSoC4/CyLFClk.c **** 
 630:Generated_Source\PSoC4/CyLFClk.c **** 
 631:Generated_Source\PSoC4/CyLFClk.c **** /*******************************************************************************
 632:Generated_Source\PSoC4/CyLFClk.c **** * Function Name: CySysClkIloRestoreFactoryTrim
 633:Generated_Source\PSoC4/CyLFClk.c **** ****************************************************************************//**
 634:Generated_Source\PSoC4/CyLFClk.c **** * \brief
 635:Generated_Source\PSoC4/CyLFClk.c **** * Restores the ILO Trim Register to factory value.
 636:Generated_Source\PSoC4/CyLFClk.c **** *
 637:Generated_Source\PSoC4/CyLFClk.c **** * The CySysClkIloStartMeasurement() API should be called prior to 
 638:Generated_Source\PSoC4/CyLFClk.c **** * calling this API. Otherwise CYRET_UNKNOWN will be returned.
 639:Generated_Source\PSoC4/CyLFClk.c **** *
 640:Generated_Source\PSoC4/CyLFClk.c **** * Available for all PSoC 4 devices except for PSoC 4000 / PSoC 4100 / PSoC 4200 
 641:Generated_Source\PSoC4/CyLFClk.c **** * / PSoC 4000S / PSoC 4100S / PSoC Analog Coprocessor devices.
 642:Generated_Source\PSoC4/CyLFClk.c **** *
 643:Generated_Source\PSoC4/CyLFClk.c **** * \return CYRET_SUCCESS - Operation was successful. 
 644:Generated_Source\PSoC4/CyLFClk.c **** * \return CYRET_UNKNOWN - CySysClkIloStartMeasurement() was not called 
 645:Generated_Source\PSoC4/CyLFClk.c **** * before this API. Hence the trim value cannot be updated.
 646:Generated_Source\PSoC4/CyLFClk.c **** *
 647:Generated_Source\PSoC4/CyLFClk.c **** ******************************************************************************/
 648:Generated_Source\PSoC4/CyLFClk.c **** cystatus CySysClkIloRestoreFactoryTrim(void)
 649:Generated_Source\PSoC4/CyLFClk.c **** {
 650:Generated_Source\PSoC4/CyLFClk.c ****     cystatus returnStatus = CYRET_SUCCESS;
 651:Generated_Source\PSoC4/CyLFClk.c **** 
 652:Generated_Source\PSoC4/CyLFClk.c ****     /* Check was defaultIloTrimRegValue modified in CySysClkIloStartMeasurement */
 653:Generated_Source\PSoC4/CyLFClk.c ****     if(CY_SYS_CLK_ILO_TRIM_DEFAULT_VALUE != defaultIloTrimRegValue)
 654:Generated_Source\PSoC4/CyLFClk.c ****         {
 655:Generated_Source\PSoC4/CyLFClk.c ****             CY_SYS_CLK_ILO_TRIM_REG = ((CY_SYS_CLK_ILO_TRIM_REG & (uint32)(~CY_SYS_CLK_ILO_TRIM_MAS
 656:Generated_Source\PSoC4/CyLFClk.c ****                                        (defaultIloTrimRegValue & CY_SYS_CLK_ILO_TRIM_MASK));
 657:Generated_Source\PSoC4/CyLFClk.c ****         }
 658:Generated_Source\PSoC4/CyLFClk.c ****         else
 659:Generated_Source\PSoC4/CyLFClk.c ****         {
 660:Generated_Source\PSoC4/CyLFClk.c ****             returnStatus = CYRET_UNKNOWN;
 661:Generated_Source\PSoC4/CyLFClk.c ****         }
 662:Generated_Source\PSoC4/CyLFClk.c **** 
 663:Generated_Source\PSoC4/CyLFClk.c ****         return (returnStatus);
 664:Generated_Source\PSoC4/CyLFClk.c **** }
 665:Generated_Source\PSoC4/CyLFClk.c **** #endif /* (CY_IP_SRSSV2 && (!CY_IP_CPUSS)) */
 666:Generated_Source\PSoC4/CyLFClk.c **** 
 667:Generated_Source\PSoC4/CyLFClk.c **** 
 668:Generated_Source\PSoC4/CyLFClk.c **** #if (CY_IP_WCO && CY_IP_SRSSV2)
 669:Generated_Source\PSoC4/CyLFClk.c ****     /*******************************************************************************
ARM GAS  C:\Users\ASUS\AppData\Local\Temp\ccYDUrWd.s 			page 22


 670:Generated_Source\PSoC4/CyLFClk.c ****     * Function Name: CySysClkGetLfclkSource
 671:Generated_Source\PSoC4/CyLFClk.c ****     ********************************************************************************
 672:Generated_Source\PSoC4/CyLFClk.c ****     *
 673:Generated_Source\PSoC4/CyLFClk.c ****     * \internal
 674:Generated_Source\PSoC4/CyLFClk.c ****     *  Gets the clock source for the LFCLK clock.
 675:Generated_Source\PSoC4/CyLFClk.c ****     *  The function is applicable only for PSoC 4100 BLE / PSoC 4200 BLE / 
 676:Generated_Source\PSoC4/CyLFClk.c ****     *  PSoC 4100M / PSoC 4200M / PSoC 4200L.
 677:Generated_Source\PSoC4/CyLFClk.c ****     *
 678:Generated_Source\PSoC4/CyLFClk.c ****     * \return The LFCLK source:
 679:Generated_Source\PSoC4/CyLFClk.c ****     * CY_SYS_CLK_LFCLK_SRC_ILO Internal Low Frequency (32 kHz) Oscillator (ILO)
 680:Generated_Source\PSoC4/CyLFClk.c ****     * CY_SYS_CLK_LFCLK_SRC_WCO Low Frequency Watch Crystal Oscillator (WCO)
 681:Generated_Source\PSoC4/CyLFClk.c ****     *
 682:Generated_Source\PSoC4/CyLFClk.c ****     * \endinternal
 683:Generated_Source\PSoC4/CyLFClk.c ****     *
 684:Generated_Source\PSoC4/CyLFClk.c ****     *******************************************************************************/
 685:Generated_Source\PSoC4/CyLFClk.c ****     static uint32 CySysClkGetLfclkSource(void)
 686:Generated_Source\PSoC4/CyLFClk.c ****     {
 687:Generated_Source\PSoC4/CyLFClk.c ****         uint32 lfclkSource;
 688:Generated_Source\PSoC4/CyLFClk.c ****         lfclkSource = CY_SYS_WDT_CONFIG_REG & CY_SYS_CLK_LFCLK_SEL_MASK;
 689:Generated_Source\PSoC4/CyLFClk.c ****         return (lfclkSource);
 690:Generated_Source\PSoC4/CyLFClk.c ****     }
 691:Generated_Source\PSoC4/CyLFClk.c **** 
 692:Generated_Source\PSoC4/CyLFClk.c **** 
 693:Generated_Source\PSoC4/CyLFClk.c ****     /*******************************************************************************
 694:Generated_Source\PSoC4/CyLFClk.c ****     * Function Name: CySysClkSetLfclkSource
 695:Generated_Source\PSoC4/CyLFClk.c ****     ****************************************************************************//**
 696:Generated_Source\PSoC4/CyLFClk.c ****     * \brief
 697:Generated_Source\PSoC4/CyLFClk.c ****     *  Sets the clock source for the LFCLK clock.
 698:Generated_Source\PSoC4/CyLFClk.c ****     *
 699:Generated_Source\PSoC4/CyLFClk.c ****     * The switch between LFCLK sources must be done between the positive edges of
 700:Generated_Source\PSoC4/CyLFClk.c ****     * LFCLK, because the glitch risk is around the LFCLK positive edge. To ensure
 701:Generated_Source\PSoC4/CyLFClk.c ****     * that the switch can be done safely, the WDT counter value is read until it
 702:Generated_Source\PSoC4/CyLFClk.c ****     * changes.
 703:Generated_Source\PSoC4/CyLFClk.c ****     *
 704:Generated_Source\PSoC4/CyLFClk.c ****     * That means that the positive edge just finished and the switch is performed.
 705:Generated_Source\PSoC4/CyLFClk.c ****     * The enabled WDT counter is used for that purpose. If no counters are enabled,
 706:Generated_Source\PSoC4/CyLFClk.c ****     * counter 0 is enabled. And after the LFCLK source is switched, counter 0
 707:Generated_Source\PSoC4/CyLFClk.c ****     * configuration is restored.
 708:Generated_Source\PSoC4/CyLFClk.c ****     *
 709:Generated_Source\PSoC4/CyLFClk.c ****     *  The function is applicable only for devices with more than one source for 
 710:Generated_Source\PSoC4/CyLFClk.c ****     * LFCLK - PSoC 4100 BLE / PSoC 4200 BLE / PRoC BLE / PSoC 4100M / PSoC 4200M / 
 711:Generated_Source\PSoC4/CyLFClk.c ****     * PSoC 4200L.
 712:Generated_Source\PSoC4/CyLFClk.c ****     *
 713:Generated_Source\PSoC4/CyLFClk.c ****     * \note For PSoC 4000S / PSoC 4100S / PSoC Analog Coprocessor devices LFCLK can
 714:Generated_Source\PSoC4/CyLFClk.c ****     * only be sourced from ILO even though WCO is available.
 715:Generated_Source\PSoC4/CyLFClk.c ****     *
 716:Generated_Source\PSoC4/CyLFClk.c ****     * \param
 717:Generated_Source\PSoC4/CyLFClk.c ****     * source
 718:Generated_Source\PSoC4/CyLFClk.c ****     * CY_SYS_CLK_LFCLK_SRC_ILO - Internal Low Frequency (32 kHz) 
 719:Generated_Source\PSoC4/CyLFClk.c ****     * Oscillator (ILO).<br>
 720:Generated_Source\PSoC4/CyLFClk.c ****     * CY_SYS_CLK_LFCLK_SRC_WCO - Low Frequency Watch Crystal Oscillator (WCO).
 721:Generated_Source\PSoC4/CyLFClk.c ****     *
 722:Generated_Source\PSoC4/CyLFClk.c ****     * \details
 723:Generated_Source\PSoC4/CyLFClk.c ****     * This function has no effect if WDT is locked (CySysWdtLock() is called). 
 724:Generated_Source\PSoC4/CyLFClk.c ****     * Call CySysWdtUnlock() to unlock WDT.
 725:Generated_Source\PSoC4/CyLFClk.c ****     *
 726:Generated_Source\PSoC4/CyLFClk.c ****     * Both the current source and the new source must be running and stable before
ARM GAS  C:\Users\ASUS\AppData\Local\Temp\ccYDUrWd.s 			page 23


 727:Generated_Source\PSoC4/CyLFClk.c ****     * calling this function.
 728:Generated_Source\PSoC4/CyLFClk.c ****     *
 729:Generated_Source\PSoC4/CyLFClk.c ****     * Changing the LFCLK clock source may change the LFCLK clock frequency and
 730:Generated_Source\PSoC4/CyLFClk.c ****     * affect the functionality that uses this clock. For example, watchdog timer
 731:Generated_Source\PSoC4/CyLFClk.c ****     * "uses this clock" or "this clock uses" (WDT) is clocked by LFCLK.
 732:Generated_Source\PSoC4/CyLFClk.c ****     *
 733:Generated_Source\PSoC4/CyLFClk.c ****     *******************************************************************************/
 734:Generated_Source\PSoC4/CyLFClk.c ****     void CySysClkSetLfclkSource(uint32 source)
 735:Generated_Source\PSoC4/CyLFClk.c ****     {
 736:Generated_Source\PSoC4/CyLFClk.c ****         uint8  interruptState;
 737:Generated_Source\PSoC4/CyLFClk.c **** 
 738:Generated_Source\PSoC4/CyLFClk.c ****         if (CySysClkGetLfclkSource() != source)
 739:Generated_Source\PSoC4/CyLFClk.c ****         {
 740:Generated_Source\PSoC4/CyLFClk.c ****             interruptState = CyEnterCriticalSection();
 741:Generated_Source\PSoC4/CyLFClk.c ****             CySysClkLfclkPosedgeCatch();
 742:Generated_Source\PSoC4/CyLFClk.c ****             CY_SYS_WDT_CONFIG_REG = (CY_SYS_WDT_CONFIG_REG & (uint32)(~CY_SYS_CLK_LFCLK_SEL_MASK)) 
 743:Generated_Source\PSoC4/CyLFClk.c ****                                     (source & CY_SYS_CLK_LFCLK_SEL_MASK);
 744:Generated_Source\PSoC4/CyLFClk.c ****             CySysClkLfclkPosedgeRestore();
 745:Generated_Source\PSoC4/CyLFClk.c ****             CyExitCriticalSection(interruptState);
 746:Generated_Source\PSoC4/CyLFClk.c ****         }
 747:Generated_Source\PSoC4/CyLFClk.c ****     }
 748:Generated_Source\PSoC4/CyLFClk.c **** #endif /* (CY_IP_WCO && CY_IP_SRSSV2) */
 749:Generated_Source\PSoC4/CyLFClk.c **** 
 750:Generated_Source\PSoC4/CyLFClk.c **** 
 751:Generated_Source\PSoC4/CyLFClk.c **** #if (CY_IP_WCO)
 752:Generated_Source\PSoC4/CyLFClk.c ****     /*******************************************************************************
 753:Generated_Source\PSoC4/CyLFClk.c ****     * Function Name: CySysClkWcoStart
 754:Generated_Source\PSoC4/CyLFClk.c ****     ****************************************************************************//**
 755:Generated_Source\PSoC4/CyLFClk.c ****     * \brief
 756:Generated_Source\PSoC4/CyLFClk.c ****     *  Enables Watch Crystal Oscillator (WCO).
 757:Generated_Source\PSoC4/CyLFClk.c ****     * 
 758:Generated_Source\PSoC4/CyLFClk.c ****     * This API enables WCO which is used as a source for LFCLK. Similar to ILO, 
 759:Generated_Source\PSoC4/CyLFClk.c ****     * WCO is also available in all modes except Hibernate and Stop modes.
 760:Generated_Source\PSoC4/CyLFClk.c ****     * \note In PSoC 4000S / PSoC 4100S / PSoC Analog Coprocessor devices
 761:Generated_Source\PSoC4/CyLFClk.c ****     * WCO cannot be a source for the LFCLK. 
 762:Generated_Source\PSoC4/CyLFClk.c ****     *
 763:Generated_Source\PSoC4/CyLFClk.c ****     *  WCO is always enabled in High Power Mode (HPM). Refer to the device
 764:Generated_Source\PSoC4/CyLFClk.c ****     *  datasheet for the  WCO startup time. Once WCO becomes stable it can be
 765:Generated_Source\PSoC4/CyLFClk.c ****     *  switched to Low Power Mode (LPM). Note that oscillator can be unstable
 766:Generated_Source\PSoC4/CyLFClk.c ****     *  during a switch and hence its output should not be used at that moment.
 767:Generated_Source\PSoC4/CyLFClk.c ****     *
 768:Generated_Source\PSoC4/CyLFClk.c ****     *  The CySysClkWcoSetPowerMode() function configures the WCO power mode.
 769:Generated_Source\PSoC4/CyLFClk.c ****     *
 770:Generated_Source\PSoC4/CyLFClk.c ****     *******************************************************************************/
 771:Generated_Source\PSoC4/CyLFClk.c ****     void CySysClkWcoStart(void)
 772:Generated_Source\PSoC4/CyLFClk.c ****     {
 773:Generated_Source\PSoC4/CyLFClk.c ****         CySysClkWcoSetHighPowerMode();
 774:Generated_Source\PSoC4/CyLFClk.c ****         CY_SYS_CLK_WCO_CONFIG_REG |= CY_SYS_CLK_WCO_CONFIG_LPM_ENABLE;
 775:Generated_Source\PSoC4/CyLFClk.c ****     }
 776:Generated_Source\PSoC4/CyLFClk.c **** 
 777:Generated_Source\PSoC4/CyLFClk.c **** 
 778:Generated_Source\PSoC4/CyLFClk.c ****     /*******************************************************************************
 779:Generated_Source\PSoC4/CyLFClk.c ****     * Function Name: CySysClkWcoStop
 780:Generated_Source\PSoC4/CyLFClk.c ****     ****************************************************************************//**
 781:Generated_Source\PSoC4/CyLFClk.c ****     * \brief
 782:Generated_Source\PSoC4/CyLFClk.c ****     * Disables the 32 KHz Crystal Oscillator.
 783:Generated_Source\PSoC4/CyLFClk.c ****     *
ARM GAS  C:\Users\ASUS\AppData\Local\Temp\ccYDUrWd.s 			page 24


 784:Generated_Source\PSoC4/CyLFClk.c ****     * API switch of WCO.
 785:Generated_Source\PSoC4/CyLFClk.c ****     * \note PSoC 4100S / PSoC Analog Coprocessor: WCO is required for DeepSleep 
 786:Generated_Source\PSoC4/CyLFClk.c ****     * Timer's operation.
 787:Generated_Source\PSoC4/CyLFClk.c ****     *
 788:Generated_Source\PSoC4/CyLFClk.c ****     *******************************************************************************/
 789:Generated_Source\PSoC4/CyLFClk.c ****     void  CySysClkWcoStop(void)
 790:Generated_Source\PSoC4/CyLFClk.c ****     {
 791:Generated_Source\PSoC4/CyLFClk.c ****         #if (CY_IP_SRSSV2)
 792:Generated_Source\PSoC4/CyLFClk.c ****             uint8  interruptState;
 793:Generated_Source\PSoC4/CyLFClk.c ****         #endif /* (CY_IP_SRSSV2) */
 794:Generated_Source\PSoC4/CyLFClk.c **** 
 795:Generated_Source\PSoC4/CyLFClk.c ****         if (0u != CySysClkWcoEnabled())
 796:Generated_Source\PSoC4/CyLFClk.c ****         {
 797:Generated_Source\PSoC4/CyLFClk.c ****             #if (CY_IP_SRSSV2)
 798:Generated_Source\PSoC4/CyLFClk.c ****                 if (CY_SYS_CLK_LFCLK_SRC_WCO == CySysClkGetLfclkSource())
 799:Generated_Source\PSoC4/CyLFClk.c ****                 {
 800:Generated_Source\PSoC4/CyLFClk.c ****                     interruptState = CyEnterCriticalSection();
 801:Generated_Source\PSoC4/CyLFClk.c ****                     CySysClkLfclkPosedgeCatch();
 802:Generated_Source\PSoC4/CyLFClk.c ****                     CY_SYS_CLK_WCO_CONFIG_REG &= (uint32) ~CY_SYS_CLK_WCO_CONFIG_LPM_ENABLE;
 803:Generated_Source\PSoC4/CyLFClk.c ****                     CySysClkLfclkPosedgeRestore();
 804:Generated_Source\PSoC4/CyLFClk.c ****                     CyExitCriticalSection(interruptState);
 805:Generated_Source\PSoC4/CyLFClk.c ****                 }
 806:Generated_Source\PSoC4/CyLFClk.c ****                 else /* Safe to disable - shortened pulse does not impact peripheral */
 807:Generated_Source\PSoC4/CyLFClk.c ****             #endif /* (CY_IP_SRSSV2) */
 808:Generated_Source\PSoC4/CyLFClk.c ****             {
 809:Generated_Source\PSoC4/CyLFClk.c ****                 CY_SYS_CLK_WCO_CONFIG_REG &= (uint32) ~CY_SYS_CLK_WCO_CONFIG_LPM_ENABLE;
 810:Generated_Source\PSoC4/CyLFClk.c ****             }
 811:Generated_Source\PSoC4/CyLFClk.c ****         } /* Otherwise do nothing. WCO configuration cannot be changed. */
 812:Generated_Source\PSoC4/CyLFClk.c ****     }
 813:Generated_Source\PSoC4/CyLFClk.c **** 
 814:Generated_Source\PSoC4/CyLFClk.c **** 
 815:Generated_Source\PSoC4/CyLFClk.c ****     /*******************************************************************************
 816:Generated_Source\PSoC4/CyLFClk.c ****     * Function Name: CySysClkWcoEnabled
 817:Generated_Source\PSoC4/CyLFClk.c ****     ****************************************************************************//**
 818:Generated_Source\PSoC4/CyLFClk.c ****     * \internal Reports the WCO enable state.
 819:Generated_Source\PSoC4/CyLFClk.c ****     *
 820:Generated_Source\PSoC4/CyLFClk.c ****     * \return 1 if WCO is enabled
 821:Generated_Source\PSoC4/CyLFClk.c ****     * \return 0 if WCO is disabled.
 822:Generated_Source\PSoC4/CyLFClk.c ****     * \endinternal
 823:Generated_Source\PSoC4/CyLFClk.c ****     *******************************************************************************/
 824:Generated_Source\PSoC4/CyLFClk.c ****     uint32 CySysClkWcoEnabled(void)
 825:Generated_Source\PSoC4/CyLFClk.c ****     {
 826:Generated_Source\PSoC4/CyLFClk.c ****         return ((0u != (CY_SYS_CLK_WCO_CONFIG_REG & (uint32)(CY_SYS_CLK_WCO_CONFIG_LPM_ENABLE))) ?
 827:Generated_Source\PSoC4/CyLFClk.c ****                 (uint32) 1u :
 828:Generated_Source\PSoC4/CyLFClk.c ****                 (uint32) 0u);
 829:Generated_Source\PSoC4/CyLFClk.c ****     }
 830:Generated_Source\PSoC4/CyLFClk.c **** 
 831:Generated_Source\PSoC4/CyLFClk.c **** 
 832:Generated_Source\PSoC4/CyLFClk.c ****     /*******************************************************************************
 833:Generated_Source\PSoC4/CyLFClk.c ****     * Function Name: CySysClkWcoSetPowerMode
 834:Generated_Source\PSoC4/CyLFClk.c ****     ****************************************************************************//**
 835:Generated_Source\PSoC4/CyLFClk.c ****     * \brief
 836:Generated_Source\PSoC4/CyLFClk.c ****     * Sets the power mode for the 32 KHz WCO.
 837:Generated_Source\PSoC4/CyLFClk.c ****     *
 838:Generated_Source\PSoC4/CyLFClk.c ****     * By default (if this function is not called), the WCO is in High power mode 
 839:Generated_Source\PSoC4/CyLFClk.c ****     * during Active and device's low power modes
 840:Generated_Source\PSoC4/CyLFClk.c ****     *
ARM GAS  C:\Users\ASUS\AppData\Local\Temp\ccYDUrWd.s 			page 25


 841:Generated_Source\PSoC4/CyLFClk.c ****     * \param mode
 842:Generated_Source\PSoC4/CyLFClk.c ****     * CY_SYS_CLK_WCO_HPM - The High Power mode.<br>
 843:Generated_Source\PSoC4/CyLFClk.c ****     * CY_SYS_CLK_WCO_LPM - The Low Power mode.
 844:Generated_Source\PSoC4/CyLFClk.c ****     *
 845:Generated_Source\PSoC4/CyLFClk.c ****     * \return A previous power mode. The same as the parameters.
 846:Generated_Source\PSoC4/CyLFClk.c ****     *
 847:Generated_Source\PSoC4/CyLFClk.c ****     * \note
 848:Generated_Source\PSoC4/CyLFClk.c ****     * The WCO Low Power mode is applicable for PSoC 4100 BLE / PSoC 4200 BLE devices.
 849:Generated_Source\PSoC4/CyLFClk.c ****     *
 850:Generated_Source\PSoC4/CyLFClk.c ****     *******************************************************************************/
 851:Generated_Source\PSoC4/CyLFClk.c ****     uint32 CySysClkWcoSetPowerMode(uint32 mode)
 852:Generated_Source\PSoC4/CyLFClk.c ****     {
 853:Generated_Source\PSoC4/CyLFClk.c ****         uint32 powerModeStatus;
 854:Generated_Source\PSoC4/CyLFClk.c **** 
 855:Generated_Source\PSoC4/CyLFClk.c ****         powerModeStatus = CY_SYS_CLK_WCO_CONFIG_REG & CY_SYS_CLK_WCO_CONFIG_LPM_EN;
 856:Generated_Source\PSoC4/CyLFClk.c **** 
 857:Generated_Source\PSoC4/CyLFClk.c ****         switch(mode)
 858:Generated_Source\PSoC4/CyLFClk.c ****         {
 859:Generated_Source\PSoC4/CyLFClk.c ****         case CY_SYS_CLK_WCO_HPM:
 860:Generated_Source\PSoC4/CyLFClk.c ****                 CySysClkWcoSetHighPowerMode();
 861:Generated_Source\PSoC4/CyLFClk.c ****             break;
 862:Generated_Source\PSoC4/CyLFClk.c **** 
 863:Generated_Source\PSoC4/CyLFClk.c ****         #if(CY_IP_BLESS)
 864:Generated_Source\PSoC4/CyLFClk.c ****             case CY_SYS_CLK_WCO_LPM:
 865:Generated_Source\PSoC4/CyLFClk.c ****                     CySysClkWcoSetLowPowerMode();
 866:Generated_Source\PSoC4/CyLFClk.c ****                 break;
 867:Generated_Source\PSoC4/CyLFClk.c ****         #endif /* (CY_IP_BLESS) */
 868:Generated_Source\PSoC4/CyLFClk.c **** 
 869:Generated_Source\PSoC4/CyLFClk.c ****         default:
 870:Generated_Source\PSoC4/CyLFClk.c ****             CYASSERT(0u != 0u);
 871:Generated_Source\PSoC4/CyLFClk.c ****             break;
 872:Generated_Source\PSoC4/CyLFClk.c ****         }
 873:Generated_Source\PSoC4/CyLFClk.c **** 
 874:Generated_Source\PSoC4/CyLFClk.c ****         return (powerModeStatus);
 875:Generated_Source\PSoC4/CyLFClk.c ****     }
 876:Generated_Source\PSoC4/CyLFClk.c **** 
 877:Generated_Source\PSoC4/CyLFClk.c **** 
 878:Generated_Source\PSoC4/CyLFClk.c ****     /*******************************************************************************
 879:Generated_Source\PSoC4/CyLFClk.c ****     * Function Name: CySysClkWcoClockOutSelect
 880:Generated_Source\PSoC4/CyLFClk.c ****     ****************************************************************************//**
 881:Generated_Source\PSoC4/CyLFClk.c ****     * \brief
 882:Generated_Source\PSoC4/CyLFClk.c ****     * Selects the WCO block output source.
 883:Generated_Source\PSoC4/CyLFClk.c ****     *
 884:Generated_Source\PSoC4/CyLFClk.c ****     * In addition to generating 32.768 kHz clock from external crystals, WCO 
 885:Generated_Source\PSoC4/CyLFClk.c ****     * can be sourced by external clock source using wco_out pin. The API help to
 886:Generated_Source\PSoC4/CyLFClk.c ****     * lets you select between the sources: External crystal or external pin.
 887:Generated_Source\PSoC4/CyLFClk.c ****     *
 888:Generated_Source\PSoC4/CyLFClk.c ****     * If you want to use external pin to drive WCO the next procedure is required:
 889:Generated_Source\PSoC4/CyLFClk.c ****     * <br> 1) Disable the WCO.
 890:Generated_Source\PSoC4/CyLFClk.c ****     * <br> 2) Drive the wco_out pin to an external signal source.
 891:Generated_Source\PSoC4/CyLFClk.c ****     * <br> 3) Call CySysClkWcoClockOutSelect(CY_SYS_CLK_WCO_SEL_PIN).
 892:Generated_Source\PSoC4/CyLFClk.c ****     * <br> 4) Enable the WCO and wait for 15 us before clocking the XO pad at the high 
 893:Generated_Source\PSoC4/CyLFClk.c ****     * potential. Let's assume you are using the 1.6v clock amplitude, then the
 894:Generated_Source\PSoC4/CyLFClk.c ****     * sequence would start at 1.6v, then 0v, then 1.6v etc at a chosen frequency.
 895:Generated_Source\PSoC4/CyLFClk.c ****     *
 896:Generated_Source\PSoC4/CyLFClk.c ****     * If you want to use WCO after using an external pin source:
 897:Generated_Source\PSoC4/CyLFClk.c ****     * <br> 1) Disable the WCO.
ARM GAS  C:\Users\ASUS\AppData\Local\Temp\ccYDUrWd.s 			page 26


 898:Generated_Source\PSoC4/CyLFClk.c ****     * <br> 2) Drive off wco_out pin with external signal source.
 899:Generated_Source\PSoC4/CyLFClk.c ****     * <br> 3) Call CySysClkWcoClockOutSelect(CY_SYS_CLK_WCO_SEL_CRYSTAL).
 900:Generated_Source\PSoC4/CyLFClk.c ****     * <br> 4) Enable the WCO.
 901:Generated_Source\PSoC4/CyLFClk.c ****     *
 902:Generated_Source\PSoC4/CyLFClk.c ****     * \warning 
 903:Generated_Source\PSoC4/CyLFClk.c ****     * Do not use the oscillator output clock prior to a 15uS delay in your system.
 904:Generated_Source\PSoC4/CyLFClk.c ****     * There are no limitations on the external clock frequency.
 905:Generated_Source\PSoC4/CyLFClk.c ****     * \warning 
 906:Generated_Source\PSoC4/CyLFClk.c ****     * When external clock source was selected to drive WCO block the IMO can be 
 907:Generated_Source\PSoC4/CyLFClk.c ****     * trimmed only when external clock source period is equal to WCO external
 908:Generated_Source\PSoC4/CyLFClk.c ****     * crystal period. Also external clock source accuracy should be higher 
 909:Generated_Source\PSoC4/CyLFClk.c ****     * or equal to WCO external crystal accuracy.
 910:Generated_Source\PSoC4/CyLFClk.c ****     *
 911:Generated_Source\PSoC4/CyLFClk.c ****     * \param clockSel
 912:Generated_Source\PSoC4/CyLFClk.c ****     * CY_SYS_CLK_WCO_SEL_CRYSTAL - Selects External crystal as clock 
 913:Generated_Source\PSoC4/CyLFClk.c ****     * source of WCO.<br>
 914:Generated_Source\PSoC4/CyLFClk.c ****     * CY_SYS_CLK_WCO_SEL_PIN - Selects External clock input on wco_in pin as 
 915:Generated_Source\PSoC4/CyLFClk.c ****     * clock source of WCO.
 916:Generated_Source\PSoC4/CyLFClk.c ****     *
 917:Generated_Source\PSoC4/CyLFClk.c ****     *******************************************************************************/
 918:Generated_Source\PSoC4/CyLFClk.c ****     void CySysClkWcoClockOutSelect(uint32 clockSel)
 919:Generated_Source\PSoC4/CyLFClk.c ****     {
 920:Generated_Source\PSoC4/CyLFClk.c ****         if (0u != CySysClkWcoEnabled())
 921:Generated_Source\PSoC4/CyLFClk.c ****         {
 922:Generated_Source\PSoC4/CyLFClk.c ****             if (1u >= clockSel)
 923:Generated_Source\PSoC4/CyLFClk.c ****             {
 924:Generated_Source\PSoC4/CyLFClk.c ****                 CY_SYS_CLK_WCO_CONFIG_REG = (CY_SYS_CLK_WCO_CONFIG_REG & (uint32)(~CY_SYS_CLK_WCO_S
 925:Generated_Source\PSoC4/CyLFClk.c ****                                         (clockSel << CY_SYS_CLK_WCO_SELECT_PIN_OFFSET);
 926:Generated_Source\PSoC4/CyLFClk.c ****             }
 927:Generated_Source\PSoC4/CyLFClk.c ****             else
 928:Generated_Source\PSoC4/CyLFClk.c ****             {
 929:Generated_Source\PSoC4/CyLFClk.c ****                 CYASSERT(0u != 0u);
 930:Generated_Source\PSoC4/CyLFClk.c ****             }
 931:Generated_Source\PSoC4/CyLFClk.c ****         }
 932:Generated_Source\PSoC4/CyLFClk.c ****     }
 933:Generated_Source\PSoC4/CyLFClk.c **** #endif  /* (CY_IP_WCO) */
 934:Generated_Source\PSoC4/CyLFClk.c **** 
 935:Generated_Source\PSoC4/CyLFClk.c **** 
 936:Generated_Source\PSoC4/CyLFClk.c **** #if(CY_IP_SRSSV2)
 937:Generated_Source\PSoC4/CyLFClk.c ****     /*******************************************************************************
 938:Generated_Source\PSoC4/CyLFClk.c ****     * Function Name: CySysWdtLock
 939:Generated_Source\PSoC4/CyLFClk.c ****     ****************************************************************************//**
 940:Generated_Source\PSoC4/CyLFClk.c ****     * \brief
 941:Generated_Source\PSoC4/CyLFClk.c ****     * Locks out configuration changes to the Watchdog timer registers and ILO
 942:Generated_Source\PSoC4/CyLFClk.c ****     * configuration register.
 943:Generated_Source\PSoC4/CyLFClk.c ****     *
 944:Generated_Source\PSoC4/CyLFClk.c ****     * After this function is called, ILO clock can't be disabled until
 945:Generated_Source\PSoC4/CyLFClk.c ****     * CySysWdtUnlock() is called.
 946:Generated_Source\PSoC4/CyLFClk.c ****     *
 947:Generated_Source\PSoC4/CyLFClk.c ****     *******************************************************************************/
 948:Generated_Source\PSoC4/CyLFClk.c ****     void CySysWdtLock(void)
 949:Generated_Source\PSoC4/CyLFClk.c ****     {
 518              		.loc 1 949 0
 519              		.cfi_startproc
 520              		@ args = 0, pretend = 0, frame = 8
 521              		@ frame_needed = 1, uses_anonymous_args = 0
 522 0000 90B5     		push	{r4, r7, lr}
ARM GAS  C:\Users\ASUS\AppData\Local\Temp\ccYDUrWd.s 			page 27


 523              		.cfi_def_cfa_offset 12
 524              		.cfi_offset 4, -12
 525              		.cfi_offset 7, -8
 526              		.cfi_offset 14, -4
 527 0002 83B0     		sub	sp, sp, #12
 528              		.cfi_def_cfa_offset 24
 529 0004 00AF     		add	r7, sp, #0
 530              		.cfi_def_cfa_register 7
 950:Generated_Source\PSoC4/CyLFClk.c ****         uint8 interruptState;
 951:Generated_Source\PSoC4/CyLFClk.c ****         interruptState = CyEnterCriticalSection();
 531              		.loc 1 951 0
 532 0006 FC1D     		adds	r4, r7, #7
 533 0008 FFF7FEFF 		bl	CyEnterCriticalSection
 534 000c 0300     		movs	r3, r0
 535 000e 2370     		strb	r3, [r4]
 952:Generated_Source\PSoC4/CyLFClk.c **** 
 953:Generated_Source\PSoC4/CyLFClk.c ****         CY_SYS_CLK_SELECT_REG = (CY_SYS_CLK_SELECT_REG & (uint32)(~CY_SYS_WDT_CLK_LOCK_BITS_MASK)) 
 536              		.loc 1 953 0
 537 0010 074B     		ldr	r3, .L36
 538 0012 074A     		ldr	r2, .L36
 539 0014 1268     		ldr	r2, [r2]
 540 0016 C021     		movs	r1, #192
 541 0018 0902     		lsls	r1, r1, #8
 542 001a 0A43     		orrs	r2, r1
 543 001c 1A60     		str	r2, [r3]
 954:Generated_Source\PSoC4/CyLFClk.c ****                  CY_SYS_WDT_CLK_LOCK_BITS_MASK;
 955:Generated_Source\PSoC4/CyLFClk.c **** 
 956:Generated_Source\PSoC4/CyLFClk.c ****         CyExitCriticalSection(interruptState);
 544              		.loc 1 956 0
 545 001e FB1D     		adds	r3, r7, #7
 546 0020 1B78     		ldrb	r3, [r3]
 547 0022 1800     		movs	r0, r3
 548 0024 FFF7FEFF 		bl	CyExitCriticalSection
 957:Generated_Source\PSoC4/CyLFClk.c ****     }
 549              		.loc 1 957 0
 550 0028 C046     		nop
 551 002a BD46     		mov	sp, r7
 552 002c 03B0     		add	sp, sp, #12
 553              		@ sp needed
 554 002e 90BD     		pop	{r4, r7, pc}
 555              	.L37:
 556              		.align	2
 557              	.L36:
 558 0030 00010B40 		.word	1074462976
 559              		.cfi_endproc
 560              	.LFE6:
 561              		.size	CySysWdtLock, .-CySysWdtLock
 562              		.section	.text.CySysWdtLocked,"ax",%progbits
 563              		.align	2
 564              		.code	16
 565              		.thumb_func
 566              		.type	CySysWdtLocked, %function
 567              	CySysWdtLocked:
 568              	.LFB7:
 958:Generated_Source\PSoC4/CyLFClk.c **** 
 959:Generated_Source\PSoC4/CyLFClk.c **** 
 960:Generated_Source\PSoC4/CyLFClk.c ****     /*******************************************************************************
ARM GAS  C:\Users\ASUS\AppData\Local\Temp\ccYDUrWd.s 			page 28


 961:Generated_Source\PSoC4/CyLFClk.c ****     * Function Name: CySysWdtLocked
 962:Generated_Source\PSoC4/CyLFClk.c ****     ****************************************************************************//**
 963:Generated_Source\PSoC4/CyLFClk.c ****     * \internal
 964:Generated_Source\PSoC4/CyLFClk.c ****     * Reports the WDT lock state.
 965:Generated_Source\PSoC4/CyLFClk.c ****     *
 966:Generated_Source\PSoC4/CyLFClk.c ****     * \return 1 - WDT is locked, and 0 - WDT is unlocked.
 967:Generated_Source\PSoC4/CyLFClk.c ****     * \endinternal
 968:Generated_Source\PSoC4/CyLFClk.c ****     *******************************************************************************/
 969:Generated_Source\PSoC4/CyLFClk.c ****     static uint32 CySysWdtLocked(void)
 970:Generated_Source\PSoC4/CyLFClk.c ****     {
 569              		.loc 1 970 0
 570              		.cfi_startproc
 571              		@ args = 0, pretend = 0, frame = 0
 572              		@ frame_needed = 1, uses_anonymous_args = 0
 573 0000 80B5     		push	{r7, lr}
 574              		.cfi_def_cfa_offset 8
 575              		.cfi_offset 7, -8
 576              		.cfi_offset 14, -4
 577 0002 00AF     		add	r7, sp, #0
 578              		.cfi_def_cfa_register 7
 971:Generated_Source\PSoC4/CyLFClk.c ****         /* Prohibits writing to WDT registers and ILO/WCO registers when not equal 0 */
 972:Generated_Source\PSoC4/CyLFClk.c ****         return ((0u != (CY_SYS_CLK_SELECT_REG & (uint32)(CY_SYS_WDT_CLK_LOCK_BITS_MASK))) ? (uint32
 579              		.loc 1 972 0
 580 0004 054B     		ldr	r3, .L42
 581 0006 1A68     		ldr	r2, [r3]
 582 0008 C023     		movs	r3, #192
 583 000a 1B02     		lsls	r3, r3, #8
 584 000c 1340     		ands	r3, r2
 585 000e 01D0     		beq	.L39
 586              		.loc 1 972 0 is_stmt 0 discriminator 1
 587 0010 0123     		movs	r3, #1
 588 0012 00E0     		b	.L41
 589              	.L39:
 590              		.loc 1 972 0 discriminator 2
 591 0014 0023     		movs	r3, #0
 592              	.L41:
 973:Generated_Source\PSoC4/CyLFClk.c ****     }
 593              		.loc 1 973 0 is_stmt 1 discriminator 5
 594 0016 1800     		movs	r0, r3
 595 0018 BD46     		mov	sp, r7
 596              		@ sp needed
 597 001a 80BD     		pop	{r7, pc}
 598              	.L43:
 599              		.align	2
 600              	.L42:
 601 001c 00010B40 		.word	1074462976
 602              		.cfi_endproc
 603              	.LFE7:
 604              		.size	CySysWdtLocked, .-CySysWdtLocked
 605              		.section	.text.CySysWdtUnlock,"ax",%progbits
 606              		.align	2
 607              		.global	CySysWdtUnlock
 608              		.code	16
 609              		.thumb_func
 610              		.type	CySysWdtUnlock, %function
 611              	CySysWdtUnlock:
 612              	.LFB8:
ARM GAS  C:\Users\ASUS\AppData\Local\Temp\ccYDUrWd.s 			page 29


 974:Generated_Source\PSoC4/CyLFClk.c **** 
 975:Generated_Source\PSoC4/CyLFClk.c **** 
 976:Generated_Source\PSoC4/CyLFClk.c ****     /*******************************************************************************
 977:Generated_Source\PSoC4/CyLFClk.c ****     * Function Name: CySysWdtUnlock
 978:Generated_Source\PSoC4/CyLFClk.c ****     ****************************************************************************//**
 979:Generated_Source\PSoC4/CyLFClk.c ****     * \brief
 980:Generated_Source\PSoC4/CyLFClk.c ****     *  Unlocks the Watchdog Timer configuration register.
 981:Generated_Source\PSoC4/CyLFClk.c ****     *
 982:Generated_Source\PSoC4/CyLFClk.c ****     *******************************************************************************/
 983:Generated_Source\PSoC4/CyLFClk.c ****     void CySysWdtUnlock(void)
 984:Generated_Source\PSoC4/CyLFClk.c ****     {
 613              		.loc 1 984 0
 614              		.cfi_startproc
 615              		@ args = 0, pretend = 0, frame = 8
 616              		@ frame_needed = 1, uses_anonymous_args = 0
 617 0000 90B5     		push	{r4, r7, lr}
 618              		.cfi_def_cfa_offset 12
 619              		.cfi_offset 4, -12
 620              		.cfi_offset 7, -8
 621              		.cfi_offset 14, -4
 622 0002 83B0     		sub	sp, sp, #12
 623              		.cfi_def_cfa_offset 24
 624 0004 00AF     		add	r7, sp, #0
 625              		.cfi_def_cfa_register 7
 985:Generated_Source\PSoC4/CyLFClk.c ****         uint8 interruptState;
 986:Generated_Source\PSoC4/CyLFClk.c ****         interruptState = CyEnterCriticalSection();
 626              		.loc 1 986 0
 627 0006 FC1D     		adds	r4, r7, #7
 628 0008 FFF7FEFF 		bl	CyEnterCriticalSection
 629 000c 0300     		movs	r3, r0
 630 000e 2370     		strb	r3, [r4]
 987:Generated_Source\PSoC4/CyLFClk.c **** 
 988:Generated_Source\PSoC4/CyLFClk.c ****         /* Removing WDT lock requires two writes */
 989:Generated_Source\PSoC4/CyLFClk.c ****         CY_SYS_CLK_SELECT_REG = ((CY_SYS_CLK_SELECT_REG & (uint32)(~CY_SYS_WDT_CLK_LOCK_BITS_MASK))
 631              		.loc 1 989 0
 632 0010 0D4B     		ldr	r3, .L45
 633 0012 0D4A     		ldr	r2, .L45
 634 0014 1268     		ldr	r2, [r2]
 635 0016 0D49     		ldr	r1, .L45+4
 636 0018 0A40     		ands	r2, r1
 637 001a 8021     		movs	r1, #128
 638 001c C901     		lsls	r1, r1, #7
 639 001e 0A43     		orrs	r2, r1
 640 0020 1A60     		str	r2, [r3]
 990:Generated_Source\PSoC4/CyLFClk.c ****                 CY_SYS_WDT_CLK_LOCK_BIT0);
 991:Generated_Source\PSoC4/CyLFClk.c **** 
 992:Generated_Source\PSoC4/CyLFClk.c ****         CY_SYS_CLK_SELECT_REG = ((CY_SYS_CLK_SELECT_REG & (uint32)(~CY_SYS_WDT_CLK_LOCK_BITS_MASK))
 641              		.loc 1 992 0
 642 0022 094B     		ldr	r3, .L45
 643 0024 084A     		ldr	r2, .L45
 644 0026 1268     		ldr	r2, [r2]
 645 0028 0849     		ldr	r1, .L45+4
 646 002a 0A40     		ands	r2, r1
 647 002c 8021     		movs	r1, #128
 648 002e 0902     		lsls	r1, r1, #8
 649 0030 0A43     		orrs	r2, r1
 650 0032 1A60     		str	r2, [r3]
ARM GAS  C:\Users\ASUS\AppData\Local\Temp\ccYDUrWd.s 			page 30


 993:Generated_Source\PSoC4/CyLFClk.c ****                 CY_SYS_WDT_CLK_LOCK_BIT1);
 994:Generated_Source\PSoC4/CyLFClk.c **** 
 995:Generated_Source\PSoC4/CyLFClk.c ****         CyExitCriticalSection(interruptState);
 651              		.loc 1 995 0
 652 0034 FB1D     		adds	r3, r7, #7
 653 0036 1B78     		ldrb	r3, [r3]
 654 0038 1800     		movs	r0, r3
 655 003a FFF7FEFF 		bl	CyExitCriticalSection
 996:Generated_Source\PSoC4/CyLFClk.c ****     }
 656              		.loc 1 996 0
 657 003e C046     		nop
 658 0040 BD46     		mov	sp, r7
 659 0042 03B0     		add	sp, sp, #12
 660              		@ sp needed
 661 0044 90BD     		pop	{r4, r7, pc}
 662              	.L46:
 663 0046 C046     		.align	2
 664              	.L45:
 665 0048 00010B40 		.word	1074462976
 666 004c FF3FFFFF 		.word	-49153
 667              		.cfi_endproc
 668              	.LFE8:
 669              		.size	CySysWdtUnlock, .-CySysWdtUnlock
 670              		.section	.text.CySysWdtGetEnabledStatus,"ax",%progbits
 671              		.align	2
 672              		.global	CySysWdtGetEnabledStatus
 673              		.code	16
 674              		.thumb_func
 675              		.type	CySysWdtGetEnabledStatus, %function
 676              	CySysWdtGetEnabledStatus:
 677              	.LFB9:
 997:Generated_Source\PSoC4/CyLFClk.c **** 
 998:Generated_Source\PSoC4/CyLFClk.c **** 
 999:Generated_Source\PSoC4/CyLFClk.c ****     /*******************************************************************************
1000:Generated_Source\PSoC4/CyLFClk.c ****     * Function Name: CySysWdtGetEnabledStatus
1001:Generated_Source\PSoC4/CyLFClk.c ****     ****************************************************************************//**
1002:Generated_Source\PSoC4/CyLFClk.c ****     * \brief
1003:Generated_Source\PSoC4/CyLFClk.c ****     *  Reads the enabled status of one of the three WDT counters.
1004:Generated_Source\PSoC4/CyLFClk.c ****     *
1005:Generated_Source\PSoC4/CyLFClk.c ****     * \param counterNum: Valid range [0-2].  The number of the WDT counter.
1006:Generated_Source\PSoC4/CyLFClk.c ****     *
1007:Generated_Source\PSoC4/CyLFClk.c ****     * \return The status of the WDT counter:
1008:Generated_Source\PSoC4/CyLFClk.c ****     * \return 0 - If the counter is disabled.
1009:Generated_Source\PSoC4/CyLFClk.c ****     * \return 1 - If the counter is enabled.
1010:Generated_Source\PSoC4/CyLFClk.c ****     *
1011:Generated_Source\PSoC4/CyLFClk.c ****     * \details
1012:Generated_Source\PSoC4/CyLFClk.c ****     * This function returns an actual WDT counter status from the status register. It may
1013:Generated_Source\PSoC4/CyLFClk.c ****     * take up to 3 LFCLK cycles for the WDT status register to contain actual data
1014:Generated_Source\PSoC4/CyLFClk.c ****     * after the WDT counter is enabled.
1015:Generated_Source\PSoC4/CyLFClk.c ****     *
1016:Generated_Source\PSoC4/CyLFClk.c ****     *******************************************************************************/
1017:Generated_Source\PSoC4/CyLFClk.c ****     uint32 CySysWdtGetEnabledStatus(uint32 counterNum)
1018:Generated_Source\PSoC4/CyLFClk.c ****     {
 678              		.loc 1 1018 0
 679              		.cfi_startproc
 680              		@ args = 0, pretend = 0, frame = 8
 681              		@ frame_needed = 1, uses_anonymous_args = 0
ARM GAS  C:\Users\ASUS\AppData\Local\Temp\ccYDUrWd.s 			page 31


 682 0000 80B5     		push	{r7, lr}
 683              		.cfi_def_cfa_offset 8
 684              		.cfi_offset 7, -8
 685              		.cfi_offset 14, -4
 686 0002 82B0     		sub	sp, sp, #8
 687              		.cfi_def_cfa_offset 16
 688 0004 00AF     		add	r7, sp, #0
 689              		.cfi_def_cfa_register 7
 690 0006 7860     		str	r0, [r7, #4]
1019:Generated_Source\PSoC4/CyLFClk.c ****         CYASSERT(counterNum < CY_SYS_WDT_COUNTERS_MAX);
 691              		.loc 1 1019 0
 692 0008 7B68     		ldr	r3, [r7, #4]
 693 000a 022B     		cmp	r3, #2
 694 000c 02D9     		bls	.L48
 695              		.loc 1 1019 0 is_stmt 0 discriminator 1
 696 000e 0020     		movs	r0, #0
 697 0010 FFF7FEFF 		bl	CyHalt
 698              	.L48:
1020:Generated_Source\PSoC4/CyLFClk.c ****         return ((CY_SYS_WDT_CONTROL_REG >> ((CY_SYS_WDT_CNT_SHIFT * counterNum) + CY_SYS_WDT_CNT_ST
 699              		.loc 1 1020 0 is_stmt 1
 700 0014 064B     		ldr	r3, .L50
 701 0016 1A68     		ldr	r2, [r3]
 702 0018 7B68     		ldr	r3, [r7, #4]
 703 001a DB00     		lsls	r3, r3, #3
 704 001c 0133     		adds	r3, r3, #1
 705 001e DA40     		lsrs	r2, r2, r3
 706 0020 1300     		movs	r3, r2
 707 0022 0122     		movs	r2, #1
 708 0024 1340     		ands	r3, r2
1021:Generated_Source\PSoC4/CyLFClk.c ****     }
 709              		.loc 1 1021 0
 710 0026 1800     		movs	r0, r3
 711 0028 BD46     		mov	sp, r7
 712 002a 02B0     		add	sp, sp, #8
 713              		@ sp needed
 714 002c 80BD     		pop	{r7, pc}
 715              	.L51:
 716 002e C046     		.align	2
 717              	.L50:
 718 0030 10020B40 		.word	1074463248
 719              		.cfi_endproc
 720              	.LFE9:
 721              		.size	CySysWdtGetEnabledStatus, .-CySysWdtGetEnabledStatus
 722              		.section	.text.CySysWdtSetMode,"ax",%progbits
 723              		.align	2
 724              		.global	CySysWdtSetMode
 725              		.code	16
 726              		.thumb_func
 727              		.type	CySysWdtSetMode, %function
 728              	CySysWdtSetMode:
 729              	.LFB10:
1022:Generated_Source\PSoC4/CyLFClk.c **** 
1023:Generated_Source\PSoC4/CyLFClk.c **** 
1024:Generated_Source\PSoC4/CyLFClk.c ****     /*******************************************************************************
1025:Generated_Source\PSoC4/CyLFClk.c ****     * Function Name: CySysWdtSetMode
1026:Generated_Source\PSoC4/CyLFClk.c ****     ****************************************************************************//**
1027:Generated_Source\PSoC4/CyLFClk.c ****     * \brief
ARM GAS  C:\Users\ASUS\AppData\Local\Temp\ccYDUrWd.s 			page 32


1028:Generated_Source\PSoC4/CyLFClk.c ****     * Writes the mode of one of the three WDT counters.
1029:Generated_Source\PSoC4/CyLFClk.c ****     *
1030:Generated_Source\PSoC4/CyLFClk.c ****     * \param counterNum: Valid range [0-2].  The number of the WDT counter.
1031:Generated_Source\PSoC4/CyLFClk.c ****     *
1032:Generated_Source\PSoC4/CyLFClk.c ****     * \param mode
1033:Generated_Source\PSoC4/CyLFClk.c ****     *  CY_SYS_WDT_MODE_NONE - Free running.<br>
1034:Generated_Source\PSoC4/CyLFClk.c ****     * CY_SYS_WDT_MODE_INT - The interrupt generated on match for counter 0
1035:Generated_Source\PSoC4/CyLFClk.c ****     * and 1, and on bit toggle for counter 2.<br>
1036:Generated_Source\PSoC4/CyLFClk.c ****     * CY_SYS_WDT_MODE_RESET - Reset on match (valid for counter 0 and 1 only).<br>
1037:Generated_Source\PSoC4/CyLFClk.c ****     * CY_SYS_WDT_MODE_INT_RESET - Generate an interrupt.  Generate a reset on
1038:Generated_Source\PSoC4/CyLFClk.c ****     * the 3rd non-handled interrupt (valid for counter 0 and counter 1 only).
1039:Generated_Source\PSoC4/CyLFClk.c ****     *
1040:Generated_Source\PSoC4/CyLFClk.c ****     * \details
1041:Generated_Source\PSoC4/CyLFClk.c ****     * WDT counter counterNum should be disabled to set a mode. Otherwise, this
1042:Generated_Source\PSoC4/CyLFClk.c ****     * function call has no effect. If the specified counter is enabled,
1043:Generated_Source\PSoC4/CyLFClk.c ****     * call the CySysWdtDisable() function with the corresponding parameter to
1044:Generated_Source\PSoC4/CyLFClk.c ****     * disable the specified counter and wait for it to stop.
1045:Generated_Source\PSoC4/CyLFClk.c ****     *
1046:Generated_Source\PSoC4/CyLFClk.c ****     *******************************************************************************/
1047:Generated_Source\PSoC4/CyLFClk.c ****     void CySysWdtSetMode(uint32 counterNum, uint32 mode)
1048:Generated_Source\PSoC4/CyLFClk.c ****     {
 730              		.loc 1 1048 0
 731              		.cfi_startproc
 732              		@ args = 0, pretend = 0, frame = 16
 733              		@ frame_needed = 1, uses_anonymous_args = 0
 734 0000 80B5     		push	{r7, lr}
 735              		.cfi_def_cfa_offset 8
 736              		.cfi_offset 7, -8
 737              		.cfi_offset 14, -4
 738 0002 84B0     		sub	sp, sp, #16
 739              		.cfi_def_cfa_offset 24
 740 0004 00AF     		add	r7, sp, #0
 741              		.cfi_def_cfa_register 7
 742 0006 7860     		str	r0, [r7, #4]
 743 0008 3960     		str	r1, [r7]
1049:Generated_Source\PSoC4/CyLFClk.c ****         uint32 configRegValue;
1050:Generated_Source\PSoC4/CyLFClk.c **** 
1051:Generated_Source\PSoC4/CyLFClk.c ****         CYASSERT(counterNum < CY_SYS_WDT_COUNTERS_MAX);
 744              		.loc 1 1051 0
 745 000a 7B68     		ldr	r3, [r7, #4]
 746 000c 022B     		cmp	r3, #2
 747 000e 02D9     		bls	.L53
 748              		.loc 1 1051 0 is_stmt 0 discriminator 1
 749 0010 0020     		movs	r0, #0
 750 0012 FFF7FEFF 		bl	CyHalt
 751              	.L53:
1052:Generated_Source\PSoC4/CyLFClk.c **** 
1053:Generated_Source\PSoC4/CyLFClk.c ****         if(0u == CySysWdtGetEnabledStatus(counterNum))
 752              		.loc 1 1053 0 is_stmt 1
 753 0016 7B68     		ldr	r3, [r7, #4]
 754 0018 1800     		movs	r0, r3
 755 001a FFF7FEFF 		bl	CySysWdtGetEnabledStatus
 756 001e 031E     		subs	r3, r0, #0
 757 0020 16D1     		bne	.L55
1054:Generated_Source\PSoC4/CyLFClk.c ****         {
1055:Generated_Source\PSoC4/CyLFClk.c ****             configRegValue = CY_SYS_WDT_CONFIG_REG &
 758              		.loc 1 1055 0
ARM GAS  C:\Users\ASUS\AppData\Local\Temp\ccYDUrWd.s 			page 33


 759 0022 0D4B     		ldr	r3, .L56
 760 0024 1B68     		ldr	r3, [r3]
1056:Generated_Source\PSoC4/CyLFClk.c ****                                 (uint32)~((uint32)(CY_SYS_WDT_MODE_MASK << (counterNum * CY_SYS_WDT
 761              		.loc 1 1056 0
 762 0026 7A68     		ldr	r2, [r7, #4]
 763 0028 D200     		lsls	r2, r2, #3
 764 002a 0321     		movs	r1, #3
 765 002c 9140     		lsls	r1, r1, r2
 766 002e 0A00     		movs	r2, r1
 767 0030 D243     		mvns	r2, r2
1055:Generated_Source\PSoC4/CyLFClk.c ****                                 (uint32)~((uint32)(CY_SYS_WDT_MODE_MASK << (counterNum * CY_SYS_WDT
 768              		.loc 1 1055 0
 769 0032 1340     		ands	r3, r2
 770 0034 FB60     		str	r3, [r7, #12]
1057:Generated_Source\PSoC4/CyLFClk.c ****             configRegValue |= (uint32)((mode & CY_SYS_WDT_MODE_MASK) << (counterNum * CY_SYS_WDT_CN
 771              		.loc 1 1057 0
 772 0036 3B68     		ldr	r3, [r7]
 773 0038 0322     		movs	r2, #3
 774 003a 1A40     		ands	r2, r3
 775 003c 7B68     		ldr	r3, [r7, #4]
 776 003e DB00     		lsls	r3, r3, #3
 777 0040 9A40     		lsls	r2, r2, r3
 778 0042 1300     		movs	r3, r2
 779 0044 FA68     		ldr	r2, [r7, #12]
 780 0046 1343     		orrs	r3, r2
 781 0048 FB60     		str	r3, [r7, #12]
1058:Generated_Source\PSoC4/CyLFClk.c ****             CY_SYS_WDT_CONFIG_REG = configRegValue;
 782              		.loc 1 1058 0
 783 004a 034B     		ldr	r3, .L56
 784 004c FA68     		ldr	r2, [r7, #12]
 785 004e 1A60     		str	r2, [r3]
 786              	.L55:
1059:Generated_Source\PSoC4/CyLFClk.c ****         }
1060:Generated_Source\PSoC4/CyLFClk.c ****     }
 787              		.loc 1 1060 0
 788 0050 C046     		nop
 789 0052 BD46     		mov	sp, r7
 790 0054 04B0     		add	sp, sp, #16
 791              		@ sp needed
 792 0056 80BD     		pop	{r7, pc}
 793              	.L57:
 794              		.align	2
 795              	.L56:
 796 0058 0C020B40 		.word	1074463244
 797              		.cfi_endproc
 798              	.LFE10:
 799              		.size	CySysWdtSetMode, .-CySysWdtSetMode
 800              		.section	.text.CySysWdtGetMode,"ax",%progbits
 801              		.align	2
 802              		.global	CySysWdtGetMode
 803              		.code	16
 804              		.thumb_func
 805              		.type	CySysWdtGetMode, %function
 806              	CySysWdtGetMode:
 807              	.LFB11:
1061:Generated_Source\PSoC4/CyLFClk.c **** 
1062:Generated_Source\PSoC4/CyLFClk.c **** 
ARM GAS  C:\Users\ASUS\AppData\Local\Temp\ccYDUrWd.s 			page 34


1063:Generated_Source\PSoC4/CyLFClk.c ****     /*******************************************************************************
1064:Generated_Source\PSoC4/CyLFClk.c ****     * Function Name: CySysWdtGetMode
1065:Generated_Source\PSoC4/CyLFClk.c ****     ****************************************************************************//**
1066:Generated_Source\PSoC4/CyLFClk.c ****     * 
1067:Generated_Source\PSoC4/CyLFClk.c ****     * \brief Reads the mode of one of the three WDT counters.
1068:Generated_Source\PSoC4/CyLFClk.c ****     *
1069:Generated_Source\PSoC4/CyLFClk.c ****     * \param counterNum Valid range [0-2]. The number of the WDT counter.
1070:Generated_Source\PSoC4/CyLFClk.c ****     *
1071:Generated_Source\PSoC4/CyLFClk.c ****     * \return The mode of the counter. The same enumerated values as the mode 
1072:Generated_Source\PSoC4/CyLFClk.c ****     * parameter used in CySysWdtSetMode().
1073:Generated_Source\PSoC4/CyLFClk.c ****     *
1074:Generated_Source\PSoC4/CyLFClk.c ****     *******************************************************************************/
1075:Generated_Source\PSoC4/CyLFClk.c ****     uint32 CySysWdtGetMode(uint32 counterNum)
1076:Generated_Source\PSoC4/CyLFClk.c ****     {
 808              		.loc 1 1076 0
 809              		.cfi_startproc
 810              		@ args = 0, pretend = 0, frame = 8
 811              		@ frame_needed = 1, uses_anonymous_args = 0
 812 0000 80B5     		push	{r7, lr}
 813              		.cfi_def_cfa_offset 8
 814              		.cfi_offset 7, -8
 815              		.cfi_offset 14, -4
 816 0002 82B0     		sub	sp, sp, #8
 817              		.cfi_def_cfa_offset 16
 818 0004 00AF     		add	r7, sp, #0
 819              		.cfi_def_cfa_register 7
 820 0006 7860     		str	r0, [r7, #4]
1077:Generated_Source\PSoC4/CyLFClk.c ****         return ((CY_SYS_WDT_CONFIG_REG >> (counterNum * CY_SYS_WDT_CNT_SHIFT)) & CY_SYS_WDT_MODE_MA
 821              		.loc 1 1077 0
 822 0008 054B     		ldr	r3, .L60
 823 000a 1A68     		ldr	r2, [r3]
 824 000c 7B68     		ldr	r3, [r7, #4]
 825 000e DB00     		lsls	r3, r3, #3
 826 0010 DA40     		lsrs	r2, r2, r3
 827 0012 1300     		movs	r3, r2
 828 0014 0322     		movs	r2, #3
 829 0016 1340     		ands	r3, r2
1078:Generated_Source\PSoC4/CyLFClk.c ****     }
 830              		.loc 1 1078 0
 831 0018 1800     		movs	r0, r3
 832 001a BD46     		mov	sp, r7
 833 001c 02B0     		add	sp, sp, #8
 834              		@ sp needed
 835 001e 80BD     		pop	{r7, pc}
 836              	.L61:
 837              		.align	2
 838              	.L60:
 839 0020 0C020B40 		.word	1074463244
 840              		.cfi_endproc
 841              	.LFE11:
 842              		.size	CySysWdtGetMode, .-CySysWdtGetMode
 843              		.section	.text.CySysWdtSetClearOnMatch,"ax",%progbits
 844              		.align	2
 845              		.global	CySysWdtSetClearOnMatch
 846              		.code	16
 847              		.thumb_func
 848              		.type	CySysWdtSetClearOnMatch, %function
ARM GAS  C:\Users\ASUS\AppData\Local\Temp\ccYDUrWd.s 			page 35


 849              	CySysWdtSetClearOnMatch:
 850              	.LFB12:
1079:Generated_Source\PSoC4/CyLFClk.c **** 
1080:Generated_Source\PSoC4/CyLFClk.c **** 
1081:Generated_Source\PSoC4/CyLFClk.c ****     /*******************************************************************************
1082:Generated_Source\PSoC4/CyLFClk.c ****     * Function Name: CySysWdtSetClearOnMatch
1083:Generated_Source\PSoC4/CyLFClk.c ****     ****************************************************************************//**
1084:Generated_Source\PSoC4/CyLFClk.c ****     * 
1085:Generated_Source\PSoC4/CyLFClk.c ****     * \brief Configures the WDT counter "clear on match" setting.
1086:Generated_Source\PSoC4/CyLFClk.c ****     *
1087:Generated_Source\PSoC4/CyLFClk.c ****     * If configured to "clear on match", the counter counts from 0 to MatchValue
1088:Generated_Source\PSoC4/CyLFClk.c ****     * giving it a period of (MatchValue + 1).
1089:Generated_Source\PSoC4/CyLFClk.c ****     *
1090:Generated_Source\PSoC4/CyLFClk.c ****     * \param counterNum
1091:Generated_Source\PSoC4/CyLFClk.c ****     * Valid range [0-1]. The number of the WDT counter. The match values are not
1092:Generated_Source\PSoC4/CyLFClk.c ****     * supported by counter 2.
1093:Generated_Source\PSoC4/CyLFClk.c ****     *
1094:Generated_Source\PSoC4/CyLFClk.c ****     * \param enable 0 to disable appropriate counter <br>
1095:Generated_Source\PSoC4/CyLFClk.c ****     *  1 to enable appropriate counter
1096:Generated_Source\PSoC4/CyLFClk.c ****     *
1097:Generated_Source\PSoC4/CyLFClk.c ****     * \details
1098:Generated_Source\PSoC4/CyLFClk.c ****     * WDT counter counterNum should be disabled. Otherwise this function call
1099:Generated_Source\PSoC4/CyLFClk.c ****     * has no effect. If the specified counter is enabled, call the CySysWdtDisable()
1100:Generated_Source\PSoC4/CyLFClk.c ****     * function with the corresponding parameter to disable the specified counter and
1101:Generated_Source\PSoC4/CyLFClk.c ****     * wait for it to stop. This may take up to three LFCLK cycles.
1102:Generated_Source\PSoC4/CyLFClk.c ****     *
1103:Generated_Source\PSoC4/CyLFClk.c ****     *******************************************************************************/
1104:Generated_Source\PSoC4/CyLFClk.c ****     void CySysWdtSetClearOnMatch(uint32 counterNum, uint32 enable)
1105:Generated_Source\PSoC4/CyLFClk.c ****     {
 851              		.loc 1 1105 0
 852              		.cfi_startproc
 853              		@ args = 0, pretend = 0, frame = 16
 854              		@ frame_needed = 1, uses_anonymous_args = 0
 855 0000 80B5     		push	{r7, lr}
 856              		.cfi_def_cfa_offset 8
 857              		.cfi_offset 7, -8
 858              		.cfi_offset 14, -4
 859 0002 84B0     		sub	sp, sp, #16
 860              		.cfi_def_cfa_offset 24
 861 0004 00AF     		add	r7, sp, #0
 862              		.cfi_def_cfa_register 7
 863 0006 7860     		str	r0, [r7, #4]
 864 0008 3960     		str	r1, [r7]
1106:Generated_Source\PSoC4/CyLFClk.c ****         uint32 configRegValue;
1107:Generated_Source\PSoC4/CyLFClk.c **** 
1108:Generated_Source\PSoC4/CyLFClk.c ****         CYASSERT((counterNum == CY_SYS_WDT_COUNTER0) ||
 865              		.loc 1 1108 0
 866 000a 7B68     		ldr	r3, [r7, #4]
 867 000c 002B     		cmp	r3, #0
 868 000e 02D0     		beq	.L63
 869              		.loc 1 1108 0 is_stmt 0 discriminator 2
 870 0010 7B68     		ldr	r3, [r7, #4]
 871 0012 012B     		cmp	r3, #1
 872 0014 01D1     		bne	.L64
 873              	.L63:
 874              		.loc 1 1108 0 discriminator 3
 875 0016 0123     		movs	r3, #1
ARM GAS  C:\Users\ASUS\AppData\Local\Temp\ccYDUrWd.s 			page 36


 876 0018 00E0     		b	.L65
 877              	.L64:
 878              		.loc 1 1108 0 discriminator 4
 879 001a 0023     		movs	r3, #0
 880              	.L65:
 881              		.loc 1 1108 0 discriminator 6
 882 001c 002B     		cmp	r3, #0
 883 001e 02D1     		bne	.L66
 884              		.loc 1 1108 0 discriminator 7
 885 0020 0020     		movs	r0, #0
 886 0022 FFF7FEFF 		bl	CyHalt
 887              	.L66:
1109:Generated_Source\PSoC4/CyLFClk.c ****                  (counterNum == CY_SYS_WDT_COUNTER1));
1110:Generated_Source\PSoC4/CyLFClk.c **** 
1111:Generated_Source\PSoC4/CyLFClk.c ****         if(0u == CySysWdtGetEnabledStatus(counterNum))
 888              		.loc 1 1111 0 is_stmt 1
 889 0026 7B68     		ldr	r3, [r7, #4]
 890 0028 1800     		movs	r0, r3
 891 002a FFF7FEFF 		bl	CySysWdtGetEnabledStatus
 892 002e 031E     		subs	r3, r0, #0
 893 0030 16D1     		bne	.L68
1112:Generated_Source\PSoC4/CyLFClk.c ****         {
1113:Generated_Source\PSoC4/CyLFClk.c ****             configRegValue = CY_SYS_WDT_CONFIG_REG & (uint32)~((uint32)((uint32)1u << 
 894              		.loc 1 1113 0
 895 0032 0D4B     		ldr	r3, .L69
 896 0034 1B68     		ldr	r3, [r3]
1114:Generated_Source\PSoC4/CyLFClk.c ****                                      ((counterNum * CY_SYS_WDT_CNT_SHIFT) + CY_SYS_WDT_CNT_MATCH_CL
 897              		.loc 1 1114 0
 898 0036 7A68     		ldr	r2, [r7, #4]
 899 0038 D200     		lsls	r2, r2, #3
 900 003a 0232     		adds	r2, r2, #2
1113:Generated_Source\PSoC4/CyLFClk.c ****                                      ((counterNum * CY_SYS_WDT_CNT_SHIFT) + CY_SYS_WDT_CNT_MATCH_CL
 901              		.loc 1 1113 0
 902 003c 0121     		movs	r1, #1
 903 003e 9140     		lsls	r1, r1, r2
 904 0040 0A00     		movs	r2, r1
 905 0042 D243     		mvns	r2, r2
 906 0044 1340     		ands	r3, r2
 907 0046 FB60     		str	r3, [r7, #12]
1115:Generated_Source\PSoC4/CyLFClk.c **** 
1116:Generated_Source\PSoC4/CyLFClk.c ****             configRegValue
1117:Generated_Source\PSoC4/CyLFClk.c ****                 |= (uint32)(enable << ((counterNum * CY_SYS_WDT_CNT_SHIFT) + CY_SYS_WDT_CNT_MATCH_C
 908              		.loc 1 1117 0
 909 0048 7B68     		ldr	r3, [r7, #4]
 910 004a DB00     		lsls	r3, r3, #3
 911 004c 0233     		adds	r3, r3, #2
 912 004e 3A68     		ldr	r2, [r7]
 913 0050 9A40     		lsls	r2, r2, r3
 914 0052 1300     		movs	r3, r2
 915 0054 FA68     		ldr	r2, [r7, #12]
 916 0056 1343     		orrs	r3, r2
 917 0058 FB60     		str	r3, [r7, #12]
1118:Generated_Source\PSoC4/CyLFClk.c **** 
1119:Generated_Source\PSoC4/CyLFClk.c ****             CY_SYS_WDT_CONFIG_REG = configRegValue;
 918              		.loc 1 1119 0
 919 005a 034B     		ldr	r3, .L69
 920 005c FA68     		ldr	r2, [r7, #12]
ARM GAS  C:\Users\ASUS\AppData\Local\Temp\ccYDUrWd.s 			page 37


 921 005e 1A60     		str	r2, [r3]
 922              	.L68:
1120:Generated_Source\PSoC4/CyLFClk.c ****         }
1121:Generated_Source\PSoC4/CyLFClk.c ****     }
 923              		.loc 1 1121 0
 924 0060 C046     		nop
 925 0062 BD46     		mov	sp, r7
 926 0064 04B0     		add	sp, sp, #16
 927              		@ sp needed
 928 0066 80BD     		pop	{r7, pc}
 929              	.L70:
 930              		.align	2
 931              	.L69:
 932 0068 0C020B40 		.word	1074463244
 933              		.cfi_endproc
 934              	.LFE12:
 935              		.size	CySysWdtSetClearOnMatch, .-CySysWdtSetClearOnMatch
 936              		.section	.text.CySysWdtGetClearOnMatch,"ax",%progbits
 937              		.align	2
 938              		.global	CySysWdtGetClearOnMatch
 939              		.code	16
 940              		.thumb_func
 941              		.type	CySysWdtGetClearOnMatch, %function
 942              	CySysWdtGetClearOnMatch:
 943              	.LFB13:
1122:Generated_Source\PSoC4/CyLFClk.c **** 
1123:Generated_Source\PSoC4/CyLFClk.c **** 
1124:Generated_Source\PSoC4/CyLFClk.c ****     /*******************************************************************************
1125:Generated_Source\PSoC4/CyLFClk.c ****     * Function Name: CySysWdtGetClearOnMatch
1126:Generated_Source\PSoC4/CyLFClk.c ****     ****************************************************************************//**
1127:Generated_Source\PSoC4/CyLFClk.c ****     * \brief
1128:Generated_Source\PSoC4/CyLFClk.c ****     * Reads the "clear on match" setting for the specified counter.
1129:Generated_Source\PSoC4/CyLFClk.c ****     *
1130:Generated_Source\PSoC4/CyLFClk.c ****     * \param
1131:Generated_Source\PSoC4/CyLFClk.c ****     * counterNum Valid range [0-1]. The number of the WDT counter. The match values
1132:Generated_Source\PSoC4/CyLFClk.c ****     * are not supported by counter 2.
1133:Generated_Source\PSoC4/CyLFClk.c ****     *
1134:Generated_Source\PSoC4/CyLFClk.c ****     * \return The "clear on match" status: <br>1 if enabled <br>0 if disabled
1135:Generated_Source\PSoC4/CyLFClk.c ****     *
1136:Generated_Source\PSoC4/CyLFClk.c ****     *******************************************************************************/
1137:Generated_Source\PSoC4/CyLFClk.c ****     uint32 CySysWdtGetClearOnMatch(uint32 counterNum)
1138:Generated_Source\PSoC4/CyLFClk.c ****     {
 944              		.loc 1 1138 0
 945              		.cfi_startproc
 946              		@ args = 0, pretend = 0, frame = 8
 947              		@ frame_needed = 1, uses_anonymous_args = 0
 948 0000 80B5     		push	{r7, lr}
 949              		.cfi_def_cfa_offset 8
 950              		.cfi_offset 7, -8
 951              		.cfi_offset 14, -4
 952 0002 82B0     		sub	sp, sp, #8
 953              		.cfi_def_cfa_offset 16
 954 0004 00AF     		add	r7, sp, #0
 955              		.cfi_def_cfa_register 7
 956 0006 7860     		str	r0, [r7, #4]
1139:Generated_Source\PSoC4/CyLFClk.c ****         CYASSERT((counterNum == CY_SYS_WDT_COUNTER0) ||
 957              		.loc 1 1139 0
ARM GAS  C:\Users\ASUS\AppData\Local\Temp\ccYDUrWd.s 			page 38


 958 0008 7B68     		ldr	r3, [r7, #4]
 959 000a 002B     		cmp	r3, #0
 960 000c 02D0     		beq	.L72
 961              		.loc 1 1139 0 is_stmt 0 discriminator 2
 962 000e 7B68     		ldr	r3, [r7, #4]
 963 0010 012B     		cmp	r3, #1
 964 0012 01D1     		bne	.L73
 965              	.L72:
 966              		.loc 1 1139 0 discriminator 3
 967 0014 0123     		movs	r3, #1
 968 0016 00E0     		b	.L74
 969              	.L73:
 970              		.loc 1 1139 0 discriminator 4
 971 0018 0023     		movs	r3, #0
 972              	.L74:
 973              		.loc 1 1139 0 discriminator 6
 974 001a 002B     		cmp	r3, #0
 975 001c 02D1     		bne	.L75
 976              		.loc 1 1139 0 discriminator 7
 977 001e 0020     		movs	r0, #0
 978 0020 FFF7FEFF 		bl	CyHalt
 979              	.L75:
1140:Generated_Source\PSoC4/CyLFClk.c ****                  (counterNum == CY_SYS_WDT_COUNTER1));
1141:Generated_Source\PSoC4/CyLFClk.c **** 
1142:Generated_Source\PSoC4/CyLFClk.c ****         return (uint32)((CY_SYS_WDT_CONFIG_REG >>
 980              		.loc 1 1142 0 is_stmt 1
 981 0024 064B     		ldr	r3, .L77
 982 0026 1A68     		ldr	r2, [r3]
1143:Generated_Source\PSoC4/CyLFClk.c ****                         ((counterNum * CY_SYS_WDT_CNT_SHIFT) + CY_SYS_WDT_CNT_MATCH_CLR_SHIFT)) & 0
 983              		.loc 1 1143 0
 984 0028 7B68     		ldr	r3, [r7, #4]
 985 002a DB00     		lsls	r3, r3, #3
 986 002c 0233     		adds	r3, r3, #2
1142:Generated_Source\PSoC4/CyLFClk.c ****                         ((counterNum * CY_SYS_WDT_CNT_SHIFT) + CY_SYS_WDT_CNT_MATCH_CLR_SHIFT)) & 0
 987              		.loc 1 1142 0
 988 002e DA40     		lsrs	r2, r2, r3
 989 0030 1300     		movs	r3, r2
 990 0032 0122     		movs	r2, #1
 991 0034 1340     		ands	r3, r2
1144:Generated_Source\PSoC4/CyLFClk.c ****     }
 992              		.loc 1 1144 0
 993 0036 1800     		movs	r0, r3
 994 0038 BD46     		mov	sp, r7
 995 003a 02B0     		add	sp, sp, #8
 996              		@ sp needed
 997 003c 80BD     		pop	{r7, pc}
 998              	.L78:
 999 003e C046     		.align	2
 1000              	.L77:
 1001 0040 0C020B40 		.word	1074463244
 1002              		.cfi_endproc
 1003              	.LFE13:
 1004              		.size	CySysWdtGetClearOnMatch, .-CySysWdtGetClearOnMatch
 1005              		.section	.text.CySysWdtEnable,"ax",%progbits
 1006              		.align	2
 1007              		.global	CySysWdtEnable
 1008              		.code	16
ARM GAS  C:\Users\ASUS\AppData\Local\Temp\ccYDUrWd.s 			page 39


 1009              		.thumb_func
 1010              		.type	CySysWdtEnable, %function
 1011              	CySysWdtEnable:
 1012              	.LFB14:
1145:Generated_Source\PSoC4/CyLFClk.c **** 
1146:Generated_Source\PSoC4/CyLFClk.c **** 
1147:Generated_Source\PSoC4/CyLFClk.c ****     /*******************************************************************************
1148:Generated_Source\PSoC4/CyLFClk.c ****     * Function Name: CySysWdtEnable
1149:Generated_Source\PSoC4/CyLFClk.c ****     ****************************************************************************//**
1150:Generated_Source\PSoC4/CyLFClk.c ****     *
1151:Generated_Source\PSoC4/CyLFClk.c ****     * \brief Enables the specified WDT counters.
1152:Generated_Source\PSoC4/CyLFClk.c ****     *
1153:Generated_Source\PSoC4/CyLFClk.c ****     * All the counters specified in the mask are enabled.
1154:Generated_Source\PSoC4/CyLFClk.c ****     *
1155:Generated_Source\PSoC4/CyLFClk.c ****     * \param counterMask
1156:Generated_Source\PSoC4/CyLFClk.c ****     *  CY_SYS_WDT_COUNTER0_MASK - The mask for counter 0 to enable.<br>
1157:Generated_Source\PSoC4/CyLFClk.c ****     * CY_SYS_WDT_COUNTER1_MASK - The mask for counter 1 to enable.<br>
1158:Generated_Source\PSoC4/CyLFClk.c ****     * CY_SYS_WDT_COUNTER2_MASK - The mask for counter 2 to enable.
1159:Generated_Source\PSoC4/CyLFClk.c ****     *
1160:Generated_Source\PSoC4/CyLFClk.c ****     * \details
1161:Generated_Source\PSoC4/CyLFClk.c ****     * Enabling or disabling WDT requires 3 LFCLK cycles to come into effect.
1162:Generated_Source\PSoC4/CyLFClk.c ****     * Therefore, the WDT enable state must not be changed more than once in
1163:Generated_Source\PSoC4/CyLFClk.c ****     * that period.
1164:Generated_Source\PSoC4/CyLFClk.c ****     *
1165:Generated_Source\PSoC4/CyLFClk.c ****     * After WDT is enabled, it is illegal to write WDT configuration (WDT_CONFIG)
1166:Generated_Source\PSoC4/CyLFClk.c ****     * and control (WDT_CONTROL) registers. This means that all WDT functions that
1167:Generated_Source\PSoC4/CyLFClk.c ****     * contain 'write' in the name (with the exception of CySysWdtSetMatch()
1168:Generated_Source\PSoC4/CyLFClk.c ****     * function) are illegal to call if WDT is enabled.
1169:Generated_Source\PSoC4/CyLFClk.c ****     *
1170:Generated_Source\PSoC4/CyLFClk.c ****     * PSoC 4100 / PSoC 4200: This function enables ILO.
1171:Generated_Source\PSoC4/CyLFClk.c ****     *
1172:Generated_Source\PSoC4/CyLFClk.c ****     * PSoC 4100 BLE / PSoC 4200 BLE / PSoC4200L / PSoC 4100M 
1173:Generated_Source\PSoC4/CyLFClk.c ****     * / PSoC 4200M:
1174:Generated_Source\PSoC4/CyLFClk.c ****     * LFLCK should be configured before calling this function. The desired
1175:Generated_Source\PSoC4/CyLFClk.c ****     * source should be enabled and configured to be the source for LFCLK.
1176:Generated_Source\PSoC4/CyLFClk.c ****     *
1177:Generated_Source\PSoC4/CyLFClk.c ****     *******************************************************************************/
1178:Generated_Source\PSoC4/CyLFClk.c ****     void CySysWdtEnable(uint32 counterMask)
1179:Generated_Source\PSoC4/CyLFClk.c ****     {
 1013              		.loc 1 1179 0
 1014              		.cfi_startproc
 1015              		@ args = 0, pretend = 0, frame = 8
 1016              		@ frame_needed = 1, uses_anonymous_args = 0
 1017 0000 80B5     		push	{r7, lr}
 1018              		.cfi_def_cfa_offset 8
 1019              		.cfi_offset 7, -8
 1020              		.cfi_offset 14, -4
 1021 0002 82B0     		sub	sp, sp, #8
 1022              		.cfi_def_cfa_offset 16
 1023 0004 00AF     		add	r7, sp, #0
 1024              		.cfi_def_cfa_register 7
 1025 0006 7860     		str	r0, [r7, #4]
1180:Generated_Source\PSoC4/CyLFClk.c ****         #if (!CY_IP_WCO)
1181:Generated_Source\PSoC4/CyLFClk.c ****             CySysClkIloStart();
 1026              		.loc 1 1181 0
 1027 0008 FFF7FEFF 		bl	CySysClkIloStart
1182:Generated_Source\PSoC4/CyLFClk.c ****         #endif /* (!CY_IP_WCO) */
ARM GAS  C:\Users\ASUS\AppData\Local\Temp\ccYDUrWd.s 			page 40


1183:Generated_Source\PSoC4/CyLFClk.c **** 
1184:Generated_Source\PSoC4/CyLFClk.c ****         CY_SYS_WDT_CONTROL_REG |= counterMask;
 1028              		.loc 1 1184 0
 1029 000c 144B     		ldr	r3, .L87
 1030 000e 144A     		ldr	r2, .L87
 1031 0010 1168     		ldr	r1, [r2]
 1032 0012 7A68     		ldr	r2, [r7, #4]
 1033 0014 0A43     		orrs	r2, r1
 1034 0016 1A60     		str	r2, [r3]
1185:Generated_Source\PSoC4/CyLFClk.c **** 
1186:Generated_Source\PSoC4/CyLFClk.c ****         if(0u != (counterMask & CY_SYS_WDT_COUNTER0_MASK))
 1035              		.loc 1 1186 0
 1036 0018 7B68     		ldr	r3, [r7, #4]
 1037 001a 0122     		movs	r2, #1
 1038 001c 1340     		ands	r3, r2
 1039 001e 05D0     		beq	.L80
1187:Generated_Source\PSoC4/CyLFClk.c ****         {
1188:Generated_Source\PSoC4/CyLFClk.c ****             while (0u == CySysWdtGetEnabledStatus(CY_SYS_WDT_COUNTER0))
 1040              		.loc 1 1188 0
 1041 0020 C046     		nop
 1042              	.L81:
 1043              		.loc 1 1188 0 is_stmt 0 discriminator 1
 1044 0022 0020     		movs	r0, #0
 1045 0024 FFF7FEFF 		bl	CySysWdtGetEnabledStatus
 1046 0028 031E     		subs	r3, r0, #0
 1047 002a FAD0     		beq	.L81
 1048              	.L80:
1189:Generated_Source\PSoC4/CyLFClk.c ****             {
1190:Generated_Source\PSoC4/CyLFClk.c ****                 /* Wait for changes to come into effect */
1191:Generated_Source\PSoC4/CyLFClk.c ****             }
1192:Generated_Source\PSoC4/CyLFClk.c ****         }
1193:Generated_Source\PSoC4/CyLFClk.c **** 
1194:Generated_Source\PSoC4/CyLFClk.c ****         if(0u != (counterMask & CY_SYS_WDT_COUNTER1_MASK))
 1049              		.loc 1 1194 0 is_stmt 1
 1050 002c 7A68     		ldr	r2, [r7, #4]
 1051 002e 8023     		movs	r3, #128
 1052 0030 5B00     		lsls	r3, r3, #1
 1053 0032 1340     		ands	r3, r2
 1054 0034 05D0     		beq	.L82
1195:Generated_Source\PSoC4/CyLFClk.c ****         {
1196:Generated_Source\PSoC4/CyLFClk.c ****             while (0u == CySysWdtGetEnabledStatus(CY_SYS_WDT_COUNTER1))
 1055              		.loc 1 1196 0
 1056 0036 C046     		nop
 1057              	.L83:
 1058              		.loc 1 1196 0 is_stmt 0 discriminator 1
 1059 0038 0120     		movs	r0, #1
 1060 003a FFF7FEFF 		bl	CySysWdtGetEnabledStatus
 1061 003e 031E     		subs	r3, r0, #0
 1062 0040 FAD0     		beq	.L83
 1063              	.L82:
1197:Generated_Source\PSoC4/CyLFClk.c ****             {
1198:Generated_Source\PSoC4/CyLFClk.c ****                 /* Wait for changes to come into effect */
1199:Generated_Source\PSoC4/CyLFClk.c ****             }
1200:Generated_Source\PSoC4/CyLFClk.c ****         }
1201:Generated_Source\PSoC4/CyLFClk.c **** 
1202:Generated_Source\PSoC4/CyLFClk.c ****         if(0u != (counterMask & CY_SYS_WDT_COUNTER2_MASK))
 1064              		.loc 1 1202 0 is_stmt 1
ARM GAS  C:\Users\ASUS\AppData\Local\Temp\ccYDUrWd.s 			page 41


 1065 0042 7A68     		ldr	r2, [r7, #4]
 1066 0044 8023     		movs	r3, #128
 1067 0046 5B02     		lsls	r3, r3, #9
 1068 0048 1340     		ands	r3, r2
 1069 004a 05D0     		beq	.L86
1203:Generated_Source\PSoC4/CyLFClk.c ****         {
1204:Generated_Source\PSoC4/CyLFClk.c ****             while (0u == CySysWdtGetEnabledStatus(CY_SYS_WDT_COUNTER2))
 1070              		.loc 1 1204 0
 1071 004c C046     		nop
 1072              	.L85:
 1073              		.loc 1 1204 0 is_stmt 0 discriminator 1
 1074 004e 0220     		movs	r0, #2
 1075 0050 FFF7FEFF 		bl	CySysWdtGetEnabledStatus
 1076 0054 031E     		subs	r3, r0, #0
 1077 0056 FAD0     		beq	.L85
 1078              	.L86:
1205:Generated_Source\PSoC4/CyLFClk.c ****             {
1206:Generated_Source\PSoC4/CyLFClk.c ****                 /* Wait for changes to come into effect */
1207:Generated_Source\PSoC4/CyLFClk.c ****             }
1208:Generated_Source\PSoC4/CyLFClk.c ****         }
1209:Generated_Source\PSoC4/CyLFClk.c ****     }
 1079              		.loc 1 1209 0 is_stmt 1
 1080 0058 C046     		nop
 1081 005a BD46     		mov	sp, r7
 1082 005c 02B0     		add	sp, sp, #8
 1083              		@ sp needed
 1084 005e 80BD     		pop	{r7, pc}
 1085              	.L88:
 1086              		.align	2
 1087              	.L87:
 1088 0060 10020B40 		.word	1074463248
 1089              		.cfi_endproc
 1090              	.LFE14:
 1091              		.size	CySysWdtEnable, .-CySysWdtEnable
 1092              		.section	.text.CySysWdtDisable,"ax",%progbits
 1093              		.align	2
 1094              		.global	CySysWdtDisable
 1095              		.code	16
 1096              		.thumb_func
 1097              		.type	CySysWdtDisable, %function
 1098              	CySysWdtDisable:
 1099              	.LFB15:
1210:Generated_Source\PSoC4/CyLFClk.c **** 
1211:Generated_Source\PSoC4/CyLFClk.c **** 
1212:Generated_Source\PSoC4/CyLFClk.c ****     /*******************************************************************************
1213:Generated_Source\PSoC4/CyLFClk.c ****     * Function Name: CySysWdtDisable
1214:Generated_Source\PSoC4/CyLFClk.c ****     ****************************************************************************//**
1215:Generated_Source\PSoC4/CyLFClk.c ****     *
1216:Generated_Source\PSoC4/CyLFClk.c ****     * \brief Disables the specified WDT counters.
1217:Generated_Source\PSoC4/CyLFClk.c ****     * All the counters specified in the mask are disabled. The function waits for 
1218:Generated_Source\PSoC4/CyLFClk.c ****     * the changes to come into effect.
1219:Generated_Source\PSoC4/CyLFClk.c ****     *
1220:Generated_Source\PSoC4/CyLFClk.c ****     * \param counterMask
1221:Generated_Source\PSoC4/CyLFClk.c ****     * CY_SYS_WDT_COUNTER0_MASK - The mask for counter 0 to disable. <br>
1222:Generated_Source\PSoC4/CyLFClk.c ****     * CY_SYS_WDT_COUNTER1_MASK - The mask for counter 1 to disable. <br>
1223:Generated_Source\PSoC4/CyLFClk.c ****     * CY_SYS_WDT_COUNTER2_MASK - The mask for counter 2 to disable.
1224:Generated_Source\PSoC4/CyLFClk.c ****     *
ARM GAS  C:\Users\ASUS\AppData\Local\Temp\ccYDUrWd.s 			page 42


1225:Generated_Source\PSoC4/CyLFClk.c ****     *******************************************************************************/
1226:Generated_Source\PSoC4/CyLFClk.c ****     void CySysWdtDisable(uint32 counterMask)
1227:Generated_Source\PSoC4/CyLFClk.c ****     {
 1100              		.loc 1 1227 0
 1101              		.cfi_startproc
 1102              		@ args = 0, pretend = 0, frame = 8
 1103              		@ frame_needed = 1, uses_anonymous_args = 0
 1104 0000 80B5     		push	{r7, lr}
 1105              		.cfi_def_cfa_offset 8
 1106              		.cfi_offset 7, -8
 1107              		.cfi_offset 14, -4
 1108 0002 82B0     		sub	sp, sp, #8
 1109              		.cfi_def_cfa_offset 16
 1110 0004 00AF     		add	r7, sp, #0
 1111              		.cfi_def_cfa_register 7
 1112 0006 7860     		str	r0, [r7, #4]
1228:Generated_Source\PSoC4/CyLFClk.c ****         if (0uL == CySysWdtLocked())
 1113              		.loc 1 1228 0
 1114 0008 FFF7FEFF 		bl	CySysWdtLocked
 1115 000c 031E     		subs	r3, r0, #0
 1116 000e 26D1     		bne	.L96
1229:Generated_Source\PSoC4/CyLFClk.c ****         {
1230:Generated_Source\PSoC4/CyLFClk.c ****             CY_SYS_WDT_CONTROL_REG &= ~counterMask;
 1117              		.loc 1 1230 0
 1118 0010 154B     		ldr	r3, .L97
 1119 0012 154A     		ldr	r2, .L97
 1120 0014 1268     		ldr	r2, [r2]
 1121 0016 7968     		ldr	r1, [r7, #4]
 1122 0018 C943     		mvns	r1, r1
 1123 001a 0A40     		ands	r2, r1
 1124 001c 1A60     		str	r2, [r3]
1231:Generated_Source\PSoC4/CyLFClk.c **** 
1232:Generated_Source\PSoC4/CyLFClk.c ****             if(0u != (counterMask & CY_SYS_WDT_COUNTER0_MASK))
 1125              		.loc 1 1232 0
 1126 001e 7B68     		ldr	r3, [r7, #4]
 1127 0020 0122     		movs	r2, #1
 1128 0022 1340     		ands	r3, r2
 1129 0024 05D0     		beq	.L91
1233:Generated_Source\PSoC4/CyLFClk.c ****             {
1234:Generated_Source\PSoC4/CyLFClk.c ****                 while (0u != CySysWdtGetEnabledStatus(CY_SYS_WDT_COUNTER0))
 1130              		.loc 1 1234 0
 1131 0026 C046     		nop
 1132              	.L92:
 1133              		.loc 1 1234 0 is_stmt 0 discriminator 1
 1134 0028 0020     		movs	r0, #0
 1135 002a FFF7FEFF 		bl	CySysWdtGetEnabledStatus
 1136 002e 031E     		subs	r3, r0, #0
 1137 0030 FAD1     		bne	.L92
 1138              	.L91:
1235:Generated_Source\PSoC4/CyLFClk.c ****                 {
1236:Generated_Source\PSoC4/CyLFClk.c ****                     /* Wait for changes to come into effect */
1237:Generated_Source\PSoC4/CyLFClk.c ****                 }
1238:Generated_Source\PSoC4/CyLFClk.c ****             }
1239:Generated_Source\PSoC4/CyLFClk.c **** 
1240:Generated_Source\PSoC4/CyLFClk.c ****             if(0u != (counterMask & CY_SYS_WDT_COUNTER1_MASK))
 1139              		.loc 1 1240 0 is_stmt 1
 1140 0032 7A68     		ldr	r2, [r7, #4]
ARM GAS  C:\Users\ASUS\AppData\Local\Temp\ccYDUrWd.s 			page 43


 1141 0034 8023     		movs	r3, #128
 1142 0036 5B00     		lsls	r3, r3, #1
 1143 0038 1340     		ands	r3, r2
 1144 003a 05D0     		beq	.L93
1241:Generated_Source\PSoC4/CyLFClk.c ****             {
1242:Generated_Source\PSoC4/CyLFClk.c ****                 while (0u != CySysWdtGetEnabledStatus(CY_SYS_WDT_COUNTER1))
 1145              		.loc 1 1242 0
 1146 003c C046     		nop
 1147              	.L94:
 1148              		.loc 1 1242 0 is_stmt 0 discriminator 1
 1149 003e 0120     		movs	r0, #1
 1150 0040 FFF7FEFF 		bl	CySysWdtGetEnabledStatus
 1151 0044 031E     		subs	r3, r0, #0
 1152 0046 FAD1     		bne	.L94
 1153              	.L93:
1243:Generated_Source\PSoC4/CyLFClk.c ****                 {
1244:Generated_Source\PSoC4/CyLFClk.c ****                     /* Wait for changes to come into effect */
1245:Generated_Source\PSoC4/CyLFClk.c ****                 }
1246:Generated_Source\PSoC4/CyLFClk.c ****             }
1247:Generated_Source\PSoC4/CyLFClk.c **** 
1248:Generated_Source\PSoC4/CyLFClk.c ****             if(0u != (counterMask & CY_SYS_WDT_COUNTER2_MASK))
 1154              		.loc 1 1248 0 is_stmt 1
 1155 0048 7A68     		ldr	r2, [r7, #4]
 1156 004a 8023     		movs	r3, #128
 1157 004c 5B02     		lsls	r3, r3, #9
 1158 004e 1340     		ands	r3, r2
 1159 0050 05D0     		beq	.L96
1249:Generated_Source\PSoC4/CyLFClk.c ****             {
1250:Generated_Source\PSoC4/CyLFClk.c ****                 while (0u != CySysWdtGetEnabledStatus(CY_SYS_WDT_COUNTER2))
 1160              		.loc 1 1250 0
 1161 0052 C046     		nop
 1162              	.L95:
 1163              		.loc 1 1250 0 is_stmt 0 discriminator 1
 1164 0054 0220     		movs	r0, #2
 1165 0056 FFF7FEFF 		bl	CySysWdtGetEnabledStatus
 1166 005a 031E     		subs	r3, r0, #0
 1167 005c FAD1     		bne	.L95
 1168              	.L96:
1251:Generated_Source\PSoC4/CyLFClk.c ****                 {
1252:Generated_Source\PSoC4/CyLFClk.c ****                     /* Wait for changes to come into effect */
1253:Generated_Source\PSoC4/CyLFClk.c ****                 }
1254:Generated_Source\PSoC4/CyLFClk.c ****             }
1255:Generated_Source\PSoC4/CyLFClk.c ****         }
1256:Generated_Source\PSoC4/CyLFClk.c ****     }
 1169              		.loc 1 1256 0 is_stmt 1
 1170 005e C046     		nop
 1171 0060 BD46     		mov	sp, r7
 1172 0062 02B0     		add	sp, sp, #8
 1173              		@ sp needed
 1174 0064 80BD     		pop	{r7, pc}
 1175              	.L98:
 1176 0066 C046     		.align	2
 1177              	.L97:
 1178 0068 10020B40 		.word	1074463248
 1179              		.cfi_endproc
 1180              	.LFE15:
 1181              		.size	CySysWdtDisable, .-CySysWdtDisable
ARM GAS  C:\Users\ASUS\AppData\Local\Temp\ccYDUrWd.s 			page 44


 1182              		.section	.text.CySysWdtSetCascade,"ax",%progbits
 1183              		.align	2
 1184              		.global	CySysWdtSetCascade
 1185              		.code	16
 1186              		.thumb_func
 1187              		.type	CySysWdtSetCascade, %function
 1188              	CySysWdtSetCascade:
 1189              	.LFB16:
1257:Generated_Source\PSoC4/CyLFClk.c **** 
1258:Generated_Source\PSoC4/CyLFClk.c **** 
1259:Generated_Source\PSoC4/CyLFClk.c ****     /*******************************************************************************
1260:Generated_Source\PSoC4/CyLFClk.c ****     * Function Name: CySysWdtSetCascade
1261:Generated_Source\PSoC4/CyLFClk.c ****     ****************************************************************************//**
1262:Generated_Source\PSoC4/CyLFClk.c ****     * \brief
1263:Generated_Source\PSoC4/CyLFClk.c ****     * Writes the two WDT cascade values based on the combination of mask values
1264:Generated_Source\PSoC4/CyLFClk.c ****     * specified.
1265:Generated_Source\PSoC4/CyLFClk.c ****     *
1266:Generated_Source\PSoC4/CyLFClk.c ****     * \param cascadeMask The mask value used to set or clear the cascade values:
1267:Generated_Source\PSoC4/CyLFClk.c ****     * CY_SYS_WDT_CASCADE_NONE - Neither <br>
1268:Generated_Source\PSoC4/CyLFClk.c ****     * CY_SYS_WDT_CASCADE_01 - Cascade 01 <br>
1269:Generated_Source\PSoC4/CyLFClk.c ****     * CY_SYS_WDT_CASCADE_12 - Cascade 12
1270:Generated_Source\PSoC4/CyLFClk.c ****     *
1271:Generated_Source\PSoC4/CyLFClk.c ****     * If only one cascade mask is specified, the second cascade is disabled.
1272:Generated_Source\PSoC4/CyLFClk.c ****     * To set both cascade modes, two defines should be ORed:
1273:Generated_Source\PSoC4/CyLFClk.c ****     * (CY_SYS_TIMER_CASCADE_01 | CY_SYS_TIMER_CASCADE_12).
1274:Generated_Source\PSoC4/CyLFClk.c ****     * \note If CySysWdtSetCascade() was called with ORed defines it is necessary 
1275:Generated_Source\PSoC4/CyLFClk.c ****     * to call CySysWdtSetClearOnMatch(1,1). It is needed to make sure that 
1276:Generated_Source\PSoC4/CyLFClk.c ****     * Counter 2 will be updated in the expected way.
1277:Generated_Source\PSoC4/CyLFClk.c ****     *
1278:Generated_Source\PSoC4/CyLFClk.c ****     * WDT counters that are part of the specified cascade should be disabled.
1279:Generated_Source\PSoC4/CyLFClk.c ****     * Otherwise this function call has no effect. If the specified
1280:Generated_Source\PSoC4/CyLFClk.c ****     * counter is enabled, call CySysWdtDisable() function with the corresponding
1281:Generated_Source\PSoC4/CyLFClk.c ****     * parameter to disable the specified counter and wait for it to stop. This may
1282:Generated_Source\PSoC4/CyLFClk.c ****     * take up to 3 LFCLK cycles.
1283:Generated_Source\PSoC4/CyLFClk.c ****     *
1284:Generated_Source\PSoC4/CyLFClk.c ****     *******************************************************************************/
1285:Generated_Source\PSoC4/CyLFClk.c ****     void CySysWdtSetCascade(uint32 cascadeMask)
1286:Generated_Source\PSoC4/CyLFClk.c ****     {
 1190              		.loc 1 1286 0
 1191              		.cfi_startproc
 1192              		@ args = 0, pretend = 0, frame = 16
 1193              		@ frame_needed = 1, uses_anonymous_args = 0
 1194 0000 90B5     		push	{r4, r7, lr}
 1195              		.cfi_def_cfa_offset 12
 1196              		.cfi_offset 4, -12
 1197              		.cfi_offset 7, -8
 1198              		.cfi_offset 14, -4
 1199 0002 85B0     		sub	sp, sp, #20
 1200              		.cfi_def_cfa_offset 32
 1201 0004 00AF     		add	r7, sp, #0
 1202              		.cfi_def_cfa_register 7
 1203 0006 7860     		str	r0, [r7, #4]
1287:Generated_Source\PSoC4/CyLFClk.c ****         uint32 configRegValue;
1288:Generated_Source\PSoC4/CyLFClk.c ****         uint32 countersEnableStatus;
1289:Generated_Source\PSoC4/CyLFClk.c **** 
1290:Generated_Source\PSoC4/CyLFClk.c ****         countersEnableStatus = CySysWdtGetEnabledStatus(CY_SYS_WDT_COUNTER0) |
 1204              		.loc 1 1290 0
ARM GAS  C:\Users\ASUS\AppData\Local\Temp\ccYDUrWd.s 			page 45


 1205 0008 0020     		movs	r0, #0
 1206 000a FFF7FEFF 		bl	CySysWdtGetEnabledStatus
 1207 000e 0400     		movs	r4, r0
1291:Generated_Source\PSoC4/CyLFClk.c ****                             CySysWdtGetEnabledStatus(CY_SYS_WDT_COUNTER1) |
 1208              		.loc 1 1291 0
 1209 0010 0120     		movs	r0, #1
 1210 0012 FFF7FEFF 		bl	CySysWdtGetEnabledStatus
 1211 0016 0300     		movs	r3, r0
1290:Generated_Source\PSoC4/CyLFClk.c ****                             CySysWdtGetEnabledStatus(CY_SYS_WDT_COUNTER1) |
 1212              		.loc 1 1290 0
 1213 0018 1C43     		orrs	r4, r3
1292:Generated_Source\PSoC4/CyLFClk.c ****                             CySysWdtGetEnabledStatus(CY_SYS_WDT_COUNTER2);
 1214              		.loc 1 1292 0
 1215 001a 0220     		movs	r0, #2
 1216 001c FFF7FEFF 		bl	CySysWdtGetEnabledStatus
 1217 0020 0300     		movs	r3, r0
1290:Generated_Source\PSoC4/CyLFClk.c ****                             CySysWdtGetEnabledStatus(CY_SYS_WDT_COUNTER1) |
 1218              		.loc 1 1290 0
 1219 0022 2343     		orrs	r3, r4
 1220 0024 FB60     		str	r3, [r7, #12]
1293:Generated_Source\PSoC4/CyLFClk.c **** 
1294:Generated_Source\PSoC4/CyLFClk.c ****         if (0u == countersEnableStatus)
 1221              		.loc 1 1294 0
 1222 0026 FB68     		ldr	r3, [r7, #12]
 1223 0028 002B     		cmp	r3, #0
 1224 002a 0DD1     		bne	.L101
1295:Generated_Source\PSoC4/CyLFClk.c ****         {
1296:Generated_Source\PSoC4/CyLFClk.c ****             configRegValue = CY_SYS_WDT_CONFIG_REG;
 1225              		.loc 1 1296 0
 1226 002c 084B     		ldr	r3, .L102
 1227 002e 1B68     		ldr	r3, [r3]
 1228 0030 BB60     		str	r3, [r7, #8]
1297:Generated_Source\PSoC4/CyLFClk.c ****             configRegValue &= ((uint32)(~(CY_SYS_WDT_CASCADE_01|CY_SYS_WDT_CASCADE_12)));
 1229              		.loc 1 1297 0
 1230 0032 BB68     		ldr	r3, [r7, #8]
 1231 0034 074A     		ldr	r2, .L102+4
 1232 0036 1340     		ands	r3, r2
 1233 0038 BB60     		str	r3, [r7, #8]
1298:Generated_Source\PSoC4/CyLFClk.c ****             configRegValue |= cascadeMask;
 1234              		.loc 1 1298 0
 1235 003a BA68     		ldr	r2, [r7, #8]
 1236 003c 7B68     		ldr	r3, [r7, #4]
 1237 003e 1343     		orrs	r3, r2
 1238 0040 BB60     		str	r3, [r7, #8]
1299:Generated_Source\PSoC4/CyLFClk.c ****             CY_SYS_WDT_CONFIG_REG = configRegValue;
 1239              		.loc 1 1299 0
 1240 0042 034B     		ldr	r3, .L102
 1241 0044 BA68     		ldr	r2, [r7, #8]
 1242 0046 1A60     		str	r2, [r3]
 1243              	.L101:
1300:Generated_Source\PSoC4/CyLFClk.c ****         }
1301:Generated_Source\PSoC4/CyLFClk.c ****     }
 1244              		.loc 1 1301 0
 1245 0048 C046     		nop
 1246 004a BD46     		mov	sp, r7
 1247 004c 05B0     		add	sp, sp, #20
 1248              		@ sp needed
ARM GAS  C:\Users\ASUS\AppData\Local\Temp\ccYDUrWd.s 			page 46


 1249 004e 90BD     		pop	{r4, r7, pc}
 1250              	.L103:
 1251              		.align	2
 1252              	.L102:
 1253 0050 0C020B40 		.word	1074463244
 1254 0054 F7F7FFFF 		.word	-2057
 1255              		.cfi_endproc
 1256              	.LFE16:
 1257              		.size	CySysWdtSetCascade, .-CySysWdtSetCascade
 1258              		.section	.text.CySysWdtGetCascade,"ax",%progbits
 1259              		.align	2
 1260              		.global	CySysWdtGetCascade
 1261              		.code	16
 1262              		.thumb_func
 1263              		.type	CySysWdtGetCascade, %function
 1264              	CySysWdtGetCascade:
 1265              	.LFB17:
1302:Generated_Source\PSoC4/CyLFClk.c **** 
1303:Generated_Source\PSoC4/CyLFClk.c **** 
1304:Generated_Source\PSoC4/CyLFClk.c ****     /*******************************************************************************
1305:Generated_Source\PSoC4/CyLFClk.c ****     * Function Name: CySysWdtGetCascade
1306:Generated_Source\PSoC4/CyLFClk.c ****     ****************************************************************************//**
1307:Generated_Source\PSoC4/CyLFClk.c ****     *
1308:Generated_Source\PSoC4/CyLFClk.c ****     * \brief Reads the two WDT cascade values returning a mask of the bits set.
1309:Generated_Source\PSoC4/CyLFClk.c ****     *
1310:Generated_Source\PSoC4/CyLFClk.c ****     * \return The mask of the cascade values set.
1311:Generated_Source\PSoC4/CyLFClk.c ****     * \return CY_SYS_WDT_CASCADE_NONE - Neither
1312:Generated_Source\PSoC4/CyLFClk.c ****     * \return CY_SYS_WDT_CASCADE_01 - Cascade 01
1313:Generated_Source\PSoC4/CyLFClk.c ****     * \return CY_SYS_WDT_CASCADE_12 - Cascade 12
1314:Generated_Source\PSoC4/CyLFClk.c ****     *
1315:Generated_Source\PSoC4/CyLFClk.c ****     *******************************************************************************/
1316:Generated_Source\PSoC4/CyLFClk.c ****     uint32 CySysWdtGetCascade(void)
1317:Generated_Source\PSoC4/CyLFClk.c ****     {
 1266              		.loc 1 1317 0
 1267              		.cfi_startproc
 1268              		@ args = 0, pretend = 0, frame = 0
 1269              		@ frame_needed = 1, uses_anonymous_args = 0
 1270 0000 80B5     		push	{r7, lr}
 1271              		.cfi_def_cfa_offset 8
 1272              		.cfi_offset 7, -8
 1273              		.cfi_offset 14, -4
 1274 0002 00AF     		add	r7, sp, #0
 1275              		.cfi_def_cfa_register 7
1318:Generated_Source\PSoC4/CyLFClk.c ****         return (CY_SYS_WDT_CONFIG_REG & (CY_SYS_WDT_CASCADE_01 | CY_SYS_WDT_CASCADE_12));
 1276              		.loc 1 1318 0
 1277 0004 034B     		ldr	r3, .L106
 1278 0006 1B68     		ldr	r3, [r3]
 1279 0008 034A     		ldr	r2, .L106+4
 1280 000a 1340     		ands	r3, r2
1319:Generated_Source\PSoC4/CyLFClk.c ****     }
 1281              		.loc 1 1319 0
 1282 000c 1800     		movs	r0, r3
 1283 000e BD46     		mov	sp, r7
 1284              		@ sp needed
 1285 0010 80BD     		pop	{r7, pc}
 1286              	.L107:
 1287 0012 C046     		.align	2
ARM GAS  C:\Users\ASUS\AppData\Local\Temp\ccYDUrWd.s 			page 47


 1288              	.L106:
 1289 0014 0C020B40 		.word	1074463244
 1290 0018 08080000 		.word	2056
 1291              		.cfi_endproc
 1292              	.LFE17:
 1293              		.size	CySysWdtGetCascade, .-CySysWdtGetCascade
 1294              		.section	.text.CySysWdtSetMatch,"ax",%progbits
 1295              		.align	2
 1296              		.global	CySysWdtSetMatch
 1297              		.code	16
 1298              		.thumb_func
 1299              		.type	CySysWdtSetMatch, %function
 1300              	CySysWdtSetMatch:
 1301              	.LFB18:
1320:Generated_Source\PSoC4/CyLFClk.c **** 
1321:Generated_Source\PSoC4/CyLFClk.c **** 
1322:Generated_Source\PSoC4/CyLFClk.c ****     /*******************************************************************************
1323:Generated_Source\PSoC4/CyLFClk.c ****     * Function Name: CySysWdtSetMatch
1324:Generated_Source\PSoC4/CyLFClk.c ****     ****************************************************************************//**
1325:Generated_Source\PSoC4/CyLFClk.c ****     *
1326:Generated_Source\PSoC4/CyLFClk.c ****     * \brief Configures the WDT counter match comparison value.
1327:Generated_Source\PSoC4/CyLFClk.c ****     *
1328:Generated_Source\PSoC4/CyLFClk.c ****     * \param counterNum
1329:Generated_Source\PSoC4/CyLFClk.c ****     * Valid range [0-1]. The number of the WDT counter. The match values are not
1330:Generated_Source\PSoC4/CyLFClk.c ****     * supported by counter 2.
1331:Generated_Source\PSoC4/CyLFClk.c ****     *
1332:Generated_Source\PSoC4/CyLFClk.c ****     * \param match
1333:Generated_Source\PSoC4/CyLFClk.c ****     * Valid range [0-65535]. The value to be used to match against the counter.
1334:Generated_Source\PSoC4/CyLFClk.c ****     *
1335:Generated_Source\PSoC4/CyLFClk.c ****     *******************************************************************************/
1336:Generated_Source\PSoC4/CyLFClk.c ****     void CySysWdtSetMatch(uint32 counterNum, uint32 match)
1337:Generated_Source\PSoC4/CyLFClk.c ****     {
 1302              		.loc 1 1337 0
 1303              		.cfi_startproc
 1304              		@ args = 0, pretend = 0, frame = 16
 1305              		@ frame_needed = 1, uses_anonymous_args = 0
 1306 0000 80B5     		push	{r7, lr}
 1307              		.cfi_def_cfa_offset 8
 1308              		.cfi_offset 7, -8
 1309              		.cfi_offset 14, -4
 1310 0002 84B0     		sub	sp, sp, #16
 1311              		.cfi_def_cfa_offset 24
 1312 0004 00AF     		add	r7, sp, #0
 1313              		.cfi_def_cfa_register 7
 1314 0006 7860     		str	r0, [r7, #4]
 1315 0008 3960     		str	r1, [r7]
1338:Generated_Source\PSoC4/CyLFClk.c ****         uint32 regValue;
1339:Generated_Source\PSoC4/CyLFClk.c **** 
1340:Generated_Source\PSoC4/CyLFClk.c ****         CYASSERT((counterNum == CY_SYS_WDT_COUNTER0) ||
 1316              		.loc 1 1340 0
 1317 000a 7B68     		ldr	r3, [r7, #4]
 1318 000c 002B     		cmp	r3, #0
 1319 000e 02D0     		beq	.L109
 1320              		.loc 1 1340 0 is_stmt 0 discriminator 2
 1321 0010 7B68     		ldr	r3, [r7, #4]
 1322 0012 012B     		cmp	r3, #1
 1323 0014 01D1     		bne	.L110
ARM GAS  C:\Users\ASUS\AppData\Local\Temp\ccYDUrWd.s 			page 48


 1324              	.L109:
 1325              		.loc 1 1340 0 discriminator 3
 1326 0016 0123     		movs	r3, #1
 1327 0018 00E0     		b	.L111
 1328              	.L110:
 1329              		.loc 1 1340 0 discriminator 4
 1330 001a 0023     		movs	r3, #0
 1331              	.L111:
 1332              		.loc 1 1340 0 discriminator 6
 1333 001c 002B     		cmp	r3, #0
 1334 001e 02D1     		bne	.L112
 1335              		.loc 1 1340 0 discriminator 7
 1336 0020 0020     		movs	r0, #0
 1337 0022 FFF7FEFF 		bl	CyHalt
 1338              	.L112:
1341:Generated_Source\PSoC4/CyLFClk.c ****                  (counterNum == CY_SYS_WDT_COUNTER1));
1342:Generated_Source\PSoC4/CyLFClk.c **** 
1343:Generated_Source\PSoC4/CyLFClk.c ****         /* Wait for previous changes to come into effect */
1344:Generated_Source\PSoC4/CyLFClk.c ****         CyDelayUs(CY_SYS_WDT_3LFCLK_DELAY_US);
 1339              		.loc 1 1344 0 is_stmt 1
 1340 0026 C920     		movs	r0, #201
 1341 0028 FFF7FEFF 		bl	CyDelayUs
1345:Generated_Source\PSoC4/CyLFClk.c **** 
1346:Generated_Source\PSoC4/CyLFClk.c ****         regValue = CY_SYS_WDT_MATCH_REG;
 1342              		.loc 1 1346 0
 1343 002c 0D4B     		ldr	r3, .L113
 1344 002e 1B68     		ldr	r3, [r3]
 1345 0030 FB60     		str	r3, [r7, #12]
1347:Generated_Source\PSoC4/CyLFClk.c ****         regValue &= (uint32)~((uint32)(CY_SYS_WDT_LOWER_16BITS_MASK << (counterNum * CY_SYS_WDT_CNT
 1346              		.loc 1 1347 0
 1347 0032 7B68     		ldr	r3, [r7, #4]
 1348 0034 1B01     		lsls	r3, r3, #4
 1349 0036 0C4A     		ldr	r2, .L113+4
 1350 0038 9A40     		lsls	r2, r2, r3
 1351 003a 1300     		movs	r3, r2
 1352 003c DA43     		mvns	r2, r3
 1353 003e FB68     		ldr	r3, [r7, #12]
 1354 0040 1340     		ands	r3, r2
 1355 0042 FB60     		str	r3, [r7, #12]
1348:Generated_Source\PSoC4/CyLFClk.c ****         CY_SYS_WDT_MATCH_REG = (regValue | (match << (counterNum * CY_SYS_WDT_CNT_MATCH_SHIFT)));
 1356              		.loc 1 1348 0
 1357 0044 074B     		ldr	r3, .L113
 1358 0046 7A68     		ldr	r2, [r7, #4]
 1359 0048 1201     		lsls	r2, r2, #4
 1360 004a 3968     		ldr	r1, [r7]
 1361 004c 9140     		lsls	r1, r1, r2
 1362 004e FA68     		ldr	r2, [r7, #12]
 1363 0050 0A43     		orrs	r2, r1
 1364 0052 1A60     		str	r2, [r3]
1349:Generated_Source\PSoC4/CyLFClk.c **** 
1350:Generated_Source\PSoC4/CyLFClk.c ****         /* Make sure match synchronization has started */
1351:Generated_Source\PSoC4/CyLFClk.c ****         CyDelayUs(CY_SYS_WDT_1LFCLK_DELAY_US);
 1365              		.loc 1 1351 0
 1366 0054 4320     		movs	r0, #67
 1367 0056 FFF7FEFF 		bl	CyDelayUs
1352:Generated_Source\PSoC4/CyLFClk.c ****     }
 1368              		.loc 1 1352 0
ARM GAS  C:\Users\ASUS\AppData\Local\Temp\ccYDUrWd.s 			page 49


 1369 005a C046     		nop
 1370 005c BD46     		mov	sp, r7
 1371 005e 04B0     		add	sp, sp, #16
 1372              		@ sp needed
 1373 0060 80BD     		pop	{r7, pc}
 1374              	.L114:
 1375 0062 C046     		.align	2
 1376              	.L113:
 1377 0064 08020B40 		.word	1074463240
 1378 0068 FFFF0000 		.word	65535
 1379              		.cfi_endproc
 1380              	.LFE18:
 1381              		.size	CySysWdtSetMatch, .-CySysWdtSetMatch
 1382              		.section	.text.CySysWdtSetToggleBit,"ax",%progbits
 1383              		.align	2
 1384              		.global	CySysWdtSetToggleBit
 1385              		.code	16
 1386              		.thumb_func
 1387              		.type	CySysWdtSetToggleBit, %function
 1388              	CySysWdtSetToggleBit:
 1389              	.LFB19:
1353:Generated_Source\PSoC4/CyLFClk.c **** 
1354:Generated_Source\PSoC4/CyLFClk.c **** 
1355:Generated_Source\PSoC4/CyLFClk.c ****     /*******************************************************************************
1356:Generated_Source\PSoC4/CyLFClk.c ****     * Function Name: CySysWdtSetToggleBit
1357:Generated_Source\PSoC4/CyLFClk.c ****     ****************************************************************************//**
1358:Generated_Source\PSoC4/CyLFClk.c ****     * \brief
1359:Generated_Source\PSoC4/CyLFClk.c ****     * Configures which bit in WDT counter 2 to monitor for a toggle.
1360:Generated_Source\PSoC4/CyLFClk.c ****     *
1361:Generated_Source\PSoC4/CyLFClk.c ****     * When that bit toggles, an interrupt is generated if the mode for counter 2 has
1362:Generated_Source\PSoC4/CyLFClk.c ****     * enabled interrupts.
1363:Generated_Source\PSoC4/CyLFClk.c ****     *
1364:Generated_Source\PSoC4/CyLFClk.c ****     * \param bits Valid range [0-31].  Counter 2 bit to monitor for a toggle.
1365:Generated_Source\PSoC4/CyLFClk.c ****     *
1366:Generated_Source\PSoC4/CyLFClk.c ****     * \details
1367:Generated_Source\PSoC4/CyLFClk.c ****     * WDT Counter 2 should be disabled. Otherwise this function call has no
1368:Generated_Source\PSoC4/CyLFClk.c ****     * effect.
1369:Generated_Source\PSoC4/CyLFClk.c ****     *
1370:Generated_Source\PSoC4/CyLFClk.c ****     * If the specified counter is enabled, call the CySysWdtDisable() function with
1371:Generated_Source\PSoC4/CyLFClk.c ****     * the corresponding parameter to disable the specified counter and wait for it to
1372:Generated_Source\PSoC4/CyLFClk.c ****     * stop. This may take up to 3 LFCLK cycles.
1373:Generated_Source\PSoC4/CyLFClk.c ****     *
1374:Generated_Source\PSoC4/CyLFClk.c ****     *******************************************************************************/
1375:Generated_Source\PSoC4/CyLFClk.c ****     void CySysWdtSetToggleBit(uint32 bits)
1376:Generated_Source\PSoC4/CyLFClk.c ****     {
 1390              		.loc 1 1376 0
 1391              		.cfi_startproc
 1392              		@ args = 0, pretend = 0, frame = 16
 1393              		@ frame_needed = 1, uses_anonymous_args = 0
 1394 0000 80B5     		push	{r7, lr}
 1395              		.cfi_def_cfa_offset 8
 1396              		.cfi_offset 7, -8
 1397              		.cfi_offset 14, -4
 1398 0002 84B0     		sub	sp, sp, #16
 1399              		.cfi_def_cfa_offset 24
 1400 0004 00AF     		add	r7, sp, #0
 1401              		.cfi_def_cfa_register 7
ARM GAS  C:\Users\ASUS\AppData\Local\Temp\ccYDUrWd.s 			page 50


 1402 0006 7860     		str	r0, [r7, #4]
1377:Generated_Source\PSoC4/CyLFClk.c ****         uint32 configRegValue;
1378:Generated_Source\PSoC4/CyLFClk.c **** 
1379:Generated_Source\PSoC4/CyLFClk.c ****         if (0u == CySysWdtGetEnabledStatus(CY_SYS_WDT_COUNTER2))
 1403              		.loc 1 1379 0
 1404 0008 0220     		movs	r0, #2
 1405 000a FFF7FEFF 		bl	CySysWdtGetEnabledStatus
 1406 000e 031E     		subs	r3, r0, #0
 1407 0010 11D1     		bne	.L117
1380:Generated_Source\PSoC4/CyLFClk.c ****         {
1381:Generated_Source\PSoC4/CyLFClk.c ****             configRegValue = CY_SYS_WDT_CONFIG_REG;
 1408              		.loc 1 1381 0
 1409 0012 0B4B     		ldr	r3, .L118
 1410 0014 1B68     		ldr	r3, [r3]
 1411 0016 FB60     		str	r3, [r7, #12]
1382:Generated_Source\PSoC4/CyLFClk.c ****             configRegValue &= (uint32)(~((uint32)(CY_SYS_WDT_CONFIG_BITS2_MASK << CY_SYS_WDT_CONFIG
 1412              		.loc 1 1382 0
 1413 0018 FB68     		ldr	r3, [r7, #12]
 1414 001a 0A4A     		ldr	r2, .L118+4
 1415 001c 1340     		ands	r3, r2
 1416 001e FB60     		str	r3, [r7, #12]
1383:Generated_Source\PSoC4/CyLFClk.c ****             configRegValue |= ((bits & CY_SYS_WDT_CONFIG_BITS2_MASK) << CY_SYS_WDT_CONFIG_BITS2_POS
 1417              		.loc 1 1383 0
 1418 0020 7B68     		ldr	r3, [r7, #4]
 1419 0022 1A06     		lsls	r2, r3, #24
 1420 0024 F823     		movs	r3, #248
 1421 0026 5B05     		lsls	r3, r3, #21
 1422 0028 1340     		ands	r3, r2
 1423 002a FA68     		ldr	r2, [r7, #12]
 1424 002c 1343     		orrs	r3, r2
 1425 002e FB60     		str	r3, [r7, #12]
1384:Generated_Source\PSoC4/CyLFClk.c ****             CY_SYS_WDT_CONFIG_REG = configRegValue;
 1426              		.loc 1 1384 0
 1427 0030 034B     		ldr	r3, .L118
 1428 0032 FA68     		ldr	r2, [r7, #12]
 1429 0034 1A60     		str	r2, [r3]
 1430              	.L117:
1385:Generated_Source\PSoC4/CyLFClk.c ****         }
1386:Generated_Source\PSoC4/CyLFClk.c ****     }
 1431              		.loc 1 1386 0
 1432 0036 C046     		nop
 1433 0038 BD46     		mov	sp, r7
 1434 003a 04B0     		add	sp, sp, #16
 1435              		@ sp needed
 1436 003c 80BD     		pop	{r7, pc}
 1437              	.L119:
 1438 003e C046     		.align	2
 1439              	.L118:
 1440 0040 0C020B40 		.word	1074463244
 1441 0044 FFFFFFE0 		.word	-520093697
 1442              		.cfi_endproc
 1443              	.LFE19:
 1444              		.size	CySysWdtSetToggleBit, .-CySysWdtSetToggleBit
 1445              		.section	.text.CySysWdtGetToggleBit,"ax",%progbits
 1446              		.align	2
 1447              		.global	CySysWdtGetToggleBit
 1448              		.code	16
ARM GAS  C:\Users\ASUS\AppData\Local\Temp\ccYDUrWd.s 			page 51


 1449              		.thumb_func
 1450              		.type	CySysWdtGetToggleBit, %function
 1451              	CySysWdtGetToggleBit:
 1452              	.LFB20:
1387:Generated_Source\PSoC4/CyLFClk.c **** 
1388:Generated_Source\PSoC4/CyLFClk.c **** 
1389:Generated_Source\PSoC4/CyLFClk.c ****     /*******************************************************************************
1390:Generated_Source\PSoC4/CyLFClk.c ****     * Function Name: CySysWdtGetToggleBit
1391:Generated_Source\PSoC4/CyLFClk.c ****     ****************************************************************************//**
1392:Generated_Source\PSoC4/CyLFClk.c ****     * \brief
1393:Generated_Source\PSoC4/CyLFClk.c ****     * Reads which bit in WDT counter 2 is monitored for a toggle.
1394:Generated_Source\PSoC4/CyLFClk.c ****     *
1395:Generated_Source\PSoC4/CyLFClk.c ****     * \return The bit that is monitored (range of 0 to 31)
1396:Generated_Source\PSoC4/CyLFClk.c ****     *
1397:Generated_Source\PSoC4/CyLFClk.c ****     *******************************************************************************/
1398:Generated_Source\PSoC4/CyLFClk.c ****     uint32 CySysWdtGetToggleBit(void)
1399:Generated_Source\PSoC4/CyLFClk.c ****     {
 1453              		.loc 1 1399 0
 1454              		.cfi_startproc
 1455              		@ args = 0, pretend = 0, frame = 0
 1456              		@ frame_needed = 1, uses_anonymous_args = 0
 1457 0000 80B5     		push	{r7, lr}
 1458              		.cfi_def_cfa_offset 8
 1459              		.cfi_offset 7, -8
 1460              		.cfi_offset 14, -4
 1461 0002 00AF     		add	r7, sp, #0
 1462              		.cfi_def_cfa_register 7
1400:Generated_Source\PSoC4/CyLFClk.c ****         return ((CY_SYS_WDT_CONFIG_REG >> CY_SYS_WDT_CONFIG_BITS2_POS) & CY_SYS_WDT_CONFIG_BITS2_MA
 1463              		.loc 1 1400 0
 1464 0004 034B     		ldr	r3, .L122
 1465 0006 1B68     		ldr	r3, [r3]
 1466 0008 1B0E     		lsrs	r3, r3, #24
 1467 000a 1F22     		movs	r2, #31
 1468 000c 1340     		ands	r3, r2
1401:Generated_Source\PSoC4/CyLFClk.c ****     }
 1469              		.loc 1 1401 0
 1470 000e 1800     		movs	r0, r3
 1471 0010 BD46     		mov	sp, r7
 1472              		@ sp needed
 1473 0012 80BD     		pop	{r7, pc}
 1474              	.L123:
 1475              		.align	2
 1476              	.L122:
 1477 0014 0C020B40 		.word	1074463244
 1478              		.cfi_endproc
 1479              	.LFE20:
 1480              		.size	CySysWdtGetToggleBit, .-CySysWdtGetToggleBit
 1481              		.section	.text.CySysWdtGetMatch,"ax",%progbits
 1482              		.align	2
 1483              		.global	CySysWdtGetMatch
 1484              		.code	16
 1485              		.thumb_func
 1486              		.type	CySysWdtGetMatch, %function
 1487              	CySysWdtGetMatch:
 1488              	.LFB21:
1402:Generated_Source\PSoC4/CyLFClk.c **** 
1403:Generated_Source\PSoC4/CyLFClk.c **** 
ARM GAS  C:\Users\ASUS\AppData\Local\Temp\ccYDUrWd.s 			page 52


1404:Generated_Source\PSoC4/CyLFClk.c ****     /*******************************************************************************
1405:Generated_Source\PSoC4/CyLFClk.c ****     * Function Name: CySysWdtGetMatch
1406:Generated_Source\PSoC4/CyLFClk.c ****     ****************************************************************************//**
1407:Generated_Source\PSoC4/CyLFClk.c ****     *
1408:Generated_Source\PSoC4/CyLFClk.c ****     * \brief Reads the WDT counter match comparison value.
1409:Generated_Source\PSoC4/CyLFClk.c ****     *
1410:Generated_Source\PSoC4/CyLFClk.c ****     * \param counterNum Valid range [0-1].  The number of the WDT counter. The match
1411:Generated_Source\PSoC4/CyLFClk.c ****     * values are not supported by counter 2.
1412:Generated_Source\PSoC4/CyLFClk.c ****     *
1413:Generated_Source\PSoC4/CyLFClk.c ****     * \return A 16-bit match value.
1414:Generated_Source\PSoC4/CyLFClk.c ****     *
1415:Generated_Source\PSoC4/CyLFClk.c ****     *******************************************************************************/
1416:Generated_Source\PSoC4/CyLFClk.c ****     uint32 CySysWdtGetMatch(uint32 counterNum)
1417:Generated_Source\PSoC4/CyLFClk.c ****     {
 1489              		.loc 1 1417 0
 1490              		.cfi_startproc
 1491              		@ args = 0, pretend = 0, frame = 8
 1492              		@ frame_needed = 1, uses_anonymous_args = 0
 1493 0000 80B5     		push	{r7, lr}
 1494              		.cfi_def_cfa_offset 8
 1495              		.cfi_offset 7, -8
 1496              		.cfi_offset 14, -4
 1497 0002 82B0     		sub	sp, sp, #8
 1498              		.cfi_def_cfa_offset 16
 1499 0004 00AF     		add	r7, sp, #0
 1500              		.cfi_def_cfa_register 7
 1501 0006 7860     		str	r0, [r7, #4]
1418:Generated_Source\PSoC4/CyLFClk.c ****         CYASSERT((counterNum == CY_SYS_WDT_COUNTER0) ||
 1502              		.loc 1 1418 0
 1503 0008 7B68     		ldr	r3, [r7, #4]
 1504 000a 002B     		cmp	r3, #0
 1505 000c 02D0     		beq	.L125
 1506              		.loc 1 1418 0 is_stmt 0 discriminator 2
 1507 000e 7B68     		ldr	r3, [r7, #4]
 1508 0010 012B     		cmp	r3, #1
 1509 0012 01D1     		bne	.L126
 1510              	.L125:
 1511              		.loc 1 1418 0 discriminator 3
 1512 0014 0123     		movs	r3, #1
 1513 0016 00E0     		b	.L127
 1514              	.L126:
 1515              		.loc 1 1418 0 discriminator 4
 1516 0018 0023     		movs	r3, #0
 1517              	.L127:
 1518              		.loc 1 1418 0 discriminator 6
 1519 001a 002B     		cmp	r3, #0
 1520 001c 02D1     		bne	.L128
 1521              		.loc 1 1418 0 discriminator 7
 1522 001e 0020     		movs	r0, #0
 1523 0020 FFF7FEFF 		bl	CyHalt
 1524              	.L128:
1419:Generated_Source\PSoC4/CyLFClk.c ****                  (counterNum == CY_SYS_WDT_COUNTER1));
1420:Generated_Source\PSoC4/CyLFClk.c **** 
1421:Generated_Source\PSoC4/CyLFClk.c ****         return ((uint32)(CY_SYS_WDT_MATCH_REG >> 
 1525              		.loc 1 1421 0 is_stmt 1
 1526 0024 054B     		ldr	r3, .L130
 1527 0026 1A68     		ldr	r2, [r3]
ARM GAS  C:\Users\ASUS\AppData\Local\Temp\ccYDUrWd.s 			page 53


1422:Generated_Source\PSoC4/CyLFClk.c ****                                             (counterNum * CY_SYS_WDT_CNT_MATCH_SHIFT)) & CY_SYS_WDT
 1528              		.loc 1 1422 0
 1529 0028 7B68     		ldr	r3, [r7, #4]
 1530 002a 1B01     		lsls	r3, r3, #4
1421:Generated_Source\PSoC4/CyLFClk.c ****                                             (counterNum * CY_SYS_WDT_CNT_MATCH_SHIFT)) & CY_SYS_WDT
 1531              		.loc 1 1421 0
 1532 002c DA40     		lsrs	r2, r2, r3
 1533 002e 1300     		movs	r3, r2
 1534 0030 1B04     		lsls	r3, r3, #16
 1535 0032 1B0C     		lsrs	r3, r3, #16
1423:Generated_Source\PSoC4/CyLFClk.c ****     }
 1536              		.loc 1 1423 0
 1537 0034 1800     		movs	r0, r3
 1538 0036 BD46     		mov	sp, r7
 1539 0038 02B0     		add	sp, sp, #8
 1540              		@ sp needed
 1541 003a 80BD     		pop	{r7, pc}
 1542              	.L131:
 1543              		.align	2
 1544              	.L130:
 1545 003c 08020B40 		.word	1074463240
 1546              		.cfi_endproc
 1547              	.LFE21:
 1548              		.size	CySysWdtGetMatch, .-CySysWdtGetMatch
 1549              		.section	.text.CySysWdtGetCount,"ax",%progbits
 1550              		.align	2
 1551              		.global	CySysWdtGetCount
 1552              		.code	16
 1553              		.thumb_func
 1554              		.type	CySysWdtGetCount, %function
 1555              	CySysWdtGetCount:
 1556              	.LFB22:
1424:Generated_Source\PSoC4/CyLFClk.c **** 
1425:Generated_Source\PSoC4/CyLFClk.c **** 
1426:Generated_Source\PSoC4/CyLFClk.c ****     /*******************************************************************************
1427:Generated_Source\PSoC4/CyLFClk.c ****     * Function Name: CySysWdtGetCount
1428:Generated_Source\PSoC4/CyLFClk.c ****     ****************************************************************************//**
1429:Generated_Source\PSoC4/CyLFClk.c ****     *
1430:Generated_Source\PSoC4/CyLFClk.c ****     * \brief Reads the current WDT counter value.
1431:Generated_Source\PSoC4/CyLFClk.c ****     *
1432:Generated_Source\PSoC4/CyLFClk.c ****     * \param counterNum: Valid range [0-2]. The number of the WDT counter.
1433:Generated_Source\PSoC4/CyLFClk.c ****     *
1434:Generated_Source\PSoC4/CyLFClk.c ****     * \return A live counter value.  Counter 0 and Counter 1 are 16 bit counters 
1435:Generated_Source\PSoC4/CyLFClk.c ****     * and counter 2 is a 32 bit counter.
1436:Generated_Source\PSoC4/CyLFClk.c ****     *
1437:Generated_Source\PSoC4/CyLFClk.c ****     *******************************************************************************/
1438:Generated_Source\PSoC4/CyLFClk.c ****     uint32 CySysWdtGetCount(uint32 counterNum)
1439:Generated_Source\PSoC4/CyLFClk.c ****     {
 1557              		.loc 1 1439 0
 1558              		.cfi_startproc
 1559              		@ args = 0, pretend = 0, frame = 16
 1560              		@ frame_needed = 1, uses_anonymous_args = 0
 1561 0000 80B5     		push	{r7, lr}
 1562              		.cfi_def_cfa_offset 8
 1563              		.cfi_offset 7, -8
 1564              		.cfi_offset 14, -4
 1565 0002 84B0     		sub	sp, sp, #16
ARM GAS  C:\Users\ASUS\AppData\Local\Temp\ccYDUrWd.s 			page 54


 1566              		.cfi_def_cfa_offset 24
 1567 0004 00AF     		add	r7, sp, #0
 1568              		.cfi_def_cfa_register 7
 1569 0006 7860     		str	r0, [r7, #4]
1440:Generated_Source\PSoC4/CyLFClk.c ****         uint32 regValue = 0u;
 1570              		.loc 1 1440 0
 1571 0008 0023     		movs	r3, #0
 1572 000a FB60     		str	r3, [r7, #12]
1441:Generated_Source\PSoC4/CyLFClk.c **** 
1442:Generated_Source\PSoC4/CyLFClk.c ****         switch(counterNum)
 1573              		.loc 1 1442 0
 1574 000c 7B68     		ldr	r3, [r7, #4]
 1575 000e 012B     		cmp	r3, #1
 1576 0010 09D0     		beq	.L134
 1577 0012 02D3     		bcc	.L135
 1578 0014 022B     		cmp	r3, #2
 1579 0016 0BD0     		beq	.L136
 1580 0018 0EE0     		b	.L139
 1581              	.L135:
1443:Generated_Source\PSoC4/CyLFClk.c ****         {
1444:Generated_Source\PSoC4/CyLFClk.c ****             /* WDT Counter 0 */
1445:Generated_Source\PSoC4/CyLFClk.c ****             case 0u:
1446:Generated_Source\PSoC4/CyLFClk.c ****                 regValue = CY_SYS_WDT_CTRLOW_REG & CY_SYS_WDT_LOWER_16BITS_MASK;
 1582              		.loc 1 1446 0
 1583 001a 0C4B     		ldr	r3, .L140
 1584 001c 1B68     		ldr	r3, [r3]
 1585 001e 1B04     		lsls	r3, r3, #16
 1586 0020 1B0C     		lsrs	r3, r3, #16
 1587 0022 FB60     		str	r3, [r7, #12]
1447:Generated_Source\PSoC4/CyLFClk.c ****             break;
 1588              		.loc 1 1447 0
 1589 0024 0CE0     		b	.L137
 1590              	.L134:
1448:Generated_Source\PSoC4/CyLFClk.c **** 
1449:Generated_Source\PSoC4/CyLFClk.c ****             /* WDT Counter 1 */
1450:Generated_Source\PSoC4/CyLFClk.c ****             case 1u:
1451:Generated_Source\PSoC4/CyLFClk.c ****                 regValue = (CY_SYS_WDT_CTRLOW_REG >> CY_SYS_WDT_CNT_MATCH_SHIFT) & CY_SYS_WDT_LOWER
 1591              		.loc 1 1451 0
 1592 0026 094B     		ldr	r3, .L140
 1593 0028 1B68     		ldr	r3, [r3]
 1594 002a 1B0C     		lsrs	r3, r3, #16
 1595 002c FB60     		str	r3, [r7, #12]
1452:Generated_Source\PSoC4/CyLFClk.c ****             break;
 1596              		.loc 1 1452 0
 1597 002e 07E0     		b	.L137
 1598              	.L136:
1453:Generated_Source\PSoC4/CyLFClk.c **** 
1454:Generated_Source\PSoC4/CyLFClk.c ****             /* WDT Counter 2 */
1455:Generated_Source\PSoC4/CyLFClk.c ****             case 2u:
1456:Generated_Source\PSoC4/CyLFClk.c ****                 regValue = CY_SYS_WDT_CTRHIGH_REG;
 1599              		.loc 1 1456 0
 1600 0030 074B     		ldr	r3, .L140+4
 1601 0032 1B68     		ldr	r3, [r3]
 1602 0034 FB60     		str	r3, [r7, #12]
1457:Generated_Source\PSoC4/CyLFClk.c ****             break;
 1603              		.loc 1 1457 0
 1604 0036 03E0     		b	.L137
ARM GAS  C:\Users\ASUS\AppData\Local\Temp\ccYDUrWd.s 			page 55


 1605              	.L139:
1458:Generated_Source\PSoC4/CyLFClk.c **** 
1459:Generated_Source\PSoC4/CyLFClk.c ****             default:
1460:Generated_Source\PSoC4/CyLFClk.c ****                 CYASSERT(0u != 0u);
 1606              		.loc 1 1460 0
 1607 0038 0020     		movs	r0, #0
 1608 003a FFF7FEFF 		bl	CyHalt
1461:Generated_Source\PSoC4/CyLFClk.c ****             break;
 1609              		.loc 1 1461 0
 1610 003e C046     		nop
 1611              	.L137:
1462:Generated_Source\PSoC4/CyLFClk.c ****         }
1463:Generated_Source\PSoC4/CyLFClk.c **** 
1464:Generated_Source\PSoC4/CyLFClk.c ****         return (regValue);
 1612              		.loc 1 1464 0
 1613 0040 FB68     		ldr	r3, [r7, #12]
1465:Generated_Source\PSoC4/CyLFClk.c ****     }
 1614              		.loc 1 1465 0
 1615 0042 1800     		movs	r0, r3
 1616 0044 BD46     		mov	sp, r7
 1617 0046 04B0     		add	sp, sp, #16
 1618              		@ sp needed
 1619 0048 80BD     		pop	{r7, pc}
 1620              	.L141:
 1621 004a C046     		.align	2
 1622              	.L140:
 1623 004c 00020B40 		.word	1074463232
 1624 0050 04020B40 		.word	1074463236
 1625              		.cfi_endproc
 1626              	.LFE22:
 1627              		.size	CySysWdtGetCount, .-CySysWdtGetCount
 1628              		.section	.text.CySysWdtGetInterruptSource,"ax",%progbits
 1629              		.align	2
 1630              		.global	CySysWdtGetInterruptSource
 1631              		.code	16
 1632              		.thumb_func
 1633              		.type	CySysWdtGetInterruptSource, %function
 1634              	CySysWdtGetInterruptSource:
 1635              	.LFB23:
1466:Generated_Source\PSoC4/CyLFClk.c **** 
1467:Generated_Source\PSoC4/CyLFClk.c **** 
1468:Generated_Source\PSoC4/CyLFClk.c ****     /*******************************************************************************
1469:Generated_Source\PSoC4/CyLFClk.c ****     * Function Name: CySysWdtGetInterruptSource
1470:Generated_Source\PSoC4/CyLFClk.c ****     ****************************************************************************//**
1471:Generated_Source\PSoC4/CyLFClk.c ****     * \brief
1472:Generated_Source\PSoC4/CyLFClk.c ****     * Reads a mask containing all the WDT counters interrupts that are currently
1473:Generated_Source\PSoC4/CyLFClk.c ****     * set by the hardware, if a corresponding mode is selected.
1474:Generated_Source\PSoC4/CyLFClk.c ****     *
1475:Generated_Source\PSoC4/CyLFClk.c ****     * \return The mask of interrupts set
1476:Generated_Source\PSoC4/CyLFClk.c ****     * \return CY_SYS_WDT_COUNTER0_INT - Counter 0
1477:Generated_Source\PSoC4/CyLFClk.c ****     * \return CY_SYS_WDT_COUNTER1_INT - Counter 1
1478:Generated_Source\PSoC4/CyLFClk.c ****     * \return CY_SYS_WDT_COUNTER2_INT - Counter 2
1479:Generated_Source\PSoC4/CyLFClk.c ****     *
1480:Generated_Source\PSoC4/CyLFClk.c ****     *******************************************************************************/
1481:Generated_Source\PSoC4/CyLFClk.c ****     uint32 CySysWdtGetInterruptSource(void)
1482:Generated_Source\PSoC4/CyLFClk.c ****     {
 1636              		.loc 1 1482 0
ARM GAS  C:\Users\ASUS\AppData\Local\Temp\ccYDUrWd.s 			page 56


 1637              		.cfi_startproc
 1638              		@ args = 0, pretend = 0, frame = 0
 1639              		@ frame_needed = 1, uses_anonymous_args = 0
 1640 0000 80B5     		push	{r7, lr}
 1641              		.cfi_def_cfa_offset 8
 1642              		.cfi_offset 7, -8
 1643              		.cfi_offset 14, -4
 1644 0002 00AF     		add	r7, sp, #0
 1645              		.cfi_def_cfa_register 7
1483:Generated_Source\PSoC4/CyLFClk.c ****         return (CY_SYS_WDT_CONTROL_REG & (CY_SYS_WDT_COUNTER0_INT | CY_SYS_WDT_COUNTER1_INT | CY_SY
 1646              		.loc 1 1483 0
 1647 0004 034B     		ldr	r3, .L144
 1648 0006 1B68     		ldr	r3, [r3]
 1649 0008 034A     		ldr	r2, .L144+4
 1650 000a 1340     		ands	r3, r2
1484:Generated_Source\PSoC4/CyLFClk.c ****     }
 1651              		.loc 1 1484 0
 1652 000c 1800     		movs	r0, r3
 1653 000e BD46     		mov	sp, r7
 1654              		@ sp needed
 1655 0010 80BD     		pop	{r7, pc}
 1656              	.L145:
 1657 0012 C046     		.align	2
 1658              	.L144:
 1659 0014 10020B40 		.word	1074463248
 1660 0018 04040400 		.word	263172
 1661              		.cfi_endproc
 1662              	.LFE23:
 1663              		.size	CySysWdtGetInterruptSource, .-CySysWdtGetInterruptSource
 1664              		.section	.text.CySysWdtClearInterrupt,"ax",%progbits
 1665              		.align	2
 1666              		.global	CySysWdtClearInterrupt
 1667              		.code	16
 1668              		.thumb_func
 1669              		.type	CySysWdtClearInterrupt, %function
 1670              	CySysWdtClearInterrupt:
 1671              	.LFB24:
1485:Generated_Source\PSoC4/CyLFClk.c **** 
1486:Generated_Source\PSoC4/CyLFClk.c **** 
1487:Generated_Source\PSoC4/CyLFClk.c ****     /*******************************************************************************
1488:Generated_Source\PSoC4/CyLFClk.c ****     * Function Name: CySysWdtClearInterrupt
1489:Generated_Source\PSoC4/CyLFClk.c ****     ****************************************************************************//**
1490:Generated_Source\PSoC4/CyLFClk.c ****     * \brief
1491:Generated_Source\PSoC4/CyLFClk.c ****     * Clears all the WDT counter interrupts set in the mask.
1492:Generated_Source\PSoC4/CyLFClk.c ****     *
1493:Generated_Source\PSoC4/CyLFClk.c ****     * Calling this function also prevents from Reset when the counter mode is set 
1494:Generated_Source\PSoC4/CyLFClk.c ****     * to generate 3 interrupts and then the device resets.
1495:Generated_Source\PSoC4/CyLFClk.c ****     *
1496:Generated_Source\PSoC4/CyLFClk.c ****     * All the WDT interrupts are to be cleared by the firmware, otherwise
1497:Generated_Source\PSoC4/CyLFClk.c ****     * interrupts are generated continuously.
1498:Generated_Source\PSoC4/CyLFClk.c ****     *
1499:Generated_Source\PSoC4/CyLFClk.c ****     * \param counterMask
1500:Generated_Source\PSoC4/CyLFClk.c ****     * CY_SYS_WDT_COUNTER0_INT - Clears counter 0 interrupts <br>
1501:Generated_Source\PSoC4/CyLFClk.c ****     * CY_SYS_WDT_COUNTER1_INT - Clears counter 1 interrupts <br>
1502:Generated_Source\PSoC4/CyLFClk.c ****     * CY_SYS_WDT_COUNTER2_INT - Clears counter 2 interrupts
1503:Generated_Source\PSoC4/CyLFClk.c ****     *
1504:Generated_Source\PSoC4/CyLFClk.c ****     * \details
ARM GAS  C:\Users\ASUS\AppData\Local\Temp\ccYDUrWd.s 			page 57


1505:Generated_Source\PSoC4/CyLFClk.c ****     * This function temporary removes the watchdog lock, if it was set, and
1506:Generated_Source\PSoC4/CyLFClk.c ****     * restores the lock state after cleaning the WDT interrupts that are set in
1507:Generated_Source\PSoC4/CyLFClk.c ****     * a mask.
1508:Generated_Source\PSoC4/CyLFClk.c ****     *
1509:Generated_Source\PSoC4/CyLFClk.c ****     *******************************************************************************/
1510:Generated_Source\PSoC4/CyLFClk.c ****     void CySysWdtClearInterrupt(uint32 counterMask)
1511:Generated_Source\PSoC4/CyLFClk.c ****     {
 1672              		.loc 1 1511 0
 1673              		.cfi_startproc
 1674              		@ args = 0, pretend = 0, frame = 16
 1675              		@ frame_needed = 1, uses_anonymous_args = 0
 1676 0000 90B5     		push	{r4, r7, lr}
 1677              		.cfi_def_cfa_offset 12
 1678              		.cfi_offset 4, -12
 1679              		.cfi_offset 7, -8
 1680              		.cfi_offset 14, -4
 1681 0002 85B0     		sub	sp, sp, #20
 1682              		.cfi_def_cfa_offset 32
 1683 0004 00AF     		add	r7, sp, #0
 1684              		.cfi_def_cfa_register 7
 1685 0006 7860     		str	r0, [r7, #4]
1512:Generated_Source\PSoC4/CyLFClk.c ****         uint8 interruptState;
1513:Generated_Source\PSoC4/CyLFClk.c ****         uint32 wdtLockState;
1514:Generated_Source\PSoC4/CyLFClk.c **** 
1515:Generated_Source\PSoC4/CyLFClk.c ****         interruptState = CyEnterCriticalSection();
 1686              		.loc 1 1515 0
 1687 0008 0B23     		movs	r3, #11
 1688 000a FC18     		adds	r4, r7, r3
 1689 000c FFF7FEFF 		bl	CyEnterCriticalSection
 1690 0010 0300     		movs	r3, r0
 1691 0012 2370     		strb	r3, [r4]
1516:Generated_Source\PSoC4/CyLFClk.c **** 
1517:Generated_Source\PSoC4/CyLFClk.c ****         if (0u != CySysWdtLocked())
 1692              		.loc 1 1517 0
 1693 0014 FFF7FEFF 		bl	CySysWdtLocked
 1694 0018 031E     		subs	r3, r0, #0
 1695 001a 04D0     		beq	.L147
1518:Generated_Source\PSoC4/CyLFClk.c ****         {
1519:Generated_Source\PSoC4/CyLFClk.c ****             wdtLockState = 1u;
 1696              		.loc 1 1519 0
 1697 001c 0123     		movs	r3, #1
 1698 001e FB60     		str	r3, [r7, #12]
1520:Generated_Source\PSoC4/CyLFClk.c ****             CySysWdtUnlock();
 1699              		.loc 1 1520 0
 1700 0020 FFF7FEFF 		bl	CySysWdtUnlock
 1701 0024 01E0     		b	.L148
 1702              	.L147:
1521:Generated_Source\PSoC4/CyLFClk.c ****         }
1522:Generated_Source\PSoC4/CyLFClk.c ****         else
1523:Generated_Source\PSoC4/CyLFClk.c ****         {
1524:Generated_Source\PSoC4/CyLFClk.c ****             wdtLockState = 0u;
 1703              		.loc 1 1524 0
 1704 0026 0023     		movs	r3, #0
 1705 0028 FB60     		str	r3, [r7, #12]
 1706              	.L148:
1525:Generated_Source\PSoC4/CyLFClk.c ****         }
1526:Generated_Source\PSoC4/CyLFClk.c **** 
ARM GAS  C:\Users\ASUS\AppData\Local\Temp\ccYDUrWd.s 			page 58


1527:Generated_Source\PSoC4/CyLFClk.c ****         /* Set new WDT control register value */
1528:Generated_Source\PSoC4/CyLFClk.c ****         counterMask &= (CY_SYS_WDT_COUNTER0_INT |
 1707              		.loc 1 1528 0
 1708 002a 7B68     		ldr	r3, [r7, #4]
 1709 002c 0D4A     		ldr	r2, .L150
 1710 002e 1340     		ands	r3, r2
 1711 0030 7B60     		str	r3, [r7, #4]
1529:Generated_Source\PSoC4/CyLFClk.c ****                         CY_SYS_WDT_COUNTER1_INT |
1530:Generated_Source\PSoC4/CyLFClk.c ****                         CY_SYS_WDT_COUNTER2_INT);
1531:Generated_Source\PSoC4/CyLFClk.c **** 
1532:Generated_Source\PSoC4/CyLFClk.c ****         CY_SYS_WDT_CONTROL_REG = counterMask | (CY_SYS_WDT_CONTROL_REG & ~(CY_SYS_WDT_COUNTER0_INT 
 1712              		.loc 1 1532 0
 1713 0032 0D4B     		ldr	r3, .L150+4
 1714 0034 0C4A     		ldr	r2, .L150+4
 1715 0036 1268     		ldr	r2, [r2]
 1716 0038 0C49     		ldr	r1, .L150+8
 1717 003a 1140     		ands	r1, r2
 1718 003c 7A68     		ldr	r2, [r7, #4]
 1719 003e 0A43     		orrs	r2, r1
 1720 0040 1A60     		str	r2, [r3]
1533:Generated_Source\PSoC4/CyLFClk.c ****                                                                            CY_SYS_WDT_COUNTER1_INT 
1534:Generated_Source\PSoC4/CyLFClk.c ****                                                                            CY_SYS_WDT_COUNTER2_INT)
1535:Generated_Source\PSoC4/CyLFClk.c **** 
1536:Generated_Source\PSoC4/CyLFClk.c ****         /* Read the CY_SYS_WDT_CONTROL_REG to clear the interrupt request.
1537:Generated_Source\PSoC4/CyLFClk.c ****          * Cypress ID #207093, #206231
1538:Generated_Source\PSoC4/CyLFClk.c ****         */
1539:Generated_Source\PSoC4/CyLFClk.c ****         (void)CY_SYS_WDT_CONTROL_REG;
 1721              		.loc 1 1539 0
 1722 0042 094B     		ldr	r3, .L150+4
 1723 0044 1B68     		ldr	r3, [r3]
1540:Generated_Source\PSoC4/CyLFClk.c **** 
1541:Generated_Source\PSoC4/CyLFClk.c ****         if (1u == wdtLockState)
 1724              		.loc 1 1541 0
 1725 0046 FB68     		ldr	r3, [r7, #12]
 1726 0048 012B     		cmp	r3, #1
 1727 004a 01D1     		bne	.L149
1542:Generated_Source\PSoC4/CyLFClk.c ****         {
1543:Generated_Source\PSoC4/CyLFClk.c ****             CySysWdtLock();
 1728              		.loc 1 1543 0
 1729 004c FFF7FEFF 		bl	CySysWdtLock
 1730              	.L149:
1544:Generated_Source\PSoC4/CyLFClk.c ****         }
1545:Generated_Source\PSoC4/CyLFClk.c **** 
1546:Generated_Source\PSoC4/CyLFClk.c ****         CyExitCriticalSection(interruptState);
 1731              		.loc 1 1546 0
 1732 0050 0B23     		movs	r3, #11
 1733 0052 FB18     		adds	r3, r7, r3
 1734 0054 1B78     		ldrb	r3, [r3]
 1735 0056 1800     		movs	r0, r3
 1736 0058 FFF7FEFF 		bl	CyExitCriticalSection
1547:Generated_Source\PSoC4/CyLFClk.c ****     }
 1737              		.loc 1 1547 0
 1738 005c C046     		nop
 1739 005e BD46     		mov	sp, r7
 1740 0060 05B0     		add	sp, sp, #20
 1741              		@ sp needed
 1742 0062 90BD     		pop	{r4, r7, pc}
ARM GAS  C:\Users\ASUS\AppData\Local\Temp\ccYDUrWd.s 			page 59


 1743              	.L151:
 1744              		.align	2
 1745              	.L150:
 1746 0064 04040400 		.word	263172
 1747 0068 10020B40 		.word	1074463248
 1748 006c FBFBFBFF 		.word	-263173
 1749              		.cfi_endproc
 1750              	.LFE24:
 1751              		.size	CySysWdtClearInterrupt, .-CySysWdtClearInterrupt
 1752              		.section	.text.CySysWdtResetCounters,"ax",%progbits
 1753              		.align	2
 1754              		.global	CySysWdtResetCounters
 1755              		.code	16
 1756              		.thumb_func
 1757              		.type	CySysWdtResetCounters, %function
 1758              	CySysWdtResetCounters:
 1759              	.LFB25:
1548:Generated_Source\PSoC4/CyLFClk.c **** 
1549:Generated_Source\PSoC4/CyLFClk.c **** 
1550:Generated_Source\PSoC4/CyLFClk.c ****     /*******************************************************************************
1551:Generated_Source\PSoC4/CyLFClk.c ****     * Function Name: CySysWdtResetCounters
1552:Generated_Source\PSoC4/CyLFClk.c ****     ****************************************************************************//**
1553:Generated_Source\PSoC4/CyLFClk.c ****     * \brief
1554:Generated_Source\PSoC4/CyLFClk.c ****     * Resets all the WDT counters set in the mask.
1555:Generated_Source\PSoC4/CyLFClk.c ****     *
1556:Generated_Source\PSoC4/CyLFClk.c ****     * \param countersMask
1557:Generated_Source\PSoC4/CyLFClk.c ****     * CY_SYS_WDT_COUNTER0_RESET - Reset counter 0 <br>
1558:Generated_Source\PSoC4/CyLFClk.c ****     * CY_SYS_WDT_COUNTER1_RESET - Reset counter 1 <br>
1559:Generated_Source\PSoC4/CyLFClk.c ****     * CY_SYS_WDT_COUNTER2_RESET - Reset counter 2
1560:Generated_Source\PSoC4/CyLFClk.c ****     *
1561:Generated_Source\PSoC4/CyLFClk.c ****     * \details
1562:Generated_Source\PSoC4/CyLFClk.c ****     * This function does not reset counter values if the Watchdog is locked.
1563:Generated_Source\PSoC4/CyLFClk.c ****     * This function waits while corresponding counters will be reset. This may
1564:Generated_Source\PSoC4/CyLFClk.c ****     * take up to 3 LFCLK cycles.
1565:Generated_Source\PSoC4/CyLFClk.c ****     * The LFCLK source must be enabled. Otherwise, the function will never exit.
1566:Generated_Source\PSoC4/CyLFClk.c ****     *
1567:Generated_Source\PSoC4/CyLFClk.c ****     *******************************************************************************/
1568:Generated_Source\PSoC4/CyLFClk.c ****     void CySysWdtResetCounters(uint32 countersMask)
1569:Generated_Source\PSoC4/CyLFClk.c ****     {
 1760              		.loc 1 1569 0
 1761              		.cfi_startproc
 1762              		@ args = 0, pretend = 0, frame = 8
 1763              		@ frame_needed = 1, uses_anonymous_args = 0
 1764 0000 80B5     		push	{r7, lr}
 1765              		.cfi_def_cfa_offset 8
 1766              		.cfi_offset 7, -8
 1767              		.cfi_offset 14, -4
 1768 0002 82B0     		sub	sp, sp, #8
 1769              		.cfi_def_cfa_offset 16
 1770 0004 00AF     		add	r7, sp, #0
 1771              		.cfi_def_cfa_register 7
 1772 0006 7860     		str	r0, [r7, #4]
1570:Generated_Source\PSoC4/CyLFClk.c ****         /* Set new WDT reset value */
1571:Generated_Source\PSoC4/CyLFClk.c ****         CY_SYS_WDT_CONTROL_REG |= (countersMask & CY_SYS_WDT_COUNTERS_RESET);
 1773              		.loc 1 1571 0
 1774 0008 084B     		ldr	r3, .L154
 1775 000a 084A     		ldr	r2, .L154
ARM GAS  C:\Users\ASUS\AppData\Local\Temp\ccYDUrWd.s 			page 60


 1776 000c 1168     		ldr	r1, [r2]
 1777 000e 7A68     		ldr	r2, [r7, #4]
 1778 0010 0748     		ldr	r0, .L154+4
 1779 0012 0240     		ands	r2, r0
 1780 0014 0A43     		orrs	r2, r1
 1781 0016 1A60     		str	r2, [r3]
1572:Generated_Source\PSoC4/CyLFClk.c **** 
1573:Generated_Source\PSoC4/CyLFClk.c ****         while (0uL != (CY_SYS_WDT_CONTROL_REG & CY_SYS_WDT_COUNTERS_RESET))
 1782              		.loc 1 1573 0
 1783 0018 C046     		nop
 1784              	.L153:
 1785              		.loc 1 1573 0 is_stmt 0 discriminator 1
 1786 001a 044B     		ldr	r3, .L154
 1787 001c 1B68     		ldr	r3, [r3]
 1788 001e 044A     		ldr	r2, .L154+4
 1789 0020 1340     		ands	r3, r2
 1790 0022 FAD1     		bne	.L153
1574:Generated_Source\PSoC4/CyLFClk.c ****         {
1575:Generated_Source\PSoC4/CyLFClk.c ****             /* Wait for reset to come into effect */
1576:Generated_Source\PSoC4/CyLFClk.c ****         }
1577:Generated_Source\PSoC4/CyLFClk.c ****     }
 1791              		.loc 1 1577 0 is_stmt 1
 1792 0024 C046     		nop
 1793 0026 BD46     		mov	sp, r7
 1794 0028 02B0     		add	sp, sp, #8
 1795              		@ sp needed
 1796 002a 80BD     		pop	{r7, pc}
 1797              	.L155:
 1798              		.align	2
 1799              	.L154:
 1800 002c 10020B40 		.word	1074463248
 1801 0030 08080800 		.word	526344
 1802              		.cfi_endproc
 1803              	.LFE25:
 1804              		.size	CySysWdtResetCounters, .-CySysWdtResetCounters
 1805              		.section	.text.CySysWdtSetInterruptCallback,"ax",%progbits
 1806              		.align	2
 1807              		.global	CySysWdtSetInterruptCallback
 1808              		.code	16
 1809              		.thumb_func
 1810              		.type	CySysWdtSetInterruptCallback, %function
 1811              	CySysWdtSetInterruptCallback:
 1812              	.LFB26:
1578:Generated_Source\PSoC4/CyLFClk.c **** 
1579:Generated_Source\PSoC4/CyLFClk.c **** 
1580:Generated_Source\PSoC4/CyLFClk.c ****     /*******************************************************************************
1581:Generated_Source\PSoC4/CyLFClk.c ****     * Function Name: CySysWdtSetInterruptCallback
1582:Generated_Source\PSoC4/CyLFClk.c ****     ****************************************************************************//**
1583:Generated_Source\PSoC4/CyLFClk.c ****     * \brief
1584:Generated_Source\PSoC4/CyLFClk.c ****     * Sets the ISR callback function for the particular WDT counter.
1585:Generated_Source\PSoC4/CyLFClk.c ****     * These functions are called on the WDT interrupt.
1586:Generated_Source\PSoC4/CyLFClk.c ****     *
1587:Generated_Source\PSoC4/CyLFClk.c ****     * \param counterNum The number of the WDT counter.
1588:Generated_Source\PSoC4/CyLFClk.c ****     * \param function The pointer to the callback function.
1589:Generated_Source\PSoC4/CyLFClk.c ****     *
1590:Generated_Source\PSoC4/CyLFClk.c ****     * \return The pointer to the previous callback function.
1591:Generated_Source\PSoC4/CyLFClk.c ****     * \return NULL is returned if the specified address is not set.
ARM GAS  C:\Users\ASUS\AppData\Local\Temp\ccYDUrWd.s 			page 61


1592:Generated_Source\PSoC4/CyLFClk.c ****     *
1593:Generated_Source\PSoC4/CyLFClk.c ****     *******************************************************************************/
1594:Generated_Source\PSoC4/CyLFClk.c ****     cyWdtCallback CySysWdtSetInterruptCallback(uint32 counterNum, cyWdtCallback function)
1595:Generated_Source\PSoC4/CyLFClk.c ****     {
 1813              		.loc 1 1595 0
 1814              		.cfi_startproc
 1815              		@ args = 0, pretend = 0, frame = 16
 1816              		@ frame_needed = 1, uses_anonymous_args = 0
 1817 0000 80B5     		push	{r7, lr}
 1818              		.cfi_def_cfa_offset 8
 1819              		.cfi_offset 7, -8
 1820              		.cfi_offset 14, -4
 1821 0002 84B0     		sub	sp, sp, #16
 1822              		.cfi_def_cfa_offset 24
 1823 0004 00AF     		add	r7, sp, #0
 1824              		.cfi_def_cfa_register 7
 1825 0006 7860     		str	r0, [r7, #4]
 1826 0008 3960     		str	r1, [r7]
1596:Generated_Source\PSoC4/CyLFClk.c ****         cyWdtCallback prevCallback = (void *)0;
 1827              		.loc 1 1596 0
 1828 000a 0023     		movs	r3, #0
 1829 000c FB60     		str	r3, [r7, #12]
1597:Generated_Source\PSoC4/CyLFClk.c **** 
1598:Generated_Source\PSoC4/CyLFClk.c ****         if(counterNum < CY_WDT_NUM_OF_WDT)
 1830              		.loc 1 1598 0
 1831 000e 7B68     		ldr	r3, [r7, #4]
 1832 0010 022B     		cmp	r3, #2
 1833 0012 0AD8     		bhi	.L157
1599:Generated_Source\PSoC4/CyLFClk.c ****         {
1600:Generated_Source\PSoC4/CyLFClk.c ****             prevCallback = cySysWdtCallback[counterNum];
 1834              		.loc 1 1600 0
 1835 0014 094B     		ldr	r3, .L160
 1836 0016 7A68     		ldr	r2, [r7, #4]
 1837 0018 9200     		lsls	r2, r2, #2
 1838 001a D358     		ldr	r3, [r2, r3]
 1839 001c FB60     		str	r3, [r7, #12]
1601:Generated_Source\PSoC4/CyLFClk.c ****             cySysWdtCallback[counterNum] = function;
 1840              		.loc 1 1601 0
 1841 001e 074B     		ldr	r3, .L160
 1842 0020 7A68     		ldr	r2, [r7, #4]
 1843 0022 9200     		lsls	r2, r2, #2
 1844 0024 3968     		ldr	r1, [r7]
 1845 0026 D150     		str	r1, [r2, r3]
 1846 0028 02E0     		b	.L158
 1847              	.L157:
1602:Generated_Source\PSoC4/CyLFClk.c ****         }
1603:Generated_Source\PSoC4/CyLFClk.c ****         else
1604:Generated_Source\PSoC4/CyLFClk.c ****         {
1605:Generated_Source\PSoC4/CyLFClk.c ****             CYASSERT(0u != 0u);
 1848              		.loc 1 1605 0 discriminator 1
 1849 002a 0020     		movs	r0, #0
 1850 002c FFF7FEFF 		bl	CyHalt
 1851              	.L158:
1606:Generated_Source\PSoC4/CyLFClk.c ****         }
1607:Generated_Source\PSoC4/CyLFClk.c **** 
1608:Generated_Source\PSoC4/CyLFClk.c ****         return((cyWdtCallback)prevCallback);
 1852              		.loc 1 1608 0
ARM GAS  C:\Users\ASUS\AppData\Local\Temp\ccYDUrWd.s 			page 62


 1853 0030 FB68     		ldr	r3, [r7, #12]
1609:Generated_Source\PSoC4/CyLFClk.c ****     }
 1854              		.loc 1 1609 0
 1855 0032 1800     		movs	r0, r3
 1856 0034 BD46     		mov	sp, r7
 1857 0036 04B0     		add	sp, sp, #16
 1858              		@ sp needed
 1859 0038 80BD     		pop	{r7, pc}
 1860              	.L161:
 1861 003a C046     		.align	2
 1862              	.L160:
 1863 003c 0C000000 		.word	cySysWdtCallback
 1864              		.cfi_endproc
 1865              	.LFE26:
 1866              		.size	CySysWdtSetInterruptCallback, .-CySysWdtSetInterruptCallback
 1867              		.section	.text.CySysWdtGetInterruptCallback,"ax",%progbits
 1868              		.align	2
 1869              		.global	CySysWdtGetInterruptCallback
 1870              		.code	16
 1871              		.thumb_func
 1872              		.type	CySysWdtGetInterruptCallback, %function
 1873              	CySysWdtGetInterruptCallback:
 1874              	.LFB27:
1610:Generated_Source\PSoC4/CyLFClk.c **** 
1611:Generated_Source\PSoC4/CyLFClk.c **** 
1612:Generated_Source\PSoC4/CyLFClk.c ****     /*******************************************************************************
1613:Generated_Source\PSoC4/CyLFClk.c ****     * Function Name: CySysWdtGetInterruptCallback
1614:Generated_Source\PSoC4/CyLFClk.c ****     ****************************************************************************//**
1615:Generated_Source\PSoC4/CyLFClk.c ****     * \brief
1616:Generated_Source\PSoC4/CyLFClk.c ****     * Gets the ISR callback function for the particular WDT counter.
1617:Generated_Source\PSoC4/CyLFClk.c ****     *
1618:Generated_Source\PSoC4/CyLFClk.c ****     * \param counterNum The number of the WDT counter.
1619:Generated_Source\PSoC4/CyLFClk.c ****     *
1620:Generated_Source\PSoC4/CyLFClk.c ****     * \return The pointer to the callback function registered for a particular WDT by
1621:Generated_Source\PSoC4/CyLFClk.c ****     * a particular address that are passed through arguments.
1622:Generated_Source\PSoC4/CyLFClk.c ****     *
1623:Generated_Source\PSoC4/CyLFClk.c ****     *******************************************************************************/
1624:Generated_Source\PSoC4/CyLFClk.c ****     cyWdtCallback CySysWdtGetInterruptCallback(uint32 counterNum)
1625:Generated_Source\PSoC4/CyLFClk.c ****     {
 1875              		.loc 1 1625 0
 1876              		.cfi_startproc
 1877              		@ args = 0, pretend = 0, frame = 16
 1878              		@ frame_needed = 1, uses_anonymous_args = 0
 1879 0000 80B5     		push	{r7, lr}
 1880              		.cfi_def_cfa_offset 8
 1881              		.cfi_offset 7, -8
 1882              		.cfi_offset 14, -4
 1883 0002 84B0     		sub	sp, sp, #16
 1884              		.cfi_def_cfa_offset 24
 1885 0004 00AF     		add	r7, sp, #0
 1886              		.cfi_def_cfa_register 7
 1887 0006 7860     		str	r0, [r7, #4]
1626:Generated_Source\PSoC4/CyLFClk.c ****         cyWdtCallback retCallback = (void *)0;
 1888              		.loc 1 1626 0
 1889 0008 0023     		movs	r3, #0
 1890 000a FB60     		str	r3, [r7, #12]
1627:Generated_Source\PSoC4/CyLFClk.c **** 
ARM GAS  C:\Users\ASUS\AppData\Local\Temp\ccYDUrWd.s 			page 63


1628:Generated_Source\PSoC4/CyLFClk.c ****         if(counterNum < CY_WDT_NUM_OF_WDT)
 1891              		.loc 1 1628 0
 1892 000c 7B68     		ldr	r3, [r7, #4]
 1893 000e 022B     		cmp	r3, #2
 1894 0010 05D8     		bhi	.L163
1629:Generated_Source\PSoC4/CyLFClk.c ****         {
1630:Generated_Source\PSoC4/CyLFClk.c ****             retCallback = (cyWdtCallback)cySysWdtCallback[counterNum];
 1895              		.loc 1 1630 0
 1896 0012 074B     		ldr	r3, .L166
 1897 0014 7A68     		ldr	r2, [r7, #4]
 1898 0016 9200     		lsls	r2, r2, #2
 1899 0018 D358     		ldr	r3, [r2, r3]
 1900 001a FB60     		str	r3, [r7, #12]
 1901 001c 02E0     		b	.L164
 1902              	.L163:
1631:Generated_Source\PSoC4/CyLFClk.c ****         }
1632:Generated_Source\PSoC4/CyLFClk.c ****         else
1633:Generated_Source\PSoC4/CyLFClk.c ****         {
1634:Generated_Source\PSoC4/CyLFClk.c ****             CYASSERT(0u != 0u);
 1903              		.loc 1 1634 0 discriminator 1
 1904 001e 0020     		movs	r0, #0
 1905 0020 FFF7FEFF 		bl	CyHalt
 1906              	.L164:
1635:Generated_Source\PSoC4/CyLFClk.c ****         }
1636:Generated_Source\PSoC4/CyLFClk.c **** 
1637:Generated_Source\PSoC4/CyLFClk.c ****         return(retCallback);
 1907              		.loc 1 1637 0
 1908 0024 FB68     		ldr	r3, [r7, #12]
1638:Generated_Source\PSoC4/CyLFClk.c ****     }
 1909              		.loc 1 1638 0
 1910 0026 1800     		movs	r0, r3
 1911 0028 BD46     		mov	sp, r7
 1912 002a 04B0     		add	sp, sp, #16
 1913              		@ sp needed
 1914 002c 80BD     		pop	{r7, pc}
 1915              	.L167:
 1916 002e C046     		.align	2
 1917              	.L166:
 1918 0030 0C000000 		.word	cySysWdtCallback
 1919              		.cfi_endproc
 1920              	.LFE27:
 1921              		.size	CySysWdtGetInterruptCallback, .-CySysWdtGetInterruptCallback
 1922              		.section	.text.CySysWdtEnableCounterIsr,"ax",%progbits
 1923              		.align	2
 1924              		.global	CySysWdtEnableCounterIsr
 1925              		.code	16
 1926              		.thumb_func
 1927              		.type	CySysWdtEnableCounterIsr, %function
 1928              	CySysWdtEnableCounterIsr:
 1929              	.LFB28:
1639:Generated_Source\PSoC4/CyLFClk.c **** 
1640:Generated_Source\PSoC4/CyLFClk.c **** 
1641:Generated_Source\PSoC4/CyLFClk.c ****     /*******************************************************************************
1642:Generated_Source\PSoC4/CyLFClk.c ****     * Function Name: CySysWdtEnableCounterIsr
1643:Generated_Source\PSoC4/CyLFClk.c ****     ****************************************************************************//**
1644:Generated_Source\PSoC4/CyLFClk.c ****     * \brief
1645:Generated_Source\PSoC4/CyLFClk.c ****     * Enables the ISR callback servicing for the particular WDT counter
ARM GAS  C:\Users\ASUS\AppData\Local\Temp\ccYDUrWd.s 			page 64


1646:Generated_Source\PSoC4/CyLFClk.c ****     *
1647:Generated_Source\PSoC4/CyLFClk.c ****     * \param counterNum Valid range [0-2]. The number of the WDT counter.
1648:Generated_Source\PSoC4/CyLFClk.c ****     *
1649:Generated_Source\PSoC4/CyLFClk.c ****     * Value corresponds to appropriate WDT counter. For example value 1 
1650:Generated_Source\PSoC4/CyLFClk.c ****     * corresponds to second WDT counter.
1651:Generated_Source\PSoC4/CyLFClk.c ****     *
1652:Generated_Source\PSoC4/CyLFClk.c ****     *******************************************************************************/
1653:Generated_Source\PSoC4/CyLFClk.c ****     void CySysWdtEnableCounterIsr(uint32 counterNum)
1654:Generated_Source\PSoC4/CyLFClk.c ****     {
 1930              		.loc 1 1654 0
 1931              		.cfi_startproc
 1932              		@ args = 0, pretend = 0, frame = 8
 1933              		@ frame_needed = 1, uses_anonymous_args = 0
 1934 0000 80B5     		push	{r7, lr}
 1935              		.cfi_def_cfa_offset 8
 1936              		.cfi_offset 7, -8
 1937              		.cfi_offset 14, -4
 1938 0002 82B0     		sub	sp, sp, #8
 1939              		.cfi_def_cfa_offset 16
 1940 0004 00AF     		add	r7, sp, #0
 1941              		.cfi_def_cfa_register 7
 1942 0006 7860     		str	r0, [r7, #4]
1655:Generated_Source\PSoC4/CyLFClk.c ****         if(counterNum <= CY_SYS_WDT_COUNTER2)
 1943              		.loc 1 1655 0
 1944 0008 7B68     		ldr	r3, [r7, #4]
 1945 000a 022B     		cmp	r3, #2
 1946 000c 13D8     		bhi	.L169
1656:Generated_Source\PSoC4/CyLFClk.c ****         {
1657:Generated_Source\PSoC4/CyLFClk.c ****             disableServicedIsr &= ~counterIntMaskTbl[counterNum];
 1947              		.loc 1 1657 0
 1948 000e 0D4B     		ldr	r3, .L172
 1949 0010 7A68     		ldr	r2, [r7, #4]
 1950 0012 9200     		lsls	r2, r2, #2
 1951 0014 D358     		ldr	r3, [r2, r3]
 1952 0016 DA43     		mvns	r2, r3
 1953 0018 0B4B     		ldr	r3, .L172+4
 1954 001a 1B68     		ldr	r3, [r3]
 1955 001c 1A40     		ands	r2, r3
 1956 001e 0A4B     		ldr	r3, .L172+4
 1957 0020 1A60     		str	r2, [r3]
1658:Generated_Source\PSoC4/CyLFClk.c ****             wdtIsrMask |= counterIntMaskTbl[counterNum];
 1958              		.loc 1 1658 0
 1959 0022 084B     		ldr	r3, .L172
 1960 0024 7A68     		ldr	r2, [r7, #4]
 1961 0026 9200     		lsls	r2, r2, #2
 1962 0028 D258     		ldr	r2, [r2, r3]
 1963 002a 084B     		ldr	r3, .L172+8
 1964 002c 1B68     		ldr	r3, [r3]
 1965 002e 1A43     		orrs	r2, r3
 1966 0030 064B     		ldr	r3, .L172+8
 1967 0032 1A60     		str	r2, [r3]
1659:Generated_Source\PSoC4/CyLFClk.c ****         }
1660:Generated_Source\PSoC4/CyLFClk.c ****         else
1661:Generated_Source\PSoC4/CyLFClk.c ****         {
1662:Generated_Source\PSoC4/CyLFClk.c ****             CYASSERT(0u != 0u);
1663:Generated_Source\PSoC4/CyLFClk.c ****         }
1664:Generated_Source\PSoC4/CyLFClk.c ****     }
ARM GAS  C:\Users\ASUS\AppData\Local\Temp\ccYDUrWd.s 			page 65


 1968              		.loc 1 1664 0
 1969 0034 02E0     		b	.L171
 1970              	.L169:
1662:Generated_Source\PSoC4/CyLFClk.c ****         }
 1971              		.loc 1 1662 0 discriminator 1
 1972 0036 0020     		movs	r0, #0
 1973 0038 FFF7FEFF 		bl	CyHalt
 1974              	.L171:
 1975              		.loc 1 1664 0
 1976 003c C046     		nop
 1977 003e BD46     		mov	sp, r7
 1978 0040 02B0     		add	sp, sp, #8
 1979              		@ sp needed
 1980 0042 80BD     		pop	{r7, pc}
 1981              	.L173:
 1982              		.align	2
 1983              	.L172:
 1984 0044 00000000 		.word	counterIntMaskTbl
 1985 0048 08000000 		.word	disableServicedIsr
 1986 004c 00000000 		.word	wdtIsrMask
 1987              		.cfi_endproc
 1988              	.LFE28:
 1989              		.size	CySysWdtEnableCounterIsr, .-CySysWdtEnableCounterIsr
 1990              		.section	.text.CySysWdtDisableCounterIsr,"ax",%progbits
 1991              		.align	2
 1992              		.global	CySysWdtDisableCounterIsr
 1993              		.code	16
 1994              		.thumb_func
 1995              		.type	CySysWdtDisableCounterIsr, %function
 1996              	CySysWdtDisableCounterIsr:
 1997              	.LFB29:
1665:Generated_Source\PSoC4/CyLFClk.c **** 
1666:Generated_Source\PSoC4/CyLFClk.c **** 
1667:Generated_Source\PSoC4/CyLFClk.c ****     /*******************************************************************************
1668:Generated_Source\PSoC4/CyLFClk.c ****     * Function Name: CySysWdtDisableCounterIsr
1669:Generated_Source\PSoC4/CyLFClk.c ****     ****************************************************************************//**
1670:Generated_Source\PSoC4/CyLFClk.c ****     * \brief
1671:Generated_Source\PSoC4/CyLFClk.c ****     * Disables the ISR callback servicing for the particular WDT counter
1672:Generated_Source\PSoC4/CyLFClk.c ****     *
1673:Generated_Source\PSoC4/CyLFClk.c ****     * \param counterNum Valid range [0-2]. The number of the WDT counter.
1674:Generated_Source\PSoC4/CyLFClk.c ****     *
1675:Generated_Source\PSoC4/CyLFClk.c ****     *******************************************************************************/
1676:Generated_Source\PSoC4/CyLFClk.c ****     void CySysWdtDisableCounterIsr(uint32 counterNum)
1677:Generated_Source\PSoC4/CyLFClk.c ****     {
 1998              		.loc 1 1677 0
 1999              		.cfi_startproc
 2000              		@ args = 0, pretend = 0, frame = 8
 2001              		@ frame_needed = 1, uses_anonymous_args = 0
 2002 0000 80B5     		push	{r7, lr}
 2003              		.cfi_def_cfa_offset 8
 2004              		.cfi_offset 7, -8
 2005              		.cfi_offset 14, -4
 2006 0002 82B0     		sub	sp, sp, #8
 2007              		.cfi_def_cfa_offset 16
 2008 0004 00AF     		add	r7, sp, #0
 2009              		.cfi_def_cfa_register 7
 2010 0006 7860     		str	r0, [r7, #4]
ARM GAS  C:\Users\ASUS\AppData\Local\Temp\ccYDUrWd.s 			page 66


1678:Generated_Source\PSoC4/CyLFClk.c ****         if(counterNum <= CY_SYS_WDT_COUNTER2)
 2011              		.loc 1 1678 0
 2012 0008 7B68     		ldr	r3, [r7, #4]
 2013 000a 022B     		cmp	r3, #2
 2014 000c 0AD8     		bhi	.L175
1679:Generated_Source\PSoC4/CyLFClk.c ****         {
1680:Generated_Source\PSoC4/CyLFClk.c ****             wdtIsrMask &= ~counterIntMaskTbl[counterNum];
 2015              		.loc 1 1680 0
 2016 000e 094B     		ldr	r3, .L178
 2017 0010 7A68     		ldr	r2, [r7, #4]
 2018 0012 9200     		lsls	r2, r2, #2
 2019 0014 D358     		ldr	r3, [r2, r3]
 2020 0016 DA43     		mvns	r2, r3
 2021 0018 074B     		ldr	r3, .L178+4
 2022 001a 1B68     		ldr	r3, [r3]
 2023 001c 1A40     		ands	r2, r3
 2024 001e 064B     		ldr	r3, .L178+4
 2025 0020 1A60     		str	r2, [r3]
1681:Generated_Source\PSoC4/CyLFClk.c ****         }
1682:Generated_Source\PSoC4/CyLFClk.c ****         else
1683:Generated_Source\PSoC4/CyLFClk.c ****         {
1684:Generated_Source\PSoC4/CyLFClk.c ****             CYASSERT(0u != 0u);
1685:Generated_Source\PSoC4/CyLFClk.c ****         }
1686:Generated_Source\PSoC4/CyLFClk.c ****     }
 2026              		.loc 1 1686 0
 2027 0022 02E0     		b	.L177
 2028              	.L175:
1684:Generated_Source\PSoC4/CyLFClk.c ****         }
 2029              		.loc 1 1684 0 discriminator 1
 2030 0024 0020     		movs	r0, #0
 2031 0026 FFF7FEFF 		bl	CyHalt
 2032              	.L177:
 2033              		.loc 1 1686 0
 2034 002a C046     		nop
 2035 002c BD46     		mov	sp, r7
 2036 002e 02B0     		add	sp, sp, #8
 2037              		@ sp needed
 2038 0030 80BD     		pop	{r7, pc}
 2039              	.L179:
 2040 0032 C046     		.align	2
 2041              	.L178:
 2042 0034 00000000 		.word	counterIntMaskTbl
 2043 0038 00000000 		.word	wdtIsrMask
 2044              		.cfi_endproc
 2045              	.LFE29:
 2046              		.size	CySysWdtDisableCounterIsr, .-CySysWdtDisableCounterIsr
 2047              		.section	.text.CySysWdtIsr,"ax",%progbits
 2048              		.align	2
 2049              		.global	CySysWdtIsr
 2050              		.code	16
 2051              		.thumb_func
 2052              		.type	CySysWdtIsr, %function
 2053              	CySysWdtIsr:
 2054              	.LFB30:
1687:Generated_Source\PSoC4/CyLFClk.c **** 
1688:Generated_Source\PSoC4/CyLFClk.c **** 
1689:Generated_Source\PSoC4/CyLFClk.c ****     /*******************************************************************************
ARM GAS  C:\Users\ASUS\AppData\Local\Temp\ccYDUrWd.s 			page 67


1690:Generated_Source\PSoC4/CyLFClk.c ****     * Function Name: CySysWdtIsr
1691:Generated_Source\PSoC4/CyLFClk.c ****     ****************************************************************************//**
1692:Generated_Source\PSoC4/CyLFClk.c ****     * \brief
1693:Generated_Source\PSoC4/CyLFClk.c ****     * This is the handler of the WDT interrupt in CPU NVIC.
1694:Generated_Source\PSoC4/CyLFClk.c ****     *
1695:Generated_Source\PSoC4/CyLFClk.c ****     * The handler checks which WDT triggered in the interrupt and calls the 
1696:Generated_Source\PSoC4/CyLFClk.c ****     * respective callback functions configured by the user by using 
1697:Generated_Source\PSoC4/CyLFClk.c ****     * CySysWdtSetIsrCallback() API.
1698:Generated_Source\PSoC4/CyLFClk.c ****     *
1699:Generated_Source\PSoC4/CyLFClk.c ****     * The order of the callback execution is incremental. Callback-0 is
1700:Generated_Source\PSoC4/CyLFClk.c ****     * run as the first one and callback-2 is called as the last one.
1701:Generated_Source\PSoC4/CyLFClk.c ****     *
1702:Generated_Source\PSoC4/CyLFClk.c ****     * \details
1703:Generated_Source\PSoC4/CyLFClk.c ****     * This function clears the WDT interrupt every time when it is called.
1704:Generated_Source\PSoC4/CyLFClk.c ****     * Reset after the 3rd interrupt does not happen if this function is registered
1705:Generated_Source\PSoC4/CyLFClk.c ****     * as the interrupt handler even if the "Watchdog with Interrupt" mode is
1706:Generated_Source\PSoC4/CyLFClk.c ****     * selected on the "Low Frequency Clocks" tab.
1707:Generated_Source\PSoC4/CyLFClk.c ****     *
1708:Generated_Source\PSoC4/CyLFClk.c ****     *******************************************************************************/
1709:Generated_Source\PSoC4/CyLFClk.c ****     void CySysWdtIsr(void)
1710:Generated_Source\PSoC4/CyLFClk.c ****     {
 2055              		.loc 1 1710 0
 2056              		.cfi_startproc
 2057              		@ args = 0, pretend = 0, frame = 0
 2058              		@ frame_needed = 1, uses_anonymous_args = 0
 2059 0000 80B5     		push	{r7, lr}
 2060              		.cfi_def_cfa_offset 8
 2061              		.cfi_offset 7, -8
 2062              		.cfi_offset 14, -4
 2063 0002 00AF     		add	r7, sp, #0
 2064              		.cfi_def_cfa_register 7
1711:Generated_Source\PSoC4/CyLFClk.c ****         if(0u != (CY_SYS_WDT_COUNTER0_INT & CY_SYS_WDT_CONTROL_REG))
 2065              		.loc 1 1711 0
 2066 0004 344B     		ldr	r3, .L188
 2067 0006 1B68     		ldr	r3, [r3]
 2068 0008 0422     		movs	r2, #4
 2069 000a 1340     		ands	r3, r2
 2070 000c 1FD0     		beq	.L181
1712:Generated_Source\PSoC4/CyLFClk.c ****         {
1713:Generated_Source\PSoC4/CyLFClk.c ****             if(0u != (CY_SYS_WDT_COUNTER0_INT & wdtIsrMask))
 2071              		.loc 1 1713 0
 2072 000e 334B     		ldr	r3, .L188+4
 2073 0010 1B68     		ldr	r3, [r3]
 2074 0012 0422     		movs	r2, #4
 2075 0014 1340     		ands	r3, r2
 2076 0016 17D0     		beq	.L182
1714:Generated_Source\PSoC4/CyLFClk.c ****             {
1715:Generated_Source\PSoC4/CyLFClk.c ****                 wdtIsrMask &= ~(disableServicedIsr & CY_SYS_WDT_COUNTER0_INT);
 2077              		.loc 1 1715 0
 2078 0018 314B     		ldr	r3, .L188+8
 2079 001a 1B68     		ldr	r3, [r3]
 2080 001c 0422     		movs	r2, #4
 2081 001e 1340     		ands	r3, r2
 2082 0020 DA43     		mvns	r2, r3
 2083 0022 2E4B     		ldr	r3, .L188+4
 2084 0024 1B68     		ldr	r3, [r3]
 2085 0026 1A40     		ands	r2, r3
ARM GAS  C:\Users\ASUS\AppData\Local\Temp\ccYDUrWd.s 			page 68


 2086 0028 2C4B     		ldr	r3, .L188+4
 2087 002a 1A60     		str	r2, [r3]
1716:Generated_Source\PSoC4/CyLFClk.c ****                 disableServicedIsr  &= ~CY_SYS_WDT_COUNTER0_INT;
 2088              		.loc 1 1716 0
 2089 002c 2C4B     		ldr	r3, .L188+8
 2090 002e 1B68     		ldr	r3, [r3]
 2091 0030 0422     		movs	r2, #4
 2092 0032 9343     		bics	r3, r2
 2093 0034 1A00     		movs	r2, r3
 2094 0036 2A4B     		ldr	r3, .L188+8
 2095 0038 1A60     		str	r2, [r3]
1717:Generated_Source\PSoC4/CyLFClk.c ****                 if(cySysWdtCallback[CY_SYS_WDT_COUNTER0] != (void *) 0)
 2096              		.loc 1 1717 0
 2097 003a 2A4B     		ldr	r3, .L188+12
 2098 003c 1B68     		ldr	r3, [r3]
 2099 003e 002B     		cmp	r3, #0
 2100 0040 02D0     		beq	.L182
1718:Generated_Source\PSoC4/CyLFClk.c ****                 {
1719:Generated_Source\PSoC4/CyLFClk.c ****                     (void)(cySysWdtCallback[CY_SYS_WDT_COUNTER0])();
 2101              		.loc 1 1719 0
 2102 0042 284B     		ldr	r3, .L188+12
 2103 0044 1B68     		ldr	r3, [r3]
 2104 0046 9847     		blx	r3
 2105              	.L182:
1720:Generated_Source\PSoC4/CyLFClk.c ****                 }
1721:Generated_Source\PSoC4/CyLFClk.c ****             }
1722:Generated_Source\PSoC4/CyLFClk.c ****             CySysWdtClearInterrupt(CY_SYS_WDT_COUNTER0_INT);
 2106              		.loc 1 1722 0
 2107 0048 0420     		movs	r0, #4
 2108 004a FFF7FEFF 		bl	CySysWdtClearInterrupt
 2109              	.L181:
1723:Generated_Source\PSoC4/CyLFClk.c ****         }
1724:Generated_Source\PSoC4/CyLFClk.c **** 
1725:Generated_Source\PSoC4/CyLFClk.c ****         if(0u != (CY_SYS_WDT_COUNTER1_INT & CY_SYS_WDT_CONTROL_REG))
 2110              		.loc 1 1725 0
 2111 004e 224B     		ldr	r3, .L188
 2112 0050 1A68     		ldr	r2, [r3]
 2113 0052 8023     		movs	r3, #128
 2114 0054 DB00     		lsls	r3, r3, #3
 2115 0056 1340     		ands	r3, r2
 2116 0058 22D0     		beq	.L183
1726:Generated_Source\PSoC4/CyLFClk.c ****         {
1727:Generated_Source\PSoC4/CyLFClk.c ****             if(0u != (CY_SYS_WDT_COUNTER1_INT & wdtIsrMask))
 2117              		.loc 1 1727 0
 2118 005a 204B     		ldr	r3, .L188+4
 2119 005c 1A68     		ldr	r2, [r3]
 2120 005e 8023     		movs	r3, #128
 2121 0060 DB00     		lsls	r3, r3, #3
 2122 0062 1340     		ands	r3, r2
 2123 0064 17D0     		beq	.L184
1728:Generated_Source\PSoC4/CyLFClk.c ****             {
1729:Generated_Source\PSoC4/CyLFClk.c ****                 wdtIsrMask &= ~(disableServicedIsr & CY_SYS_WDT_COUNTER1_INT);
 2124              		.loc 1 1729 0
 2125 0066 1E4B     		ldr	r3, .L188+8
 2126 0068 1A68     		ldr	r2, [r3]
 2127 006a 8023     		movs	r3, #128
 2128 006c DB00     		lsls	r3, r3, #3
ARM GAS  C:\Users\ASUS\AppData\Local\Temp\ccYDUrWd.s 			page 69


 2129 006e 1340     		ands	r3, r2
 2130 0070 DA43     		mvns	r2, r3
 2131 0072 1A4B     		ldr	r3, .L188+4
 2132 0074 1B68     		ldr	r3, [r3]
 2133 0076 1A40     		ands	r2, r3
 2134 0078 184B     		ldr	r3, .L188+4
 2135 007a 1A60     		str	r2, [r3]
1730:Generated_Source\PSoC4/CyLFClk.c ****                 disableServicedIsr  &= ~CY_SYS_WDT_COUNTER1_INT;
 2136              		.loc 1 1730 0
 2137 007c 184B     		ldr	r3, .L188+8
 2138 007e 1B68     		ldr	r3, [r3]
 2139 0080 194A     		ldr	r2, .L188+16
 2140 0082 1A40     		ands	r2, r3
 2141 0084 164B     		ldr	r3, .L188+8
 2142 0086 1A60     		str	r2, [r3]
1731:Generated_Source\PSoC4/CyLFClk.c ****                 if(cySysWdtCallback[CY_SYS_WDT_COUNTER1] != (void *) 0)
 2143              		.loc 1 1731 0
 2144 0088 164B     		ldr	r3, .L188+12
 2145 008a 5B68     		ldr	r3, [r3, #4]
 2146 008c 002B     		cmp	r3, #0
 2147 008e 02D0     		beq	.L184
1732:Generated_Source\PSoC4/CyLFClk.c ****                 {
1733:Generated_Source\PSoC4/CyLFClk.c ****                     (void)(cySysWdtCallback[CY_SYS_WDT_COUNTER1])();
 2148              		.loc 1 1733 0
 2149 0090 144B     		ldr	r3, .L188+12
 2150 0092 5B68     		ldr	r3, [r3, #4]
 2151 0094 9847     		blx	r3
 2152              	.L184:
1734:Generated_Source\PSoC4/CyLFClk.c ****                 }
1735:Generated_Source\PSoC4/CyLFClk.c ****             }
1736:Generated_Source\PSoC4/CyLFClk.c ****             CySysWdtClearInterrupt(CY_SYS_WDT_COUNTER1_INT);
 2153              		.loc 1 1736 0
 2154 0096 8023     		movs	r3, #128
 2155 0098 DB00     		lsls	r3, r3, #3
 2156 009a 1800     		movs	r0, r3
 2157 009c FFF7FEFF 		bl	CySysWdtClearInterrupt
 2158              	.L183:
1737:Generated_Source\PSoC4/CyLFClk.c ****         }
1738:Generated_Source\PSoC4/CyLFClk.c **** 
1739:Generated_Source\PSoC4/CyLFClk.c ****         if(0u != (CY_SYS_WDT_COUNTER2_INT & CY_SYS_WDT_CONTROL_REG))
 2159              		.loc 1 1739 0
 2160 00a0 0D4B     		ldr	r3, .L188
 2161 00a2 1A68     		ldr	r2, [r3]
 2162 00a4 8023     		movs	r3, #128
 2163 00a6 DB02     		lsls	r3, r3, #11
 2164 00a8 1340     		ands	r3, r2
 2165 00aa 11D0     		beq	.L187
1740:Generated_Source\PSoC4/CyLFClk.c ****         {
1741:Generated_Source\PSoC4/CyLFClk.c ****             if(0u != (CY_SYS_WDT_COUNTER2_INT & wdtIsrMask))
 2166              		.loc 1 1741 0
 2167 00ac 0B4B     		ldr	r3, .L188+4
 2168 00ae 1A68     		ldr	r2, [r3]
 2169 00b0 8023     		movs	r3, #128
 2170 00b2 DB02     		lsls	r3, r3, #11
 2171 00b4 1340     		ands	r3, r2
 2172 00b6 06D0     		beq	.L186
1742:Generated_Source\PSoC4/CyLFClk.c ****             {
ARM GAS  C:\Users\ASUS\AppData\Local\Temp\ccYDUrWd.s 			page 70


1743:Generated_Source\PSoC4/CyLFClk.c ****                 if(cySysWdtCallback[CY_SYS_WDT_COUNTER2] != (void *) 0)
 2173              		.loc 1 1743 0
 2174 00b8 0A4B     		ldr	r3, .L188+12
 2175 00ba 9B68     		ldr	r3, [r3, #8]
 2176 00bc 002B     		cmp	r3, #0
 2177 00be 02D0     		beq	.L186
1744:Generated_Source\PSoC4/CyLFClk.c ****                 {
1745:Generated_Source\PSoC4/CyLFClk.c ****                     (void)(cySysWdtCallback[CY_SYS_WDT_COUNTER2])();
 2178              		.loc 1 1745 0
 2179 00c0 084B     		ldr	r3, .L188+12
 2180 00c2 9B68     		ldr	r3, [r3, #8]
 2181 00c4 9847     		blx	r3
 2182              	.L186:
1746:Generated_Source\PSoC4/CyLFClk.c ****                 }
1747:Generated_Source\PSoC4/CyLFClk.c ****             }
1748:Generated_Source\PSoC4/CyLFClk.c ****             CySysWdtClearInterrupt(CY_SYS_WDT_COUNTER2_INT);
 2183              		.loc 1 1748 0
 2184 00c6 8023     		movs	r3, #128
 2185 00c8 DB02     		lsls	r3, r3, #11
 2186 00ca 1800     		movs	r0, r3
 2187 00cc FFF7FEFF 		bl	CySysWdtClearInterrupt
 2188              	.L187:
1749:Generated_Source\PSoC4/CyLFClk.c ****         }
1750:Generated_Source\PSoC4/CyLFClk.c ****     }
 2189              		.loc 1 1750 0
 2190 00d0 C046     		nop
 2191 00d2 BD46     		mov	sp, r7
 2192              		@ sp needed
 2193 00d4 80BD     		pop	{r7, pc}
 2194              	.L189:
 2195 00d6 C046     		.align	2
 2196              	.L188:
 2197 00d8 10020B40 		.word	1074463248
 2198 00dc 00000000 		.word	wdtIsrMask
 2199 00e0 08000000 		.word	disableServicedIsr
 2200 00e4 0C000000 		.word	cySysWdtCallback
 2201 00e8 FFFBFFFF 		.word	-1025
 2202              		.cfi_endproc
 2203              	.LFE30:
 2204              		.size	CySysWdtIsr, .-CySysWdtIsr
 2205              		.section	.text.CySysWatchdogFeed,"ax",%progbits
 2206              		.align	2
 2207              		.global	CySysWatchdogFeed
 2208              		.code	16
 2209              		.thumb_func
 2210              		.type	CySysWatchdogFeed, %function
 2211              	CySysWatchdogFeed:
 2212              	.LFB31:
1751:Generated_Source\PSoC4/CyLFClk.c **** 
1752:Generated_Source\PSoC4/CyLFClk.c **** 
1753:Generated_Source\PSoC4/CyLFClk.c ****     /*******************************************************************************
1754:Generated_Source\PSoC4/CyLFClk.c ****     * Function Name: CySysWatchdogFeed
1755:Generated_Source\PSoC4/CyLFClk.c ****     ****************************************************************************//**
1756:Generated_Source\PSoC4/CyLFClk.c ****     * \brief
1757:Generated_Source\PSoC4/CyLFClk.c ****     * Feeds the corresponded Watchdog Counter before it causes the device reset.
1758:Generated_Source\PSoC4/CyLFClk.c ****     *
1759:Generated_Source\PSoC4/CyLFClk.c ****     * Supported only for first WDT0 and second WDT1 counters in the "Watchdog" or 
ARM GAS  C:\Users\ASUS\AppData\Local\Temp\ccYDUrWd.s 			page 71


1760:Generated_Source\PSoC4/CyLFClk.c ****     * "Watchdog w/ Interrupts" modes.
1761:Generated_Source\PSoC4/CyLFClk.c ****     *
1762:Generated_Source\PSoC4/CyLFClk.c ****     * \param counterNum
1763:Generated_Source\PSoC4/CyLFClk.c ****     * CY_SYS_WDT_COUNTER0 - Feeds the Counter 0 <br>
1764:Generated_Source\PSoC4/CyLFClk.c ****     * CY_SYS_WDT_COUNTER1 - Feeds the Counter 1
1765:Generated_Source\PSoC4/CyLFClk.c ****     *
1766:Generated_Source\PSoC4/CyLFClk.c ****     * Value of counterNum corresponds to appropriate counter. For example value 1 
1767:Generated_Source\PSoC4/CyLFClk.c ****     * corresponds to second WDT1 Counter.
1768:Generated_Source\PSoC4/CyLFClk.c ****     *
1769:Generated_Source\PSoC4/CyLFClk.c ****     * \details
1770:Generated_Source\PSoC4/CyLFClk.c ****     * Clears the WDT counter in the "Watchdog" mode or clears the WDT interrupt in
1771:Generated_Source\PSoC4/CyLFClk.c ****     * "Watchdog w/ Interrupts" mode. Does nothing in other modes.
1772:Generated_Source\PSoC4/CyLFClk.c ****     *
1773:Generated_Source\PSoC4/CyLFClk.c ****     *******************************************************************************/
1774:Generated_Source\PSoC4/CyLFClk.c ****     void CySysWatchdogFeed(uint32 counterNum)
1775:Generated_Source\PSoC4/CyLFClk.c ****     {
 2213              		.loc 1 1775 0
 2214              		.cfi_startproc
 2215              		@ args = 0, pretend = 0, frame = 8
 2216              		@ frame_needed = 1, uses_anonymous_args = 0
 2217 0000 80B5     		push	{r7, lr}
 2218              		.cfi_def_cfa_offset 8
 2219              		.cfi_offset 7, -8
 2220              		.cfi_offset 14, -4
 2221 0002 82B0     		sub	sp, sp, #8
 2222              		.cfi_def_cfa_offset 16
 2223 0004 00AF     		add	r7, sp, #0
 2224              		.cfi_def_cfa_register 7
 2225 0006 7860     		str	r0, [r7, #4]
1776:Generated_Source\PSoC4/CyLFClk.c ****         if(counterNum == CY_SYS_WDT_COUNTER0)
 2226              		.loc 1 1776 0
 2227 0008 7B68     		ldr	r3, [r7, #4]
 2228 000a 002B     		cmp	r3, #0
 2229 000c 18D1     		bne	.L191
1777:Generated_Source\PSoC4/CyLFClk.c ****         {
1778:Generated_Source\PSoC4/CyLFClk.c ****             if(CY_SYS_WDT_MODE_INT_RESET == CySysWdtGetMode(counterNum))
 2230              		.loc 1 1778 0
 2231 000e 7B68     		ldr	r3, [r7, #4]
 2232 0010 1800     		movs	r0, r3
 2233 0012 FFF7FEFF 		bl	CySysWdtGetMode
 2234 0016 0300     		movs	r3, r0
 2235 0018 032B     		cmp	r3, #3
 2236 001a 03D1     		bne	.L192
1779:Generated_Source\PSoC4/CyLFClk.c ****             {
1780:Generated_Source\PSoC4/CyLFClk.c ****                 CySysWdtClearInterrupt(CY_SYS_WDT_COUNTER0_INT);
 2237              		.loc 1 1780 0
 2238 001c 0420     		movs	r0, #4
 2239 001e FFF7FEFF 		bl	CySysWdtClearInterrupt
1781:Generated_Source\PSoC4/CyLFClk.c ****             }
1782:Generated_Source\PSoC4/CyLFClk.c ****             else if(CY_SYS_WDT_MODE_RESET == CySysWdtGetMode(counterNum))
1783:Generated_Source\PSoC4/CyLFClk.c ****             {
1784:Generated_Source\PSoC4/CyLFClk.c ****                 CySysWdtResetCounters(CY_SYS_WDT_COUNTER0_RESET);
1785:Generated_Source\PSoC4/CyLFClk.c ****                 CySysWdtClearInterrupt(CY_SYS_WDT_COUNTER0_INT);
1786:Generated_Source\PSoC4/CyLFClk.c ****             }
1787:Generated_Source\PSoC4/CyLFClk.c ****             else
1788:Generated_Source\PSoC4/CyLFClk.c ****             {
1789:Generated_Source\PSoC4/CyLFClk.c ****                 /* Do nothing. */
ARM GAS  C:\Users\ASUS\AppData\Local\Temp\ccYDUrWd.s 			page 72


1790:Generated_Source\PSoC4/CyLFClk.c ****             }
1791:Generated_Source\PSoC4/CyLFClk.c ****         }
1792:Generated_Source\PSoC4/CyLFClk.c ****         else if(counterNum == CY_SYS_WDT_COUNTER1)
1793:Generated_Source\PSoC4/CyLFClk.c ****         {
1794:Generated_Source\PSoC4/CyLFClk.c ****             if(CY_SYS_WDT_MODE_INT_RESET == CySysWdtGetMode(counterNum))
1795:Generated_Source\PSoC4/CyLFClk.c ****             {
1796:Generated_Source\PSoC4/CyLFClk.c ****                 CySysWdtClearInterrupt(CY_SYS_WDT_COUNTER1_INT);
1797:Generated_Source\PSoC4/CyLFClk.c ****             }
1798:Generated_Source\PSoC4/CyLFClk.c ****             else if(CY_SYS_WDT_MODE_RESET == CySysWdtGetMode(counterNum))
1799:Generated_Source\PSoC4/CyLFClk.c ****             {
1800:Generated_Source\PSoC4/CyLFClk.c ****                 CySysWdtResetCounters(CY_SYS_WDT_COUNTER1_RESET);
1801:Generated_Source\PSoC4/CyLFClk.c ****                 CySysWdtClearInterrupt(CY_SYS_WDT_COUNTER1_INT);
1802:Generated_Source\PSoC4/CyLFClk.c ****             }
1803:Generated_Source\PSoC4/CyLFClk.c ****             else
1804:Generated_Source\PSoC4/CyLFClk.c ****             {
1805:Generated_Source\PSoC4/CyLFClk.c ****                 /* Do nothing. */
1806:Generated_Source\PSoC4/CyLFClk.c ****             }
1807:Generated_Source\PSoC4/CyLFClk.c ****         }
1808:Generated_Source\PSoC4/CyLFClk.c ****         else
1809:Generated_Source\PSoC4/CyLFClk.c ****         {
1810:Generated_Source\PSoC4/CyLFClk.c ****             /* Do nothing. */
1811:Generated_Source\PSoC4/CyLFClk.c ****         }
1812:Generated_Source\PSoC4/CyLFClk.c ****     }
 2240              		.loc 1 1812 0
 2241 0022 2EE0     		b	.L195
 2242              	.L192:
1782:Generated_Source\PSoC4/CyLFClk.c ****             {
 2243              		.loc 1 1782 0
 2244 0024 7B68     		ldr	r3, [r7, #4]
 2245 0026 1800     		movs	r0, r3
 2246 0028 FFF7FEFF 		bl	CySysWdtGetMode
 2247 002c 0300     		movs	r3, r0
 2248 002e 022B     		cmp	r3, #2
 2249 0030 27D1     		bne	.L195
1784:Generated_Source\PSoC4/CyLFClk.c ****                 CySysWdtClearInterrupt(CY_SYS_WDT_COUNTER0_INT);
 2250              		.loc 1 1784 0
 2251 0032 0820     		movs	r0, #8
 2252 0034 FFF7FEFF 		bl	CySysWdtResetCounters
1785:Generated_Source\PSoC4/CyLFClk.c ****             }
 2253              		.loc 1 1785 0
 2254 0038 0420     		movs	r0, #4
 2255 003a FFF7FEFF 		bl	CySysWdtClearInterrupt
 2256              		.loc 1 1812 0
 2257 003e 20E0     		b	.L195
 2258              	.L191:
1792:Generated_Source\PSoC4/CyLFClk.c ****         {
 2259              		.loc 1 1792 0
 2260 0040 7B68     		ldr	r3, [r7, #4]
 2261 0042 012B     		cmp	r3, #1
 2262 0044 1DD1     		bne	.L195
1794:Generated_Source\PSoC4/CyLFClk.c ****             {
 2263              		.loc 1 1794 0
 2264 0046 7B68     		ldr	r3, [r7, #4]
 2265 0048 1800     		movs	r0, r3
 2266 004a FFF7FEFF 		bl	CySysWdtGetMode
 2267 004e 0300     		movs	r3, r0
 2268 0050 032B     		cmp	r3, #3
ARM GAS  C:\Users\ASUS\AppData\Local\Temp\ccYDUrWd.s 			page 73


 2269 0052 05D1     		bne	.L194
1796:Generated_Source\PSoC4/CyLFClk.c ****             }
 2270              		.loc 1 1796 0
 2271 0054 8023     		movs	r3, #128
 2272 0056 DB00     		lsls	r3, r3, #3
 2273 0058 1800     		movs	r0, r3
 2274 005a FFF7FEFF 		bl	CySysWdtClearInterrupt
 2275              		.loc 1 1812 0
 2276 005e 10E0     		b	.L195
 2277              	.L194:
1798:Generated_Source\PSoC4/CyLFClk.c ****             {
 2278              		.loc 1 1798 0
 2279 0060 7B68     		ldr	r3, [r7, #4]
 2280 0062 1800     		movs	r0, r3
 2281 0064 FFF7FEFF 		bl	CySysWdtGetMode
 2282 0068 0300     		movs	r3, r0
 2283 006a 022B     		cmp	r3, #2
 2284 006c 09D1     		bne	.L195
1800:Generated_Source\PSoC4/CyLFClk.c ****                 CySysWdtClearInterrupt(CY_SYS_WDT_COUNTER1_INT);
 2285              		.loc 1 1800 0
 2286 006e 8023     		movs	r3, #128
 2287 0070 1B01     		lsls	r3, r3, #4
 2288 0072 1800     		movs	r0, r3
 2289 0074 FFF7FEFF 		bl	CySysWdtResetCounters
1801:Generated_Source\PSoC4/CyLFClk.c ****             }
 2290              		.loc 1 1801 0
 2291 0078 8023     		movs	r3, #128
 2292 007a DB00     		lsls	r3, r3, #3
 2293 007c 1800     		movs	r0, r3
 2294 007e FFF7FEFF 		bl	CySysWdtClearInterrupt
 2295              	.L195:
 2296              		.loc 1 1812 0
 2297 0082 C046     		nop
 2298 0084 BD46     		mov	sp, r7
 2299 0086 02B0     		add	sp, sp, #8
 2300              		@ sp needed
 2301 0088 80BD     		pop	{r7, pc}
 2302              		.cfi_endproc
 2303              	.LFE31:
 2304              		.size	CySysWatchdogFeed, .-CySysWatchdogFeed
 2305 008a C046     		.section	.text.CySysClkLfclkPosedgeCatch,"ax",%progbits
 2306              		.align	2
 2307              		.code	16
 2308              		.thumb_func
 2309              		.type	CySysClkLfclkPosedgeCatch, %function
 2310              	CySysClkLfclkPosedgeCatch:
 2311              	.LFB32:
1813:Generated_Source\PSoC4/CyLFClk.c **** 
1814:Generated_Source\PSoC4/CyLFClk.c **** 
1815:Generated_Source\PSoC4/CyLFClk.c ****     /*******************************************************************************
1816:Generated_Source\PSoC4/CyLFClk.c ****     * Function Name: CySysClkLfclkPosedgeCatch
1817:Generated_Source\PSoC4/CyLFClk.c ****     ****************************************************************************//**
1818:Generated_Source\PSoC4/CyLFClk.c ****     * \internal
1819:Generated_Source\PSoC4/CyLFClk.c ****     * Returns once the LFCLK positive edge occurred.
1820:Generated_Source\PSoC4/CyLFClk.c ****     *
1821:Generated_Source\PSoC4/CyLFClk.c ****     * CySysClkLfclkPosedgeRestore() should be called after this function
1822:Generated_Source\PSoC4/CyLFClk.c ****     * to restore the WDT configuration.
ARM GAS  C:\Users\ASUS\AppData\Local\Temp\ccYDUrWd.s 			page 74


1823:Generated_Source\PSoC4/CyLFClk.c ****     *
1824:Generated_Source\PSoC4/CyLFClk.c ****     * A pair of the CySysClkLfclkPosedgeCatch() and CySysClkLfclkPosedgeRestore()
1825:Generated_Source\PSoC4/CyLFClk.c ****     * functions is expected to be called inside a critical section.
1826:Generated_Source\PSoC4/CyLFClk.c ****     *
1827:Generated_Source\PSoC4/CyLFClk.c ****     * To ensure that the WDT counter value is read until it changes, the enabled
1828:Generated_Source\PSoC4/CyLFClk.c ****     * WDT counter is used. If no counter is enabled, counter 0 is enabled.
1829:Generated_Source\PSoC4/CyLFClk.c ****     * And after the LFCLK source is switched, the counter 0 configuration
1830:Generated_Source\PSoC4/CyLFClk.c ****     * is restored.
1831:Generated_Source\PSoC4/CyLFClk.c ****     *
1832:Generated_Source\PSoC4/CyLFClk.c ****     * Not applicable for the PSoC 4000 / PSoC 4000S / PSoC 4100S / PSoC Analog 
1833:Generated_Source\PSoC4/CyLFClk.c ****     * Coprocessor devices.
1834:Generated_Source\PSoC4/CyLFClk.c ****     *
1835:Generated_Source\PSoC4/CyLFClk.c ****     * \details
1836:Generated_Source\PSoC4/CyLFClk.c ****     * This function has no effect if WDT is locked (CySysWdtLock() is
1837:Generated_Source\PSoC4/CyLFClk.c ****     * called). Call CySysWdtUnlock() to unlock WDT.
1838:Generated_Source\PSoC4/CyLFClk.c ****     * \endinternal
1839:Generated_Source\PSoC4/CyLFClk.c ****     *******************************************************************************/
1840:Generated_Source\PSoC4/CyLFClk.c ****     static void CySysClkLfclkPosedgeCatch(void)
1841:Generated_Source\PSoC4/CyLFClk.c ****     {
 2312              		.loc 1 1841 0
 2313              		.cfi_startproc
 2314              		@ args = 0, pretend = 0, frame = 8
 2315              		@ frame_needed = 1, uses_anonymous_args = 0
 2316 0000 80B5     		push	{r7, lr}
 2317              		.cfi_def_cfa_offset 8
 2318              		.cfi_offset 7, -8
 2319              		.cfi_offset 14, -4
 2320 0002 82B0     		sub	sp, sp, #8
 2321              		.cfi_def_cfa_offset 16
 2322 0004 00AF     		add	r7, sp, #0
 2323              		.cfi_def_cfa_register 7
1842:Generated_Source\PSoC4/CyLFClk.c ****         uint32 firstCount;
1843:Generated_Source\PSoC4/CyLFClk.c ****         static uint32 lfclkPosedgeEnabledWdtCounter = 0u;
1844:Generated_Source\PSoC4/CyLFClk.c **** 
1845:Generated_Source\PSoC4/CyLFClk.c ****         if (0u != CySysWdtGetEnabledStatus(CY_SYS_WDT_COUNTER0))
 2324              		.loc 1 1845 0
 2325 0006 0020     		movs	r0, #0
 2326 0008 FFF7FEFF 		bl	CySysWdtGetEnabledStatus
 2327 000c 031E     		subs	r3, r0, #0
 2328 000e 03D0     		beq	.L197
1846:Generated_Source\PSoC4/CyLFClk.c ****         {
1847:Generated_Source\PSoC4/CyLFClk.c ****             lfclkPosedgeEnabledWdtCounter = CY_SYS_WDT_COUNTER0;
 2329              		.loc 1 1847 0
 2330 0010 1E4B     		ldr	r3, .L202
 2331 0012 0022     		movs	r2, #0
 2332 0014 1A60     		str	r2, [r3]
 2333 0016 24E0     		b	.L198
 2334              	.L197:
1848:Generated_Source\PSoC4/CyLFClk.c ****         }
1849:Generated_Source\PSoC4/CyLFClk.c ****         else if (0u != CySysWdtGetEnabledStatus(CY_SYS_WDT_COUNTER1))
 2335              		.loc 1 1849 0
 2336 0018 0120     		movs	r0, #1
 2337 001a FFF7FEFF 		bl	CySysWdtGetEnabledStatus
 2338 001e 031E     		subs	r3, r0, #0
 2339 0020 03D0     		beq	.L199
1850:Generated_Source\PSoC4/CyLFClk.c ****         {
1851:Generated_Source\PSoC4/CyLFClk.c ****             lfclkPosedgeEnabledWdtCounter = CY_SYS_WDT_COUNTER1;
ARM GAS  C:\Users\ASUS\AppData\Local\Temp\ccYDUrWd.s 			page 75


 2340              		.loc 1 1851 0
 2341 0022 1A4B     		ldr	r3, .L202
 2342 0024 0122     		movs	r2, #1
 2343 0026 1A60     		str	r2, [r3]
 2344 0028 1BE0     		b	.L198
 2345              	.L199:
1852:Generated_Source\PSoC4/CyLFClk.c ****         }
1853:Generated_Source\PSoC4/CyLFClk.c ****         else if (0u != CySysWdtGetEnabledStatus(CY_SYS_WDT_COUNTER2))
 2346              		.loc 1 1853 0
 2347 002a 0220     		movs	r0, #2
 2348 002c FFF7FEFF 		bl	CySysWdtGetEnabledStatus
 2349 0030 031E     		subs	r3, r0, #0
 2350 0032 03D0     		beq	.L200
1854:Generated_Source\PSoC4/CyLFClk.c ****         {
1855:Generated_Source\PSoC4/CyLFClk.c ****             lfclkPosedgeEnabledWdtCounter = CY_SYS_WDT_COUNTER2;
 2351              		.loc 1 1855 0
 2352 0034 154B     		ldr	r3, .L202
 2353 0036 0222     		movs	r2, #2
 2354 0038 1A60     		str	r2, [r3]
 2355 003a 12E0     		b	.L198
 2356              	.L200:
1856:Generated_Source\PSoC4/CyLFClk.c ****         }
1857:Generated_Source\PSoC4/CyLFClk.c ****         else /* All WDT counters are disabled */
1858:Generated_Source\PSoC4/CyLFClk.c ****         {
1859:Generated_Source\PSoC4/CyLFClk.c ****             /* Configure WDT counter # 0 */
1860:Generated_Source\PSoC4/CyLFClk.c ****             lfclkPosedgeWdtCounter0Enabled = 1u;
 2357              		.loc 1 1860 0
 2358 003c 144B     		ldr	r3, .L202+4
 2359 003e 0122     		movs	r2, #1
 2360 0040 1A60     		str	r2, [r3]
1861:Generated_Source\PSoC4/CyLFClk.c ****             lfclkPosedgeEnabledWdtCounter = CY_SYS_WDT_COUNTER0;
 2361              		.loc 1 1861 0
 2362 0042 124B     		ldr	r3, .L202
 2363 0044 0022     		movs	r2, #0
 2364 0046 1A60     		str	r2, [r3]
1862:Generated_Source\PSoC4/CyLFClk.c **** 
1863:Generated_Source\PSoC4/CyLFClk.c ****             lfclkPosedgeWdtCounter0Mode = CySysWdtGetMode(CY_SYS_WDT_COUNTER0);
 2365              		.loc 1 1863 0
 2366 0048 0020     		movs	r0, #0
 2367 004a FFF7FEFF 		bl	CySysWdtGetMode
 2368 004e 0200     		movs	r2, r0
 2369 0050 104B     		ldr	r3, .L202+8
 2370 0052 1A60     		str	r2, [r3]
