ARM GAS  C:\Users\ASUS\AppData\Local\Temp\ccaY9ksW.s 			page 1


   1              		.syntax unified
   2              		.cpu cortex-m0
   3              		.fpu softvfp
   4              		.eabi_attribute 20, 1
   5              		.eabi_attribute 21, 1
   6              		.eabi_attribute 23, 3
   7              		.eabi_attribute 24, 1
   8              		.eabi_attribute 25, 1
   9              		.eabi_attribute 26, 1
  10              		.eabi_attribute 30, 6
  11              		.eabi_attribute 34, 0
  12              		.eabi_attribute 18, 4
  13              		.thumb
  14              		.syntax unified
  15              		.file	"cyPm.c"
  16              		.text
  17              	.Ltext0:
  18              		.cfi_sections	.debug_frame
  19              		.section	.text.CySysPmSleep,"ax",%progbits
  20              		.align	2
  21              		.global	CySysPmSleep
  22              		.code	16
  23              		.thumb_func
  24              		.type	CySysPmSleep, %function
  25              	CySysPmSleep:
  26              	.LFB0:
  27              		.file 1 "Generated_Source\\PSoC4\\cyPm.c"
   1:Generated_Source\PSoC4/cyPm.c **** /***************************************************************************//**
   2:Generated_Source\PSoC4/cyPm.c **** * \file cyPm.c
   3:Generated_Source\PSoC4/cyPm.c **** * \version 5.70
   4:Generated_Source\PSoC4/cyPm.c **** *
   5:Generated_Source\PSoC4/cyPm.c **** * \brief Provides an API for the power management.
   6:Generated_Source\PSoC4/cyPm.c **** *
   7:Generated_Source\PSoC4/cyPm.c **** * \note Documentation of the API's in this file is located in the System
   8:Generated_Source\PSoC4/cyPm.c **** * Reference Guide provided with PSoC Creator.
   9:Generated_Source\PSoC4/cyPm.c **** *
  10:Generated_Source\PSoC4/cyPm.c **** ********************************************************************************
  11:Generated_Source\PSoC4/cyPm.c **** * \copyright
  12:Generated_Source\PSoC4/cyPm.c **** * Copyright 2011-2018, Cypress Semiconductor Corporation.  All rights reserved.
  13:Generated_Source\PSoC4/cyPm.c **** * You may use this file only in accordance with the license, terms, conditions,
  14:Generated_Source\PSoC4/cyPm.c **** * disclaimers, and limitations in the end user license agreement accompanying
  15:Generated_Source\PSoC4/cyPm.c **** * the software package with which this file was provided.
  16:Generated_Source\PSoC4/cyPm.c **** *******************************************************************************/
  17:Generated_Source\PSoC4/cyPm.c **** 
  18:Generated_Source\PSoC4/cyPm.c **** #include "cyPm.h"
  19:Generated_Source\PSoC4/cyPm.c **** #include "CyLib.h"
  20:Generated_Source\PSoC4/cyPm.c **** #include "CyFlash.h"
  21:Generated_Source\PSoC4/cyPm.c **** 
  22:Generated_Source\PSoC4/cyPm.c **** 
  23:Generated_Source\PSoC4/cyPm.c **** /*******************************************************************************
  24:Generated_Source\PSoC4/cyPm.c **** * Function Name: CySysPmSleep
  25:Generated_Source\PSoC4/cyPm.c **** ****************************************************************************//**
  26:Generated_Source\PSoC4/cyPm.c **** *
  27:Generated_Source\PSoC4/cyPm.c **** * Puts the part into the Sleep state. This is a CPU-centric power mode.
  28:Generated_Source\PSoC4/cyPm.c **** * It means that the CPU has indicated that it is in the sleep mode and
  29:Generated_Source\PSoC4/cyPm.c **** * its main clock can be removed. It is identical to Active from a peripheral
  30:Generated_Source\PSoC4/cyPm.c **** * point of view. Any enabled interrupts can cause wakeup from the Sleep mode.
ARM GAS  C:\Users\ASUS\AppData\Local\Temp\ccaY9ksW.s 			page 2


  31:Generated_Source\PSoC4/cyPm.c **** *
  32:Generated_Source\PSoC4/cyPm.c **** *******************************************************************************/
  33:Generated_Source\PSoC4/cyPm.c **** void CySysPmSleep(void)
  34:Generated_Source\PSoC4/cyPm.c **** {
  28              		.loc 1 34 0
  29              		.cfi_startproc
  30              		@ args = 0, pretend = 0, frame = 8
  31              		@ frame_needed = 1, uses_anonymous_args = 0
  32 0000 90B5     		push	{r4, r7, lr}
  33              		.cfi_def_cfa_offset 12
  34              		.cfi_offset 4, -12
  35              		.cfi_offset 7, -8
  36              		.cfi_offset 14, -4
  37 0002 83B0     		sub	sp, sp, #12
  38              		.cfi_def_cfa_offset 24
  39 0004 00AF     		add	r7, sp, #0
  40              		.cfi_def_cfa_register 7
  35:Generated_Source\PSoC4/cyPm.c ****     uint8 interruptState;
  36:Generated_Source\PSoC4/cyPm.c **** 
  37:Generated_Source\PSoC4/cyPm.c ****     interruptState = CyEnterCriticalSection();
  41              		.loc 1 37 0
  42 0006 FC1D     		adds	r4, r7, #7
  43 0008 FFF7FEFF 		bl	CyEnterCriticalSection
  44 000c 0300     		movs	r3, r0
  45 000e 2370     		strb	r3, [r4]
  38:Generated_Source\PSoC4/cyPm.c **** 
  39:Generated_Source\PSoC4/cyPm.c ****     /* CPU enters Sleep mode upon execution of WFI */
  40:Generated_Source\PSoC4/cyPm.c ****     CY_PM_CPU_SCR_REG &= (uint32) (~CY_PM_CPU_SCR_SLEEPDEEP);
  46              		.loc 1 40 0
  47 0010 074B     		ldr	r3, .L2
  48 0012 074A     		ldr	r2, .L2
  49 0014 1268     		ldr	r2, [r2]
  50 0016 0421     		movs	r1, #4
  51 0018 8A43     		bics	r2, r1
  52 001a 1A60     		str	r2, [r3]
  41:Generated_Source\PSoC4/cyPm.c **** 
  42:Generated_Source\PSoC4/cyPm.c ****     /* Sleep and wait for interrupt */
  43:Generated_Source\PSoC4/cyPm.c ****     CY_PM_WFI;
  53              		.loc 1 43 0
  54              		.syntax divided
  55              	@ 43 "Generated_Source\PSoC4\cyPm.c" 1
  56 001c 30BF     		WFI 
  57              	
  58              	@ 0 "" 2
  44:Generated_Source\PSoC4/cyPm.c **** 
  45:Generated_Source\PSoC4/cyPm.c ****     CyExitCriticalSection(interruptState);
  59              		.loc 1 45 0
  60              		.thumb
  61              		.syntax unified
  62 001e FB1D     		adds	r3, r7, #7
  63 0020 1B78     		ldrb	r3, [r3]
  64 0022 1800     		movs	r0, r3
  65 0024 FFF7FEFF 		bl	CyExitCriticalSection
  46:Generated_Source\PSoC4/cyPm.c **** }
  66              		.loc 1 46 0
  67 0028 C046     		nop
  68 002a BD46     		mov	sp, r7
ARM GAS  C:\Users\ASUS\AppData\Local\Temp\ccaY9ksW.s 			page 3


  69 002c 03B0     		add	sp, sp, #12
  70              		@ sp needed
  71 002e 90BD     		pop	{r4, r7, pc}
  72              	.L3:
  73              		.align	2
  74              	.L2:
  75 0030 10ED00E0 		.word	-536810224
  76              		.cfi_endproc
  77              	.LFE0:
  78              		.size	CySysPmSleep, .-CySysPmSleep
  79              		.section	.text.CySysPmDeepSleep,"ax",%progbits
  80              		.align	2
  81              		.global	CySysPmDeepSleep
  82              		.code	16
  83              		.thumb_func
  84              		.type	CySysPmDeepSleep, %function
  85              	CySysPmDeepSleep:
  86              	.LFB1:
  47:Generated_Source\PSoC4/cyPm.c **** 
  48:Generated_Source\PSoC4/cyPm.c **** 
  49:Generated_Source\PSoC4/cyPm.c **** /*******************************************************************************
  50:Generated_Source\PSoC4/cyPm.c **** * Function Name: CySysPmDeepSleep
  51:Generated_Source\PSoC4/cyPm.c **** ****************************************************************************//**
  52:Generated_Source\PSoC4/cyPm.c **** *
  53:Generated_Source\PSoC4/cyPm.c **** * Puts the part into the Deep Sleep state. If the firmware attempts to enter
  54:Generated_Source\PSoC4/cyPm.c **** * this mode before the system is ready (that is, when
  55:Generated_Source\PSoC4/cyPm.c **** * PWR_CONTROL.LPM_READY = 0), then the device will go into the Sleep mode
  56:Generated_Source\PSoC4/cyPm.c **** * instead and automatically enter the originally intended mode when the
  57:Generated_Source\PSoC4/cyPm.c **** * holdoff expires.
  58:Generated_Source\PSoC4/cyPm.c **** *
  59:Generated_Source\PSoC4/cyPm.c **** * The wakeup occurs when an interrupt is received from a DeepSleep or
  60:Generated_Source\PSoC4/cyPm.c **** * Hibernate peripheral. For more details, see a corresponding
  61:Generated_Source\PSoC4/cyPm.c **** * peripheral's datasheet.
  62:Generated_Source\PSoC4/cyPm.c **** *
  63:Generated_Source\PSoC4/cyPm.c **** *******************************************************************************/
  64:Generated_Source\PSoC4/cyPm.c **** void CySysPmDeepSleep(void)
  65:Generated_Source\PSoC4/cyPm.c **** {
  87              		.loc 1 65 0
  88              		.cfi_startproc
  89              		@ args = 0, pretend = 0, frame = 8
  90              		@ frame_needed = 1, uses_anonymous_args = 0
  91 0000 90B5     		push	{r4, r7, lr}
  92              		.cfi_def_cfa_offset 12
  93              		.cfi_offset 4, -12
  94              		.cfi_offset 7, -8
  95              		.cfi_offset 14, -4
  96 0002 83B0     		sub	sp, sp, #12
  97              		.cfi_def_cfa_offset 24
  98 0004 00AF     		add	r7, sp, #0
  99              		.cfi_def_cfa_register 7
  66:Generated_Source\PSoC4/cyPm.c ****     uint8 interruptState;
  67:Generated_Source\PSoC4/cyPm.c ****     #if(CY_IP_SRSSV2)
  68:Generated_Source\PSoC4/cyPm.c ****         volatile uint32 clkSelectReg;
  69:Generated_Source\PSoC4/cyPm.c ****     #endif /* (CY_IP_SRSSV2) */
  70:Generated_Source\PSoC4/cyPm.c ****     
  71:Generated_Source\PSoC4/cyPm.c ****     #if(CY_IP_ECO_SRSSLT)
  72:Generated_Source\PSoC4/cyPm.c ****         volatile uint32 pllResoreFlag = 0u;
ARM GAS  C:\Users\ASUS\AppData\Local\Temp\ccaY9ksW.s 			page 4


  73:Generated_Source\PSoC4/cyPm.c ****     #endif /* (CY_IP_ECO_SRSSLT) */
  74:Generated_Source\PSoC4/cyPm.c ****     
  75:Generated_Source\PSoC4/cyPm.c ****     interruptState = CyEnterCriticalSection();
 100              		.loc 1 75 0
 101 0006 FC1D     		adds	r4, r7, #7
 102 0008 FFF7FEFF 		bl	CyEnterCriticalSection
 103 000c 0300     		movs	r3, r0
 104 000e 2370     		strb	r3, [r4]
  76:Generated_Source\PSoC4/cyPm.c **** 
  77:Generated_Source\PSoC4/cyPm.c ****     #if(CY_IP_ECO_SRSSLT)
  78:Generated_Source\PSoC4/cyPm.c ****         if(0u != (CY_SYS_ECO_CLK_SELECT_REG & CY_SYS_ECO_CLK_SELECT_ECO_PLL_MASK))
  79:Generated_Source\PSoC4/cyPm.c ****         {
  80:Generated_Source\PSoC4/cyPm.c ****             pllResoreFlag = 1u;
  81:Generated_Source\PSoC4/cyPm.c ****             
  82:Generated_Source\PSoC4/cyPm.c ****             /* Set default state = IMO for HFCLK_SEL bit mask */
  83:Generated_Source\PSoC4/cyPm.c ****             CY_SYS_CLK_SELECT_REG &= (uint32)(~CY_SYS_CLK_SELECT_DIRECT_SEL_MASK);
  84:Generated_Source\PSoC4/cyPm.c ****         }
  85:Generated_Source\PSoC4/cyPm.c ****     #endif /* (CY_IP_ECO_SRSSLT) */
  86:Generated_Source\PSoC4/cyPm.c **** 
  87:Generated_Source\PSoC4/cyPm.c ****     #if(CY_IP_SRSSV2)
  88:Generated_Source\PSoC4/cyPm.c ****         /* Device enters DeepSleep mode when CPU asserts SLEEPDEEP signal */
  89:Generated_Source\PSoC4/cyPm.c ****         CY_PM_PWR_CONTROL_REG &= (uint32) (~CY_PM_PWR_CONTROL_HIBERNATE);
 105              		.loc 1 89 0
 106 0010 194B     		ldr	r3, .L5
 107 0012 194A     		ldr	r2, .L5
 108 0014 1268     		ldr	r2, [r2]
 109 0016 5200     		lsls	r2, r2, #1
 110 0018 5208     		lsrs	r2, r2, #1
 111 001a 1A60     		str	r2, [r3]
  90:Generated_Source\PSoC4/cyPm.c ****     #endif /* (CY_IP_SRSSV2) */
  91:Generated_Source\PSoC4/cyPm.c **** 
  92:Generated_Source\PSoC4/cyPm.c ****     #if (CY_IP_CPUSS && CY_IP_SRSSV2)
  93:Generated_Source\PSoC4/cyPm.c ****         CY_PM_CPUSS_CONFIG_REG |= CY_PM_CPUSS_CONFIG_FLSH_ACC_BYPASS;
 112              		.loc 1 93 0
 113 001c 8023     		movs	r3, #128
 114 001e DB05     		lsls	r3, r3, #23
 115 0020 8022     		movs	r2, #128
 116 0022 D205     		lsls	r2, r2, #23
 117 0024 1268     		ldr	r2, [r2]
 118 0026 0221     		movs	r1, #2
 119 0028 0A43     		orrs	r2, r1
 120 002a 1A60     		str	r2, [r3]
  94:Generated_Source\PSoC4/cyPm.c ****     #endif /* (CY_IP_CPUSS && CY_IP_SRSSV2) */
  95:Generated_Source\PSoC4/cyPm.c **** 
  96:Generated_Source\PSoC4/cyPm.c ****     /* Adjust delay to wait for references to settle on wakeup from Deep Sleep */
  97:Generated_Source\PSoC4/cyPm.c ****     CY_PM_PWR_KEY_DELAY_REG = CY_SFLASH_DPSLP_KEY_DELAY_REG;
 121              		.loc 1 97 0
 122 002c 134B     		ldr	r3, .L5+4
 123 002e 144A     		ldr	r2, .L5+8
 124 0030 1288     		ldrh	r2, [r2]
 125 0032 92B2     		uxth	r2, r2
 126 0034 1A60     		str	r2, [r3]
  98:Generated_Source\PSoC4/cyPm.c **** 
  99:Generated_Source\PSoC4/cyPm.c ****     /* CPU enters DeepSleep/Hibernate mode upon execution of WFI */
 100:Generated_Source\PSoC4/cyPm.c ****     CY_PM_CPU_SCR_REG |= CY_PM_CPU_SCR_SLEEPDEEP;
 127              		.loc 1 100 0
 128 0036 134B     		ldr	r3, .L5+12
ARM GAS  C:\Users\ASUS\AppData\Local\Temp\ccaY9ksW.s 			page 5


 129 0038 124A     		ldr	r2, .L5+12
 130 003a 1268     		ldr	r2, [r2]
 131 003c 0421     		movs	r1, #4
 132 003e 0A43     		orrs	r2, r1
 133 0040 1A60     		str	r2, [r3]
 101:Generated_Source\PSoC4/cyPm.c **** 
 102:Generated_Source\PSoC4/cyPm.c ****     #if(CY_IP_SRSSV2)
 103:Generated_Source\PSoC4/cyPm.c ****         /* Preserve system clock configuration and
 104:Generated_Source\PSoC4/cyPm.c ****         * reduce sysclk to <=12 MHz (Cypress ID #158710, #179888).
 105:Generated_Source\PSoC4/cyPm.c ****         */
 106:Generated_Source\PSoC4/cyPm.c ****         clkSelectReg = CY_SYS_CLK_SELECT_REG;
 134              		.loc 1 106 0
 135 0042 114B     		ldr	r3, .L5+16
 136 0044 1B68     		ldr	r3, [r3]
 137 0046 3B60     		str	r3, [r7]
 107:Generated_Source\PSoC4/cyPm.c ****         CySysClkWriteSysclkDiv(CY_SYS_CLK_SYSCLK_DIV4);
 138              		.loc 1 107 0
 139 0048 0220     		movs	r0, #2
 140 004a FFF7FEFF 		bl	CySysClkWriteSysclkDiv
 108:Generated_Source\PSoC4/cyPm.c ****     #endif /* (CY_IP_SRSSV2) */
 109:Generated_Source\PSoC4/cyPm.c ****     
 110:Generated_Source\PSoC4/cyPm.c ****     /* Sleep and wait for interrupt */
 111:Generated_Source\PSoC4/cyPm.c ****     CY_PM_WFI;
 141              		.loc 1 111 0
 142              		.syntax divided
 143              	@ 111 "Generated_Source\PSoC4\cyPm.c" 1
 144 004e 30BF     		WFI 
 145              	
 146              	@ 0 "" 2
 112:Generated_Source\PSoC4/cyPm.c **** 
 113:Generated_Source\PSoC4/cyPm.c ****     #if(CY_IP_SRSSV2)
 114:Generated_Source\PSoC4/cyPm.c ****         /* Restore system clock configuration */
 115:Generated_Source\PSoC4/cyPm.c ****         CY_SYS_CLK_SELECT_REG = clkSelectReg;
 147              		.loc 1 115 0
 148              		.thumb
 149              		.syntax unified
 150 0050 0D4B     		ldr	r3, .L5+16
 151 0052 3A68     		ldr	r2, [r7]
 152 0054 1A60     		str	r2, [r3]
 116:Generated_Source\PSoC4/cyPm.c ****     #endif /* (CY_IP_SRSSV2) */
 117:Generated_Source\PSoC4/cyPm.c ****     
 118:Generated_Source\PSoC4/cyPm.c ****     #if (CY_IP_CPUSS && CY_IP_SRSSV2)
 119:Generated_Source\PSoC4/cyPm.c ****         CY_PM_CPUSS_CONFIG_REG &= (uint32) (~CY_PM_CPUSS_CONFIG_FLSH_ACC_BYPASS);
 153              		.loc 1 119 0
 154 0056 8023     		movs	r3, #128
 155 0058 DB05     		lsls	r3, r3, #23
 156 005a 8022     		movs	r2, #128
 157 005c D205     		lsls	r2, r2, #23
 158 005e 1268     		ldr	r2, [r2]
 159 0060 0221     		movs	r1, #2
 160 0062 8A43     		bics	r2, r1
 161 0064 1A60     		str	r2, [r3]
 120:Generated_Source\PSoC4/cyPm.c ****     #endif /* (CY_IP_CPUSS && CY_IP_SRSSV2) */
 121:Generated_Source\PSoC4/cyPm.c **** 
 122:Generated_Source\PSoC4/cyPm.c ****     #if(CY_IP_ECO_SRSSLT)
 123:Generated_Source\PSoC4/cyPm.c ****         if(0u != pllResoreFlag)
 124:Generated_Source\PSoC4/cyPm.c ****         {
ARM GAS  C:\Users\ASUS\AppData\Local\Temp\ccaY9ksW.s 			page 6


 125:Generated_Source\PSoC4/cyPm.c ****             CySysClkWriteHfclkDirect(CY_SYS_CLK_HFCLK_PLL0);
 126:Generated_Source\PSoC4/cyPm.c ****         }
 127:Generated_Source\PSoC4/cyPm.c ****     #endif /* (CY_IP_ECO_SRSSLT) */    
 128:Generated_Source\PSoC4/cyPm.c **** 
 129:Generated_Source\PSoC4/cyPm.c ****     CyExitCriticalSection(interruptState);
 162              		.loc 1 129 0
 163 0066 FB1D     		adds	r3, r7, #7
 164 0068 1B78     		ldrb	r3, [r3]
 165 006a 1800     		movs	r0, r3
 166 006c FFF7FEFF 		bl	CyExitCriticalSection
 130:Generated_Source\PSoC4/cyPm.c **** }
 167              		.loc 1 130 0
 168 0070 C046     		nop
 169 0072 BD46     		mov	sp, r7
 170 0074 03B0     		add	sp, sp, #12
 171              		@ sp needed
 172 0076 90BD     		pop	{r4, r7, pc}
 173              	.L6:
 174              		.align	2
 175              	.L5:
 176 0078 00000B40 		.word	1074462720
 177 007c 0C000B40 		.word	1074462732
 178 0080 52F1FF0F 		.word	268431698
 179 0084 10ED00E0 		.word	-536810224
 180 0088 00010B40 		.word	1074462976
 181              		.cfi_endproc
 182              	.LFE1:
 183              		.size	CySysPmDeepSleep, .-CySysPmDeepSleep
 184              		.section	.text.CySysPmHibernate,"ax",%progbits
 185              		.align	2
 186              		.global	CySysPmHibernate
 187              		.code	16
 188              		.thumb_func
 189              		.type	CySysPmHibernate, %function
 190              	CySysPmHibernate:
 191              	.LFB2:
 131:Generated_Source\PSoC4/cyPm.c **** 
 132:Generated_Source\PSoC4/cyPm.c **** 
 133:Generated_Source\PSoC4/cyPm.c **** #if(CY_IP_SRSSV2)
 134:Generated_Source\PSoC4/cyPm.c **** 
 135:Generated_Source\PSoC4/cyPm.c ****     /*******************************************************************************
 136:Generated_Source\PSoC4/cyPm.c ****     * Function Name: CySysPmHibernate
 137:Generated_Source\PSoC4/cyPm.c ****     ****************************************************************************//**
 138:Generated_Source\PSoC4/cyPm.c ****     *
 139:Generated_Source\PSoC4/cyPm.c ****     * Puts the part into the Hibernate state. Only SRAM and UDBs are retained;
 140:Generated_Source\PSoC4/cyPm.c ****     * most internal supplies are off. Wakeup is possible from a pin or a hibernate
 141:Generated_Source\PSoC4/cyPm.c ****     * comparator only.
 142:Generated_Source\PSoC4/cyPm.c ****     *
 143:Generated_Source\PSoC4/cyPm.c ****     * It is expected that the firmware has already frozen the IO-Cells using
 144:Generated_Source\PSoC4/cyPm.c ****     * CySysPmFreezeIo() function before the call to this function. If this is
 145:Generated_Source\PSoC4/cyPm.c ****     * omitted, the IO-cells will be frozen in the same way as they are
 146:Generated_Source\PSoC4/cyPm.c ****     * in the Active to Deep Sleep transition, but will lose their state on wake up
 147:Generated_Source\PSoC4/cyPm.c ****     * (because of the reset occurring at that time).
 148:Generated_Source\PSoC4/cyPm.c ****     *
 149:Generated_Source\PSoC4/cyPm.c ****     * Because all the CPU state is lost, the CPU will start up at the reset vector.
 150:Generated_Source\PSoC4/cyPm.c ****     * To save the firmware state through the Hibernate low power mode, a
 151:Generated_Source\PSoC4/cyPm.c ****     * corresponding variable should be defined with CY_NOINIT attribute. It
ARM GAS  C:\Users\ASUS\AppData\Local\Temp\ccaY9ksW.s 			page 7


 152:Generated_Source\PSoC4/cyPm.c ****     * prevents data from being initialized to zero on startup. The interrupt
 153:Generated_Source\PSoC4/cyPm.c ****     * cause of the hibernate peripheral is retained, such that it can be either
 154:Generated_Source\PSoC4/cyPm.c ****     * read by the firmware or cause an interrupt after the firmware has booted and
 155:Generated_Source\PSoC4/cyPm.c ****     * enabled the corresponding interrupt. To distinguish the wakeup from
 156:Generated_Source\PSoC4/cyPm.c ****     * the Hibernate mode and the general Reset event, the
 157:Generated_Source\PSoC4/cyPm.c ****     * \ref CySysPmGetResetReason() function could be used.
 158:Generated_Source\PSoC4/cyPm.c ****     *
 159:Generated_Source\PSoC4/cyPm.c ****     *******************************************************************************/
 160:Generated_Source\PSoC4/cyPm.c ****     void CySysPmHibernate(void)
 161:Generated_Source\PSoC4/cyPm.c ****     {
 192              		.loc 1 161 0
 193              		.cfi_startproc
 194              		@ args = 0, pretend = 0, frame = 8
 195              		@ frame_needed = 1, uses_anonymous_args = 0
 196 0000 90B5     		push	{r4, r7, lr}
 197              		.cfi_def_cfa_offset 12
 198              		.cfi_offset 4, -12
 199              		.cfi_offset 7, -8
 200              		.cfi_offset 14, -4
 201 0002 83B0     		sub	sp, sp, #12
 202              		.cfi_def_cfa_offset 24
 203 0004 00AF     		add	r7, sp, #0
 204              		.cfi_def_cfa_register 7
 162:Generated_Source\PSoC4/cyPm.c ****         uint8 interruptState;
 163:Generated_Source\PSoC4/cyPm.c **** 
 164:Generated_Source\PSoC4/cyPm.c ****         interruptState = CyEnterCriticalSection();
 205              		.loc 1 164 0
 206 0006 FC1D     		adds	r4, r7, #7
 207 0008 FFF7FEFF 		bl	CyEnterCriticalSection
 208 000c 0300     		movs	r3, r0
 209 000e 2370     		strb	r3, [r4]
 165:Generated_Source\PSoC4/cyPm.c **** 
 166:Generated_Source\PSoC4/cyPm.c ****         #if (CY_IP_HOBTO_DEVICE)
 167:Generated_Source\PSoC4/cyPm.c ****             /* Disable input buffers for all ports */
 168:Generated_Source\PSoC4/cyPm.c ****             CySysPmHibPinsDisableInputBuf();
 169:Generated_Source\PSoC4/cyPm.c ****         #endif /* (CY_IP_HOBTO_DEVICE) */
 170:Generated_Source\PSoC4/cyPm.c **** 
 171:Generated_Source\PSoC4/cyPm.c ****         /* Device enters Hibernate mode when CPU asserts SLEEPDEEP signal */
 172:Generated_Source\PSoC4/cyPm.c ****         CY_PM_PWR_CONTROL_REG |= CY_PM_PWR_CONTROL_HIBERNATE;
 210              		.loc 1 172 0
 211 0010 114B     		ldr	r3, .L8
 212 0012 114A     		ldr	r2, .L8
 213 0014 1268     		ldr	r2, [r2]
 214 0016 8021     		movs	r1, #128
 215 0018 0906     		lsls	r1, r1, #24
 216 001a 0A43     		orrs	r2, r1
 217 001c 1A60     		str	r2, [r3]
 173:Generated_Source\PSoC4/cyPm.c **** 
 174:Generated_Source\PSoC4/cyPm.c ****         /* Adjust delay to wait for references to settle on wakeup from hibernate */
 175:Generated_Source\PSoC4/cyPm.c ****         CY_PM_PWR_KEY_DELAY_REG = CY_SFLASH_HIB_KEY_DELAY_REG;
 218              		.loc 1 175 0
 219 001e 0F4B     		ldr	r3, .L8+4
 220 0020 0F4A     		ldr	r2, .L8+8
 221 0022 1288     		ldrh	r2, [r2]
 222 0024 92B2     		uxth	r2, r2
 223 0026 1A60     		str	r2, [r3]
 176:Generated_Source\PSoC4/cyPm.c **** 
ARM GAS  C:\Users\ASUS\AppData\Local\Temp\ccaY9ksW.s 			page 8


 177:Generated_Source\PSoC4/cyPm.c ****         /* CPU enters DeepSleep/Hibernate mode upon execution of WFI */
 178:Generated_Source\PSoC4/cyPm.c ****         CY_PM_CPU_SCR_REG |= CY_PM_CPU_SCR_SLEEPDEEP;
 224              		.loc 1 178 0
 225 0028 0E4B     		ldr	r3, .L8+12
 226 002a 0E4A     		ldr	r2, .L8+12
 227 002c 1268     		ldr	r2, [r2]
 228 002e 0421     		movs	r1, #4
 229 0030 0A43     		orrs	r2, r1
 230 0032 1A60     		str	r2, [r3]
 179:Generated_Source\PSoC4/cyPm.c **** 
 180:Generated_Source\PSoC4/cyPm.c ****         /* Save token that will retain through a STOP/WAKEUP sequence
 181:Generated_Source\PSoC4/cyPm.c ****          * thus could be used by CySysPmGetResetReason() to differentiate
 182:Generated_Source\PSoC4/cyPm.c ****          * WAKEUP from a general RESET event.
 183:Generated_Source\PSoC4/cyPm.c ****          */
 184:Generated_Source\PSoC4/cyPm.c ****         CY_PM_PWR_STOP_REG = (CY_PM_PWR_STOP_REG & (uint32)(~CY_PM_PWR_STOP_TOKEN_MASK)) | CY_PM_PW
 231              		.loc 1 184 0
 232 0034 0C4B     		ldr	r3, .L8+16
 233 0036 0C4A     		ldr	r2, .L8+16
 234 0038 1268     		ldr	r2, [r2]
 235 003a FF21     		movs	r1, #255
 236 003c 8A43     		bics	r2, r1
 237 003e F121     		movs	r1, #241
 238 0040 0A43     		orrs	r2, r1
 239 0042 1A60     		str	r2, [r3]
 185:Generated_Source\PSoC4/cyPm.c **** 
 186:Generated_Source\PSoC4/cyPm.c ****         /* Sleep and wait for interrupt. Wakeup from Hibernate is performed
 187:Generated_Source\PSoC4/cyPm.c ****          * through RESET state, causing a normal Boot procedure to occur.
 188:Generated_Source\PSoC4/cyPm.c ****          * The WFI instruction doesn't put the core to sleep if its wake condition
 189:Generated_Source\PSoC4/cyPm.c ****          * is true when the instruction is executed.
 190:Generated_Source\PSoC4/cyPm.c ****          */
 191:Generated_Source\PSoC4/cyPm.c ****         CY_PM_WFI;
 240              		.loc 1 191 0
 241              		.syntax divided
 242              	@ 191 "Generated_Source\PSoC4\cyPm.c" 1
 243 0044 30BF     		WFI 
 244              	
 245              	@ 0 "" 2
 192:Generated_Source\PSoC4/cyPm.c **** 
 193:Generated_Source\PSoC4/cyPm.c ****         CyExitCriticalSection(interruptState);
 246              		.loc 1 193 0
 247              		.thumb
 248              		.syntax unified
 249 0046 FB1D     		adds	r3, r7, #7
 250 0048 1B78     		ldrb	r3, [r3]
 251 004a 1800     		movs	r0, r3
 252 004c FFF7FEFF 		bl	CyExitCriticalSection
 194:Generated_Source\PSoC4/cyPm.c ****     }
 253              		.loc 1 194 0
 254 0050 C046     		nop
 255 0052 BD46     		mov	sp, r7
 256 0054 03B0     		add	sp, sp, #12
 257              		@ sp needed
 258 0056 90BD     		pop	{r4, r7, pc}
 259              	.L9:
 260              		.align	2
 261              	.L8:
 262 0058 00000B40 		.word	1074462720
ARM GAS  C:\Users\ASUS\AppData\Local\Temp\ccaY9ksW.s 			page 9


 263 005c 0C000B40 		.word	1074462732
 264 0060 50F1FF0F 		.word	268431696
 265 0064 10ED00E0 		.word	-536810224
 266 0068 2C000B40 		.word	1074462764
 267              		.cfi_endproc
 268              	.LFE2:
 269              		.size	CySysPmHibernate, .-CySysPmHibernate
 270              		.section	.text.CySysPmStop,"ax",%progbits
 271              		.align	2
 272              		.global	CySysPmStop
 273              		.code	16
 274              		.thumb_func
 275              		.type	CySysPmStop, %function
 276              	CySysPmStop:
 277              	.LFB3:
 195:Generated_Source\PSoC4/cyPm.c **** 
 196:Generated_Source\PSoC4/cyPm.c **** 
 197:Generated_Source\PSoC4/cyPm.c ****     /*******************************************************************************
 198:Generated_Source\PSoC4/cyPm.c ****     * Function Name: CySysPmStop
 199:Generated_Source\PSoC4/cyPm.c ****     ****************************************************************************//**
 200:Generated_Source\PSoC4/cyPm.c ****     *
 201:Generated_Source\PSoC4/cyPm.c ****     * Puts the part into the Stop state. All internal supplies are off;
 202:Generated_Source\PSoC4/cyPm.c ****     * no state is retained.
 203:Generated_Source\PSoC4/cyPm.c ****     *
 204:Generated_Source\PSoC4/cyPm.c ****     * Wakeup from Stop is performed by toggling the wakeup pin, causing
 205:Generated_Source\PSoC4/cyPm.c ****     * a normal boot procedure to occur. To configure the wakeup pin,
 206:Generated_Source\PSoC4/cyPm.c ****     * the Digital Input Pin component should be placed on the schematic,
 207:Generated_Source\PSoC4/cyPm.c ****     * assigned to the wakeup pin, and resistively pulled up or down to the inverse
 208:Generated_Source\PSoC4/cyPm.c ****     * state of the wakeup polarity. To distinguish the wakeup from the Stop mode
 209:Generated_Source\PSoC4/cyPm.c ****     * and the general Reset event, \ref CySysPmGetResetReason() function could be
 210:Generated_Source\PSoC4/cyPm.c ****     * used.  The wakeup pin is active low by default. The wakeup pin polarity
 211:Generated_Source\PSoC4/cyPm.c ****     * could be changed with the \ref CySysPmSetWakeupPolarity() function.
 212:Generated_Source\PSoC4/cyPm.c ****     *
 213:Generated_Source\PSoC4/cyPm.c ****     * This function freezes IO cells implicitly. It is not possible to enter
 214:Generated_Source\PSoC4/cyPm.c ****     * the STOP mode before freezing the IO cells. The IO cells remain frozen after
 215:Generated_Source\PSoC4/cyPm.c ****     * awake from the Stop mode until the firmware unfreezes them after booting
 216:Generated_Source\PSoC4/cyPm.c ****     * explicitly with \ref CySysPmUnfreezeIo() function call.
 217:Generated_Source\PSoC4/cyPm.c ****     *
 218:Generated_Source\PSoC4/cyPm.c ****     *******************************************************************************/
 219:Generated_Source\PSoC4/cyPm.c ****     void CySysPmStop(void)
 220:Generated_Source\PSoC4/cyPm.c ****     {
 278              		.loc 1 220 0
 279              		.cfi_startproc
 280              		@ args = 0, pretend = 0, frame = 0
 281              		@ frame_needed = 1, uses_anonymous_args = 0
 282 0000 80B5     		push	{r7, lr}
 283              		.cfi_def_cfa_offset 8
 284              		.cfi_offset 7, -8
 285              		.cfi_offset 14, -4
 286 0002 00AF     		add	r7, sp, #0
 287              		.cfi_def_cfa_register 7
 221:Generated_Source\PSoC4/cyPm.c ****         (void) CyEnterCriticalSection();
 288              		.loc 1 221 0
 289 0004 FFF7FEFF 		bl	CyEnterCriticalSection
 222:Generated_Source\PSoC4/cyPm.c **** 
 223:Generated_Source\PSoC4/cyPm.c ****         /* Update token to indicate Stop mode transition. Preserve only polarity. */
 224:Generated_Source\PSoC4/cyPm.c ****         CY_PM_PWR_STOP_REG = (CY_PM_PWR_STOP_REG & CY_PM_PWR_STOP_POLARITY) | CY_PM_PWR_STOP_TOKEN_
ARM GAS  C:\Users\ASUS\AppData\Local\Temp\ccaY9ksW.s 			page 10


 290              		.loc 1 224 0
 291 0008 0B4B     		ldr	r3, .L11
 292 000a 0B4A     		ldr	r2, .L11
 293 000c 1168     		ldr	r1, [r2]
 294 000e 8022     		movs	r2, #128
 295 0010 5202     		lsls	r2, r2, #9
 296 0012 0A40     		ands	r2, r1
 297 0014 F221     		movs	r1, #242
 298 0016 0A43     		orrs	r2, r1
 299 0018 1A60     		str	r2, [r3]
 225:Generated_Source\PSoC4/cyPm.c **** 
 226:Generated_Source\PSoC4/cyPm.c ****         /* Freeze IO-Cells to save IO-Cell state */
 227:Generated_Source\PSoC4/cyPm.c ****         CySysPmFreezeIo();
 300              		.loc 1 227 0
 301 001a FFF7FEFF 		bl	CySysPmFreezeIo
 228:Generated_Source\PSoC4/cyPm.c **** 
 229:Generated_Source\PSoC4/cyPm.c ****         /* Initiates transition to Stop state */
 230:Generated_Source\PSoC4/cyPm.c ****         CY_PM_PWR_STOP_REG = CY_PM_PWR_STOP_REG | CY_PM_PWR_STOP_STOP;
 302              		.loc 1 230 0
 303 001e 064B     		ldr	r3, .L11
 304 0020 054A     		ldr	r2, .L11
 305 0022 1268     		ldr	r2, [r2]
 306 0024 8021     		movs	r1, #128
 307 0026 0906     		lsls	r1, r1, #24
 308 0028 0A43     		orrs	r2, r1
 309 002a 1A60     		str	r2, [r3]
 231:Generated_Source\PSoC4/cyPm.c **** 
 232:Generated_Source\PSoC4/cyPm.c ****         /* Depending on the clock frequency and internal timing delays,
 233:Generated_Source\PSoC4/cyPm.c ****          * the final AHB transaction may or may not complete. To guard against
 234:Generated_Source\PSoC4/cyPm.c ****          * accidentally executing an unintended instruction, it is recommended
 235:Generated_Source\PSoC4/cyPm.c ****          * to add 2 NOP cycles after the final write to the STOP register.
 236:Generated_Source\PSoC4/cyPm.c ****          */
 237:Generated_Source\PSoC4/cyPm.c ****         CY_NOP;
 310              		.loc 1 237 0
 311              		.syntax divided
 312              	@ 237 "Generated_Source\PSoC4\cyPm.c" 1
 313 002c C046     		NOP
 314              	
 315              	@ 0 "" 2
 238:Generated_Source\PSoC4/cyPm.c ****         CY_NOP;
 316              		.loc 1 238 0
 317              	@ 238 "Generated_Source\PSoC4\cyPm.c" 1
 318 002e C046     		NOP
 319              	
 320              	@ 0 "" 2
 239:Generated_Source\PSoC4/cyPm.c **** 
 240:Generated_Source\PSoC4/cyPm.c ****         /* Should never get to this WFI instruction */
 241:Generated_Source\PSoC4/cyPm.c ****         CY_PM_WFI;
 321              		.loc 1 241 0
 322              	@ 241 "Generated_Source\PSoC4\cyPm.c" 1
 323 0030 30BF     		WFI 
 324              	
 325              	@ 0 "" 2
 242:Generated_Source\PSoC4/cyPm.c **** 
 243:Generated_Source\PSoC4/cyPm.c ****         /* Wakeup from Stop is performed by toggling of Wakeup pin,
 244:Generated_Source\PSoC4/cyPm.c ****          * causing a normal Boot procedure to occur. No need to exit
 245:Generated_Source\PSoC4/cyPm.c ****          * from the critical section.
ARM GAS  C:\Users\ASUS\AppData\Local\Temp\ccaY9ksW.s 			page 11


 246:Generated_Source\PSoC4/cyPm.c ****          */
 247:Generated_Source\PSoC4/cyPm.c ****     }
 326              		.loc 1 247 0
 327              		.thumb
 328              		.syntax unified
 329 0032 C046     		nop
 330 0034 BD46     		mov	sp, r7
 331              		@ sp needed
 332 0036 80BD     		pop	{r7, pc}
 333              	.L12:
 334              		.align	2
 335              	.L11:
 336 0038 2C000B40 		.word	1074462764
 337              		.cfi_endproc
 338              	.LFE3:
 339              		.size	CySysPmStop, .-CySysPmStop
 340              		.section	.text.CySysPmSetWakeupPolarity,"ax",%progbits
 341              		.align	2
 342              		.global	CySysPmSetWakeupPolarity
 343              		.code	16
 344              		.thumb_func
 345              		.type	CySysPmSetWakeupPolarity, %function
 346              	CySysPmSetWakeupPolarity:
 347              	.LFB4:
 248:Generated_Source\PSoC4/cyPm.c **** 
 249:Generated_Source\PSoC4/cyPm.c **** 
 250:Generated_Source\PSoC4/cyPm.c ****     /*******************************************************************************
 251:Generated_Source\PSoC4/cyPm.c ****     * Function Name: CySysPmSetWakeupPolarity
 252:Generated_Source\PSoC4/cyPm.c ****     ****************************************************************************//**
 253:Generated_Source\PSoC4/cyPm.c ****     *
 254:Generated_Source\PSoC4/cyPm.c ****     * Wake up from the stop mode is performed by toggling the wakeup pin,
 255:Generated_Source\PSoC4/cyPm.c ****     * causing a normal boot procedure to occur. This function assigns
 256:Generated_Source\PSoC4/cyPm.c ****     * the wakeup pin active level. Setting the wakeup pin to this level will cause
 257:Generated_Source\PSoC4/cyPm.c ****     * the wakeup from stop mode. The wakeup pin is active low by default.
 258:Generated_Source\PSoC4/cyPm.c ****     *
 259:Generated_Source\PSoC4/cyPm.c ****     * \param polarity
 260:Generated_Source\PSoC4/cyPm.c ****     * - \ref CY_PM_STOP_WAKEUP_ACTIVE_LOW Logical zero will wakeup the chip
 261:Generated_Source\PSoC4/cyPm.c ****     * - \ref CY_PM_STOP_WAKEUP_ACTIVE_HIGH Logical one will wakeup the chip
 262:Generated_Source\PSoC4/cyPm.c ****     *
 263:Generated_Source\PSoC4/cyPm.c ****     *******************************************************************************/
 264:Generated_Source\PSoC4/cyPm.c ****     void CySysPmSetWakeupPolarity(uint32 polarity)
 265:Generated_Source\PSoC4/cyPm.c ****     {
 348              		.loc 1 265 0
 349              		.cfi_startproc
 350              		@ args = 0, pretend = 0, frame = 16
 351              		@ frame_needed = 1, uses_anonymous_args = 0
 352 0000 90B5     		push	{r4, r7, lr}
 353              		.cfi_def_cfa_offset 12
 354              		.cfi_offset 4, -12
 355              		.cfi_offset 7, -8
 356              		.cfi_offset 14, -4
 357 0002 85B0     		sub	sp, sp, #20
 358              		.cfi_def_cfa_offset 32
 359 0004 00AF     		add	r7, sp, #0
 360              		.cfi_def_cfa_register 7
 361 0006 7860     		str	r0, [r7, #4]
 266:Generated_Source\PSoC4/cyPm.c ****         uint8 interruptState;
ARM GAS  C:\Users\ASUS\AppData\Local\Temp\ccaY9ksW.s 			page 12


 267:Generated_Source\PSoC4/cyPm.c **** 
 268:Generated_Source\PSoC4/cyPm.c ****         interruptState = CyEnterCriticalSection();
 362              		.loc 1 268 0
 363 0008 0F23     		movs	r3, #15
 364 000a FC18     		adds	r4, r7, r3
 365 000c FFF7FEFF 		bl	CyEnterCriticalSection
 366 0010 0300     		movs	r3, r0
 367 0012 2370     		strb	r3, [r4]
 269:Generated_Source\PSoC4/cyPm.c **** 
 270:Generated_Source\PSoC4/cyPm.c ****         CY_PM_PWR_STOP_REG = (CY_PM_STOP_WAKEUP_ACTIVE_LOW != polarity) ?
 368              		.loc 1 270 0
 369 0014 0C4A     		ldr	r2, .L16
 271:Generated_Source\PSoC4/cyPm.c ****                             (CY_PM_PWR_STOP_REG | CY_PM_PWR_STOP_POLARITY) :
 370              		.loc 1 271 0
 371 0016 7B68     		ldr	r3, [r7, #4]
 372 0018 002B     		cmp	r3, #0
 373 001a 05D0     		beq	.L14
 374              		.loc 1 271 0 is_stmt 0 discriminator 1
 375 001c 0A4B     		ldr	r3, .L16
 376 001e 1B68     		ldr	r3, [r3]
 377 0020 8021     		movs	r1, #128
 378 0022 4902     		lsls	r1, r1, #9
 379 0024 0B43     		orrs	r3, r1
 380 0026 03E0     		b	.L15
 381              	.L14:
 272:Generated_Source\PSoC4/cyPm.c ****                             (CY_PM_PWR_STOP_REG & (uint32) (~CY_PM_PWR_STOP_POLARITY));
 382              		.loc 1 272 0 is_stmt 1 discriminator 2
 383 0028 074B     		ldr	r3, .L16
 384 002a 1B68     		ldr	r3, [r3]
 271:Generated_Source\PSoC4/cyPm.c ****                             (CY_PM_PWR_STOP_REG | CY_PM_PWR_STOP_POLARITY) :
 385              		.loc 1 271 0 discriminator 2
 386 002c 0749     		ldr	r1, .L16+4
 387 002e 0B40     		ands	r3, r1
 388              	.L15:
 270:Generated_Source\PSoC4/cyPm.c ****                             (CY_PM_PWR_STOP_REG | CY_PM_PWR_STOP_POLARITY) :
 389              		.loc 1 270 0
 390 0030 1360     		str	r3, [r2]
 273:Generated_Source\PSoC4/cyPm.c **** 
 274:Generated_Source\PSoC4/cyPm.c ****         CyExitCriticalSection(interruptState);
 391              		.loc 1 274 0
 392 0032 0F23     		movs	r3, #15
 393 0034 FB18     		adds	r3, r7, r3
 394 0036 1B78     		ldrb	r3, [r3]
 395 0038 1800     		movs	r0, r3
 396 003a FFF7FEFF 		bl	CyExitCriticalSection
 275:Generated_Source\PSoC4/cyPm.c ****     }
 397              		.loc 1 275 0
 398 003e C046     		nop
 399 0040 BD46     		mov	sp, r7
 400 0042 05B0     		add	sp, sp, #20
 401              		@ sp needed
 402 0044 90BD     		pop	{r4, r7, pc}
 403              	.L17:
 404 0046 C046     		.align	2
 405              	.L16:
 406 0048 2C000B40 		.word	1074462764
 407 004c FFFFFEFF 		.word	-65537
ARM GAS  C:\Users\ASUS\AppData\Local\Temp\ccaY9ksW.s 			page 13


 408              		.cfi_endproc
 409              	.LFE4:
 410              		.size	CySysPmSetWakeupPolarity, .-CySysPmSetWakeupPolarity
 411              		.section	.text.CySysPmGetResetReason,"ax",%progbits
 412              		.align	2
 413              		.global	CySysPmGetResetReason
 414              		.code	16
 415              		.thumb_func
 416              		.type	CySysPmGetResetReason, %function
 417              	CySysPmGetResetReason:
 418              	.LFB5:
 276:Generated_Source\PSoC4/cyPm.c **** 
 277:Generated_Source\PSoC4/cyPm.c **** 
 278:Generated_Source\PSoC4/cyPm.c ****     /*******************************************************************************
 279:Generated_Source\PSoC4/cyPm.c ****     * Function Name: CySysPmGetResetReason
 280:Generated_Source\PSoC4/cyPm.c ****     ****************************************************************************//**
 281:Generated_Source\PSoC4/cyPm.c ****     *
 282:Generated_Source\PSoC4/cyPm.c ****     * Retrieves the last reset reason - transition from OFF/XRES/STOP/HIBERNATE to
 283:Generated_Source\PSoC4/cyPm.c ****     * the RESET state. Note that waking up from STOP using XRES will be perceived
 284:Generated_Source\PSoC4/cyPm.c ****     * as a general RESET.
 285:Generated_Source\PSoC4/cyPm.c ****     *
 286:Generated_Source\PSoC4/cyPm.c ****     * \return CY_PM_RESET_REASON_UNKN          Unknown reset reason.
 287:Generated_Source\PSoC4/cyPm.c ****     * \return CY_PM_RESET_REASON_XRES          Transition from OFF/XRES to RESET
 288:Generated_Source\PSoC4/cyPm.c ****     * \return CY_PM_RESET_REASON_WAKEUP_HIB    Transition/wakeup from HIBERNATE to RESET
 289:Generated_Source\PSoC4/cyPm.c ****     * \return CY_PM_RESET_REASON_WAKEUP_STOP   Transition/wakeup from STOP to RESET
 290:Generated_Source\PSoC4/cyPm.c ****     *
 291:Generated_Source\PSoC4/cyPm.c ****     *******************************************************************************/
 292:Generated_Source\PSoC4/cyPm.c ****     uint32 CySysPmGetResetReason(void)
 293:Generated_Source\PSoC4/cyPm.c ****     {
 419              		.loc 1 293 0
 420              		.cfi_startproc
 421              		@ args = 0, pretend = 0, frame = 8
 422              		@ frame_needed = 1, uses_anonymous_args = 0
 423 0000 80B5     		push	{r7, lr}
 424              		.cfi_def_cfa_offset 8
 425              		.cfi_offset 7, -8
 426              		.cfi_offset 14, -4
 427 0002 82B0     		sub	sp, sp, #8
 428              		.cfi_def_cfa_offset 16
 429 0004 00AF     		add	r7, sp, #0
 430              		.cfi_def_cfa_register 7
 294:Generated_Source\PSoC4/cyPm.c ****         uint32 reason = CY_PM_RESET_REASON_UNKN;
 431              		.loc 1 294 0
 432 0006 0023     		movs	r3, #0
 433 0008 7B60     		str	r3, [r7, #4]
 295:Generated_Source\PSoC4/cyPm.c **** 
 296:Generated_Source\PSoC4/cyPm.c ****         switch(CY_PM_PWR_STOP_REG & CY_PM_PWR_STOP_TOKEN_MASK)
 434              		.loc 1 296 0
 435 000a 0C4B     		ldr	r3, .L25
 436 000c 1B68     		ldr	r3, [r3]
 437 000e FF22     		movs	r2, #255
 438 0010 1340     		ands	r3, r2
 439 0012 F12B     		cmp	r3, #241
 440 0014 07D0     		beq	.L20
 441 0016 F22B     		cmp	r3, #242
 442 0018 08D0     		beq	.L21
 443 001a 002B     		cmp	r3, #0
ARM GAS  C:\Users\ASUS\AppData\Local\Temp\ccaY9ksW.s 			page 14


 444 001c 00D0     		beq	.L22
 297:Generated_Source\PSoC4/cyPm.c ****         {
 298:Generated_Source\PSoC4/cyPm.c ****         /* Power up, XRES */
 299:Generated_Source\PSoC4/cyPm.c ****         case CY_PM_PWR_STOP_TOKEN_XRES:
 300:Generated_Source\PSoC4/cyPm.c ****             reason = CY_PM_RESET_REASON_XRES;
 301:Generated_Source\PSoC4/cyPm.c ****             break;
 302:Generated_Source\PSoC4/cyPm.c **** 
 303:Generated_Source\PSoC4/cyPm.c ****         /* Wakeup from Hibernate */
 304:Generated_Source\PSoC4/cyPm.c ****         case CY_PM_PWR_STOP_TOKEN_HIB:
 305:Generated_Source\PSoC4/cyPm.c ****             reason = CY_PM_RESET_REASON_WAKEUP_HIB;
 306:Generated_Source\PSoC4/cyPm.c ****             break;
 307:Generated_Source\PSoC4/cyPm.c **** 
 308:Generated_Source\PSoC4/cyPm.c ****         /* Wakeup from Stop (through WAKEUP pin assert) */
 309:Generated_Source\PSoC4/cyPm.c ****         case CY_PM_PWR_STOP_TOKEN_STOP:
 310:Generated_Source\PSoC4/cyPm.c ****             reason = CY_PM_RESET_REASON_WAKEUP_STOP;
 311:Generated_Source\PSoC4/cyPm.c ****             break;
 312:Generated_Source\PSoC4/cyPm.c **** 
 313:Generated_Source\PSoC4/cyPm.c ****         /* Unknown reason */
 314:Generated_Source\PSoC4/cyPm.c ****         default:
 315:Generated_Source\PSoC4/cyPm.c ****             break;
 445              		.loc 1 315 0
 446 001e 08E0     		b	.L23
 447              	.L22:
 300:Generated_Source\PSoC4/cyPm.c ****             break;
 448              		.loc 1 300 0
 449 0020 0123     		movs	r3, #1
 450 0022 7B60     		str	r3, [r7, #4]
 301:Generated_Source\PSoC4/cyPm.c **** 
 451              		.loc 1 301 0
 452 0024 05E0     		b	.L23
 453              	.L20:
 305:Generated_Source\PSoC4/cyPm.c ****             break;
 454              		.loc 1 305 0
 455 0026 0223     		movs	r3, #2
 456 0028 7B60     		str	r3, [r7, #4]
 306:Generated_Source\PSoC4/cyPm.c **** 
 457              		.loc 1 306 0
 458 002a 02E0     		b	.L23
 459              	.L21:
 310:Generated_Source\PSoC4/cyPm.c ****             break;
 460              		.loc 1 310 0
 461 002c 0323     		movs	r3, #3
 462 002e 7B60     		str	r3, [r7, #4]
 311:Generated_Source\PSoC4/cyPm.c **** 
 463              		.loc 1 311 0
 464 0030 C046     		nop
 465              	.L23:
 316:Generated_Source\PSoC4/cyPm.c ****         }
 317:Generated_Source\PSoC4/cyPm.c **** 
 318:Generated_Source\PSoC4/cyPm.c ****         return (reason);
 466              		.loc 1 318 0
 467 0032 7B68     		ldr	r3, [r7, #4]
 319:Generated_Source\PSoC4/cyPm.c ****     }
 468              		.loc 1 319 0
 469 0034 1800     		movs	r0, r3
 470 0036 BD46     		mov	sp, r7
 471 0038 02B0     		add	sp, sp, #8
ARM GAS  C:\Users\ASUS\AppData\Local\Temp\ccaY9ksW.s 			page 15


 472              		@ sp needed
 473 003a 80BD     		pop	{r7, pc}
 474              	.L26:
 475              		.align	2
 476              	.L25:
 477 003c 2C000B40 		.word	1074462764
 478              		.cfi_endproc
 479              	.LFE5:
 480              		.size	CySysPmGetResetReason, .-CySysPmGetResetReason
 481              		.section	.text.CySysPmFreezeIo,"ax",%progbits
 482              		.align	2
 483              		.global	CySysPmFreezeIo
 484              		.code	16
 485              		.thumb_func
 486              		.type	CySysPmFreezeIo, %function
 487              	CySysPmFreezeIo:
 488              	.LFB6:
 320:Generated_Source\PSoC4/cyPm.c **** 
 321:Generated_Source\PSoC4/cyPm.c **** 
 322:Generated_Source\PSoC4/cyPm.c ****     /*******************************************************************************
 323:Generated_Source\PSoC4/cyPm.c ****     * Function Name: CySysPmFreezeIo
 324:Generated_Source\PSoC4/cyPm.c ****     ****************************************************************************//**
 325:Generated_Source\PSoC4/cyPm.c ****     *
 326:Generated_Source\PSoC4/cyPm.c ****     * Freezes IO-Cells directly to save the IO-Cell state on wake up from the
 327:Generated_Source\PSoC4/cyPm.c ****     * Hibernate or Stop state. It is not required to call this function before
 328:Generated_Source\PSoC4/cyPm.c ****     * entering the Stop mode, since \ref CySysPmStop() function freezes IO-Cells
 329:Generated_Source\PSoC4/cyPm.c ****     * implicitly.
 330:Generated_Source\PSoC4/cyPm.c ****     *
 331:Generated_Source\PSoC4/cyPm.c ****     * This API is not available for PSoC 4000 family of devices.
 332:Generated_Source\PSoC4/cyPm.c ****     *
 333:Generated_Source\PSoC4/cyPm.c ****     *******************************************************************************/
 334:Generated_Source\PSoC4/cyPm.c ****     void CySysPmFreezeIo(void)
 335:Generated_Source\PSoC4/cyPm.c ****     {
 489              		.loc 1 335 0
 490              		.cfi_startproc
 491              		@ args = 0, pretend = 0, frame = 8
 492              		@ frame_needed = 1, uses_anonymous_args = 0
 493 0000 90B5     		push	{r4, r7, lr}
 494              		.cfi_def_cfa_offset 12
 495              		.cfi_offset 4, -12
 496              		.cfi_offset 7, -8
 497              		.cfi_offset 14, -4
 498 0002 83B0     		sub	sp, sp, #12
 499              		.cfi_def_cfa_offset 24
 500 0004 00AF     		add	r7, sp, #0
 501              		.cfi_def_cfa_register 7
 336:Generated_Source\PSoC4/cyPm.c ****         uint8 interruptState;
 337:Generated_Source\PSoC4/cyPm.c **** 
 338:Generated_Source\PSoC4/cyPm.c ****         interruptState = CyEnterCriticalSection();
 502              		.loc 1 338 0
 503 0006 FC1D     		adds	r4, r7, #7
 504 0008 FFF7FEFF 		bl	CyEnterCriticalSection
 505 000c 0300     		movs	r3, r0
 506 000e 2370     		strb	r3, [r4]
 339:Generated_Source\PSoC4/cyPm.c **** 
 340:Generated_Source\PSoC4/cyPm.c ****         /* Check FREEZE state to avoid recurrent IO-Cells freeze attempt,
 341:Generated_Source\PSoC4/cyPm.c ****          * since the second call to this function will cause accidental switch
ARM GAS  C:\Users\ASUS\AppData\Local\Temp\ccaY9ksW.s 			page 16


 342:Generated_Source\PSoC4/cyPm.c ****          * to the STOP mode (the system will enter STOP mode immediately after
 343:Generated_Source\PSoC4/cyPm.c ****          * writing to STOP bit since both UNLOCK and FREEZE have been set correctly
 344:Generated_Source\PSoC4/cyPm.c ****          * in a previous call to this function).
 345:Generated_Source\PSoC4/cyPm.c ****          */
 346:Generated_Source\PSoC4/cyPm.c ****         if (0u == (CY_PM_PWR_STOP_REG & CY_PM_PWR_STOP_FREEZE))
 507              		.loc 1 346 0
 508 0010 0F4B     		ldr	r3, .L29
 509 0012 1A68     		ldr	r2, [r3]
 510 0014 8023     		movs	r3, #128
 511 0016 9B02     		lsls	r3, r3, #10
 512 0018 1340     		ands	r3, r2
 513 001a 0FD1     		bne	.L28
 347:Generated_Source\PSoC4/cyPm.c ****         {
 348:Generated_Source\PSoC4/cyPm.c ****             /* Preserve last reset reason and disable overrides the next freeze command by peripher
 349:Generated_Source\PSoC4/cyPm.c ****             CY_PM_PWR_STOP_REG = CY_PM_PWR_STOP_STOP | CY_PM_PWR_STOP_FREEZE | CY_PM_PWR_STOP_UNLOC
 514              		.loc 1 349 0
 515 001c 0C4B     		ldr	r3, .L29
 350:Generated_Source\PSoC4/cyPm.c ****                                 (CY_PM_PWR_STOP_REG & (CY_PM_PWR_STOP_TOKEN_MASK | CY_PM_PWR_STOP_P
 516              		.loc 1 350 0
 517 001e 0C4A     		ldr	r2, .L29
 518 0020 1268     		ldr	r2, [r2]
 519 0022 0C49     		ldr	r1, .L29+4
 520 0024 0A40     		ands	r2, r1
 349:Generated_Source\PSoC4/cyPm.c ****                                 (CY_PM_PWR_STOP_REG & (CY_PM_PWR_STOP_TOKEN_MASK | CY_PM_PWR_STOP_P
 521              		.loc 1 349 0
 522 0026 0C49     		ldr	r1, .L29+8
 523 0028 0A43     		orrs	r2, r1
 524 002a 1A60     		str	r2, [r3]
 351:Generated_Source\PSoC4/cyPm.c **** 
 352:Generated_Source\PSoC4/cyPm.c ****             /* If reading after writing, read this register three times to delay
 353:Generated_Source\PSoC4/cyPm.c ****             *  enough time for internal settling.
 354:Generated_Source\PSoC4/cyPm.c ****             */
 355:Generated_Source\PSoC4/cyPm.c ****             (void) CY_PM_PWR_STOP_REG;
 525              		.loc 1 355 0
 526 002c 084B     		ldr	r3, .L29
 527 002e 1B68     		ldr	r3, [r3]
 356:Generated_Source\PSoC4/cyPm.c ****             (void) CY_PM_PWR_STOP_REG;
 528              		.loc 1 356 0
 529 0030 074B     		ldr	r3, .L29
 530 0032 1B68     		ldr	r3, [r3]
 357:Generated_Source\PSoC4/cyPm.c **** 
 358:Generated_Source\PSoC4/cyPm.c ****             /* Second write causes the freeze of IO-Cells to save IO-Cell state */
 359:Generated_Source\PSoC4/cyPm.c ****             CY_PM_PWR_STOP_REG = CY_PM_PWR_STOP_REG;
 531              		.loc 1 359 0
 532 0034 064B     		ldr	r3, .L29
 533 0036 064A     		ldr	r2, .L29
 534 0038 1268     		ldr	r2, [r2]
 535 003a 1A60     		str	r2, [r3]
 536              	.L28:
 360:Generated_Source\PSoC4/cyPm.c ****         }
 361:Generated_Source\PSoC4/cyPm.c **** 
 362:Generated_Source\PSoC4/cyPm.c ****         CyExitCriticalSection(interruptState);
 537              		.loc 1 362 0
 538 003c FB1D     		adds	r3, r7, #7
 539 003e 1B78     		ldrb	r3, [r3]
 540 0040 1800     		movs	r0, r3
 541 0042 FFF7FEFF 		bl	CyExitCriticalSection
ARM GAS  C:\Users\ASUS\AppData\Local\Temp\ccaY9ksW.s 			page 17


 363:Generated_Source\PSoC4/cyPm.c ****     }
 542              		.loc 1 363 0
 543 0046 C046     		nop
 544 0048 BD46     		mov	sp, r7
 545 004a 03B0     		add	sp, sp, #12
 546              		@ sp needed
 547 004c 90BD     		pop	{r4, r7, pc}
 548              	.L30:
 549 004e C046     		.align	2
 550              	.L29:
 551 0050 2C000B40 		.word	1074462764
 552 0054 FF000100 		.word	65791
 553 0058 003A0280 		.word	-2147337728
 554              		.cfi_endproc
 555              	.LFE6:
 556              		.size	CySysPmFreezeIo, .-CySysPmFreezeIo
 557              		.section	.text.CySysPmUnfreezeIo,"ax",%progbits
 558              		.align	2
 559              		.global	CySysPmUnfreezeIo
 560              		.code	16
 561              		.thumb_func
 562              		.type	CySysPmUnfreezeIo, %function
 563              	CySysPmUnfreezeIo:
 564              	.LFB7:
 364:Generated_Source\PSoC4/cyPm.c **** 
 365:Generated_Source\PSoC4/cyPm.c **** 
 366:Generated_Source\PSoC4/cyPm.c ****     /*******************************************************************************
 367:Generated_Source\PSoC4/cyPm.c ****     * Function Name: CySysPmUnfreezeIo
 368:Generated_Source\PSoC4/cyPm.c ****     ****************************************************************************//**
 369:Generated_Source\PSoC4/cyPm.c ****     *
 370:Generated_Source\PSoC4/cyPm.c ****     * The IO-Cells remain frozen after awake from Hibernate or Stop mode until
 371:Generated_Source\PSoC4/cyPm.c ****     * the firmware unfreezes them after booting. The call of this function
 372:Generated_Source\PSoC4/cyPm.c ****     * unfreezes IO-Cells explicitly.
 373:Generated_Source\PSoC4/cyPm.c ****     *
 374:Generated_Source\PSoC4/cyPm.c ****     * If the firmware intent is to retain the data value on the port, then the
 375:Generated_Source\PSoC4/cyPm.c ****     * value must be read and re-written to the data register before calling this
 376:Generated_Source\PSoC4/cyPm.c ****     * API. Furthermore, the drive mode must be re-programmed.  If this is not done,
 377:Generated_Source\PSoC4/cyPm.c ****     * the pin state will change to default state the moment the freeze is removed.
 378:Generated_Source\PSoC4/cyPm.c ****     *
 379:Generated_Source\PSoC4/cyPm.c ****     * This API is not available for PSoC 4000 family of devices.
 380:Generated_Source\PSoC4/cyPm.c ****     *
 381:Generated_Source\PSoC4/cyPm.c ****     *******************************************************************************/
 382:Generated_Source\PSoC4/cyPm.c ****     void CySysPmUnfreezeIo(void)
 383:Generated_Source\PSoC4/cyPm.c ****     {
 565              		.loc 1 383 0
 566              		.cfi_startproc
 567              		@ args = 0, pretend = 0, frame = 8
 568              		@ frame_needed = 1, uses_anonymous_args = 0
 569 0000 90B5     		push	{r4, r7, lr}
 570              		.cfi_def_cfa_offset 12
 571              		.cfi_offset 4, -12
 572              		.cfi_offset 7, -8
 573              		.cfi_offset 14, -4
 574 0002 83B0     		sub	sp, sp, #12
 575              		.cfi_def_cfa_offset 24
 576 0004 00AF     		add	r7, sp, #0
 577              		.cfi_def_cfa_register 7
ARM GAS  C:\Users\ASUS\AppData\Local\Temp\ccaY9ksW.s 			page 18


 384:Generated_Source\PSoC4/cyPm.c ****         uint8 interruptState;
 385:Generated_Source\PSoC4/cyPm.c **** 
 386:Generated_Source\PSoC4/cyPm.c ****         interruptState = CyEnterCriticalSection();
 578              		.loc 1 386 0
 579 0006 FC1D     		adds	r4, r7, #7
 580 0008 FFF7FEFF 		bl	CyEnterCriticalSection
 581 000c 0300     		movs	r3, r0
 582 000e 2370     		strb	r3, [r4]
 387:Generated_Source\PSoC4/cyPm.c **** 
 388:Generated_Source\PSoC4/cyPm.c ****         /* Preserve last reset reason and wakeup polarity. Then, unfreeze I/O:
 389:Generated_Source\PSoC4/cyPm.c ****          * write PWR_STOP.FREEZE=0, .UNLOCK=0x3A, .STOP=0, .TOKEN
 390:Generated_Source\PSoC4/cyPm.c ****          */
 391:Generated_Source\PSoC4/cyPm.c ****         CY_PM_PWR_STOP_REG = CY_PM_PWR_STOP_UNLOCK |
 583              		.loc 1 391 0
 584 0010 0D4B     		ldr	r3, .L32
 392:Generated_Source\PSoC4/cyPm.c ****                             (CY_PM_PWR_STOP_REG & (CY_PM_PWR_STOP_TOKEN_MASK | CY_PM_PWR_STOP_POLAR
 585              		.loc 1 392 0
 586 0012 0D4A     		ldr	r2, .L32
 587 0014 1268     		ldr	r2, [r2]
 588 0016 0D49     		ldr	r1, .L32+4
 589 0018 0A40     		ands	r2, r1
 391:Generated_Source\PSoC4/cyPm.c ****                             (CY_PM_PWR_STOP_REG & (CY_PM_PWR_STOP_TOKEN_MASK | CY_PM_PWR_STOP_POLAR
 590              		.loc 1 391 0
 591 001a E821     		movs	r1, #232
 592 001c 8901     		lsls	r1, r1, #6
 593 001e 0A43     		orrs	r2, r1
 594 0020 1A60     		str	r2, [r3]
 393:Generated_Source\PSoC4/cyPm.c **** 
 394:Generated_Source\PSoC4/cyPm.c ****         /* If reading after writing, read this register three times to delay
 395:Generated_Source\PSoC4/cyPm.c ****         *  enough time for internal settling.
 396:Generated_Source\PSoC4/cyPm.c ****         */
 397:Generated_Source\PSoC4/cyPm.c ****         (void) CY_PM_PWR_STOP_REG;
 595              		.loc 1 397 0
 596 0022 094B     		ldr	r3, .L32
 597 0024 1B68     		ldr	r3, [r3]
 398:Generated_Source\PSoC4/cyPm.c ****         (void) CY_PM_PWR_STOP_REG;
 598              		.loc 1 398 0
 599 0026 084B     		ldr	r3, .L32
 600 0028 1B68     		ldr	r3, [r3]
 399:Generated_Source\PSoC4/cyPm.c **** 
 400:Generated_Source\PSoC4/cyPm.c ****         /* Lock STOP mode: write PWR_STOP.FREEZE=0, UNLOCK=0x00, STOP=0, .TOKEN */
 401:Generated_Source\PSoC4/cyPm.c ****         CY_PM_PWR_STOP_REG &= (CY_PM_PWR_STOP_TOKEN_MASK | CY_PM_PWR_STOP_POLARITY);
 601              		.loc 1 401 0
 602 002a 074B     		ldr	r3, .L32
 603 002c 064A     		ldr	r2, .L32
 604 002e 1268     		ldr	r2, [r2]
 605 0030 0649     		ldr	r1, .L32+4
 606 0032 0A40     		ands	r2, r1
 607 0034 1A60     		str	r2, [r3]
 402:Generated_Source\PSoC4/cyPm.c **** 
 403:Generated_Source\PSoC4/cyPm.c ****         CyExitCriticalSection(interruptState);
 608              		.loc 1 403 0
 609 0036 FB1D     		adds	r3, r7, #7
 610 0038 1B78     		ldrb	r3, [r3]
 611 003a 1800     		movs	r0, r3
 612 003c FFF7FEFF 		bl	CyExitCriticalSection
 404:Generated_Source\PSoC4/cyPm.c ****     }
ARM GAS  C:\Users\ASUS\AppData\Local\Temp\ccaY9ksW.s 			page 19


 613              		.loc 1 404 0
 614 0040 C046     		nop
 615 0042 BD46     		mov	sp, r7
 616 0044 03B0     		add	sp, sp, #12
 617              		@ sp needed
 618 0046 90BD     		pop	{r4, r7, pc}
 619              	.L33:
 620              		.align	2
 621              	.L32:
 622 0048 2C000B40 		.word	1074462764
 623 004c FF000100 		.word	65791
 624              		.cfi_endproc
 625              	.LFE7:
 626              		.size	CySysPmUnfreezeIo, .-CySysPmUnfreezeIo
 627              		.text
 628              	.Letext0:
 629              		.file 2 "Generated_Source\\PSoC4\\cytypes.h"