ARM GAS  C:\Users\ASUS\AppData\Local\Temp\ccPv8D3q.s 			page 1


   1              		.syntax unified
   2              		.cpu cortex-m0
   3              		.fpu softvfp
   4              		.eabi_attribute 20, 1
   5              		.eabi_attribute 21, 1
   6              		.eabi_attribute 23, 3
   7              		.eabi_attribute 24, 1
   8              		.eabi_attribute 25, 1
   9              		.eabi_attribute 26, 1
  10              		.eabi_attribute 30, 6
  11              		.eabi_attribute 34, 0
  12              		.eabi_attribute 18, 4
  13              		.thumb
  14              		.syntax unified
  15              		.file	"PWM_1.c"
  16              		.text
  17              	.Ltext0:
  18              		.cfi_sections	.debug_frame
  19              		.global	PWM_1_initVar
  20              		.bss
  21              		.type	PWM_1_initVar, %object
  22              		.size	PWM_1_initVar, 1
  23              	PWM_1_initVar:
  24 0000 00       		.space	1
  25              		.section	.text.PWM_1_Init,"ax",%progbits
  26              		.align	2
  27              		.global	PWM_1_Init
  28              		.code	16
  29              		.thumb_func
  30              		.type	PWM_1_Init, %function
  31              	PWM_1_Init:
  32              	.LFB0:
  33              		.file 1 "Generated_Source\\PSoC4\\PWM_1.c"
   1:Generated_Source\PSoC4/PWM_1.c **** /*******************************************************************************
   2:Generated_Source\PSoC4/PWM_1.c **** * File Name: PWM_1.c
   3:Generated_Source\PSoC4/PWM_1.c **** * Version 2.10
   4:Generated_Source\PSoC4/PWM_1.c **** *
   5:Generated_Source\PSoC4/PWM_1.c **** * Description:
   6:Generated_Source\PSoC4/PWM_1.c **** *  This file provides the source code to the API for the PWM_1
   7:Generated_Source\PSoC4/PWM_1.c **** *  component
   8:Generated_Source\PSoC4/PWM_1.c **** *
   9:Generated_Source\PSoC4/PWM_1.c **** * Note:
  10:Generated_Source\PSoC4/PWM_1.c **** *  None
  11:Generated_Source\PSoC4/PWM_1.c **** *
  12:Generated_Source\PSoC4/PWM_1.c **** ********************************************************************************
  13:Generated_Source\PSoC4/PWM_1.c **** * Copyright 2013-2015, Cypress Semiconductor Corporation.  All rights reserved.
  14:Generated_Source\PSoC4/PWM_1.c **** * You may use this file only in accordance with the license, terms, conditions,
  15:Generated_Source\PSoC4/PWM_1.c **** * disclaimers, and limitations in the end user license agreement accompanying
  16:Generated_Source\PSoC4/PWM_1.c **** * the software package with which this file was provided.
  17:Generated_Source\PSoC4/PWM_1.c **** *******************************************************************************/
  18:Generated_Source\PSoC4/PWM_1.c **** 
  19:Generated_Source\PSoC4/PWM_1.c **** #include "PWM_1.h"
  20:Generated_Source\PSoC4/PWM_1.c **** 
  21:Generated_Source\PSoC4/PWM_1.c **** uint8 PWM_1_initVar = 0u;
  22:Generated_Source\PSoC4/PWM_1.c **** 
  23:Generated_Source\PSoC4/PWM_1.c **** 
  24:Generated_Source\PSoC4/PWM_1.c **** /*******************************************************************************
ARM GAS  C:\Users\ASUS\AppData\Local\Temp\ccPv8D3q.s 			page 2


  25:Generated_Source\PSoC4/PWM_1.c **** * Function Name: PWM_1_Init
  26:Generated_Source\PSoC4/PWM_1.c **** ********************************************************************************
  27:Generated_Source\PSoC4/PWM_1.c **** *
  28:Generated_Source\PSoC4/PWM_1.c **** * Summary:
  29:Generated_Source\PSoC4/PWM_1.c **** *  Initialize/Restore default PWM_1 configuration.
  30:Generated_Source\PSoC4/PWM_1.c **** *
  31:Generated_Source\PSoC4/PWM_1.c **** * Parameters:
  32:Generated_Source\PSoC4/PWM_1.c **** *  None
  33:Generated_Source\PSoC4/PWM_1.c **** *
  34:Generated_Source\PSoC4/PWM_1.c **** * Return:
  35:Generated_Source\PSoC4/PWM_1.c **** *  None
  36:Generated_Source\PSoC4/PWM_1.c **** *
  37:Generated_Source\PSoC4/PWM_1.c **** *******************************************************************************/
  38:Generated_Source\PSoC4/PWM_1.c **** void PWM_1_Init(void)
  39:Generated_Source\PSoC4/PWM_1.c **** {
  34              		.loc 1 39 0
  35              		.cfi_startproc
  36              		@ args = 0, pretend = 0, frame = 0
  37              		@ frame_needed = 1, uses_anonymous_args = 0
  38 0000 80B5     		push	{r7, lr}
  39              		.cfi_def_cfa_offset 8
  40              		.cfi_offset 7, -8
  41              		.cfi_offset 14, -4
  42 0002 00AF     		add	r7, sp, #0
  43              		.cfi_def_cfa_register 7
  40:Generated_Source\PSoC4/PWM_1.c **** 
  41:Generated_Source\PSoC4/PWM_1.c ****     /* Set values from customizer to CTRL */
  42:Generated_Source\PSoC4/PWM_1.c ****     #if (PWM_1__QUAD == PWM_1_CONFIG)
  43:Generated_Source\PSoC4/PWM_1.c ****         PWM_1_CONTROL_REG = PWM_1_CTRL_QUAD_BASE_CONFIG;
  44:Generated_Source\PSoC4/PWM_1.c ****         
  45:Generated_Source\PSoC4/PWM_1.c ****         /* Set values from customizer to CTRL1 */
  46:Generated_Source\PSoC4/PWM_1.c ****         PWM_1_TRIG_CONTROL1_REG  = PWM_1_QUAD_SIGNALS_MODES;
  47:Generated_Source\PSoC4/PWM_1.c **** 
  48:Generated_Source\PSoC4/PWM_1.c ****         /* Set values from customizer to INTR */
  49:Generated_Source\PSoC4/PWM_1.c ****         PWM_1_SetInterruptMode(PWM_1_QUAD_INTERRUPT_MASK);
  50:Generated_Source\PSoC4/PWM_1.c ****         
  51:Generated_Source\PSoC4/PWM_1.c ****          /* Set other values */
  52:Generated_Source\PSoC4/PWM_1.c ****         PWM_1_SetCounterMode(PWM_1_COUNT_DOWN);
  53:Generated_Source\PSoC4/PWM_1.c ****         PWM_1_WritePeriod(PWM_1_QUAD_PERIOD_INIT_VALUE);
  54:Generated_Source\PSoC4/PWM_1.c ****         PWM_1_WriteCounter(PWM_1_QUAD_PERIOD_INIT_VALUE);
  55:Generated_Source\PSoC4/PWM_1.c ****     #endif  /* (PWM_1__QUAD == PWM_1_CONFIG) */
  56:Generated_Source\PSoC4/PWM_1.c **** 
  57:Generated_Source\PSoC4/PWM_1.c ****     #if (PWM_1__TIMER == PWM_1_CONFIG)
  58:Generated_Source\PSoC4/PWM_1.c ****         PWM_1_CONTROL_REG = PWM_1_CTRL_TIMER_BASE_CONFIG;
  59:Generated_Source\PSoC4/PWM_1.c ****         
  60:Generated_Source\PSoC4/PWM_1.c ****         /* Set values from customizer to CTRL1 */
  61:Generated_Source\PSoC4/PWM_1.c ****         PWM_1_TRIG_CONTROL1_REG  = PWM_1_TIMER_SIGNALS_MODES;
  62:Generated_Source\PSoC4/PWM_1.c ****     
  63:Generated_Source\PSoC4/PWM_1.c ****         /* Set values from customizer to INTR */
  64:Generated_Source\PSoC4/PWM_1.c ****         PWM_1_SetInterruptMode(PWM_1_TC_INTERRUPT_MASK);
  65:Generated_Source\PSoC4/PWM_1.c ****         
  66:Generated_Source\PSoC4/PWM_1.c ****         /* Set other values from customizer */
  67:Generated_Source\PSoC4/PWM_1.c ****         PWM_1_WritePeriod(PWM_1_TC_PERIOD_VALUE );
  68:Generated_Source\PSoC4/PWM_1.c **** 
  69:Generated_Source\PSoC4/PWM_1.c ****         #if (PWM_1__COMPARE == PWM_1_TC_COMP_CAP_MODE)
  70:Generated_Source\PSoC4/PWM_1.c ****             PWM_1_WriteCompare(PWM_1_TC_COMPARE_VALUE);
  71:Generated_Source\PSoC4/PWM_1.c **** 
ARM GAS  C:\Users\ASUS\AppData\Local\Temp\ccPv8D3q.s 			page 3


  72:Generated_Source\PSoC4/PWM_1.c ****             #if (1u == PWM_1_TC_COMPARE_SWAP)
  73:Generated_Source\PSoC4/PWM_1.c ****                 PWM_1_SetCompareSwap(1u);
  74:Generated_Source\PSoC4/PWM_1.c ****                 PWM_1_WriteCompareBuf(PWM_1_TC_COMPARE_BUF_VALUE);
  75:Generated_Source\PSoC4/PWM_1.c ****             #endif  /* (1u == PWM_1_TC_COMPARE_SWAP) */
  76:Generated_Source\PSoC4/PWM_1.c ****         #endif  /* (PWM_1__COMPARE == PWM_1_TC_COMP_CAP_MODE) */
  77:Generated_Source\PSoC4/PWM_1.c **** 
  78:Generated_Source\PSoC4/PWM_1.c ****         /* Initialize counter value */
  79:Generated_Source\PSoC4/PWM_1.c ****         #if (PWM_1_CY_TCPWM_V2 && PWM_1_TIMER_UPDOWN_CNT_USED && !PWM_1_CY_TCPWM_4000)
  80:Generated_Source\PSoC4/PWM_1.c ****             PWM_1_WriteCounter(1u);
  81:Generated_Source\PSoC4/PWM_1.c ****         #elif(PWM_1__COUNT_DOWN == PWM_1_TC_COUNTER_MODE)
  82:Generated_Source\PSoC4/PWM_1.c ****             PWM_1_WriteCounter(PWM_1_TC_PERIOD_VALUE);
  83:Generated_Source\PSoC4/PWM_1.c ****         #else
  84:Generated_Source\PSoC4/PWM_1.c ****             PWM_1_WriteCounter(0u);
  85:Generated_Source\PSoC4/PWM_1.c ****         #endif /* (PWM_1_CY_TCPWM_V2 && PWM_1_TIMER_UPDOWN_CNT_USED && !PWM_1_CY_TCPWM_4000) */
  86:Generated_Source\PSoC4/PWM_1.c ****     #endif  /* (PWM_1__TIMER == PWM_1_CONFIG) */
  87:Generated_Source\PSoC4/PWM_1.c **** 
  88:Generated_Source\PSoC4/PWM_1.c ****     #if (PWM_1__PWM_SEL == PWM_1_CONFIG)
  89:Generated_Source\PSoC4/PWM_1.c ****         PWM_1_CONTROL_REG = PWM_1_CTRL_PWM_BASE_CONFIG;
  44              		.loc 1 89 0
  45 0004 114B     		ldr	r3, .L2
  46 0006 8022     		movs	r2, #128
  47 0008 D204     		lsls	r2, r2, #19
  48 000a 1A60     		str	r2, [r3]
  90:Generated_Source\PSoC4/PWM_1.c **** 
  91:Generated_Source\PSoC4/PWM_1.c ****         #if (PWM_1__PWM_PR == PWM_1_PWM_MODE)
  92:Generated_Source\PSoC4/PWM_1.c ****             PWM_1_CONTROL_REG |= PWM_1_CTRL_PWM_RUN_MODE;
  93:Generated_Source\PSoC4/PWM_1.c ****             PWM_1_WriteCounter(PWM_1_PWM_PR_INIT_VALUE);
  94:Generated_Source\PSoC4/PWM_1.c ****         #else
  95:Generated_Source\PSoC4/PWM_1.c ****             PWM_1_CONTROL_REG |= PWM_1_CTRL_PWM_ALIGN | PWM_1_CTRL_PWM_KILL_EVENT;
  49              		.loc 1 95 0
  50 000c 0F4B     		ldr	r3, .L2
  51 000e 0F4A     		ldr	r2, .L2
  52 0010 1268     		ldr	r2, [r2]
  53 0012 1A60     		str	r2, [r3]
  96:Generated_Source\PSoC4/PWM_1.c ****             
  97:Generated_Source\PSoC4/PWM_1.c ****             /* Initialize counter value */
  98:Generated_Source\PSoC4/PWM_1.c ****             #if (PWM_1_CY_TCPWM_V2 && PWM_1_PWM_UPDOWN_CNT_USED && !PWM_1_CY_TCPWM_4000)
  99:Generated_Source\PSoC4/PWM_1.c ****                 PWM_1_WriteCounter(1u);
 100:Generated_Source\PSoC4/PWM_1.c ****             #elif (PWM_1__RIGHT == PWM_1_PWM_ALIGN)
 101:Generated_Source\PSoC4/PWM_1.c ****                 PWM_1_WriteCounter(PWM_1_PWM_PERIOD_VALUE);
 102:Generated_Source\PSoC4/PWM_1.c ****             #else 
 103:Generated_Source\PSoC4/PWM_1.c ****                 PWM_1_WriteCounter(0u);
  54              		.loc 1 103 0
  55 0014 0020     		movs	r0, #0
  56 0016 FFF7FEFF 		bl	PWM_1_WriteCounter
 104:Generated_Source\PSoC4/PWM_1.c ****             #endif  /* (PWM_1_CY_TCPWM_V2 && PWM_1_PWM_UPDOWN_CNT_USED && !PWM_1_CY_TCPWM_4000) */
 105:Generated_Source\PSoC4/PWM_1.c ****         #endif  /* (PWM_1__PWM_PR == PWM_1_PWM_MODE) */
 106:Generated_Source\PSoC4/PWM_1.c **** 
 107:Generated_Source\PSoC4/PWM_1.c ****         #if (PWM_1__PWM_DT == PWM_1_PWM_MODE)
 108:Generated_Source\PSoC4/PWM_1.c ****             PWM_1_CONTROL_REG |= PWM_1_CTRL_PWM_DEAD_TIME_CYCLE;
 109:Generated_Source\PSoC4/PWM_1.c ****         #endif  /* (PWM_1__PWM_DT == PWM_1_PWM_MODE) */
 110:Generated_Source\PSoC4/PWM_1.c **** 
 111:Generated_Source\PSoC4/PWM_1.c ****         #if (PWM_1__PWM == PWM_1_PWM_MODE)
 112:Generated_Source\PSoC4/PWM_1.c ****             PWM_1_CONTROL_REG |= PWM_1_CTRL_PWM_PRESCALER;
  57              		.loc 1 112 0
  58 001a 0C4B     		ldr	r3, .L2
  59 001c 0B4A     		ldr	r2, .L2
ARM GAS  C:\Users\ASUS\AppData\Local\Temp\ccPv8D3q.s 			page 4


  60 001e 1268     		ldr	r2, [r2]
  61 0020 C021     		movs	r1, #192
  62 0022 8900     		lsls	r1, r1, #2
  63 0024 0A43     		orrs	r2, r1
  64 0026 1A60     		str	r2, [r3]
 113:Generated_Source\PSoC4/PWM_1.c ****         #endif  /* (PWM_1__PWM == PWM_1_PWM_MODE) */
 114:Generated_Source\PSoC4/PWM_1.c **** 
 115:Generated_Source\PSoC4/PWM_1.c ****         /* Set values from customizer to CTRL1 */
 116:Generated_Source\PSoC4/PWM_1.c ****         PWM_1_TRIG_CONTROL1_REG  = PWM_1_PWM_SIGNALS_MODES;
  65              		.loc 1 116 0
  66 0028 094B     		ldr	r3, .L2+4
  67 002a 0C22     		movs	r2, #12
  68 002c 1A60     		str	r2, [r3]
 117:Generated_Source\PSoC4/PWM_1.c ****     
 118:Generated_Source\PSoC4/PWM_1.c ****         /* Set values from customizer to INTR */
 119:Generated_Source\PSoC4/PWM_1.c ****         PWM_1_SetInterruptMode(PWM_1_PWM_INTERRUPT_MASK);
  69              		.loc 1 119 0
  70 002e 0120     		movs	r0, #1
  71 0030 FFF7FEFF 		bl	PWM_1_SetInterruptMode
 120:Generated_Source\PSoC4/PWM_1.c **** 
 121:Generated_Source\PSoC4/PWM_1.c ****         /* Set values from customizer to CTRL2 */
 122:Generated_Source\PSoC4/PWM_1.c ****         #if (PWM_1__PWM_PR == PWM_1_PWM_MODE)
 123:Generated_Source\PSoC4/PWM_1.c ****             PWM_1_TRIG_CONTROL2_REG =
 124:Generated_Source\PSoC4/PWM_1.c ****                     (PWM_1_CC_MATCH_NO_CHANGE    |
 125:Generated_Source\PSoC4/PWM_1.c ****                     PWM_1_OVERLOW_NO_CHANGE      |
 126:Generated_Source\PSoC4/PWM_1.c ****                     PWM_1_UNDERFLOW_NO_CHANGE);
 127:Generated_Source\PSoC4/PWM_1.c ****         #else
 128:Generated_Source\PSoC4/PWM_1.c ****             #if (PWM_1__LEFT == PWM_1_PWM_ALIGN)
 129:Generated_Source\PSoC4/PWM_1.c ****                 PWM_1_TRIG_CONTROL2_REG = PWM_1_PWM_MODE_LEFT;
  72              		.loc 1 129 0
  73 0034 074B     		ldr	r3, .L2+8
  74 0036 3122     		movs	r2, #49
  75 0038 1A60     		str	r2, [r3]
 130:Generated_Source\PSoC4/PWM_1.c ****             #endif  /* ( PWM_1_PWM_LEFT == PWM_1_PWM_ALIGN) */
 131:Generated_Source\PSoC4/PWM_1.c **** 
 132:Generated_Source\PSoC4/PWM_1.c ****             #if (PWM_1__RIGHT == PWM_1_PWM_ALIGN)
 133:Generated_Source\PSoC4/PWM_1.c ****                 PWM_1_TRIG_CONTROL2_REG = PWM_1_PWM_MODE_RIGHT;
 134:Generated_Source\PSoC4/PWM_1.c ****             #endif  /* ( PWM_1_PWM_RIGHT == PWM_1_PWM_ALIGN) */
 135:Generated_Source\PSoC4/PWM_1.c **** 
 136:Generated_Source\PSoC4/PWM_1.c ****             #if (PWM_1__CENTER == PWM_1_PWM_ALIGN)
 137:Generated_Source\PSoC4/PWM_1.c ****                 PWM_1_TRIG_CONTROL2_REG = PWM_1_PWM_MODE_CENTER;
 138:Generated_Source\PSoC4/PWM_1.c ****             #endif  /* ( PWM_1_PWM_CENTER == PWM_1_PWM_ALIGN) */
 139:Generated_Source\PSoC4/PWM_1.c **** 
 140:Generated_Source\PSoC4/PWM_1.c ****             #if (PWM_1__ASYMMETRIC == PWM_1_PWM_ALIGN)
 141:Generated_Source\PSoC4/PWM_1.c ****                 PWM_1_TRIG_CONTROL2_REG = PWM_1_PWM_MODE_ASYM;
 142:Generated_Source\PSoC4/PWM_1.c ****             #endif  /* (PWM_1__ASYMMETRIC == PWM_1_PWM_ALIGN) */
 143:Generated_Source\PSoC4/PWM_1.c ****         #endif  /* (PWM_1__PWM_PR == PWM_1_PWM_MODE) */
 144:Generated_Source\PSoC4/PWM_1.c **** 
 145:Generated_Source\PSoC4/PWM_1.c ****         /* Set other values from customizer */
 146:Generated_Source\PSoC4/PWM_1.c ****         PWM_1_WritePeriod(PWM_1_PWM_PERIOD_VALUE );
  76              		.loc 1 146 0
  77 003a FE20     		movs	r0, #254
  78 003c FFF7FEFF 		bl	PWM_1_WritePeriod
 147:Generated_Source\PSoC4/PWM_1.c ****         PWM_1_WriteCompare(PWM_1_PWM_COMPARE_VALUE);
  79              		.loc 1 147 0
  80 0040 7F20     		movs	r0, #127
  81 0042 FFF7FEFF 		bl	PWM_1_WriteCompare
ARM GAS  C:\Users\ASUS\AppData\Local\Temp\ccPv8D3q.s 			page 5


 148:Generated_Source\PSoC4/PWM_1.c **** 
 149:Generated_Source\PSoC4/PWM_1.c ****         #if (1u == PWM_1_PWM_COMPARE_SWAP)
 150:Generated_Source\PSoC4/PWM_1.c ****             PWM_1_SetCompareSwap(1u);
 151:Generated_Source\PSoC4/PWM_1.c ****             PWM_1_WriteCompareBuf(PWM_1_PWM_COMPARE_BUF_VALUE);
 152:Generated_Source\PSoC4/PWM_1.c ****         #endif  /* (1u == PWM_1_PWM_COMPARE_SWAP) */
 153:Generated_Source\PSoC4/PWM_1.c **** 
 154:Generated_Source\PSoC4/PWM_1.c ****         #if (1u == PWM_1_PWM_PERIOD_SWAP)
 155:Generated_Source\PSoC4/PWM_1.c ****             PWM_1_SetPeriodSwap(1u);
 156:Generated_Source\PSoC4/PWM_1.c ****             PWM_1_WritePeriodBuf(PWM_1_PWM_PERIOD_BUF_VALUE);
 157:Generated_Source\PSoC4/PWM_1.c ****         #endif  /* (1u == PWM_1_PWM_PERIOD_SWAP) */
 158:Generated_Source\PSoC4/PWM_1.c ****     #endif  /* (PWM_1__PWM_SEL == PWM_1_CONFIG) */
 159:Generated_Source\PSoC4/PWM_1.c ****     
 160:Generated_Source\PSoC4/PWM_1.c **** }
  82              		.loc 1 160 0
  83 0046 C046     		nop
  84 0048 BD46     		mov	sp, r7
  85              		@ sp needed
  86 004a 80BD     		pop	{r7, pc}
  87              	.L3:
  88              		.align	2
  89              	.L2:
  90 004c 00010540 		.word	1074069760
  91 0050 24010540 		.word	1074069796
  92 0054 28010540 		.word	1074069800
  93              		.cfi_endproc
  94              	.LFE0:
  95              		.size	PWM_1_Init, .-PWM_1_Init
  96              		.section	.text.PWM_1_Enable,"ax",%progbits
  97              		.align	2
  98              		.global	PWM_1_Enable
  99              		.code	16
 100              		.thumb_func
 101              		.type	PWM_1_Enable, %function
 102              	PWM_1_Enable:
 103              	.LFB1:
 161:Generated_Source\PSoC4/PWM_1.c **** 
 162:Generated_Source\PSoC4/PWM_1.c **** 
 163:Generated_Source\PSoC4/PWM_1.c **** /*******************************************************************************
 164:Generated_Source\PSoC4/PWM_1.c **** * Function Name: PWM_1_Enable
 165:Generated_Source\PSoC4/PWM_1.c **** ********************************************************************************
 166:Generated_Source\PSoC4/PWM_1.c **** *
 167:Generated_Source\PSoC4/PWM_1.c **** * Summary:
 168:Generated_Source\PSoC4/PWM_1.c **** *  Enables the PWM_1.
 169:Generated_Source\PSoC4/PWM_1.c **** *
 170:Generated_Source\PSoC4/PWM_1.c **** * Parameters:
 171:Generated_Source\PSoC4/PWM_1.c **** *  None
 172:Generated_Source\PSoC4/PWM_1.c **** *
 173:Generated_Source\PSoC4/PWM_1.c **** * Return:
 174:Generated_Source\PSoC4/PWM_1.c **** *  None
 175:Generated_Source\PSoC4/PWM_1.c **** *
 176:Generated_Source\PSoC4/PWM_1.c **** *******************************************************************************/
 177:Generated_Source\PSoC4/PWM_1.c **** void PWM_1_Enable(void)
 178:Generated_Source\PSoC4/PWM_1.c **** {
 104              		.loc 1 178 0
 105              		.cfi_startproc
 106              		@ args = 0, pretend = 0, frame = 8
 107              		@ frame_needed = 1, uses_anonymous_args = 0
ARM GAS  C:\Users\ASUS\AppData\Local\Temp\ccPv8D3q.s 			page 6


 108 0000 90B5     		push	{r4, r7, lr}
 109              		.cfi_def_cfa_offset 12
 110              		.cfi_offset 4, -12
 111              		.cfi_offset 7, -8
 112              		.cfi_offset 14, -4
 113 0002 83B0     		sub	sp, sp, #12
 114              		.cfi_def_cfa_offset 24
 115 0004 00AF     		add	r7, sp, #0
 116              		.cfi_def_cfa_register 7
 179:Generated_Source\PSoC4/PWM_1.c ****     uint8 enableInterrupts;
 180:Generated_Source\PSoC4/PWM_1.c **** 
 181:Generated_Source\PSoC4/PWM_1.c ****     enableInterrupts = CyEnterCriticalSection();
 117              		.loc 1 181 0
 118 0006 FC1D     		adds	r4, r7, #7
 119 0008 FFF7FEFF 		bl	CyEnterCriticalSection
 120 000c 0300     		movs	r3, r0
 121 000e 2370     		strb	r3, [r4]
 182:Generated_Source\PSoC4/PWM_1.c ****     PWM_1_BLOCK_CONTROL_REG |= PWM_1_MASK;
 122              		.loc 1 182 0
 123 0010 094B     		ldr	r3, .L5
 124 0012 094A     		ldr	r2, .L5
 125 0014 1268     		ldr	r2, [r2]
 126 0016 0121     		movs	r1, #1
 127 0018 0A43     		orrs	r2, r1
 128 001a 1A60     		str	r2, [r3]
 183:Generated_Source\PSoC4/PWM_1.c ****     CyExitCriticalSection(enableInterrupts);
 129              		.loc 1 183 0
 130 001c FB1D     		adds	r3, r7, #7
 131 001e 1B78     		ldrb	r3, [r3]
 132 0020 1800     		movs	r0, r3
 133 0022 FFF7FEFF 		bl	CyExitCriticalSection
 184:Generated_Source\PSoC4/PWM_1.c **** 
 185:Generated_Source\PSoC4/PWM_1.c ****     /* Start Timer or PWM if start input is absent */
 186:Generated_Source\PSoC4/PWM_1.c ****     #if (PWM_1__PWM_SEL == PWM_1_CONFIG)
 187:Generated_Source\PSoC4/PWM_1.c ****         #if (0u == PWM_1_PWM_START_SIGNAL_PRESENT)
 188:Generated_Source\PSoC4/PWM_1.c ****             PWM_1_TriggerCommand(PWM_1_MASK, PWM_1_CMD_START);
 134              		.loc 1 188 0
 135 0026 1821     		movs	r1, #24
 136 0028 0120     		movs	r0, #1
 137 002a FFF7FEFF 		bl	PWM_1_TriggerCommand
 189:Generated_Source\PSoC4/PWM_1.c ****         #endif /* (0u == PWM_1_PWM_START_SIGNAL_PRESENT) */
 190:Generated_Source\PSoC4/PWM_1.c ****     #endif /* (PWM_1__PWM_SEL == PWM_1_CONFIG) */
 191:Generated_Source\PSoC4/PWM_1.c **** 
 192:Generated_Source\PSoC4/PWM_1.c ****     #if (PWM_1__TIMER == PWM_1_CONFIG)
 193:Generated_Source\PSoC4/PWM_1.c ****         #if (0u == PWM_1_TC_START_SIGNAL_PRESENT)
 194:Generated_Source\PSoC4/PWM_1.c ****             PWM_1_TriggerCommand(PWM_1_MASK, PWM_1_CMD_START);
 195:Generated_Source\PSoC4/PWM_1.c ****         #endif /* (0u == PWM_1_TC_START_SIGNAL_PRESENT) */
 196:Generated_Source\PSoC4/PWM_1.c ****     #endif /* (PWM_1__TIMER == PWM_1_CONFIG) */
 197:Generated_Source\PSoC4/PWM_1.c ****     
 198:Generated_Source\PSoC4/PWM_1.c ****     #if (PWM_1__QUAD == PWM_1_CONFIG)
 199:Generated_Source\PSoC4/PWM_1.c ****         #if (0u != PWM_1_QUAD_AUTO_START)
 200:Generated_Source\PSoC4/PWM_1.c ****             PWM_1_TriggerCommand(PWM_1_MASK, PWM_1_CMD_RELOAD);
 201:Generated_Source\PSoC4/PWM_1.c ****         #endif /* (0u != PWM_1_QUAD_AUTO_START) */
 202:Generated_Source\PSoC4/PWM_1.c ****     #endif  /* (PWM_1__QUAD == PWM_1_CONFIG) */
 203:Generated_Source\PSoC4/PWM_1.c **** }
 138              		.loc 1 203 0
 139 002e C046     		nop
ARM GAS  C:\Users\ASUS\AppData\Local\Temp\ccPv8D3q.s 			page 7


 140 0030 BD46     		mov	sp, r7
 141 0032 03B0     		add	sp, sp, #12
 142              		@ sp needed
 143 0034 90BD     		pop	{r4, r7, pc}
 144              	.L6:
 145 0036 C046     		.align	2
 146              	.L5:
 147 0038 00000540 		.word	1074069504
 148              		.cfi_endproc
 149              	.LFE1:
 150              		.size	PWM_1_Enable, .-PWM_1_Enable
 151              		.section	.text.PWM_1_Start,"ax",%progbits
 152              		.align	2
 153              		.global	PWM_1_Start
 154              		.code	16
 155              		.thumb_func
 156              		.type	PWM_1_Start, %function
 157              	PWM_1_Start:
 158              	.LFB2:
 204:Generated_Source\PSoC4/PWM_1.c **** 
 205:Generated_Source\PSoC4/PWM_1.c **** 
 206:Generated_Source\PSoC4/PWM_1.c **** /*******************************************************************************
 207:Generated_Source\PSoC4/PWM_1.c **** * Function Name: PWM_1_Start
 208:Generated_Source\PSoC4/PWM_1.c **** ********************************************************************************
 209:Generated_Source\PSoC4/PWM_1.c **** *
 210:Generated_Source\PSoC4/PWM_1.c **** * Summary:
 211:Generated_Source\PSoC4/PWM_1.c **** *  Initializes the PWM_1 with default customizer
 212:Generated_Source\PSoC4/PWM_1.c **** *  values when called the first time and enables the PWM_1.
 213:Generated_Source\PSoC4/PWM_1.c **** *  For subsequent calls the configuration is left unchanged and the component is
 214:Generated_Source\PSoC4/PWM_1.c **** *  just enabled.
 215:Generated_Source\PSoC4/PWM_1.c **** *
 216:Generated_Source\PSoC4/PWM_1.c **** * Parameters:
 217:Generated_Source\PSoC4/PWM_1.c **** *  None
 218:Generated_Source\PSoC4/PWM_1.c **** *
 219:Generated_Source\PSoC4/PWM_1.c **** * Return:
 220:Generated_Source\PSoC4/PWM_1.c **** *  None
 221:Generated_Source\PSoC4/PWM_1.c **** *
 222:Generated_Source\PSoC4/PWM_1.c **** * Global variables:
 223:Generated_Source\PSoC4/PWM_1.c **** *  PWM_1_initVar: global variable is used to indicate initial
 224:Generated_Source\PSoC4/PWM_1.c **** *  configuration of this component.  The variable is initialized to zero and set
 225:Generated_Source\PSoC4/PWM_1.c **** *  to 1 the first time PWM_1_Start() is called. This allows
 226:Generated_Source\PSoC4/PWM_1.c **** *  enabling/disabling a component without re-initialization in all subsequent
 227:Generated_Source\PSoC4/PWM_1.c **** *  calls to the PWM_1_Start() routine.
 228:Generated_Source\PSoC4/PWM_1.c **** *
 229:Generated_Source\PSoC4/PWM_1.c **** *******************************************************************************/
 230:Generated_Source\PSoC4/PWM_1.c **** void PWM_1_Start(void)
 231:Generated_Source\PSoC4/PWM_1.c **** {
 159              		.loc 1 231 0
 160              		.cfi_startproc
 161              		@ args = 0, pretend = 0, frame = 0
 162              		@ frame_needed = 1, uses_anonymous_args = 0
 163 0000 80B5     		push	{r7, lr}
 164              		.cfi_def_cfa_offset 8
 165              		.cfi_offset 7, -8
 166              		.cfi_offset 14, -4
 167 0002 00AF     		add	r7, sp, #0
 168              		.cfi_def_cfa_register 7
ARM GAS  C:\Users\ASUS\AppData\Local\Temp\ccPv8D3q.s 			page 8


 232:Generated_Source\PSoC4/PWM_1.c ****     if (0u == PWM_1_initVar)
 169              		.loc 1 232 0
 170 0004 064B     		ldr	r3, .L9
 171 0006 1B78     		ldrb	r3, [r3]
 172 0008 002B     		cmp	r3, #0
 173 000a 04D1     		bne	.L8
 233:Generated_Source\PSoC4/PWM_1.c ****     {
 234:Generated_Source\PSoC4/PWM_1.c ****         PWM_1_Init();
 174              		.loc 1 234 0
 175 000c FFF7FEFF 		bl	PWM_1_Init
 235:Generated_Source\PSoC4/PWM_1.c ****         PWM_1_initVar = 1u;
 176              		.loc 1 235 0
 177 0010 034B     		ldr	r3, .L9
 178 0012 0122     		movs	r2, #1
 179 0014 1A70     		strb	r2, [r3]
 180              	.L8:
 236:Generated_Source\PSoC4/PWM_1.c ****     }
 237:Generated_Source\PSoC4/PWM_1.c **** 
 238:Generated_Source\PSoC4/PWM_1.c ****     PWM_1_Enable();
 181              		.loc 1 238 0
 182 0016 FFF7FEFF 		bl	PWM_1_Enable
 239:Generated_Source\PSoC4/PWM_1.c **** }
 183              		.loc 1 239 0
 184 001a C046     		nop
 185 001c BD46     		mov	sp, r7
 186              		@ sp needed
 187 001e 80BD     		pop	{r7, pc}
 188              	.L10:
 189              		.align	2
 190              	.L9:
 191 0020 00000000 		.word	PWM_1_initVar
 192              		.cfi_endproc
 193              	.LFE2:
 194              		.size	PWM_1_Start, .-PWM_1_Start
 195              		.section	.text.PWM_1_Stop,"ax",%progbits
 196              		.align	2
 197              		.global	PWM_1_Stop
 198              		.code	16
 199              		.thumb_func
 200              		.type	PWM_1_Stop, %function
 201              	PWM_1_Stop:
 202              	.LFB3:
 240:Generated_Source\PSoC4/PWM_1.c **** 
 241:Generated_Source\PSoC4/PWM_1.c **** 
 242:Generated_Source\PSoC4/PWM_1.c **** /*******************************************************************************
 243:Generated_Source\PSoC4/PWM_1.c **** * Function Name: PWM_1_Stop
 244:Generated_Source\PSoC4/PWM_1.c **** ********************************************************************************
 245:Generated_Source\PSoC4/PWM_1.c **** *
 246:Generated_Source\PSoC4/PWM_1.c **** * Summary:
 247:Generated_Source\PSoC4/PWM_1.c **** *  Disables the PWM_1.
 248:Generated_Source\PSoC4/PWM_1.c **** *
 249:Generated_Source\PSoC4/PWM_1.c **** * Parameters:
 250:Generated_Source\PSoC4/PWM_1.c **** *  None
 251:Generated_Source\PSoC4/PWM_1.c **** *
 252:Generated_Source\PSoC4/PWM_1.c **** * Return:
 253:Generated_Source\PSoC4/PWM_1.c **** *  None
 254:Generated_Source\PSoC4/PWM_1.c **** *
ARM GAS  C:\Users\ASUS\AppData\Local\Temp\ccPv8D3q.s 			page 9


 255:Generated_Source\PSoC4/PWM_1.c **** *******************************************************************************/
 256:Generated_Source\PSoC4/PWM_1.c **** void PWM_1_Stop(void)
 257:Generated_Source\PSoC4/PWM_1.c **** {
 203              		.loc 1 257 0
 204              		.cfi_startproc
 205              		@ args = 0, pretend = 0, frame = 8
 206              		@ frame_needed = 1, uses_anonymous_args = 0
 207 0000 90B5     		push	{r4, r7, lr}
 208              		.cfi_def_cfa_offset 12
 209              		.cfi_offset 4, -12
 210              		.cfi_offset 7, -8
 211              		.cfi_offset 14, -4
 212 0002 83B0     		sub	sp, sp, #12
 213              		.cfi_def_cfa_offset 24
 214 0004 00AF     		add	r7, sp, #0
 215              		.cfi_def_cfa_register 7
 258:Generated_Source\PSoC4/PWM_1.c ****     uint8 enableInterrupts;
 259:Generated_Source\PSoC4/PWM_1.c **** 
 260:Generated_Source\PSoC4/PWM_1.c ****     enableInterrupts = CyEnterCriticalSection();
 216              		.loc 1 260 0
 217 0006 FC1D     		adds	r4, r7, #7
 218 0008 FFF7FEFF 		bl	CyEnterCriticalSection
 219 000c 0300     		movs	r3, r0
 220 000e 2370     		strb	r3, [r4]
 261:Generated_Source\PSoC4/PWM_1.c **** 
 262:Generated_Source\PSoC4/PWM_1.c ****     PWM_1_BLOCK_CONTROL_REG &= (uint32)~PWM_1_MASK;
 221              		.loc 1 262 0
 222 0010 074B     		ldr	r3, .L12
 223 0012 074A     		ldr	r2, .L12
 224 0014 1268     		ldr	r2, [r2]
 225 0016 0121     		movs	r1, #1
 226 0018 8A43     		bics	r2, r1
 227 001a 1A60     		str	r2, [r3]
 263:Generated_Source\PSoC4/PWM_1.c **** 
 264:Generated_Source\PSoC4/PWM_1.c ****     CyExitCriticalSection(enableInterrupts);
 228              		.loc 1 264 0
 229 001c FB1D     		adds	r3, r7, #7
 230 001e 1B78     		ldrb	r3, [r3]
 231 0020 1800     		movs	r0, r3
 232 0022 FFF7FEFF 		bl	CyExitCriticalSection
 265:Generated_Source\PSoC4/PWM_1.c **** }
 233              		.loc 1 265 0
 234 0026 C046     		nop
 235 0028 BD46     		mov	sp, r7
 236 002a 03B0     		add	sp, sp, #12
 237              		@ sp needed
 238 002c 90BD     		pop	{r4, r7, pc}
 239              	.L13:
 240 002e C046     		.align	2
 241              	.L12:
 242 0030 00000540 		.word	1074069504
 243              		.cfi_endproc
 244              	.LFE3:
 245              		.size	PWM_1_Stop, .-PWM_1_Stop
 246              		.section	.text.PWM_1_SetMode,"ax",%progbits
 247              		.align	2
 248              		.global	PWM_1_SetMode
ARM GAS  C:\Users\ASUS\AppData\Local\Temp\ccPv8D3q.s 			page 10


 249              		.code	16
 250              		.thumb_func
 251              		.type	PWM_1_SetMode, %function
 252              	PWM_1_SetMode:
 253              	.LFB4:
 266:Generated_Source\PSoC4/PWM_1.c **** 
 267:Generated_Source\PSoC4/PWM_1.c **** 
 268:Generated_Source\PSoC4/PWM_1.c **** /*******************************************************************************
 269:Generated_Source\PSoC4/PWM_1.c **** * Function Name: PWM_1_SetMode
 270:Generated_Source\PSoC4/PWM_1.c **** ********************************************************************************
 271:Generated_Source\PSoC4/PWM_1.c **** *
 272:Generated_Source\PSoC4/PWM_1.c **** * Summary:
 273:Generated_Source\PSoC4/PWM_1.c **** *  Sets the operation mode of the PWM_1. This function is used when
 274:Generated_Source\PSoC4/PWM_1.c **** *  configured as a generic PWM_1 and the actual mode of operation is
 275:Generated_Source\PSoC4/PWM_1.c **** *  set at runtime. The mode must be set while the component is disabled.
 276:Generated_Source\PSoC4/PWM_1.c **** *
 277:Generated_Source\PSoC4/PWM_1.c **** * Parameters:
 278:Generated_Source\PSoC4/PWM_1.c **** *  mode: Mode for the PWM_1 to operate in
 279:Generated_Source\PSoC4/PWM_1.c **** *   Values:
 280:Generated_Source\PSoC4/PWM_1.c **** *   - PWM_1_MODE_TIMER_COMPARE - Timer / Counter with
 281:Generated_Source\PSoC4/PWM_1.c **** *                                                 compare capability
 282:Generated_Source\PSoC4/PWM_1.c **** *         - PWM_1_MODE_TIMER_CAPTURE - Timer / Counter with
 283:Generated_Source\PSoC4/PWM_1.c **** *                                                 capture capability
 284:Generated_Source\PSoC4/PWM_1.c **** *         - PWM_1_MODE_QUAD - Quadrature decoder
 285:Generated_Source\PSoC4/PWM_1.c **** *         - PWM_1_MODE_PWM - PWM
 286:Generated_Source\PSoC4/PWM_1.c **** *         - PWM_1_MODE_PWM_DT - PWM with dead time
 287:Generated_Source\PSoC4/PWM_1.c **** *         - PWM_1_MODE_PWM_PR - PWM with pseudo random capability
 288:Generated_Source\PSoC4/PWM_1.c **** *
 289:Generated_Source\PSoC4/PWM_1.c **** * Return:
 290:Generated_Source\PSoC4/PWM_1.c **** *  None
 291:Generated_Source\PSoC4/PWM_1.c **** *
 292:Generated_Source\PSoC4/PWM_1.c **** *******************************************************************************/
 293:Generated_Source\PSoC4/PWM_1.c **** void PWM_1_SetMode(uint32 mode)
 294:Generated_Source\PSoC4/PWM_1.c **** {
 254              		.loc 1 294 0
 255              		.cfi_startproc
 256              		@ args = 0, pretend = 0, frame = 16
 257              		@ frame_needed = 1, uses_anonymous_args = 0
 258 0000 90B5     		push	{r4, r7, lr}
 259              		.cfi_def_cfa_offset 12
 260              		.cfi_offset 4, -12
 261              		.cfi_offset 7, -8
 262              		.cfi_offset 14, -4
 263 0002 85B0     		sub	sp, sp, #20
 264              		.cfi_def_cfa_offset 32
 265 0004 00AF     		add	r7, sp, #0
 266              		.cfi_def_cfa_register 7
 267 0006 7860     		str	r0, [r7, #4]
 295:Generated_Source\PSoC4/PWM_1.c ****     uint8 enableInterrupts;
 296:Generated_Source\PSoC4/PWM_1.c **** 
 297:Generated_Source\PSoC4/PWM_1.c ****     enableInterrupts = CyEnterCriticalSection();
 268              		.loc 1 297 0
 269 0008 0F23     		movs	r3, #15
 270 000a FC18     		adds	r4, r7, r3
 271 000c FFF7FEFF 		bl	CyEnterCriticalSection
 272 0010 0300     		movs	r3, r0
 273 0012 2370     		strb	r3, [r4]
ARM GAS  C:\Users\ASUS\AppData\Local\Temp\ccPv8D3q.s 			page 11


 298:Generated_Source\PSoC4/PWM_1.c **** 
 299:Generated_Source\PSoC4/PWM_1.c ****     PWM_1_CONTROL_REG &= (uint32)~PWM_1_MODE_MASK;
 274              		.loc 1 299 0
 275 0014 0A4B     		ldr	r3, .L15
 276 0016 0A4A     		ldr	r2, .L15
 277 0018 1268     		ldr	r2, [r2]
 278 001a 0A49     		ldr	r1, .L15+4
 279 001c 0A40     		ands	r2, r1
 280 001e 1A60     		str	r2, [r3]
 300:Generated_Source\PSoC4/PWM_1.c ****     PWM_1_CONTROL_REG |= mode;
 281              		.loc 1 300 0
 282 0020 074B     		ldr	r3, .L15
 283 0022 074A     		ldr	r2, .L15
 284 0024 1168     		ldr	r1, [r2]
 285 0026 7A68     		ldr	r2, [r7, #4]
 286 0028 0A43     		orrs	r2, r1
 287 002a 1A60     		str	r2, [r3]
 301:Generated_Source\PSoC4/PWM_1.c **** 
 302:Generated_Source\PSoC4/PWM_1.c ****     CyExitCriticalSection(enableInterrupts);
 288              		.loc 1 302 0
 289 002c 0F23     		movs	r3, #15
 290 002e FB18     		adds	r3, r7, r3
 291 0030 1B78     		ldrb	r3, [r3]
 292 0032 1800     		movs	r0, r3
 293 0034 FFF7FEFF 		bl	CyExitCriticalSection
 303:Generated_Source\PSoC4/PWM_1.c **** }
 294              		.loc 1 303 0
 295 0038 C046     		nop
 296 003a BD46     		mov	sp, r7
 297 003c 05B0     		add	sp, sp, #20
 298              		@ sp needed
 299 003e 90BD     		pop	{r4, r7, pc}
 300              	.L16:
 301              		.align	2
 302              	.L15:
 303 0040 00010540 		.word	1074069760
 304 0044 FFFFFFF8 		.word	-117440513
 305              		.cfi_endproc
 306              	.LFE4:
 307              		.size	PWM_1_SetMode, .-PWM_1_SetMode
 308              		.section	.text.PWM_1_SetQDMode,"ax",%progbits
 309              		.align	2
 310              		.global	PWM_1_SetQDMode
 311              		.code	16
 312              		.thumb_func
 313              		.type	PWM_1_SetQDMode, %function
 314              	PWM_1_SetQDMode:
 315              	.LFB5:
 304:Generated_Source\PSoC4/PWM_1.c **** 
 305:Generated_Source\PSoC4/PWM_1.c **** 
 306:Generated_Source\PSoC4/PWM_1.c **** /*******************************************************************************
 307:Generated_Source\PSoC4/PWM_1.c **** * Function Name: PWM_1_SetQDMode
 308:Generated_Source\PSoC4/PWM_1.c **** ********************************************************************************
 309:Generated_Source\PSoC4/PWM_1.c **** *
 310:Generated_Source\PSoC4/PWM_1.c **** * Summary:
 311:Generated_Source\PSoC4/PWM_1.c **** *  Sets the the Quadrature Decoder to one of the 3 supported modes.
 312:Generated_Source\PSoC4/PWM_1.c **** *  Its functionality is only applicable to Quadrature Decoder operation.
ARM GAS  C:\Users\ASUS\AppData\Local\Temp\ccPv8D3q.s 			page 12


 313:Generated_Source\PSoC4/PWM_1.c **** *
 314:Generated_Source\PSoC4/PWM_1.c **** * Parameters:
 315:Generated_Source\PSoC4/PWM_1.c **** *  qdMode: Quadrature Decoder mode
 316:Generated_Source\PSoC4/PWM_1.c **** *   Values:
 317:Generated_Source\PSoC4/PWM_1.c **** *         - PWM_1_MODE_X1 - Counts on phi 1 rising
 318:Generated_Source\PSoC4/PWM_1.c **** *         - PWM_1_MODE_X2 - Counts on both edges of phi1 (2x faster)
 319:Generated_Source\PSoC4/PWM_1.c **** *         - PWM_1_MODE_X4 - Counts on both edges of phi1 and phi2
 320:Generated_Source\PSoC4/PWM_1.c **** *                                        (4x faster)
 321:Generated_Source\PSoC4/PWM_1.c **** *
 322:Generated_Source\PSoC4/PWM_1.c **** * Return:
 323:Generated_Source\PSoC4/PWM_1.c **** *  None
 324:Generated_Source\PSoC4/PWM_1.c **** *
 325:Generated_Source\PSoC4/PWM_1.c **** *******************************************************************************/
 326:Generated_Source\PSoC4/PWM_1.c **** void PWM_1_SetQDMode(uint32 qdMode)
 327:Generated_Source\PSoC4/PWM_1.c **** {
 316              		.loc 1 327 0
 317              		.cfi_startproc
 318              		@ args = 0, pretend = 0, frame = 16
 319              		@ frame_needed = 1, uses_anonymous_args = 0
 320 0000 90B5     		push	{r4, r7, lr}
 321              		.cfi_def_cfa_offset 12
 322              		.cfi_offset 4, -12
 323              		.cfi_offset 7, -8
 324              		.cfi_offset 14, -4
 325 0002 85B0     		sub	sp, sp, #20
 326              		.cfi_def_cfa_offset 32
 327 0004 00AF     		add	r7, sp, #0
 328              		.cfi_def_cfa_register 7
 329 0006 7860     		str	r0, [r7, #4]
 328:Generated_Source\PSoC4/PWM_1.c ****     uint8 enableInterrupts;
 329:Generated_Source\PSoC4/PWM_1.c **** 
 330:Generated_Source\PSoC4/PWM_1.c ****     enableInterrupts = CyEnterCriticalSection();
 330              		.loc 1 330 0
 331 0008 0F23     		movs	r3, #15
 332 000a FC18     		adds	r4, r7, r3
 333 000c FFF7FEFF 		bl	CyEnterCriticalSection
 334 0010 0300     		movs	r3, r0
 335 0012 2370     		strb	r3, [r4]
 331:Generated_Source\PSoC4/PWM_1.c **** 
 332:Generated_Source\PSoC4/PWM_1.c ****     PWM_1_CONTROL_REG &= (uint32)~PWM_1_QUAD_MODE_MASK;
 336              		.loc 1 332 0
 337 0014 0A4B     		ldr	r3, .L18
 338 0016 0A4A     		ldr	r2, .L18
 339 0018 1268     		ldr	r2, [r2]
 340 001a 0A49     		ldr	r1, .L18+4
 341 001c 0A40     		ands	r2, r1
 342 001e 1A60     		str	r2, [r3]
 333:Generated_Source\PSoC4/PWM_1.c ****     PWM_1_CONTROL_REG |= qdMode;
 343              		.loc 1 333 0
 344 0020 074B     		ldr	r3, .L18
 345 0022 074A     		ldr	r2, .L18
 346 0024 1168     		ldr	r1, [r2]
 347 0026 7A68     		ldr	r2, [r7, #4]
 348 0028 0A43     		orrs	r2, r1
 349 002a 1A60     		str	r2, [r3]
 334:Generated_Source\PSoC4/PWM_1.c **** 
 335:Generated_Source\PSoC4/PWM_1.c ****     CyExitCriticalSection(enableInterrupts);
ARM GAS  C:\Users\ASUS\AppData\Local\Temp\ccPv8D3q.s 			page 13


 350              		.loc 1 335 0
 351 002c 0F23     		movs	r3, #15
 352 002e FB18     		adds	r3, r7, r3
 353 0030 1B78     		ldrb	r3, [r3]
 354 0032 1800     		movs	r0, r3
 355 0034 FFF7FEFF 		bl	CyExitCriticalSection
 336:Generated_Source\PSoC4/PWM_1.c **** }
 356              		.loc 1 336 0
 357 0038 C046     		nop
 358 003a BD46     		mov	sp, r7
 359 003c 05B0     		add	sp, sp, #20
 360              		@ sp needed
 361 003e 90BD     		pop	{r4, r7, pc}
 362              	.L19:
 363              		.align	2
 364              	.L18:
 365 0040 00010540 		.word	1074069760
 366 0044 FFFF8FFF 		.word	-7340033
 367              		.cfi_endproc
 368              	.LFE5:
 369              		.size	PWM_1_SetQDMode, .-PWM_1_SetQDMode
 370              		.section	.text.PWM_1_SetPrescaler,"ax",%progbits
 371              		.align	2
 372              		.global	PWM_1_SetPrescaler
 373              		.code	16
 374              		.thumb_func
 375              		.type	PWM_1_SetPrescaler, %function
 376              	PWM_1_SetPrescaler:
 377              	.LFB6:
 337:Generated_Source\PSoC4/PWM_1.c **** 
 338:Generated_Source\PSoC4/PWM_1.c **** 
 339:Generated_Source\PSoC4/PWM_1.c **** /*******************************************************************************
 340:Generated_Source\PSoC4/PWM_1.c **** * Function Name: PWM_1_SetPrescaler
 341:Generated_Source\PSoC4/PWM_1.c **** ********************************************************************************
 342:Generated_Source\PSoC4/PWM_1.c **** *
 343:Generated_Source\PSoC4/PWM_1.c **** * Summary:
 344:Generated_Source\PSoC4/PWM_1.c **** *  Sets the prescaler value that is applied to the clock input.  Not applicable
 345:Generated_Source\PSoC4/PWM_1.c **** *  to a PWM with the dead time mode or Quadrature Decoder mode.
 346:Generated_Source\PSoC4/PWM_1.c **** *
 347:Generated_Source\PSoC4/PWM_1.c **** * Parameters:
 348:Generated_Source\PSoC4/PWM_1.c **** *  prescaler: Prescaler divider value
 349:Generated_Source\PSoC4/PWM_1.c **** *   Values:
 350:Generated_Source\PSoC4/PWM_1.c **** *         - PWM_1_PRESCALE_DIVBY1    - Divide by 1 (no prescaling)
 351:Generated_Source\PSoC4/PWM_1.c **** *         - PWM_1_PRESCALE_DIVBY2    - Divide by 2
 352:Generated_Source\PSoC4/PWM_1.c **** *         - PWM_1_PRESCALE_DIVBY4    - Divide by 4
 353:Generated_Source\PSoC4/PWM_1.c **** *         - PWM_1_PRESCALE_DIVBY8    - Divide by 8
 354:Generated_Source\PSoC4/PWM_1.c **** *         - PWM_1_PRESCALE_DIVBY16   - Divide by 16
 355:Generated_Source\PSoC4/PWM_1.c **** *         - PWM_1_PRESCALE_DIVBY32   - Divide by 32
 356:Generated_Source\PSoC4/PWM_1.c **** *         - PWM_1_PRESCALE_DIVBY64   - Divide by 64
 357:Generated_Source\PSoC4/PWM_1.c **** *         - PWM_1_PRESCALE_DIVBY128  - Divide by 128
 358:Generated_Source\PSoC4/PWM_1.c **** *
 359:Generated_Source\PSoC4/PWM_1.c **** * Return:
 360:Generated_Source\PSoC4/PWM_1.c **** *  None
 361:Generated_Source\PSoC4/PWM_1.c **** *
 362:Generated_Source\PSoC4/PWM_1.c **** *******************************************************************************/
 363:Generated_Source\PSoC4/PWM_1.c **** void PWM_1_SetPrescaler(uint32 prescaler)
 364:Generated_Source\PSoC4/PWM_1.c **** {
ARM GAS  C:\Users\ASUS\AppData\Local\Temp\ccPv8D3q.s 			page 14


 378              		.loc 1 364 0
 379              		.cfi_startproc
 380              		@ args = 0, pretend = 0, frame = 16
 381              		@ frame_needed = 1, uses_anonymous_args = 0
 382 0000 90B5     		push	{r4, r7, lr}
 383              		.cfi_def_cfa_offset 12
 384              		.cfi_offset 4, -12
 385              		.cfi_offset 7, -8
 386              		.cfi_offset 14, -4
 387 0002 85B0     		sub	sp, sp, #20
 388              		.cfi_def_cfa_offset 32
 389 0004 00AF     		add	r7, sp, #0
 390              		.cfi_def_cfa_register 7
 391 0006 7860     		str	r0, [r7, #4]
 365:Generated_Source\PSoC4/PWM_1.c ****     uint8 enableInterrupts;
 366:Generated_Source\PSoC4/PWM_1.c **** 
 367:Generated_Source\PSoC4/PWM_1.c ****     enableInterrupts = CyEnterCriticalSection();
 392              		.loc 1 367 0
 393 0008 0F23     		movs	r3, #15
 394 000a FC18     		adds	r4, r7, r3
 395 000c FFF7FEFF 		bl	CyEnterCriticalSection
 396 0010 0300     		movs	r3, r0
 397 0012 2370     		strb	r3, [r4]
 368:Generated_Source\PSoC4/PWM_1.c **** 
 369:Generated_Source\PSoC4/PWM_1.c ****     PWM_1_CONTROL_REG &= (uint32)~PWM_1_PRESCALER_MASK;
 398              		.loc 1 369 0
 399 0014 0A4B     		ldr	r3, .L21
 400 0016 0A4A     		ldr	r2, .L21
 401 0018 1268     		ldr	r2, [r2]
 402 001a 0A49     		ldr	r1, .L21+4
 403 001c 0A40     		ands	r2, r1
 404 001e 1A60     		str	r2, [r3]
 370:Generated_Source\PSoC4/PWM_1.c ****     PWM_1_CONTROL_REG |= prescaler;
 405              		.loc 1 370 0
 406 0020 074B     		ldr	r3, .L21
 407 0022 074A     		ldr	r2, .L21
 408 0024 1168     		ldr	r1, [r2]
 409 0026 7A68     		ldr	r2, [r7, #4]
 410 0028 0A43     		orrs	r2, r1
 411 002a 1A60     		str	r2, [r3]
 371:Generated_Source\PSoC4/PWM_1.c **** 
 372:Generated_Source\PSoC4/PWM_1.c ****     CyExitCriticalSection(enableInterrupts);
 412              		.loc 1 372 0
 413 002c 0F23     		movs	r3, #15
 414 002e FB18     		adds	r3, r7, r3
 415 0030 1B78     		ldrb	r3, [r3]
 416 0032 1800     		movs	r0, r3
 417 0034 FFF7FEFF 		bl	CyExitCriticalSection
 373:Generated_Source\PSoC4/PWM_1.c **** }
 418              		.loc 1 373 0
 419 0038 C046     		nop
 420 003a BD46     		mov	sp, r7
 421 003c 05B0     		add	sp, sp, #20
 422              		@ sp needed
 423 003e 90BD     		pop	{r4, r7, pc}
 424              	.L22:
 425              		.align	2
ARM GAS  C:\Users\ASUS\AppData\Local\Temp\ccPv8D3q.s 			page 15


 426              	.L21:
 427 0040 00010540 		.word	1074069760
 428 0044 FF00FFFF 		.word	-65281
 429              		.cfi_endproc
 430              	.LFE6:
 431              		.size	PWM_1_SetPrescaler, .-PWM_1_SetPrescaler
 432              		.section	.text.PWM_1_SetOneShot,"ax",%progbits
 433              		.align	2
 434              		.global	PWM_1_SetOneShot
 435              		.code	16
 436              		.thumb_func
 437              		.type	PWM_1_SetOneShot, %function
 438              	PWM_1_SetOneShot:
 439              	.LFB7:
 374:Generated_Source\PSoC4/PWM_1.c **** 
 375:Generated_Source\PSoC4/PWM_1.c **** 
 376:Generated_Source\PSoC4/PWM_1.c **** /*******************************************************************************
 377:Generated_Source\PSoC4/PWM_1.c **** * Function Name: PWM_1_SetOneShot
 378:Generated_Source\PSoC4/PWM_1.c **** ********************************************************************************
 379:Generated_Source\PSoC4/PWM_1.c **** *
 380:Generated_Source\PSoC4/PWM_1.c **** * Summary:
 381:Generated_Source\PSoC4/PWM_1.c **** *  Writes the register that controls whether the PWM_1 runs
 382:Generated_Source\PSoC4/PWM_1.c **** *  continuously or stops when terminal count is reached.  By default the
 383:Generated_Source\PSoC4/PWM_1.c **** *  PWM_1 operates in the continuous mode.
 384:Generated_Source\PSoC4/PWM_1.c **** *
 385:Generated_Source\PSoC4/PWM_1.c **** * Parameters:
 386:Generated_Source\PSoC4/PWM_1.c **** *  oneShotEnable
 387:Generated_Source\PSoC4/PWM_1.c **** *   Values:
 388:Generated_Source\PSoC4/PWM_1.c **** *     - 0 - Continuous
 389:Generated_Source\PSoC4/PWM_1.c **** *     - 1 - Enable One Shot
 390:Generated_Source\PSoC4/PWM_1.c **** *
 391:Generated_Source\PSoC4/PWM_1.c **** * Return:
 392:Generated_Source\PSoC4/PWM_1.c **** *  None
 393:Generated_Source\PSoC4/PWM_1.c **** *
 394:Generated_Source\PSoC4/PWM_1.c **** *******************************************************************************/
 395:Generated_Source\PSoC4/PWM_1.c **** void PWM_1_SetOneShot(uint32 oneShotEnable)
 396:Generated_Source\PSoC4/PWM_1.c **** {
 440              		.loc 1 396 0
 441              		.cfi_startproc
 442              		@ args = 0, pretend = 0, frame = 16
 443              		@ frame_needed = 1, uses_anonymous_args = 0
 444 0000 90B5     		push	{r4, r7, lr}
 445              		.cfi_def_cfa_offset 12
 446              		.cfi_offset 4, -12
 447              		.cfi_offset 7, -8
 448              		.cfi_offset 14, -4
 449 0002 85B0     		sub	sp, sp, #20
 450              		.cfi_def_cfa_offset 32
 451 0004 00AF     		add	r7, sp, #0
 452              		.cfi_def_cfa_register 7
 453 0006 7860     		str	r0, [r7, #4]
 397:Generated_Source\PSoC4/PWM_1.c ****     uint8 enableInterrupts;
 398:Generated_Source\PSoC4/PWM_1.c **** 
 399:Generated_Source\PSoC4/PWM_1.c ****     enableInterrupts = CyEnterCriticalSection();
 454              		.loc 1 399 0
 455 0008 0F23     		movs	r3, #15
 456 000a FC18     		adds	r4, r7, r3
ARM GAS  C:\Users\ASUS\AppData\Local\Temp\ccPv8D3q.s 			page 16


 457 000c FFF7FEFF 		bl	CyEnterCriticalSection
 458 0010 0300     		movs	r3, r0
 459 0012 2370     		strb	r3, [r4]
 400:Generated_Source\PSoC4/PWM_1.c **** 
 401:Generated_Source\PSoC4/PWM_1.c ****     PWM_1_CONTROL_REG &= (uint32)~PWM_1_ONESHOT_MASK;
 460              		.loc 1 401 0
 461 0014 0C4B     		ldr	r3, .L24
 462 0016 0C4A     		ldr	r2, .L24
 463 0018 1268     		ldr	r2, [r2]
 464 001a 0C49     		ldr	r1, .L24+4
 465 001c 0A40     		ands	r2, r1
 466 001e 1A60     		str	r2, [r3]
 402:Generated_Source\PSoC4/PWM_1.c ****     PWM_1_CONTROL_REG |= ((uint32)((oneShotEnable & PWM_1_1BIT_MASK) <<
 467              		.loc 1 402 0
 468 0020 094B     		ldr	r3, .L24
 469 0022 094A     		ldr	r2, .L24
 470 0024 1168     		ldr	r1, [r2]
 471 0026 7A68     		ldr	r2, [r7, #4]
 472 0028 9004     		lsls	r0, r2, #18
 473 002a 8022     		movs	r2, #128
 474 002c D202     		lsls	r2, r2, #11
 475 002e 0240     		ands	r2, r0
 476 0030 0A43     		orrs	r2, r1
 477 0032 1A60     		str	r2, [r3]
 403:Generated_Source\PSoC4/PWM_1.c ****                                                                PWM_1_ONESHOT_SHIFT));
 404:Generated_Source\PSoC4/PWM_1.c **** 
 405:Generated_Source\PSoC4/PWM_1.c ****     CyExitCriticalSection(enableInterrupts);
 478              		.loc 1 405 0
 479 0034 0F23     		movs	r3, #15
 480 0036 FB18     		adds	r3, r7, r3
 481 0038 1B78     		ldrb	r3, [r3]
 482 003a 1800     		movs	r0, r3
 483 003c FFF7FEFF 		bl	CyExitCriticalSection
 406:Generated_Source\PSoC4/PWM_1.c **** }
 484              		.loc 1 406 0
 485 0040 C046     		nop
 486 0042 BD46     		mov	sp, r7
 487 0044 05B0     		add	sp, sp, #20
 488              		@ sp needed
 489 0046 90BD     		pop	{r4, r7, pc}
 490              	.L25:
 491              		.align	2
 492              	.L24:
 493 0048 00010540 		.word	1074069760
 494 004c FFFFFBFF 		.word	-262145
 495              		.cfi_endproc
 496              	.LFE7:
 497              		.size	PWM_1_SetOneShot, .-PWM_1_SetOneShot
 498              		.section	.text.PWM_1_SetPWMMode,"ax",%progbits
 499              		.align	2
 500              		.global	PWM_1_SetPWMMode
 501              		.code	16
 502              		.thumb_func
 503              		.type	PWM_1_SetPWMMode, %function
 504              	PWM_1_SetPWMMode:
 505              	.LFB8:
 407:Generated_Source\PSoC4/PWM_1.c **** 
ARM GAS  C:\Users\ASUS\AppData\Local\Temp\ccPv8D3q.s 			page 17


 408:Generated_Source\PSoC4/PWM_1.c **** 
 409:Generated_Source\PSoC4/PWM_1.c **** /*******************************************************************************
 410:Generated_Source\PSoC4/PWM_1.c **** * Function Name: PWM_1_SetPWMMode
 411:Generated_Source\PSoC4/PWM_1.c **** ********************************************************************************
 412:Generated_Source\PSoC4/PWM_1.c **** *
 413:Generated_Source\PSoC4/PWM_1.c **** * Summary:
 414:Generated_Source\PSoC4/PWM_1.c **** *  Writes the control register that determines what mode of operation the PWM
 415:Generated_Source\PSoC4/PWM_1.c **** *  output lines are driven in.  There is a setting for what to do on a
 416:Generated_Source\PSoC4/PWM_1.c **** *  comparison match (CC_MATCH), on an overflow (OVERFLOW) and on an underflow
 417:Generated_Source\PSoC4/PWM_1.c **** *  (UNDERFLOW).  The value for each of the three must be ORed together to form
 418:Generated_Source\PSoC4/PWM_1.c **** *  the mode.
 419:Generated_Source\PSoC4/PWM_1.c **** *
 420:Generated_Source\PSoC4/PWM_1.c **** * Parameters:
 421:Generated_Source\PSoC4/PWM_1.c **** *  modeMask: A combination of three mode settings.  Mask must include a value
 422:Generated_Source\PSoC4/PWM_1.c **** *  for each of the three or use one of the preconfigured PWM settings.
 423:Generated_Source\PSoC4/PWM_1.c **** *   Values:
 424:Generated_Source\PSoC4/PWM_1.c **** *     - CC_MATCH_SET        - Set on comparison match
 425:Generated_Source\PSoC4/PWM_1.c **** *     - CC_MATCH_CLEAR      - Clear on comparison match
 426:Generated_Source\PSoC4/PWM_1.c **** *     - CC_MATCH_INVERT     - Invert on comparison match
 427:Generated_Source\PSoC4/PWM_1.c **** *     - CC_MATCH_NO_CHANGE  - No change on comparison match
 428:Generated_Source\PSoC4/PWM_1.c **** *     - OVERLOW_SET         - Set on overflow
 429:Generated_Source\PSoC4/PWM_1.c **** *     - OVERLOW_CLEAR       - Clear on  overflow
 430:Generated_Source\PSoC4/PWM_1.c **** *     - OVERLOW_INVERT      - Invert on overflow
 431:Generated_Source\PSoC4/PWM_1.c **** *     - OVERLOW_NO_CHANGE   - No change on overflow
 432:Generated_Source\PSoC4/PWM_1.c **** *     - UNDERFLOW_SET       - Set on underflow
 433:Generated_Source\PSoC4/PWM_1.c **** *     - UNDERFLOW_CLEAR     - Clear on underflow
 434:Generated_Source\PSoC4/PWM_1.c **** *     - UNDERFLOW_INVERT    - Invert on underflow
 435:Generated_Source\PSoC4/PWM_1.c **** *     - UNDERFLOW_NO_CHANGE - No change on underflow
 436:Generated_Source\PSoC4/PWM_1.c **** *     - PWM_MODE_LEFT       - Setting for left aligned PWM.  Should be combined
 437:Generated_Source\PSoC4/PWM_1.c **** *                             with up counting mode
 438:Generated_Source\PSoC4/PWM_1.c **** *     - PWM_MODE_RIGHT      - Setting for right aligned PWM.  Should be combined
 439:Generated_Source\PSoC4/PWM_1.c **** *                             with down counting mode
 440:Generated_Source\PSoC4/PWM_1.c **** *     - PWM_MODE_CENTER     - Setting for center aligned PWM.  Should be
 441:Generated_Source\PSoC4/PWM_1.c **** *                             combined with up/down 0 mode
 442:Generated_Source\PSoC4/PWM_1.c **** *     - PWM_MODE_ASYM       - Setting for asymmetric PWM.  Should be combined
 443:Generated_Source\PSoC4/PWM_1.c **** *                             with up/down 1 mode
 444:Generated_Source\PSoC4/PWM_1.c **** *
 445:Generated_Source\PSoC4/PWM_1.c **** * Return:
 446:Generated_Source\PSoC4/PWM_1.c **** *  None
 447:Generated_Source\PSoC4/PWM_1.c **** *
 448:Generated_Source\PSoC4/PWM_1.c **** *******************************************************************************/
 449:Generated_Source\PSoC4/PWM_1.c **** void PWM_1_SetPWMMode(uint32 modeMask)
 450:Generated_Source\PSoC4/PWM_1.c **** {
 506              		.loc 1 450 0
 507              		.cfi_startproc
 508              		@ args = 0, pretend = 0, frame = 8
 509              		@ frame_needed = 1, uses_anonymous_args = 0
 510 0000 80B5     		push	{r7, lr}
 511              		.cfi_def_cfa_offset 8
 512              		.cfi_offset 7, -8
 513              		.cfi_offset 14, -4
 514 0002 82B0     		sub	sp, sp, #8
 515              		.cfi_def_cfa_offset 16
 516 0004 00AF     		add	r7, sp, #0
 517              		.cfi_def_cfa_register 7
 518 0006 7860     		str	r0, [r7, #4]
 451:Generated_Source\PSoC4/PWM_1.c ****     PWM_1_TRIG_CONTROL2_REG = (modeMask & PWM_1_6BIT_MASK);
ARM GAS  C:\Users\ASUS\AppData\Local\Temp\ccPv8D3q.s 			page 18


 519              		.loc 1 451 0
 520 0008 044B     		ldr	r3, .L27
 521 000a 7A68     		ldr	r2, [r7, #4]
 522 000c 3F21     		movs	r1, #63
 523 000e 0A40     		ands	r2, r1
 524 0010 1A60     		str	r2, [r3]
 452:Generated_Source\PSoC4/PWM_1.c **** }
 525              		.loc 1 452 0
 526 0012 C046     		nop
 527 0014 BD46     		mov	sp, r7
 528 0016 02B0     		add	sp, sp, #8
 529              		@ sp needed
 530 0018 80BD     		pop	{r7, pc}
 531              	.L28:
 532 001a C046     		.align	2
 533              	.L27:
 534 001c 28010540 		.word	1074069800
 535              		.cfi_endproc
 536              	.LFE8:
 537              		.size	PWM_1_SetPWMMode, .-PWM_1_SetPWMMode
 538              		.section	.text.PWM_1_SetPWMSyncKill,"ax",%progbits
 539              		.align	2
 540              		.global	PWM_1_SetPWMSyncKill
 541              		.code	16
 542              		.thumb_func
 543              		.type	PWM_1_SetPWMSyncKill, %function
 544              	PWM_1_SetPWMSyncKill:
 545              	.LFB9:
 453:Generated_Source\PSoC4/PWM_1.c **** 
 454:Generated_Source\PSoC4/PWM_1.c **** 
 455:Generated_Source\PSoC4/PWM_1.c **** 
 456:Generated_Source\PSoC4/PWM_1.c **** /*******************************************************************************
 457:Generated_Source\PSoC4/PWM_1.c **** * Function Name: PWM_1_SetPWMSyncKill
 458:Generated_Source\PSoC4/PWM_1.c **** ********************************************************************************
 459:Generated_Source\PSoC4/PWM_1.c **** *
 460:Generated_Source\PSoC4/PWM_1.c **** * Summary:
 461:Generated_Source\PSoC4/PWM_1.c **** *  Writes the register that controls whether the PWM kill signal (stop input)
 462:Generated_Source\PSoC4/PWM_1.c **** *  causes asynchronous or synchronous kill operation.  By default the kill
 463:Generated_Source\PSoC4/PWM_1.c **** *  operation is asynchronous.  This functionality is only applicable to the PWM
 464:Generated_Source\PSoC4/PWM_1.c **** *  and PWM with dead time modes.
 465:Generated_Source\PSoC4/PWM_1.c **** *
 466:Generated_Source\PSoC4/PWM_1.c **** *  For Synchronous mode the kill signal disables both the line and line_n
 467:Generated_Source\PSoC4/PWM_1.c **** *  signals until the next terminal count.
 468:Generated_Source\PSoC4/PWM_1.c **** *
 469:Generated_Source\PSoC4/PWM_1.c **** *  For Asynchronous mode the kill signal disables both the line and line_n
 470:Generated_Source\PSoC4/PWM_1.c **** *  signals when the kill signal is present.  This mode should only be used
 471:Generated_Source\PSoC4/PWM_1.c **** *  when the kill signal (stop input) is configured in the pass through mode
 472:Generated_Source\PSoC4/PWM_1.c **** *  (Level sensitive signal).
 473:Generated_Source\PSoC4/PWM_1.c **** 
 474:Generated_Source\PSoC4/PWM_1.c **** *
 475:Generated_Source\PSoC4/PWM_1.c **** * Parameters:
 476:Generated_Source\PSoC4/PWM_1.c **** *  syncKillEnable
 477:Generated_Source\PSoC4/PWM_1.c **** *   Values:
 478:Generated_Source\PSoC4/PWM_1.c **** *     - 0 - Asynchronous
 479:Generated_Source\PSoC4/PWM_1.c **** *     - 1 - Synchronous
 480:Generated_Source\PSoC4/PWM_1.c **** *
 481:Generated_Source\PSoC4/PWM_1.c **** * Return:
ARM GAS  C:\Users\ASUS\AppData\Local\Temp\ccPv8D3q.s 			page 19


 482:Generated_Source\PSoC4/PWM_1.c **** *  None
 483:Generated_Source\PSoC4/PWM_1.c **** *
 484:Generated_Source\PSoC4/PWM_1.c **** *******************************************************************************/
 485:Generated_Source\PSoC4/PWM_1.c **** void PWM_1_SetPWMSyncKill(uint32 syncKillEnable)
 486:Generated_Source\PSoC4/PWM_1.c **** {
 546              		.loc 1 486 0
 547              		.cfi_startproc
 548              		@ args = 0, pretend = 0, frame = 16
 549              		@ frame_needed = 1, uses_anonymous_args = 0
 550 0000 90B5     		push	{r4, r7, lr}
 551              		.cfi_def_cfa_offset 12
 552              		.cfi_offset 4, -12
 553              		.cfi_offset 7, -8
 554              		.cfi_offset 14, -4
 555 0002 85B0     		sub	sp, sp, #20
 556              		.cfi_def_cfa_offset 32
 557 0004 00AF     		add	r7, sp, #0
 558              		.cfi_def_cfa_register 7
 559 0006 7860     		str	r0, [r7, #4]
 487:Generated_Source\PSoC4/PWM_1.c ****     uint8 enableInterrupts;
 488:Generated_Source\PSoC4/PWM_1.c **** 
 489:Generated_Source\PSoC4/PWM_1.c ****     enableInterrupts = CyEnterCriticalSection();
 560              		.loc 1 489 0
 561 0008 0F23     		movs	r3, #15
 562 000a FC18     		adds	r4, r7, r3
 563 000c FFF7FEFF 		bl	CyEnterCriticalSection
 564 0010 0300     		movs	r3, r0
 565 0012 2370     		strb	r3, [r4]
 490:Generated_Source\PSoC4/PWM_1.c **** 
 491:Generated_Source\PSoC4/PWM_1.c ****     PWM_1_CONTROL_REG &= (uint32)~PWM_1_PWM_SYNC_KILL_MASK;
 566              		.loc 1 491 0
 567 0014 0C4B     		ldr	r3, .L30
 568 0016 0C4A     		ldr	r2, .L30
 569 0018 1268     		ldr	r2, [r2]
 570 001a 0421     		movs	r1, #4
 571 001c 8A43     		bics	r2, r1
 572 001e 1A60     		str	r2, [r3]
 492:Generated_Source\PSoC4/PWM_1.c ****     PWM_1_CONTROL_REG |= ((uint32)((syncKillEnable & PWM_1_1BIT_MASK)  <<
 573              		.loc 1 492 0
 574 0020 094B     		ldr	r3, .L30
 575 0022 094A     		ldr	r2, .L30
 576 0024 1168     		ldr	r1, [r2]
 577 0026 7A68     		ldr	r2, [r7, #4]
 578 0028 9200     		lsls	r2, r2, #2
 579 002a 0420     		movs	r0, #4
 580 002c 0240     		ands	r2, r0
 581 002e 0A43     		orrs	r2, r1
 582 0030 1A60     		str	r2, [r3]
 493:Generated_Source\PSoC4/PWM_1.c ****                                                PWM_1_PWM_SYNC_KILL_SHIFT));
 494:Generated_Source\PSoC4/PWM_1.c **** 
 495:Generated_Source\PSoC4/PWM_1.c ****     CyExitCriticalSection(enableInterrupts);
 583              		.loc 1 495 0
 584 0032 0F23     		movs	r3, #15
 585 0034 FB18     		adds	r3, r7, r3
 586 0036 1B78     		ldrb	r3, [r3]
 587 0038 1800     		movs	r0, r3
 588 003a FFF7FEFF 		bl	CyExitCriticalSection
ARM GAS  C:\Users\ASUS\AppData\Local\Temp\ccPv8D3q.s 			page 20


 496:Generated_Source\PSoC4/PWM_1.c **** }
 589              		.loc 1 496 0
 590 003e C046     		nop
 591 0040 BD46     		mov	sp, r7
 592 0042 05B0     		add	sp, sp, #20
 593              		@ sp needed
 594 0044 90BD     		pop	{r4, r7, pc}
 595              	.L31:
 596 0046 C046     		.align	2
 597              	.L30:
 598 0048 00010540 		.word	1074069760
 599              		.cfi_endproc
 600              	.LFE9:
 601              		.size	PWM_1_SetPWMSyncKill, .-PWM_1_SetPWMSyncKill
 602              		.section	.text.PWM_1_SetPWMStopOnKill,"ax",%progbits
 603              		.align	2
 604              		.global	PWM_1_SetPWMStopOnKill
 605              		.code	16
 606              		.thumb_func
 607              		.type	PWM_1_SetPWMStopOnKill, %function
 608              	PWM_1_SetPWMStopOnKill:
 609              	.LFB10:
 497:Generated_Source\PSoC4/PWM_1.c **** 
 498:Generated_Source\PSoC4/PWM_1.c **** 
 499:Generated_Source\PSoC4/PWM_1.c **** /*******************************************************************************
 500:Generated_Source\PSoC4/PWM_1.c **** * Function Name: PWM_1_SetPWMStopOnKill
 501:Generated_Source\PSoC4/PWM_1.c **** ********************************************************************************
 502:Generated_Source\PSoC4/PWM_1.c **** *
 503:Generated_Source\PSoC4/PWM_1.c **** * Summary:
 504:Generated_Source\PSoC4/PWM_1.c **** *  Writes the register that controls whether the PWM kill signal (stop input)
 505:Generated_Source\PSoC4/PWM_1.c **** *  causes the PWM counter to stop.  By default the kill operation does not stop
 506:Generated_Source\PSoC4/PWM_1.c **** *  the counter.  This functionality is only applicable to the three PWM modes.
 507:Generated_Source\PSoC4/PWM_1.c **** *
 508:Generated_Source\PSoC4/PWM_1.c **** *
 509:Generated_Source\PSoC4/PWM_1.c **** * Parameters:
 510:Generated_Source\PSoC4/PWM_1.c **** *  stopOnKillEnable
 511:Generated_Source\PSoC4/PWM_1.c **** *   Values:
 512:Generated_Source\PSoC4/PWM_1.c **** *     - 0 - Don't stop
 513:Generated_Source\PSoC4/PWM_1.c **** *     - 1 - Stop
 514:Generated_Source\PSoC4/PWM_1.c **** *
 515:Generated_Source\PSoC4/PWM_1.c **** * Return:
 516:Generated_Source\PSoC4/PWM_1.c **** *  None
 517:Generated_Source\PSoC4/PWM_1.c **** *
 518:Generated_Source\PSoC4/PWM_1.c **** *******************************************************************************/
 519:Generated_Source\PSoC4/PWM_1.c **** void PWM_1_SetPWMStopOnKill(uint32 stopOnKillEnable)
 520:Generated_Source\PSoC4/PWM_1.c **** {
 610              		.loc 1 520 0
 611              		.cfi_startproc
 612              		@ args = 0, pretend = 0, frame = 16
 613              		@ frame_needed = 1, uses_anonymous_args = 0
 614 0000 90B5     		push	{r4, r7, lr}
 615              		.cfi_def_cfa_offset 12
 616              		.cfi_offset 4, -12
 617              		.cfi_offset 7, -8
 618              		.cfi_offset 14, -4
 619 0002 85B0     		sub	sp, sp, #20
 620              		.cfi_def_cfa_offset 32
ARM GAS  C:\Users\ASUS\AppData\Local\Temp\ccPv8D3q.s 			page 21


 621 0004 00AF     		add	r7, sp, #0
 622              		.cfi_def_cfa_register 7
 623 0006 7860     		str	r0, [r7, #4]
 521:Generated_Source\PSoC4/PWM_1.c ****     uint8 enableInterrupts;
 522:Generated_Source\PSoC4/PWM_1.c **** 
 523:Generated_Source\PSoC4/PWM_1.c ****     enableInterrupts = CyEnterCriticalSection();
 624              		.loc 1 523 0
 625 0008 0F23     		movs	r3, #15
 626 000a FC18     		adds	r4, r7, r3
 627 000c FFF7FEFF 		bl	CyEnterCriticalSection
 628 0010 0300     		movs	r3, r0
 629 0012 2370     		strb	r3, [r4]
 524:Generated_Source\PSoC4/PWM_1.c **** 
 525:Generated_Source\PSoC4/PWM_1.c ****     PWM_1_CONTROL_REG &= (uint32)~PWM_1_PWM_STOP_KILL_MASK;
 630              		.loc 1 525 0
 631 0014 0C4B     		ldr	r3, .L33
 632 0016 0C4A     		ldr	r2, .L33
 633 0018 1268     		ldr	r2, [r2]
 634 001a 0821     		movs	r1, #8
 635 001c 8A43     		bics	r2, r1
 636 001e 1A60     		str	r2, [r3]
 526:Generated_Source\PSoC4/PWM_1.c ****     PWM_1_CONTROL_REG |= ((uint32)((stopOnKillEnable & PWM_1_1BIT_MASK)  <<
 637              		.loc 1 526 0
 638 0020 094B     		ldr	r3, .L33
 639 0022 094A     		ldr	r2, .L33
 640 0024 1168     		ldr	r1, [r2]
 641 0026 7A68     		ldr	r2, [r7, #4]
 642 0028 D200     		lsls	r2, r2, #3
 643 002a 0820     		movs	r0, #8
 644 002c 0240     		ands	r2, r0
 645 002e 0A43     		orrs	r2, r1
 646 0030 1A60     		str	r2, [r3]
 527:Generated_Source\PSoC4/PWM_1.c ****                                                          PWM_1_PWM_STOP_KILL_SHIFT));
 528:Generated_Source\PSoC4/PWM_1.c **** 
 529:Generated_Source\PSoC4/PWM_1.c ****     CyExitCriticalSection(enableInterrupts);
 647              		.loc 1 529 0
 648 0032 0F23     		movs	r3, #15
 649 0034 FB18     		adds	r3, r7, r3
 650 0036 1B78     		ldrb	r3, [r3]
 651 0038 1800     		movs	r0, r3
 652 003a FFF7FEFF 		bl	CyExitCriticalSection
 530:Generated_Source\PSoC4/PWM_1.c **** }
 653              		.loc 1 530 0
 654 003e C046     		nop
 655 0040 BD46     		mov	sp, r7
 656 0042 05B0     		add	sp, sp, #20
 657              		@ sp needed
 658 0044 90BD     		pop	{r4, r7, pc}
 659              	.L34:
 660 0046 C046     		.align	2
 661              	.L33:
 662 0048 00010540 		.word	1074069760
 663              		.cfi_endproc
 664              	.LFE10:
 665              		.size	PWM_1_SetPWMStopOnKill, .-PWM_1_SetPWMStopOnKill
 666              		.section	.text.PWM_1_SetPWMDeadTime,"ax",%progbits
 667              		.align	2
ARM GAS  C:\Users\ASUS\AppData\Local\Temp\ccPv8D3q.s 			page 22


 668              		.global	PWM_1_SetPWMDeadTime
 669              		.code	16
 670              		.thumb_func
 671              		.type	PWM_1_SetPWMDeadTime, %function
 672              	PWM_1_SetPWMDeadTime:
 673              	.LFB11:
 531:Generated_Source\PSoC4/PWM_1.c **** 
 532:Generated_Source\PSoC4/PWM_1.c **** 
 533:Generated_Source\PSoC4/PWM_1.c **** /*******************************************************************************
 534:Generated_Source\PSoC4/PWM_1.c **** * Function Name: PWM_1_SetPWMDeadTime
 535:Generated_Source\PSoC4/PWM_1.c **** ********************************************************************************
 536:Generated_Source\PSoC4/PWM_1.c **** *
 537:Generated_Source\PSoC4/PWM_1.c **** * Summary:
 538:Generated_Source\PSoC4/PWM_1.c **** *  Writes the dead time control value.  This value delays the rising edge of
 539:Generated_Source\PSoC4/PWM_1.c **** *  both the line and line_n signals the designated number of cycles resulting
 540:Generated_Source\PSoC4/PWM_1.c **** *  in both signals being inactive for that many cycles.  This functionality is
 541:Generated_Source\PSoC4/PWM_1.c **** *  only applicable to the PWM in the dead time mode.
 542:Generated_Source\PSoC4/PWM_1.c **** 
 543:Generated_Source\PSoC4/PWM_1.c **** *
 544:Generated_Source\PSoC4/PWM_1.c **** * Parameters:
 545:Generated_Source\PSoC4/PWM_1.c **** *  Dead time to insert
 546:Generated_Source\PSoC4/PWM_1.c **** *   Values: 0 to 255
 547:Generated_Source\PSoC4/PWM_1.c **** *
 548:Generated_Source\PSoC4/PWM_1.c **** * Return:
 549:Generated_Source\PSoC4/PWM_1.c **** *  None
 550:Generated_Source\PSoC4/PWM_1.c **** *
 551:Generated_Source\PSoC4/PWM_1.c **** *******************************************************************************/
 552:Generated_Source\PSoC4/PWM_1.c **** void PWM_1_SetPWMDeadTime(uint32 deadTime)
 553:Generated_Source\PSoC4/PWM_1.c **** {
 674              		.loc 1 553 0
 675              		.cfi_startproc
 676              		@ args = 0, pretend = 0, frame = 16
 677              		@ frame_needed = 1, uses_anonymous_args = 0
 678 0000 90B5     		push	{r4, r7, lr}
 679              		.cfi_def_cfa_offset 12
 680              		.cfi_offset 4, -12
 681              		.cfi_offset 7, -8
 682              		.cfi_offset 14, -4
 683 0002 85B0     		sub	sp, sp, #20
 684              		.cfi_def_cfa_offset 32
 685 0004 00AF     		add	r7, sp, #0
 686              		.cfi_def_cfa_register 7
 687 0006 7860     		str	r0, [r7, #4]
 554:Generated_Source\PSoC4/PWM_1.c ****     uint8 enableInterrupts;
 555:Generated_Source\PSoC4/PWM_1.c **** 
 556:Generated_Source\PSoC4/PWM_1.c ****     enableInterrupts = CyEnterCriticalSection();
 688              		.loc 1 556 0
 689 0008 0F23     		movs	r3, #15
 690 000a FC18     		adds	r4, r7, r3
 691 000c FFF7FEFF 		bl	CyEnterCriticalSection
 692 0010 0300     		movs	r3, r0
 693 0012 2370     		strb	r3, [r4]
 557:Generated_Source\PSoC4/PWM_1.c **** 
 558:Generated_Source\PSoC4/PWM_1.c ****     PWM_1_CONTROL_REG &= (uint32)~PWM_1_PRESCALER_MASK;
 694              		.loc 1 558 0
 695 0014 0C4B     		ldr	r3, .L36
 696 0016 0C4A     		ldr	r2, .L36
ARM GAS  C:\Users\ASUS\AppData\Local\Temp\ccPv8D3q.s 			page 23


 697 0018 1268     		ldr	r2, [r2]
 698 001a 0C49     		ldr	r1, .L36+4
 699 001c 0A40     		ands	r2, r1
 700 001e 1A60     		str	r2, [r3]
 559:Generated_Source\PSoC4/PWM_1.c ****     PWM_1_CONTROL_REG |= ((uint32)((deadTime & PWM_1_8BIT_MASK) <<
 701              		.loc 1 559 0
 702 0020 094B     		ldr	r3, .L36
 703 0022 094A     		ldr	r2, .L36
 704 0024 1168     		ldr	r1, [r2]
 705 0026 7A68     		ldr	r2, [r7, #4]
 706 0028 1202     		lsls	r2, r2, #8
 707 002a 1204     		lsls	r2, r2, #16
 708 002c 120C     		lsrs	r2, r2, #16
 709 002e 0A43     		orrs	r2, r1
 710 0030 1A60     		str	r2, [r3]
 560:Generated_Source\PSoC4/PWM_1.c ****                                                           PWM_1_PRESCALER_SHIFT));
 561:Generated_Source\PSoC4/PWM_1.c **** 
 562:Generated_Source\PSoC4/PWM_1.c ****     CyExitCriticalSection(enableInterrupts);
 711              		.loc 1 562 0
 712 0032 0F23     		movs	r3, #15
 713 0034 FB18     		adds	r3, r7, r3
 714 0036 1B78     		ldrb	r3, [r3]
 715 0038 1800     		movs	r0, r3
 716 003a FFF7FEFF 		bl	CyExitCriticalSection
 563:Generated_Source\PSoC4/PWM_1.c **** }
 717              		.loc 1 563 0
 718 003e C046     		nop
 719 0040 BD46     		mov	sp, r7
 720 0042 05B0     		add	sp, sp, #20
 721              		@ sp needed
 722 0044 90BD     		pop	{r4, r7, pc}
 723              	.L37:
 724 0046 C046     		.align	2
 725              	.L36:
 726 0048 00010540 		.word	1074069760
 727 004c FF00FFFF 		.word	-65281
 728              		.cfi_endproc
 729              	.LFE11:
 730              		.size	PWM_1_SetPWMDeadTime, .-PWM_1_SetPWMDeadTime
 731              		.section	.text.PWM_1_SetPWMInvert,"ax",%progbits
 732              		.align	2
 733              		.global	PWM_1_SetPWMInvert
 734              		.code	16
 735              		.thumb_func
 736              		.type	PWM_1_SetPWMInvert, %function
 737              	PWM_1_SetPWMInvert:
 738              	.LFB12:
 564:Generated_Source\PSoC4/PWM_1.c **** 
 565:Generated_Source\PSoC4/PWM_1.c **** 
 566:Generated_Source\PSoC4/PWM_1.c **** /*******************************************************************************
 567:Generated_Source\PSoC4/PWM_1.c **** * Function Name: PWM_1_SetPWMInvert
 568:Generated_Source\PSoC4/PWM_1.c **** ********************************************************************************
 569:Generated_Source\PSoC4/PWM_1.c **** *
 570:Generated_Source\PSoC4/PWM_1.c **** * Summary:
 571:Generated_Source\PSoC4/PWM_1.c **** *  Writes the bits that control whether the line and line_n outputs are
 572:Generated_Source\PSoC4/PWM_1.c **** *  inverted from their normal output values.  This functionality is only
 573:Generated_Source\PSoC4/PWM_1.c **** *  applicable to the three PWM modes.
ARM GAS  C:\Users\ASUS\AppData\Local\Temp\ccPv8D3q.s 			page 24


 574:Generated_Source\PSoC4/PWM_1.c **** *
 575:Generated_Source\PSoC4/PWM_1.c **** * Parameters:
 576:Generated_Source\PSoC4/PWM_1.c **** *  mask: Mask of outputs to invert.
 577:Generated_Source\PSoC4/PWM_1.c **** *   Values:
 578:Generated_Source\PSoC4/PWM_1.c **** *         - PWM_1_INVERT_LINE   - Inverts the line output
 579:Generated_Source\PSoC4/PWM_1.c **** *         - PWM_1_INVERT_LINE_N - Inverts the line_n output
 580:Generated_Source\PSoC4/PWM_1.c **** *
 581:Generated_Source\PSoC4/PWM_1.c **** * Return:
 582:Generated_Source\PSoC4/PWM_1.c **** *  None
 583:Generated_Source\PSoC4/PWM_1.c **** *
 584:Generated_Source\PSoC4/PWM_1.c **** *******************************************************************************/
 585:Generated_Source\PSoC4/PWM_1.c **** void PWM_1_SetPWMInvert(uint32 mask)
 586:Generated_Source\PSoC4/PWM_1.c **** {
 739              		.loc 1 586 0
 740              		.cfi_startproc
 741              		@ args = 0, pretend = 0, frame = 16
 742              		@ frame_needed = 1, uses_anonymous_args = 0
 743 0000 90B5     		push	{r4, r7, lr}
 744              		.cfi_def_cfa_offset 12
 745              		.cfi_offset 4, -12
 746              		.cfi_offset 7, -8
 747              		.cfi_offset 14, -4
 748 0002 85B0     		sub	sp, sp, #20
 749              		.cfi_def_cfa_offset 32
 750 0004 00AF     		add	r7, sp, #0
 751              		.cfi_def_cfa_register 7
 752 0006 7860     		str	r0, [r7, #4]
 587:Generated_Source\PSoC4/PWM_1.c ****     uint8 enableInterrupts;
 588:Generated_Source\PSoC4/PWM_1.c **** 
 589:Generated_Source\PSoC4/PWM_1.c ****     enableInterrupts = CyEnterCriticalSection();
 753              		.loc 1 589 0
 754 0008 0F23     		movs	r3, #15
 755 000a FC18     		adds	r4, r7, r3
 756 000c FFF7FEFF 		bl	CyEnterCriticalSection
 757 0010 0300     		movs	r3, r0
 758 0012 2370     		strb	r3, [r4]
 590:Generated_Source\PSoC4/PWM_1.c **** 
 591:Generated_Source\PSoC4/PWM_1.c ****     PWM_1_CONTROL_REG &= (uint32)~PWM_1_INV_OUT_MASK;
 759              		.loc 1 591 0
 760 0014 0A4B     		ldr	r3, .L39
 761 0016 0A4A     		ldr	r2, .L39
 762 0018 1268     		ldr	r2, [r2]
 763 001a 0A49     		ldr	r1, .L39+4
 764 001c 0A40     		ands	r2, r1
 765 001e 1A60     		str	r2, [r3]
 592:Generated_Source\PSoC4/PWM_1.c ****     PWM_1_CONTROL_REG |= mask;
 766              		.loc 1 592 0
 767 0020 074B     		ldr	r3, .L39
 768 0022 074A     		ldr	r2, .L39
 769 0024 1168     		ldr	r1, [r2]
 770 0026 7A68     		ldr	r2, [r7, #4]
 771 0028 0A43     		orrs	r2, r1
 772 002a 1A60     		str	r2, [r3]
 593:Generated_Source\PSoC4/PWM_1.c **** 
 594:Generated_Source\PSoC4/PWM_1.c ****     CyExitCriticalSection(enableInterrupts);
 773              		.loc 1 594 0
 774 002c 0F23     		movs	r3, #15
ARM GAS  C:\Users\ASUS\AppData\Local\Temp\ccPv8D3q.s 			page 25


 775 002e FB18     		adds	r3, r7, r3
 776 0030 1B78     		ldrb	r3, [r3]
 777 0032 1800     		movs	r0, r3
 778 0034 FFF7FEFF 		bl	CyExitCriticalSection
 595:Generated_Source\PSoC4/PWM_1.c **** }
 779              		.loc 1 595 0
 780 0038 C046     		nop
 781 003a BD46     		mov	sp, r7
 782 003c 05B0     		add	sp, sp, #20
 783              		@ sp needed
 784 003e 90BD     		pop	{r4, r7, pc}
 785              	.L40:
 786              		.align	2
 787              	.L39:
 788 0040 00010540 		.word	1074069760
 789 0044 FFFFCFFF 		.word	-3145729
 790              		.cfi_endproc
 791              	.LFE12:
 792              		.size	PWM_1_SetPWMInvert, .-PWM_1_SetPWMInvert
 793              		.section	.text.PWM_1_WriteCounter,"ax",%progbits
 794              		.align	2
 795              		.global	PWM_1_WriteCounter
 796              		.code	16
 797              		.thumb_func
 798              		.type	PWM_1_WriteCounter, %function
 799              	PWM_1_WriteCounter:
 800              	.LFB13:
 596:Generated_Source\PSoC4/PWM_1.c **** 
 597:Generated_Source\PSoC4/PWM_1.c **** 
 598:Generated_Source\PSoC4/PWM_1.c **** 
 599:Generated_Source\PSoC4/PWM_1.c **** /*******************************************************************************
 600:Generated_Source\PSoC4/PWM_1.c **** * Function Name: PWM_1_WriteCounter
 601:Generated_Source\PSoC4/PWM_1.c **** ********************************************************************************
 602:Generated_Source\PSoC4/PWM_1.c **** *
 603:Generated_Source\PSoC4/PWM_1.c **** * Summary:
 604:Generated_Source\PSoC4/PWM_1.c **** *  Writes a new 16bit counter value directly into the counter register, thus
 605:Generated_Source\PSoC4/PWM_1.c **** *  setting the counter (not the period) to the value written. It is not
 606:Generated_Source\PSoC4/PWM_1.c **** *  advised to write to this field when the counter is running.
 607:Generated_Source\PSoC4/PWM_1.c **** *
 608:Generated_Source\PSoC4/PWM_1.c **** * Parameters:
 609:Generated_Source\PSoC4/PWM_1.c **** *  count: value to write
 610:Generated_Source\PSoC4/PWM_1.c **** *
 611:Generated_Source\PSoC4/PWM_1.c **** * Return:
 612:Generated_Source\PSoC4/PWM_1.c **** *  None
 613:Generated_Source\PSoC4/PWM_1.c **** *
 614:Generated_Source\PSoC4/PWM_1.c **** *******************************************************************************/
 615:Generated_Source\PSoC4/PWM_1.c **** void PWM_1_WriteCounter(uint32 count)
 616:Generated_Source\PSoC4/PWM_1.c **** {
 801              		.loc 1 616 0
 802              		.cfi_startproc
 803              		@ args = 0, pretend = 0, frame = 8
 804              		@ frame_needed = 1, uses_anonymous_args = 0
 805 0000 80B5     		push	{r7, lr}
 806              		.cfi_def_cfa_offset 8
 807              		.cfi_offset 7, -8
 808              		.cfi_offset 14, -4
 809 0002 82B0     		sub	sp, sp, #8
ARM GAS  C:\Users\ASUS\AppData\Local\Temp\ccPv8D3q.s 			page 26


 810              		.cfi_def_cfa_offset 16
 811 0004 00AF     		add	r7, sp, #0
 812              		.cfi_def_cfa_register 7
 813 0006 7860     		str	r0, [r7, #4]
 617:Generated_Source\PSoC4/PWM_1.c ****     PWM_1_COUNTER_REG = (count & PWM_1_16BIT_MASK);
 814              		.loc 1 617 0
 815 0008 044B     		ldr	r3, .L42
 816 000a 7A68     		ldr	r2, [r7, #4]
 817 000c 1204     		lsls	r2, r2, #16
 818 000e 120C     		lsrs	r2, r2, #16
 819 0010 1A60     		str	r2, [r3]
 618:Generated_Source\PSoC4/PWM_1.c **** }
 820              		.loc 1 618 0
 821 0012 C046     		nop
 822 0014 BD46     		mov	sp, r7
 823 0016 02B0     		add	sp, sp, #8
 824              		@ sp needed
 825 0018 80BD     		pop	{r7, pc}
 826              	.L43:
 827 001a C046     		.align	2
 828              	.L42:
 829 001c 08010540 		.word	1074069768
 830              		.cfi_endproc
 831              	.LFE13:
 832              		.size	PWM_1_WriteCounter, .-PWM_1_WriteCounter
 833              		.section	.text.PWM_1_ReadCounter,"ax",%progbits
 834              		.align	2
 835              		.global	PWM_1_ReadCounter
 836              		.code	16
 837              		.thumb_func
 838              		.type	PWM_1_ReadCounter, %function
 839              	PWM_1_ReadCounter:
 840              	.LFB14:
 619:Generated_Source\PSoC4/PWM_1.c **** 
 620:Generated_Source\PSoC4/PWM_1.c **** 
 621:Generated_Source\PSoC4/PWM_1.c **** /*******************************************************************************
 622:Generated_Source\PSoC4/PWM_1.c **** * Function Name: PWM_1_ReadCounter
 623:Generated_Source\PSoC4/PWM_1.c **** ********************************************************************************
 624:Generated_Source\PSoC4/PWM_1.c **** *
 625:Generated_Source\PSoC4/PWM_1.c **** * Summary:
 626:Generated_Source\PSoC4/PWM_1.c **** *  Reads the current counter value.
 627:Generated_Source\PSoC4/PWM_1.c **** *
 628:Generated_Source\PSoC4/PWM_1.c **** * Parameters:
 629:Generated_Source\PSoC4/PWM_1.c **** *  None
 630:Generated_Source\PSoC4/PWM_1.c **** *
 631:Generated_Source\PSoC4/PWM_1.c **** * Return:
 632:Generated_Source\PSoC4/PWM_1.c **** *  Current counter value
 633:Generated_Source\PSoC4/PWM_1.c **** *
 634:Generated_Source\PSoC4/PWM_1.c **** *******************************************************************************/
 635:Generated_Source\PSoC4/PWM_1.c **** uint32 PWM_1_ReadCounter(void)
 636:Generated_Source\PSoC4/PWM_1.c **** {
 841              		.loc 1 636 0
 842              		.cfi_startproc
 843              		@ args = 0, pretend = 0, frame = 0
 844              		@ frame_needed = 1, uses_anonymous_args = 0
 845 0000 80B5     		push	{r7, lr}
 846              		.cfi_def_cfa_offset 8
ARM GAS  C:\Users\ASUS\AppData\Local\Temp\ccPv8D3q.s 			page 27


 847              		.cfi_offset 7, -8
 848              		.cfi_offset 14, -4
 849 0002 00AF     		add	r7, sp, #0
 850              		.cfi_def_cfa_register 7
 637:Generated_Source\PSoC4/PWM_1.c ****     return (PWM_1_COUNTER_REG & PWM_1_16BIT_MASK);
 851              		.loc 1 637 0
 852 0004 034B     		ldr	r3, .L46
 853 0006 1B68     		ldr	r3, [r3]
 854 0008 1B04     		lsls	r3, r3, #16
 855 000a 1B0C     		lsrs	r3, r3, #16
 638:Generated_Source\PSoC4/PWM_1.c **** }
 856              		.loc 1 638 0
 857 000c 1800     		movs	r0, r3
 858 000e BD46     		mov	sp, r7
 859              		@ sp needed
 860 0010 80BD     		pop	{r7, pc}
 861              	.L47:
 862 0012 C046     		.align	2
 863              	.L46:
 864 0014 08010540 		.word	1074069768
 865              		.cfi_endproc
 866              	.LFE14:
 867              		.size	PWM_1_ReadCounter, .-PWM_1_ReadCounter
 868              		.section	.text.PWM_1_SetCounterMode,"ax",%progbits
 869              		.align	2
 870              		.global	PWM_1_SetCounterMode
 871              		.code	16
 872              		.thumb_func
 873              		.type	PWM_1_SetCounterMode, %function
 874              	PWM_1_SetCounterMode:
 875              	.LFB15:
 639:Generated_Source\PSoC4/PWM_1.c **** 
 640:Generated_Source\PSoC4/PWM_1.c **** 
 641:Generated_Source\PSoC4/PWM_1.c **** /*******************************************************************************
 642:Generated_Source\PSoC4/PWM_1.c **** * Function Name: PWM_1_SetCounterMode
 643:Generated_Source\PSoC4/PWM_1.c **** ********************************************************************************
 644:Generated_Source\PSoC4/PWM_1.c **** *
 645:Generated_Source\PSoC4/PWM_1.c **** * Summary:
 646:Generated_Source\PSoC4/PWM_1.c **** *  Sets the counter mode.  Applicable to all modes except Quadrature Decoder
 647:Generated_Source\PSoC4/PWM_1.c **** *  and the PWM with a pseudo random output.
 648:Generated_Source\PSoC4/PWM_1.c **** *
 649:Generated_Source\PSoC4/PWM_1.c **** * Parameters:
 650:Generated_Source\PSoC4/PWM_1.c **** *  counterMode: Enumerated counter type values
 651:Generated_Source\PSoC4/PWM_1.c **** *   Values:
 652:Generated_Source\PSoC4/PWM_1.c **** *     - PWM_1_COUNT_UP       - Counts up
 653:Generated_Source\PSoC4/PWM_1.c **** *     - PWM_1_COUNT_DOWN     - Counts down
 654:Generated_Source\PSoC4/PWM_1.c **** *     - PWM_1_COUNT_UPDOWN0  - Counts up and down. Terminal count
 655:Generated_Source\PSoC4/PWM_1.c **** *                                         generated when counter reaches 0
 656:Generated_Source\PSoC4/PWM_1.c **** *     - PWM_1_COUNT_UPDOWN1  - Counts up and down. Terminal count
 657:Generated_Source\PSoC4/PWM_1.c **** *                                         generated both when counter reaches 0
 658:Generated_Source\PSoC4/PWM_1.c **** *                                         and period
 659:Generated_Source\PSoC4/PWM_1.c **** *
 660:Generated_Source\PSoC4/PWM_1.c **** * Return:
 661:Generated_Source\PSoC4/PWM_1.c **** *  None
 662:Generated_Source\PSoC4/PWM_1.c **** *
 663:Generated_Source\PSoC4/PWM_1.c **** *******************************************************************************/
 664:Generated_Source\PSoC4/PWM_1.c **** void PWM_1_SetCounterMode(uint32 counterMode)
ARM GAS  C:\Users\ASUS\AppData\Local\Temp\ccPv8D3q.s 			page 28


 665:Generated_Source\PSoC4/PWM_1.c **** {
 876              		.loc 1 665 0
 877              		.cfi_startproc
 878              		@ args = 0, pretend = 0, frame = 16
 879              		@ frame_needed = 1, uses_anonymous_args = 0
 880 0000 90B5     		push	{r4, r7, lr}
 881              		.cfi_def_cfa_offset 12
 882              		.cfi_offset 4, -12
 883              		.cfi_offset 7, -8
 884              		.cfi_offset 14, -4
 885 0002 85B0     		sub	sp, sp, #20
 886              		.cfi_def_cfa_offset 32
 887 0004 00AF     		add	r7, sp, #0
 888              		.cfi_def_cfa_register 7
 889 0006 7860     		str	r0, [r7, #4]
 666:Generated_Source\PSoC4/PWM_1.c ****     uint8 enableInterrupts;
 667:Generated_Source\PSoC4/PWM_1.c **** 
 668:Generated_Source\PSoC4/PWM_1.c ****     enableInterrupts = CyEnterCriticalSection();
 890              		.loc 1 668 0
 891 0008 0F23     		movs	r3, #15
 892 000a FC18     		adds	r4, r7, r3
 893 000c FFF7FEFF 		bl	CyEnterCriticalSection
 894 0010 0300     		movs	r3, r0
 895 0012 2370     		strb	r3, [r4]
 669:Generated_Source\PSoC4/PWM_1.c **** 
 670:Generated_Source\PSoC4/PWM_1.c ****     PWM_1_CONTROL_REG &= (uint32)~PWM_1_UPDOWN_MASK;
 896              		.loc 1 670 0
 897 0014 0A4B     		ldr	r3, .L49
 898 0016 0A4A     		ldr	r2, .L49
 899 0018 1268     		ldr	r2, [r2]
 900 001a 0A49     		ldr	r1, .L49+4
 901 001c 0A40     		ands	r2, r1
 902 001e 1A60     		str	r2, [r3]
 671:Generated_Source\PSoC4/PWM_1.c ****     PWM_1_CONTROL_REG |= counterMode;
 903              		.loc 1 671 0
 904 0020 074B     		ldr	r3, .L49
 905 0022 074A     		ldr	r2, .L49
 906 0024 1168     		ldr	r1, [r2]
 907 0026 7A68     		ldr	r2, [r7, #4]
 908 0028 0A43     		orrs	r2, r1
 909 002a 1A60     		str	r2, [r3]
 672:Generated_Source\PSoC4/PWM_1.c **** 
 673:Generated_Source\PSoC4/PWM_1.c ****     CyExitCriticalSection(enableInterrupts);
 910              		.loc 1 673 0
 911 002c 0F23     		movs	r3, #15
 912 002e FB18     		adds	r3, r7, r3
 913 0030 1B78     		ldrb	r3, [r3]
 914 0032 1800     		movs	r0, r3
 915 0034 FFF7FEFF 		bl	CyExitCriticalSection
 674:Generated_Source\PSoC4/PWM_1.c **** }
 916              		.loc 1 674 0
 917 0038 C046     		nop
 918 003a BD46     		mov	sp, r7
 919 003c 05B0     		add	sp, sp, #20
 920              		@ sp needed
 921 003e 90BD     		pop	{r4, r7, pc}
 922              	.L50:
ARM GAS  C:\Users\ASUS\AppData\Local\Temp\ccPv8D3q.s 			page 29


 923              		.align	2
 924              	.L49:
 925 0040 00010540 		.word	1074069760
 926 0044 FFFFFCFF 		.word	-196609
 927              		.cfi_endproc
 928              	.LFE15:
 929              		.size	PWM_1_SetCounterMode, .-PWM_1_SetCounterMode
 930              		.section	.text.PWM_1_WritePeriod,"ax",%progbits
 931              		.align	2
 932              		.global	PWM_1_WritePeriod
 933              		.code	16
 934              		.thumb_func
 935              		.type	PWM_1_WritePeriod, %function
 936              	PWM_1_WritePeriod:
 937              	.LFB16:
 675:Generated_Source\PSoC4/PWM_1.c **** 
 676:Generated_Source\PSoC4/PWM_1.c **** 
 677:Generated_Source\PSoC4/PWM_1.c **** /*******************************************************************************
 678:Generated_Source\PSoC4/PWM_1.c **** * Function Name: PWM_1_WritePeriod
 679:Generated_Source\PSoC4/PWM_1.c **** ********************************************************************************
 680:Generated_Source\PSoC4/PWM_1.c **** *
 681:Generated_Source\PSoC4/PWM_1.c **** * Summary:
 682:Generated_Source\PSoC4/PWM_1.c **** *  Writes the 16 bit period register with the new period value.
 683:Generated_Source\PSoC4/PWM_1.c **** *  To cause the counter to count for N cycles this register should be written
 684:Generated_Source\PSoC4/PWM_1.c **** *  with N-1 (counts from 0 to period inclusive).
 685:Generated_Source\PSoC4/PWM_1.c **** *
 686:Generated_Source\PSoC4/PWM_1.c **** * Parameters:
 687:Generated_Source\PSoC4/PWM_1.c **** *  period: Period value
 688:Generated_Source\PSoC4/PWM_1.c **** *
 689:Generated_Source\PSoC4/PWM_1.c **** * Return:
 690:Generated_Source\PSoC4/PWM_1.c **** *  None
 691:Generated_Source\PSoC4/PWM_1.c **** *
 692:Generated_Source\PSoC4/PWM_1.c **** *******************************************************************************/
 693:Generated_Source\PSoC4/PWM_1.c **** void PWM_1_WritePeriod(uint32 period)
 694:Generated_Source\PSoC4/PWM_1.c **** {
 938              		.loc 1 694 0
 939              		.cfi_startproc
 940              		@ args = 0, pretend = 0, frame = 8
 941              		@ frame_needed = 1, uses_anonymous_args = 0
 942 0000 80B5     		push	{r7, lr}
 943              		.cfi_def_cfa_offset 8
 944              		.cfi_offset 7, -8
 945              		.cfi_offset 14, -4
 946 0002 82B0     		sub	sp, sp, #8
 947              		.cfi_def_cfa_offset 16
 948 0004 00AF     		add	r7, sp, #0
 949              		.cfi_def_cfa_register 7
 950 0006 7860     		str	r0, [r7, #4]
 695:Generated_Source\PSoC4/PWM_1.c ****     PWM_1_PERIOD_REG = (period & PWM_1_16BIT_MASK);
 951              		.loc 1 695 0
 952 0008 044B     		ldr	r3, .L52
 953 000a 7A68     		ldr	r2, [r7, #4]
 954 000c 1204     		lsls	r2, r2, #16
 955 000e 120C     		lsrs	r2, r2, #16
 956 0010 1A60     		str	r2, [r3]
 696:Generated_Source\PSoC4/PWM_1.c **** }
 957              		.loc 1 696 0
ARM GAS  C:\Users\ASUS\AppData\Local\Temp\ccPv8D3q.s 			page 30


 958 0012 C046     		nop
 959 0014 BD46     		mov	sp, r7
 960 0016 02B0     		add	sp, sp, #8
 961              		@ sp needed
 962 0018 80BD     		pop	{r7, pc}
 963              	.L53:
 964 001a C046     		.align	2
 965              	.L52:
 966 001c 14010540 		.word	1074069780
 967              		.cfi_endproc
 968              	.LFE16:
 969              		.size	PWM_1_WritePeriod, .-PWM_1_WritePeriod
 970              		.section	.text.PWM_1_ReadPeriod,"ax",%progbits
 971              		.align	2
 972              		.global	PWM_1_ReadPeriod
 973              		.code	16
 974              		.thumb_func
 975              		.type	PWM_1_ReadPeriod, %function
 976              	PWM_1_ReadPeriod:
 977              	.LFB17:
 697:Generated_Source\PSoC4/PWM_1.c **** 
 698:Generated_Source\PSoC4/PWM_1.c **** 
 699:Generated_Source\PSoC4/PWM_1.c **** /*******************************************************************************
 700:Generated_Source\PSoC4/PWM_1.c **** * Function Name: PWM_1_ReadPeriod
 701:Generated_Source\PSoC4/PWM_1.c **** ********************************************************************************
 702:Generated_Source\PSoC4/PWM_1.c **** *
 703:Generated_Source\PSoC4/PWM_1.c **** * Summary:
 704:Generated_Source\PSoC4/PWM_1.c **** *  Reads the 16 bit period register.
 705:Generated_Source\PSoC4/PWM_1.c **** *
 706:Generated_Source\PSoC4/PWM_1.c **** * Parameters:
 707:Generated_Source\PSoC4/PWM_1.c **** *  None
 708:Generated_Source\PSoC4/PWM_1.c **** *
 709:Generated_Source\PSoC4/PWM_1.c **** * Return:
 710:Generated_Source\PSoC4/PWM_1.c **** *  Period value
 711:Generated_Source\PSoC4/PWM_1.c **** *
 712:Generated_Source\PSoC4/PWM_1.c **** *******************************************************************************/
 713:Generated_Source\PSoC4/PWM_1.c **** uint32 PWM_1_ReadPeriod(void)
 714:Generated_Source\PSoC4/PWM_1.c **** {
 978              		.loc 1 714 0
 979              		.cfi_startproc
 980              		@ args = 0, pretend = 0, frame = 0
 981              		@ frame_needed = 1, uses_anonymous_args = 0
 982 0000 80B5     		push	{r7, lr}
 983              		.cfi_def_cfa_offset 8
 984              		.cfi_offset 7, -8
 985              		.cfi_offset 14, -4
 986 0002 00AF     		add	r7, sp, #0
 987              		.cfi_def_cfa_register 7
 715:Generated_Source\PSoC4/PWM_1.c ****     return (PWM_1_PERIOD_REG & PWM_1_16BIT_MASK);
 988              		.loc 1 715 0
 989 0004 034B     		ldr	r3, .L56
 990 0006 1B68     		ldr	r3, [r3]
 991 0008 1B04     		lsls	r3, r3, #16
 992 000a 1B0C     		lsrs	r3, r3, #16
 716:Generated_Source\PSoC4/PWM_1.c **** }
 993              		.loc 1 716 0
 994 000c 1800     		movs	r0, r3
ARM GAS  C:\Users\ASUS\AppData\Local\Temp\ccPv8D3q.s 			page 31


 995 000e BD46     		mov	sp, r7
 996              		@ sp needed
 997 0010 80BD     		pop	{r7, pc}
 998              	.L57:
 999 0012 C046     		.align	2
 1000              	.L56:
 1001 0014 14010540 		.word	1074069780
 1002              		.cfi_endproc
 1003              	.LFE17:
 1004              		.size	PWM_1_ReadPeriod, .-PWM_1_ReadPeriod
 1005              		.section	.text.PWM_1_SetCompareSwap,"ax",%progbits
 1006              		.align	2
 1007              		.global	PWM_1_SetCompareSwap
 1008              		.code	16
 1009              		.thumb_func
 1010              		.type	PWM_1_SetCompareSwap, %function
 1011              	PWM_1_SetCompareSwap:
 1012              	.LFB18:
 717:Generated_Source\PSoC4/PWM_1.c **** 
 718:Generated_Source\PSoC4/PWM_1.c **** 
 719:Generated_Source\PSoC4/PWM_1.c **** /*******************************************************************************
 720:Generated_Source\PSoC4/PWM_1.c **** * Function Name: PWM_1_SetCompareSwap
 721:Generated_Source\PSoC4/PWM_1.c **** ********************************************************************************
 722:Generated_Source\PSoC4/PWM_1.c **** *
 723:Generated_Source\PSoC4/PWM_1.c **** * Summary:
 724:Generated_Source\PSoC4/PWM_1.c **** *  Writes the register that controls whether the compare registers are
 725:Generated_Source\PSoC4/PWM_1.c **** *  swapped. When enabled in the Timer/Counter mode(without capture) the swap
 726:Generated_Source\PSoC4/PWM_1.c **** *  occurs at a TC event. In the PWM mode the swap occurs at the next TC event
 727:Generated_Source\PSoC4/PWM_1.c **** *  following a hardware switch event.
 728:Generated_Source\PSoC4/PWM_1.c **** *
 729:Generated_Source\PSoC4/PWM_1.c **** * Parameters:
 730:Generated_Source\PSoC4/PWM_1.c **** *  swapEnable
 731:Generated_Source\PSoC4/PWM_1.c **** *   Values:
 732:Generated_Source\PSoC4/PWM_1.c **** *     - 0 - Disable swap
 733:Generated_Source\PSoC4/PWM_1.c **** *     - 1 - Enable swap
 734:Generated_Source\PSoC4/PWM_1.c **** *
 735:Generated_Source\PSoC4/PWM_1.c **** * Return:
 736:Generated_Source\PSoC4/PWM_1.c **** *  None
 737:Generated_Source\PSoC4/PWM_1.c **** *
 738:Generated_Source\PSoC4/PWM_1.c **** *******************************************************************************/
 739:Generated_Source\PSoC4/PWM_1.c **** void PWM_1_SetCompareSwap(uint32 swapEnable)
 740:Generated_Source\PSoC4/PWM_1.c **** {
 1013              		.loc 1 740 0
 1014              		.cfi_startproc
 1015              		@ args = 0, pretend = 0, frame = 16
 1016              		@ frame_needed = 1, uses_anonymous_args = 0
 1017 0000 90B5     		push	{r4, r7, lr}
 1018              		.cfi_def_cfa_offset 12
 1019              		.cfi_offset 4, -12
 1020              		.cfi_offset 7, -8
 1021              		.cfi_offset 14, -4
 1022 0002 85B0     		sub	sp, sp, #20
 1023              		.cfi_def_cfa_offset 32
 1024 0004 00AF     		add	r7, sp, #0
 1025              		.cfi_def_cfa_register 7
 1026 0006 7860     		str	r0, [r7, #4]
 741:Generated_Source\PSoC4/PWM_1.c ****     uint8 enableInterrupts;
ARM GAS  C:\Users\ASUS\AppData\Local\Temp\ccPv8D3q.s 			page 32


 742:Generated_Source\PSoC4/PWM_1.c **** 
 743:Generated_Source\PSoC4/PWM_1.c ****     enableInterrupts = CyEnterCriticalSection();
 1027              		.loc 1 743 0
 1028 0008 0F23     		movs	r3, #15
 1029 000a FC18     		adds	r4, r7, r3
 1030 000c FFF7FEFF 		bl	CyEnterCriticalSection
 1031 0010 0300     		movs	r3, r0
 1032 0012 2370     		strb	r3, [r4]
 744:Generated_Source\PSoC4/PWM_1.c **** 
 745:Generated_Source\PSoC4/PWM_1.c ****     PWM_1_CONTROL_REG &= (uint32)~PWM_1_RELOAD_CC_MASK;
 1033              		.loc 1 745 0
 1034 0014 0B4B     		ldr	r3, .L59
 1035 0016 0B4A     		ldr	r2, .L59
 1036 0018 1268     		ldr	r2, [r2]
 1037 001a 0121     		movs	r1, #1
 1038 001c 8A43     		bics	r2, r1
 1039 001e 1A60     		str	r2, [r3]
 746:Generated_Source\PSoC4/PWM_1.c ****     PWM_1_CONTROL_REG |= (swapEnable & PWM_1_1BIT_MASK);
 1040              		.loc 1 746 0
 1041 0020 084B     		ldr	r3, .L59
 1042 0022 084A     		ldr	r2, .L59
 1043 0024 1168     		ldr	r1, [r2]
 1044 0026 7A68     		ldr	r2, [r7, #4]
 1045 0028 0120     		movs	r0, #1
 1046 002a 0240     		ands	r2, r0
 1047 002c 0A43     		orrs	r2, r1
 1048 002e 1A60     		str	r2, [r3]
 747:Generated_Source\PSoC4/PWM_1.c **** 
 748:Generated_Source\PSoC4/PWM_1.c ****     CyExitCriticalSection(enableInterrupts);
 1049              		.loc 1 748 0
 1050 0030 0F23     		movs	r3, #15
 1051 0032 FB18     		adds	r3, r7, r3
 1052 0034 1B78     		ldrb	r3, [r3]
 1053 0036 1800     		movs	r0, r3
 1054 0038 FFF7FEFF 		bl	CyExitCriticalSection
 749:Generated_Source\PSoC4/PWM_1.c **** }
 1055              		.loc 1 749 0
 1056 003c C046     		nop
 1057 003e BD46     		mov	sp, r7
 1058 0040 05B0     		add	sp, sp, #20
 1059              		@ sp needed
 1060 0042 90BD     		pop	{r4, r7, pc}
 1061              	.L60:
 1062              		.align	2
 1063              	.L59:
 1064 0044 00010540 		.word	1074069760
 1065              		.cfi_endproc
 1066              	.LFE18:
 1067              		.size	PWM_1_SetCompareSwap, .-PWM_1_SetCompareSwap
 1068              		.section	.text.PWM_1_WritePeriodBuf,"ax",%progbits
 1069              		.align	2
 1070              		.global	PWM_1_WritePeriodBuf
 1071              		.code	16
 1072              		.thumb_func
 1073              		.type	PWM_1_WritePeriodBuf, %function
 1074              	PWM_1_WritePeriodBuf:
 1075              	.LFB19:
ARM GAS  C:\Users\ASUS\AppData\Local\Temp\ccPv8D3q.s 			page 33


 750:Generated_Source\PSoC4/PWM_1.c **** 
 751:Generated_Source\PSoC4/PWM_1.c **** 
 752:Generated_Source\PSoC4/PWM_1.c **** /*******************************************************************************
 753:Generated_Source\PSoC4/PWM_1.c **** * Function Name: PWM_1_WritePeriodBuf
 754:Generated_Source\PSoC4/PWM_1.c **** ********************************************************************************
 755:Generated_Source\PSoC4/PWM_1.c **** *
 756:Generated_Source\PSoC4/PWM_1.c **** * Summary:
 757:Generated_Source\PSoC4/PWM_1.c **** *  Writes the 16 bit period buf register with the new period value.
 758:Generated_Source\PSoC4/PWM_1.c **** *
 759:Generated_Source\PSoC4/PWM_1.c **** * Parameters:
 760:Generated_Source\PSoC4/PWM_1.c **** *  periodBuf: Period value
 761:Generated_Source\PSoC4/PWM_1.c **** *
 762:Generated_Source\PSoC4/PWM_1.c **** * Return:
 763:Generated_Source\PSoC4/PWM_1.c **** *  None
 764:Generated_Source\PSoC4/PWM_1.c **** *
 765:Generated_Source\PSoC4/PWM_1.c **** *******************************************************************************/
 766:Generated_Source\PSoC4/PWM_1.c **** void PWM_1_WritePeriodBuf(uint32 periodBuf)
 767:Generated_Source\PSoC4/PWM_1.c **** {
 1076              		.loc 1 767 0
 1077              		.cfi_startproc
 1078              		@ args = 0, pretend = 0, frame = 8
 1079              		@ frame_needed = 1, uses_anonymous_args = 0
 1080 0000 80B5     		push	{r7, lr}
 1081              		.cfi_def_cfa_offset 8
 1082              		.cfi_offset 7, -8
 1083              		.cfi_offset 14, -4
 1084 0002 82B0     		sub	sp, sp, #8
 1085              		.cfi_def_cfa_offset 16
 1086 0004 00AF     		add	r7, sp, #0
 1087              		.cfi_def_cfa_register 7
 1088 0006 7860     		str	r0, [r7, #4]
 768:Generated_Source\PSoC4/PWM_1.c ****     PWM_1_PERIOD_BUF_REG = (periodBuf & PWM_1_16BIT_MASK);
 1089              		.loc 1 768 0
 1090 0008 044B     		ldr	r3, .L62
 1091 000a 7A68     		ldr	r2, [r7, #4]
 1092 000c 1204     		lsls	r2, r2, #16
 1093 000e 120C     		lsrs	r2, r2, #16
 1094 0010 1A60     		str	r2, [r3]
 769:Generated_Source\PSoC4/PWM_1.c **** }
 1095              		.loc 1 769 0
 1096 0012 C046     		nop
 1097 0014 BD46     		mov	sp, r7
 1098 0016 02B0     		add	sp, sp, #8
 1099              		@ sp needed
 1100 0018 80BD     		pop	{r7, pc}
 1101              	.L63:
 1102 001a C046     		.align	2
 1103              	.L62:
 1104 001c 18010540 		.word	1074069784
 1105              		.cfi_endproc
 1106              	.LFE19:
 1107              		.size	PWM_1_WritePeriodBuf, .-PWM_1_WritePeriodBuf
 1108              		.section	.text.PWM_1_ReadPeriodBuf,"ax",%progbits
 1109              		.align	2
 1110              		.global	PWM_1_ReadPeriodBuf
 1111              		.code	16
 1112              		.thumb_func
ARM GAS  C:\Users\ASUS\AppData\Local\Temp\ccPv8D3q.s 			page 34


 1113              		.type	PWM_1_ReadPeriodBuf, %function
 1114              	PWM_1_ReadPeriodBuf:
 1115              	.LFB20:
 770:Generated_Source\PSoC4/PWM_1.c **** 
 771:Generated_Source\PSoC4/PWM_1.c **** 
 772:Generated_Source\PSoC4/PWM_1.c **** /*******************************************************************************
 773:Generated_Source\PSoC4/PWM_1.c **** * Function Name: PWM_1_ReadPeriodBuf
 774:Generated_Source\PSoC4/PWM_1.c **** ********************************************************************************
 775:Generated_Source\PSoC4/PWM_1.c **** *
 776:Generated_Source\PSoC4/PWM_1.c **** * Summary:
 777:Generated_Source\PSoC4/PWM_1.c **** *  Reads the 16 bit period buf register.
 778:Generated_Source\PSoC4/PWM_1.c **** *
 779:Generated_Source\PSoC4/PWM_1.c **** * Parameters:
 780:Generated_Source\PSoC4/PWM_1.c **** *  None
 781:Generated_Source\PSoC4/PWM_1.c **** *
 782:Generated_Source\PSoC4/PWM_1.c **** * Return:
 783:Generated_Source\PSoC4/PWM_1.c **** *  Period value
 784:Generated_Source\PSoC4/PWM_1.c **** *
 785:Generated_Source\PSoC4/PWM_1.c **** *******************************************************************************/
 786:Generated_Source\PSoC4/PWM_1.c **** uint32 PWM_1_ReadPeriodBuf(void)
 787:Generated_Source\PSoC4/PWM_1.c **** {
 1116              		.loc 1 787 0
 1117              		.cfi_startproc
 1118              		@ args = 0, pretend = 0, frame = 0
 1119              		@ frame_needed = 1, uses_anonymous_args = 0
 1120 0000 80B5     		push	{r7, lr}
 1121              		.cfi_def_cfa_offset 8
 1122              		.cfi_offset 7, -8
 1123              		.cfi_offset 14, -4
 1124 0002 00AF     		add	r7, sp, #0
 1125              		.cfi_def_cfa_register 7
 788:Generated_Source\PSoC4/PWM_1.c ****     return (PWM_1_PERIOD_BUF_REG & PWM_1_16BIT_MASK);
 1126              		.loc 1 788 0
 1127 0004 034B     		ldr	r3, .L66
 1128 0006 1B68     		ldr	r3, [r3]
 1129 0008 1B04     		lsls	r3, r3, #16
 1130 000a 1B0C     		lsrs	r3, r3, #16
 789:Generated_Source\PSoC4/PWM_1.c **** }
 1131              		.loc 1 789 0
 1132 000c 1800     		movs	r0, r3
 1133 000e BD46     		mov	sp, r7
 1134              		@ sp needed
 1135 0010 80BD     		pop	{r7, pc}
 1136              	.L67:
 1137 0012 C046     		.align	2
 1138              	.L66:
 1139 0014 18010540 		.word	1074069784
 1140              		.cfi_endproc
 1141              	.LFE20:
 1142              		.size	PWM_1_ReadPeriodBuf, .-PWM_1_ReadPeriodBuf
 1143              		.section	.text.PWM_1_SetPeriodSwap,"ax",%progbits
 1144              		.align	2
 1145              		.global	PWM_1_SetPeriodSwap
 1146              		.code	16
 1147              		.thumb_func
 1148              		.type	PWM_1_SetPeriodSwap, %function
 1149              	PWM_1_SetPeriodSwap:
ARM GAS  C:\Users\ASUS\AppData\Local\Temp\ccPv8D3q.s 			page 35


 1150              	.LFB21:
 790:Generated_Source\PSoC4/PWM_1.c **** 
 791:Generated_Source\PSoC4/PWM_1.c **** 
 792:Generated_Source\PSoC4/PWM_1.c **** /*******************************************************************************
 793:Generated_Source\PSoC4/PWM_1.c **** * Function Name: PWM_1_SetPeriodSwap
 794:Generated_Source\PSoC4/PWM_1.c **** ********************************************************************************
 795:Generated_Source\PSoC4/PWM_1.c **** *
 796:Generated_Source\PSoC4/PWM_1.c **** * Summary:
 797:Generated_Source\PSoC4/PWM_1.c **** *  Writes the register that controls whether the period registers are
 798:Generated_Source\PSoC4/PWM_1.c **** *  swapped. When enabled in Timer/Counter mode the swap occurs at a TC event.
 799:Generated_Source\PSoC4/PWM_1.c **** *  In the PWM mode the swap occurs at the next TC event following a hardware
 800:Generated_Source\PSoC4/PWM_1.c **** *  switch event.
 801:Generated_Source\PSoC4/PWM_1.c **** *
 802:Generated_Source\PSoC4/PWM_1.c **** * Parameters:
 803:Generated_Source\PSoC4/PWM_1.c **** *  swapEnable
 804:Generated_Source\PSoC4/PWM_1.c **** *   Values:
 805:Generated_Source\PSoC4/PWM_1.c **** *     - 0 - Disable swap
 806:Generated_Source\PSoC4/PWM_1.c **** *     - 1 - Enable swap
 807:Generated_Source\PSoC4/PWM_1.c **** *
 808:Generated_Source\PSoC4/PWM_1.c **** * Return:
 809:Generated_Source\PSoC4/PWM_1.c **** *  None
 810:Generated_Source\PSoC4/PWM_1.c **** *
 811:Generated_Source\PSoC4/PWM_1.c **** *******************************************************************************/
 812:Generated_Source\PSoC4/PWM_1.c **** void PWM_1_SetPeriodSwap(uint32 swapEnable)
 813:Generated_Source\PSoC4/PWM_1.c **** {
 1151              		.loc 1 813 0
 1152              		.cfi_startproc
 1153              		@ args = 0, pretend = 0, frame = 16
 1154              		@ frame_needed = 1, uses_anonymous_args = 0
 1155 0000 90B5     		push	{r4, r7, lr}
 1156              		.cfi_def_cfa_offset 12
 1157              		.cfi_offset 4, -12
 1158              		.cfi_offset 7, -8
 1159              		.cfi_offset 14, -4
 1160 0002 85B0     		sub	sp, sp, #20
 1161              		.cfi_def_cfa_offset 32
 1162 0004 00AF     		add	r7, sp, #0
 1163              		.cfi_def_cfa_register 7
 1164 0006 7860     		str	r0, [r7, #4]
 814:Generated_Source\PSoC4/PWM_1.c ****     uint8 enableInterrupts;
 815:Generated_Source\PSoC4/PWM_1.c **** 
 816:Generated_Source\PSoC4/PWM_1.c ****     enableInterrupts = CyEnterCriticalSection();
 1165              		.loc 1 816 0
 1166 0008 0F23     		movs	r3, #15
 1167 000a FC18     		adds	r4, r7, r3
 1168 000c FFF7FEFF 		bl	CyEnterCriticalSection
 1169 0010 0300     		movs	r3, r0
 1170 0012 2370     		strb	r3, [r4]
 817:Generated_Source\PSoC4/PWM_1.c **** 
 818:Generated_Source\PSoC4/PWM_1.c ****     PWM_1_CONTROL_REG &= (uint32)~PWM_1_RELOAD_PERIOD_MASK;
 1171              		.loc 1 818 0
 1172 0014 0C4B     		ldr	r3, .L69
 1173 0016 0C4A     		ldr	r2, .L69
 1174 0018 1268     		ldr	r2, [r2]
 1175 001a 0221     		movs	r1, #2
 1176 001c 8A43     		bics	r2, r1
 1177 001e 1A60     		str	r2, [r3]
ARM GAS  C:\Users\ASUS\AppData\Local\Temp\ccPv8D3q.s 			page 36


 819:Generated_Source\PSoC4/PWM_1.c ****     PWM_1_CONTROL_REG |= ((uint32)((swapEnable & PWM_1_1BIT_MASK) <<
 1178              		.loc 1 819 0
 1179 0020 094B     		ldr	r3, .L69
 1180 0022 094A     		ldr	r2, .L69
 1181 0024 1168     		ldr	r1, [r2]
 1182 0026 7A68     		ldr	r2, [r7, #4]
 1183 0028 5200     		lsls	r2, r2, #1
 1184 002a 0220     		movs	r0, #2
 1185 002c 0240     		ands	r2, r0
 1186 002e 0A43     		orrs	r2, r1
 1187 0030 1A60     		str	r2, [r3]
 820:Generated_Source\PSoC4/PWM_1.c ****                                                             PWM_1_RELOAD_PERIOD_SHIFT));
 821:Generated_Source\PSoC4/PWM_1.c **** 
 822:Generated_Source\PSoC4/PWM_1.c ****     CyExitCriticalSection(enableInterrupts);
 1188              		.loc 1 822 0
 1189 0032 0F23     		movs	r3, #15
 1190 0034 FB18     		adds	r3, r7, r3
 1191 0036 1B78     		ldrb	r3, [r3]
 1192 0038 1800     		movs	r0, r3
 1193 003a FFF7FEFF 		bl	CyExitCriticalSection
 823:Generated_Source\PSoC4/PWM_1.c **** }
 1194              		.loc 1 823 0
 1195 003e C046     		nop
 1196 0040 BD46     		mov	sp, r7
 1197 0042 05B0     		add	sp, sp, #20
 1198              		@ sp needed
 1199 0044 90BD     		pop	{r4, r7, pc}
 1200              	.L70:
 1201 0046 C046     		.align	2
 1202              	.L69:
 1203 0048 00010540 		.word	1074069760
 1204              		.cfi_endproc
 1205              	.LFE21:
 1206              		.size	PWM_1_SetPeriodSwap, .-PWM_1_SetPeriodSwap
 1207              		.section	.text.PWM_1_WriteCompare,"ax",%progbits
 1208              		.align	2
 1209              		.global	PWM_1_WriteCompare
 1210              		.code	16
 1211              		.thumb_func
 1212              		.type	PWM_1_WriteCompare, %function
 1213              	PWM_1_WriteCompare:
 1214              	.LFB22:
 824:Generated_Source\PSoC4/PWM_1.c **** 
 825:Generated_Source\PSoC4/PWM_1.c **** 
 826:Generated_Source\PSoC4/PWM_1.c **** /*******************************************************************************
 827:Generated_Source\PSoC4/PWM_1.c **** * Function Name: PWM_1_WriteCompare
 828:Generated_Source\PSoC4/PWM_1.c **** ********************************************************************************
 829:Generated_Source\PSoC4/PWM_1.c **** *
 830:Generated_Source\PSoC4/PWM_1.c **** * Summary:
 831:Generated_Source\PSoC4/PWM_1.c **** *  Writes the 16 bit compare register with the new compare value. Not
 832:Generated_Source\PSoC4/PWM_1.c **** *  applicable for Timer/Counter with Capture or in Quadrature Decoder modes.
 833:Generated_Source\PSoC4/PWM_1.c **** *
 834:Generated_Source\PSoC4/PWM_1.c **** * Parameters:
 835:Generated_Source\PSoC4/PWM_1.c **** *  compare: Compare value
 836:Generated_Source\PSoC4/PWM_1.c **** *
 837:Generated_Source\PSoC4/PWM_1.c **** * Return:
 838:Generated_Source\PSoC4/PWM_1.c **** *  None
ARM GAS  C:\Users\ASUS\AppData\Local\Temp\ccPv8D3q.s 			page 37


 839:Generated_Source\PSoC4/PWM_1.c **** *
 840:Generated_Source\PSoC4/PWM_1.c **** * Note:
 841:Generated_Source\PSoC4/PWM_1.c **** *  It is not recommended to use the value equal to "0" or equal to 
 842:Generated_Source\PSoC4/PWM_1.c **** *  "period value" in Center or Asymmetric align PWM modes on the 
 843:Generated_Source\PSoC4/PWM_1.c **** *  PSoC 4100/PSoC 4200 devices.
 844:Generated_Source\PSoC4/PWM_1.c **** *  PSoC 4000 devices write the 16 bit compare register with the decremented 
 845:Generated_Source\PSoC4/PWM_1.c **** *  compare value in the Up counting mode (except 0x0u), and the incremented 
 846:Generated_Source\PSoC4/PWM_1.c **** *  compare value in the Down counting mode (except 0xFFFFu).
 847:Generated_Source\PSoC4/PWM_1.c **** *
 848:Generated_Source\PSoC4/PWM_1.c **** *******************************************************************************/
 849:Generated_Source\PSoC4/PWM_1.c **** void PWM_1_WriteCompare(uint32 compare)
 850:Generated_Source\PSoC4/PWM_1.c **** {
 1215              		.loc 1 850 0
 1216              		.cfi_startproc
 1217              		@ args = 0, pretend = 0, frame = 8
 1218              		@ frame_needed = 1, uses_anonymous_args = 0
 1219 0000 80B5     		push	{r7, lr}
 1220              		.cfi_def_cfa_offset 8
 1221              		.cfi_offset 7, -8
 1222              		.cfi_offset 14, -4
 1223 0002 82B0     		sub	sp, sp, #8
 1224              		.cfi_def_cfa_offset 16
 1225 0004 00AF     		add	r7, sp, #0
 1226              		.cfi_def_cfa_register 7
 1227 0006 7860     		str	r0, [r7, #4]
 851:Generated_Source\PSoC4/PWM_1.c ****     #if (PWM_1_CY_TCPWM_4000)
 852:Generated_Source\PSoC4/PWM_1.c ****         uint32 currentMode;
 853:Generated_Source\PSoC4/PWM_1.c ****     #endif /* (PWM_1_CY_TCPWM_4000) */
 854:Generated_Source\PSoC4/PWM_1.c **** 
 855:Generated_Source\PSoC4/PWM_1.c ****     #if (PWM_1_CY_TCPWM_4000)
 856:Generated_Source\PSoC4/PWM_1.c ****         currentMode = ((PWM_1_CONTROL_REG & PWM_1_UPDOWN_MASK) >> PWM_1_UPDOWN_SHIFT);
 857:Generated_Source\PSoC4/PWM_1.c **** 
 858:Generated_Source\PSoC4/PWM_1.c ****         if (((uint32)PWM_1__COUNT_DOWN == currentMode) && (0xFFFFu != compare))
 859:Generated_Source\PSoC4/PWM_1.c ****         {
 860:Generated_Source\PSoC4/PWM_1.c ****             compare++;
 861:Generated_Source\PSoC4/PWM_1.c ****         }
 862:Generated_Source\PSoC4/PWM_1.c ****         else if (((uint32)PWM_1__COUNT_UP == currentMode) && (0u != compare))
 863:Generated_Source\PSoC4/PWM_1.c ****         {
 864:Generated_Source\PSoC4/PWM_1.c ****             compare--;
 865:Generated_Source\PSoC4/PWM_1.c ****         }
 866:Generated_Source\PSoC4/PWM_1.c ****         else
 867:Generated_Source\PSoC4/PWM_1.c ****         {
 868:Generated_Source\PSoC4/PWM_1.c ****         }
 869:Generated_Source\PSoC4/PWM_1.c ****         
 870:Generated_Source\PSoC4/PWM_1.c ****     
 871:Generated_Source\PSoC4/PWM_1.c ****     #endif /* (PWM_1_CY_TCPWM_4000) */
 872:Generated_Source\PSoC4/PWM_1.c ****     
 873:Generated_Source\PSoC4/PWM_1.c ****     PWM_1_COMP_CAP_REG = (compare & PWM_1_16BIT_MASK);
 1228              		.loc 1 873 0
 1229 0008 044B     		ldr	r3, .L72
 1230 000a 7A68     		ldr	r2, [r7, #4]
 1231 000c 1204     		lsls	r2, r2, #16
 1232 000e 120C     		lsrs	r2, r2, #16
 1233 0010 1A60     		str	r2, [r3]
 874:Generated_Source\PSoC4/PWM_1.c **** }
 1234              		.loc 1 874 0
 1235 0012 C046     		nop
ARM GAS  C:\Users\ASUS\AppData\Local\Temp\ccPv8D3q.s 			page 38


 1236 0014 BD46     		mov	sp, r7
 1237 0016 02B0     		add	sp, sp, #8
 1238              		@ sp needed
 1239 0018 80BD     		pop	{r7, pc}
 1240              	.L73:
 1241 001a C046     		.align	2
 1242              	.L72:
 1243 001c 0C010540 		.word	1074069772
 1244              		.cfi_endproc
 1245              	.LFE22:
 1246              		.size	PWM_1_WriteCompare, .-PWM_1_WriteCompare
 1247              		.section	.text.PWM_1_ReadCompare,"ax",%progbits
 1248              		.align	2
 1249              		.global	PWM_1_ReadCompare
 1250              		.code	16
 1251              		.thumb_func
 1252              		.type	PWM_1_ReadCompare, %function
 1253              	PWM_1_ReadCompare:
 1254              	.LFB23:
 875:Generated_Source\PSoC4/PWM_1.c **** 
 876:Generated_Source\PSoC4/PWM_1.c **** 
 877:Generated_Source\PSoC4/PWM_1.c **** /*******************************************************************************
 878:Generated_Source\PSoC4/PWM_1.c **** * Function Name: PWM_1_ReadCompare
 879:Generated_Source\PSoC4/PWM_1.c **** ********************************************************************************
 880:Generated_Source\PSoC4/PWM_1.c **** *
 881:Generated_Source\PSoC4/PWM_1.c **** * Summary:
 882:Generated_Source\PSoC4/PWM_1.c **** *  Reads the compare register. Not applicable for Timer/Counter with Capture
 883:Generated_Source\PSoC4/PWM_1.c **** *  or in Quadrature Decoder modes.
 884:Generated_Source\PSoC4/PWM_1.c **** *  PSoC 4000 devices read the incremented compare register value in the 
 885:Generated_Source\PSoC4/PWM_1.c **** *  Up counting mode (except 0xFFFFu), and the decremented value in the 
 886:Generated_Source\PSoC4/PWM_1.c **** *  Down counting mode (except 0x0u).
 887:Generated_Source\PSoC4/PWM_1.c **** *
 888:Generated_Source\PSoC4/PWM_1.c **** * Parameters:
 889:Generated_Source\PSoC4/PWM_1.c **** *  None
 890:Generated_Source\PSoC4/PWM_1.c **** *
 891:Generated_Source\PSoC4/PWM_1.c **** * Return:
 892:Generated_Source\PSoC4/PWM_1.c **** *  Compare value
 893:Generated_Source\PSoC4/PWM_1.c **** *
 894:Generated_Source\PSoC4/PWM_1.c **** * Note:
 895:Generated_Source\PSoC4/PWM_1.c **** *  PSoC 4000 devices read the incremented compare register value in the 
 896:Generated_Source\PSoC4/PWM_1.c **** *  Up counting mode (except 0xFFFFu), and the decremented value in the 
 897:Generated_Source\PSoC4/PWM_1.c **** *  Down counting mode (except 0x0u).
 898:Generated_Source\PSoC4/PWM_1.c **** *
 899:Generated_Source\PSoC4/PWM_1.c **** *******************************************************************************/
 900:Generated_Source\PSoC4/PWM_1.c **** uint32 PWM_1_ReadCompare(void)
 901:Generated_Source\PSoC4/PWM_1.c **** {
 1255              		.loc 1 901 0
 1256              		.cfi_startproc
 1257              		@ args = 0, pretend = 0, frame = 0
 1258              		@ frame_needed = 1, uses_anonymous_args = 0
 1259 0000 80B5     		push	{r7, lr}
 1260              		.cfi_def_cfa_offset 8
 1261              		.cfi_offset 7, -8
 1262              		.cfi_offset 14, -4
 1263 0002 00AF     		add	r7, sp, #0
 1264              		.cfi_def_cfa_register 7
 902:Generated_Source\PSoC4/PWM_1.c ****     #if (PWM_1_CY_TCPWM_4000)
ARM GAS  C:\Users\ASUS\AppData\Local\Temp\ccPv8D3q.s 			page 39


 903:Generated_Source\PSoC4/PWM_1.c ****         uint32 currentMode;
 904:Generated_Source\PSoC4/PWM_1.c ****         uint32 regVal;
 905:Generated_Source\PSoC4/PWM_1.c ****     #endif /* (PWM_1_CY_TCPWM_4000) */
 906:Generated_Source\PSoC4/PWM_1.c **** 
 907:Generated_Source\PSoC4/PWM_1.c ****     #if (PWM_1_CY_TCPWM_4000)
 908:Generated_Source\PSoC4/PWM_1.c ****         currentMode = ((PWM_1_CONTROL_REG & PWM_1_UPDOWN_MASK) >> PWM_1_UPDOWN_SHIFT);
 909:Generated_Source\PSoC4/PWM_1.c ****         
 910:Generated_Source\PSoC4/PWM_1.c ****         regVal = PWM_1_COMP_CAP_REG;
 911:Generated_Source\PSoC4/PWM_1.c ****         
 912:Generated_Source\PSoC4/PWM_1.c ****         if (((uint32)PWM_1__COUNT_DOWN == currentMode) && (0u != regVal))
 913:Generated_Source\PSoC4/PWM_1.c ****         {
 914:Generated_Source\PSoC4/PWM_1.c ****             regVal--;
 915:Generated_Source\PSoC4/PWM_1.c ****         }
 916:Generated_Source\PSoC4/PWM_1.c ****         else if (((uint32)PWM_1__COUNT_UP == currentMode) && (0xFFFFu != regVal))
 917:Generated_Source\PSoC4/PWM_1.c ****         {
 918:Generated_Source\PSoC4/PWM_1.c ****             regVal++;
 919:Generated_Source\PSoC4/PWM_1.c ****         }
 920:Generated_Source\PSoC4/PWM_1.c ****         else
 921:Generated_Source\PSoC4/PWM_1.c ****         {
 922:Generated_Source\PSoC4/PWM_1.c ****         }
 923:Generated_Source\PSoC4/PWM_1.c **** 
 924:Generated_Source\PSoC4/PWM_1.c ****         return (regVal & PWM_1_16BIT_MASK);
 925:Generated_Source\PSoC4/PWM_1.c ****     #else
 926:Generated_Source\PSoC4/PWM_1.c ****         return (PWM_1_COMP_CAP_REG & PWM_1_16BIT_MASK);
 1265              		.loc 1 926 0
 1266 0004 034B     		ldr	r3, .L76
 1267 0006 1B68     		ldr	r3, [r3]
 1268 0008 1B04     		lsls	r3, r3, #16
 1269 000a 1B0C     		lsrs	r3, r3, #16
 927:Generated_Source\PSoC4/PWM_1.c ****     #endif /* (PWM_1_CY_TCPWM_4000) */
 928:Generated_Source\PSoC4/PWM_1.c **** }
 1270              		.loc 1 928 0
 1271 000c 1800     		movs	r0, r3
 1272 000e BD46     		mov	sp, r7
 1273              		@ sp needed
 1274 0010 80BD     		pop	{r7, pc}
 1275              	.L77:
 1276 0012 C046     		.align	2
 1277              	.L76:
 1278 0014 0C010540 		.word	1074069772
 1279              		.cfi_endproc
 1280              	.LFE23:
 1281              		.size	PWM_1_ReadCompare, .-PWM_1_ReadCompare
 1282              		.section	.text.PWM_1_WriteCompareBuf,"ax",%progbits
 1283              		.align	2
 1284              		.global	PWM_1_WriteCompareBuf
 1285              		.code	16
 1286              		.thumb_func
 1287              		.type	PWM_1_WriteCompareBuf, %function
 1288              	PWM_1_WriteCompareBuf:
 1289              	.LFB24:
 929:Generated_Source\PSoC4/PWM_1.c **** 
 930:Generated_Source\PSoC4/PWM_1.c **** 
 931:Generated_Source\PSoC4/PWM_1.c **** /*******************************************************************************
 932:Generated_Source\PSoC4/PWM_1.c **** * Function Name: PWM_1_WriteCompareBuf
 933:Generated_Source\PSoC4/PWM_1.c **** ********************************************************************************
 934:Generated_Source\PSoC4/PWM_1.c **** *
ARM GAS  C:\Users\ASUS\AppData\Local\Temp\ccPv8D3q.s 			page 40


 935:Generated_Source\PSoC4/PWM_1.c **** * Summary:
 936:Generated_Source\PSoC4/PWM_1.c **** *  Writes the 16 bit compare buffer register with the new compare value. Not
 937:Generated_Source\PSoC4/PWM_1.c **** *  applicable for Timer/Counter with Capture or in Quadrature Decoder modes.
 938:Generated_Source\PSoC4/PWM_1.c **** *
 939:Generated_Source\PSoC4/PWM_1.c **** * Parameters:
 940:Generated_Source\PSoC4/PWM_1.c **** *  compareBuf: Compare value
 941:Generated_Source\PSoC4/PWM_1.c **** *
 942:Generated_Source\PSoC4/PWM_1.c **** * Return:
 943:Generated_Source\PSoC4/PWM_1.c **** *  None
 944:Generated_Source\PSoC4/PWM_1.c **** *
 945:Generated_Source\PSoC4/PWM_1.c **** * Note:
 946:Generated_Source\PSoC4/PWM_1.c **** *  It is not recommended to use the value equal to "0" or equal to 
 947:Generated_Source\PSoC4/PWM_1.c **** *  "period value" in Center or Asymmetric align PWM modes on the 
 948:Generated_Source\PSoC4/PWM_1.c **** *  PSoC 4100/PSoC 4200 devices.
 949:Generated_Source\PSoC4/PWM_1.c **** *  PSoC 4000 devices write the 16 bit compare register with the decremented 
 950:Generated_Source\PSoC4/PWM_1.c **** *  compare value in the Up counting mode (except 0x0u), and the incremented 
 951:Generated_Source\PSoC4/PWM_1.c **** *  compare value in the Down counting mode (except 0xFFFFu).
 952:Generated_Source\PSoC4/PWM_1.c **** *
 953:Generated_Source\PSoC4/PWM_1.c **** *******************************************************************************/
 954:Generated_Source\PSoC4/PWM_1.c **** void PWM_1_WriteCompareBuf(uint32 compareBuf)
 955:Generated_Source\PSoC4/PWM_1.c **** {
 1290              		.loc 1 955 0
 1291              		.cfi_startproc
 1292              		@ args = 0, pretend = 0, frame = 8
 1293              		@ frame_needed = 1, uses_anonymous_args = 0
 1294 0000 80B5     		push	{r7, lr}
 1295              		.cfi_def_cfa_offset 8
 1296              		.cfi_offset 7, -8
 1297              		.cfi_offset 14, -4
 1298 0002 82B0     		sub	sp, sp, #8
 1299              		.cfi_def_cfa_offset 16
 1300 0004 00AF     		add	r7, sp, #0
 1301              		.cfi_def_cfa_register 7
 1302 0006 7860     		str	r0, [r7, #4]
 956:Generated_Source\PSoC4/PWM_1.c ****     #if (PWM_1_CY_TCPWM_4000)
 957:Generated_Source\PSoC4/PWM_1.c ****         uint32 currentMode;
 958:Generated_Source\PSoC4/PWM_1.c ****     #endif /* (PWM_1_CY_TCPWM_4000) */
 959:Generated_Source\PSoC4/PWM_1.c **** 
 960:Generated_Source\PSoC4/PWM_1.c ****     #if (PWM_1_CY_TCPWM_4000)
 961:Generated_Source\PSoC4/PWM_1.c ****         currentMode = ((PWM_1_CONTROL_REG & PWM_1_UPDOWN_MASK) >> PWM_1_UPDOWN_SHIFT);
 962:Generated_Source\PSoC4/PWM_1.c **** 
 963:Generated_Source\PSoC4/PWM_1.c ****         if (((uint32)PWM_1__COUNT_DOWN == currentMode) && (0xFFFFu != compareBuf))
 964:Generated_Source\PSoC4/PWM_1.c ****         {
 965:Generated_Source\PSoC4/PWM_1.c ****             compareBuf++;
 966:Generated_Source\PSoC4/PWM_1.c ****         }
 967:Generated_Source\PSoC4/PWM_1.c ****         else if (((uint32)PWM_1__COUNT_UP == currentMode) && (0u != compareBuf))
 968:Generated_Source\PSoC4/PWM_1.c ****         {
 969:Generated_Source\PSoC4/PWM_1.c ****             compareBuf --;
 970:Generated_Source\PSoC4/PWM_1.c ****         }
 971:Generated_Source\PSoC4/PWM_1.c ****         else
 972:Generated_Source\PSoC4/PWM_1.c ****         {
 973:Generated_Source\PSoC4/PWM_1.c ****         }
 974:Generated_Source\PSoC4/PWM_1.c ****     #endif /* (PWM_1_CY_TCPWM_4000) */
 975:Generated_Source\PSoC4/PWM_1.c ****     
 976:Generated_Source\PSoC4/PWM_1.c ****     PWM_1_COMP_CAP_BUF_REG = (compareBuf & PWM_1_16BIT_MASK);
 1303              		.loc 1 976 0
 1304 0008 044B     		ldr	r3, .L79
ARM GAS  C:\Users\ASUS\AppData\Local\Temp\ccPv8D3q.s 			page 41


 1305 000a 7A68     		ldr	r2, [r7, #4]
 1306 000c 1204     		lsls	r2, r2, #16
 1307 000e 120C     		lsrs	r2, r2, #16
 1308 0010 1A60     		str	r2, [r3]
 977:Generated_Source\PSoC4/PWM_1.c **** }
 1309              		.loc 1 977 0
 1310 0012 C046     		nop
 1311 0014 BD46     		mov	sp, r7
 1312 0016 02B0     		add	sp, sp, #8
 1313              		@ sp needed
 1314 0018 80BD     		pop	{r7, pc}
 1315              	.L80:
 1316 001a C046     		.align	2
 1317              	.L79:
 1318 001c 10010540 		.word	1074069776
 1319              		.cfi_endproc
 1320              	.LFE24:
 1321              		.size	PWM_1_WriteCompareBuf, .-PWM_1_WriteCompareBuf
 1322              		.section	.text.PWM_1_ReadCompareBuf,"ax",%progbits
 1323              		.align	2
 1324              		.global	PWM_1_ReadCompareBuf
 1325              		.code	16
 1326              		.thumb_func
 1327              		.type	PWM_1_ReadCompareBuf, %function
 1328              	PWM_1_ReadCompareBuf:
 1329              	.LFB25:
 978:Generated_Source\PSoC4/PWM_1.c **** 
 979:Generated_Source\PSoC4/PWM_1.c **** 
 980:Generated_Source\PSoC4/PWM_1.c **** /*******************************************************************************
 981:Generated_Source\PSoC4/PWM_1.c **** * Function Name: PWM_1_ReadCompareBuf
 982:Generated_Source\PSoC4/PWM_1.c **** ********************************************************************************
 983:Generated_Source\PSoC4/PWM_1.c **** *
 984:Generated_Source\PSoC4/PWM_1.c **** * Summary:
 985:Generated_Source\PSoC4/PWM_1.c **** *  Reads the compare buffer register. Not applicable for Timer/Counter with
 986:Generated_Source\PSoC4/PWM_1.c **** *  Capture or in Quadrature Decoder modes.
 987:Generated_Source\PSoC4/PWM_1.c **** *
 988:Generated_Source\PSoC4/PWM_1.c **** * Parameters:
 989:Generated_Source\PSoC4/PWM_1.c **** *  None
 990:Generated_Source\PSoC4/PWM_1.c **** *
 991:Generated_Source\PSoC4/PWM_1.c **** * Return:
 992:Generated_Source\PSoC4/PWM_1.c **** *  Compare buffer value
 993:Generated_Source\PSoC4/PWM_1.c **** *
 994:Generated_Source\PSoC4/PWM_1.c **** * Note:
 995:Generated_Source\PSoC4/PWM_1.c **** *  PSoC 4000 devices read the incremented compare register value in the 
 996:Generated_Source\PSoC4/PWM_1.c **** *  Up counting mode (except 0xFFFFu), and the decremented value in the 
 997:Generated_Source\PSoC4/PWM_1.c **** *  Down counting mode (except 0x0u).
 998:Generated_Source\PSoC4/PWM_1.c **** *
 999:Generated_Source\PSoC4/PWM_1.c **** *******************************************************************************/
1000:Generated_Source\PSoC4/PWM_1.c **** uint32 PWM_1_ReadCompareBuf(void)
1001:Generated_Source\PSoC4/PWM_1.c **** {
 1330              		.loc 1 1001 0
 1331              		.cfi_startproc
 1332              		@ args = 0, pretend = 0, frame = 0
 1333              		@ frame_needed = 1, uses_anonymous_args = 0
 1334 0000 80B5     		push	{r7, lr}
 1335              		.cfi_def_cfa_offset 8
 1336              		.cfi_offset 7, -8
ARM GAS  C:\Users\ASUS\AppData\Local\Temp\ccPv8D3q.s 			page 42


 1337              		.cfi_offset 14, -4
 1338 0002 00AF     		add	r7, sp, #0
 1339              		.cfi_def_cfa_register 7
1002:Generated_Source\PSoC4/PWM_1.c ****     #if (PWM_1_CY_TCPWM_4000)
1003:Generated_Source\PSoC4/PWM_1.c ****         uint32 currentMode;
1004:Generated_Source\PSoC4/PWM_1.c ****         uint32 regVal;
1005:Generated_Source\PSoC4/PWM_1.c ****     #endif /* (PWM_1_CY_TCPWM_4000) */
1006:Generated_Source\PSoC4/PWM_1.c **** 
1007:Generated_Source\PSoC4/PWM_1.c ****     #if (PWM_1_CY_TCPWM_4000)
1008:Generated_Source\PSoC4/PWM_1.c ****         currentMode = ((PWM_1_CONTROL_REG & PWM_1_UPDOWN_MASK) >> PWM_1_UPDOWN_SHIFT);
1009:Generated_Source\PSoC4/PWM_1.c **** 
1010:Generated_Source\PSoC4/PWM_1.c ****         regVal = PWM_1_COMP_CAP_BUF_REG;
1011:Generated_Source\PSoC4/PWM_1.c ****         
1012:Generated_Source\PSoC4/PWM_1.c ****         if (((uint32)PWM_1__COUNT_DOWN == currentMode) && (0u != regVal))
1013:Generated_Source\PSoC4/PWM_1.c ****         {
1014:Generated_Source\PSoC4/PWM_1.c ****             regVal--;
1015:Generated_Source\PSoC4/PWM_1.c ****         }
1016:Generated_Source\PSoC4/PWM_1.c ****         else if (((uint32)PWM_1__COUNT_UP == currentMode) && (0xFFFFu != regVal))
1017:Generated_Source\PSoC4/PWM_1.c ****         {
1018:Generated_Source\PSoC4/PWM_1.c ****             regVal++;
1019:Generated_Source\PSoC4/PWM_1.c ****         }
1020:Generated_Source\PSoC4/PWM_1.c ****         else
1021:Generated_Source\PSoC4/PWM_1.c ****         {
1022:Generated_Source\PSoC4/PWM_1.c ****         }
1023:Generated_Source\PSoC4/PWM_1.c **** 
1024:Generated_Source\PSoC4/PWM_1.c ****         return (regVal & PWM_1_16BIT_MASK);
1025:Generated_Source\PSoC4/PWM_1.c ****     #else
1026:Generated_Source\PSoC4/PWM_1.c ****         return (PWM_1_COMP_CAP_BUF_REG & PWM_1_16BIT_MASK);
 1340              		.loc 1 1026 0
 1341 0004 034B     		ldr	r3, .L83
 1342 0006 1B68     		ldr	r3, [r3]
 1343 0008 1B04     		lsls	r3, r3, #16
 1344 000a 1B0C     		lsrs	r3, r3, #16
1027:Generated_Source\PSoC4/PWM_1.c ****     #endif /* (PWM_1_CY_TCPWM_4000) */
1028:Generated_Source\PSoC4/PWM_1.c **** }
 1345              		.loc 1 1028 0
 1346 000c 1800     		movs	r0, r3
 1347 000e BD46     		mov	sp, r7
 1348              		@ sp needed
 1349 0010 80BD     		pop	{r7, pc}
 1350              	.L84:
 1351 0012 C046     		.align	2
 1352              	.L83:
 1353 0014 10010540 		.word	1074069776
 1354              		.cfi_endproc
 1355              	.LFE25:
 1356              		.size	PWM_1_ReadCompareBuf, .-PWM_1_ReadCompareBuf
 1357              		.section	.text.PWM_1_ReadCapture,"ax",%progbits
 1358              		.align	2
 1359              		.global	PWM_1_ReadCapture
 1360              		.code	16
 1361              		.thumb_func
 1362              		.type	PWM_1_ReadCapture, %function
 1363              	PWM_1_ReadCapture:
 1364              	.LFB26:
1029:Generated_Source\PSoC4/PWM_1.c **** 
1030:Generated_Source\PSoC4/PWM_1.c **** 
ARM GAS  C:\Users\ASUS\AppData\Local\Temp\ccPv8D3q.s 			page 43


1031:Generated_Source\PSoC4/PWM_1.c **** /*******************************************************************************
1032:Generated_Source\PSoC4/PWM_1.c **** * Function Name: PWM_1_ReadCapture
1033:Generated_Source\PSoC4/PWM_1.c **** ********************************************************************************
1034:Generated_Source\PSoC4/PWM_1.c **** *
1035:Generated_Source\PSoC4/PWM_1.c **** * Summary:
1036:Generated_Source\PSoC4/PWM_1.c **** *  Reads the captured counter value. This API is applicable only for
1037:Generated_Source\PSoC4/PWM_1.c **** *  Timer/Counter with the capture mode and Quadrature Decoder modes.
1038:Generated_Source\PSoC4/PWM_1.c **** *
1039:Generated_Source\PSoC4/PWM_1.c **** * Parameters:
1040:Generated_Source\PSoC4/PWM_1.c **** *  None
1041:Generated_Source\PSoC4/PWM_1.c **** *
1042:Generated_Source\PSoC4/PWM_1.c **** * Return:
1043:Generated_Source\PSoC4/PWM_1.c **** *  Capture value
1044:Generated_Source\PSoC4/PWM_1.c **** *
1045:Generated_Source\PSoC4/PWM_1.c **** *******************************************************************************/
1046:Generated_Source\PSoC4/PWM_1.c **** uint32 PWM_1_ReadCapture(void)
1047:Generated_Source\PSoC4/PWM_1.c **** {
 1365              		.loc 1 1047 0
 1366              		.cfi_startproc
 1367              		@ args = 0, pretend = 0, frame = 0
 1368              		@ frame_needed = 1, uses_anonymous_args = 0
 1369 0000 80B5     		push	{r7, lr}
 1370              		.cfi_def_cfa_offset 8
 1371              		.cfi_offset 7, -8
 1372              		.cfi_offset 14, -4
 1373 0002 00AF     		add	r7, sp, #0
 1374              		.cfi_def_cfa_register 7
1048:Generated_Source\PSoC4/PWM_1.c ****     return (PWM_1_COMP_CAP_REG & PWM_1_16BIT_MASK);
 1375              		.loc 1 1048 0
 1376 0004 034B     		ldr	r3, .L87
 1377 0006 1B68     		ldr	r3, [r3]
 1378 0008 1B04     		lsls	r3, r3, #16
 1379 000a 1B0C     		lsrs	r3, r3, #16
1049:Generated_Source\PSoC4/PWM_1.c **** }
 1380              		.loc 1 1049 0
 1381 000c 1800     		movs	r0, r3
 1382 000e BD46     		mov	sp, r7
 1383              		@ sp needed
 1384 0010 80BD     		pop	{r7, pc}
 1385              	.L88:
 1386 0012 C046     		.align	2
 1387              	.L87:
 1388 0014 0C010540 		.word	1074069772
 1389              		.cfi_endproc
 1390              	.LFE26:
 1391              		.size	PWM_1_ReadCapture, .-PWM_1_ReadCapture
 1392              		.section	.text.PWM_1_ReadCaptureBuf,"ax",%progbits
 1393              		.align	2
 1394              		.global	PWM_1_ReadCaptureBuf
 1395              		.code	16
 1396              		.thumb_func
 1397              		.type	PWM_1_ReadCaptureBuf, %function
 1398              	PWM_1_ReadCaptureBuf:
 1399              	.LFB27:
1050:Generated_Source\PSoC4/PWM_1.c **** 
1051:Generated_Source\PSoC4/PWM_1.c **** 
1052:Generated_Source\PSoC4/PWM_1.c **** /*******************************************************************************
ARM GAS  C:\Users\ASUS\AppData\Local\Temp\ccPv8D3q.s 			page 44


1053:Generated_Source\PSoC4/PWM_1.c **** * Function Name: PWM_1_ReadCaptureBuf
1054:Generated_Source\PSoC4/PWM_1.c **** ********************************************************************************
1055:Generated_Source\PSoC4/PWM_1.c **** *
1056:Generated_Source\PSoC4/PWM_1.c **** * Summary:
1057:Generated_Source\PSoC4/PWM_1.c **** *  Reads the capture buffer register. This API is applicable only for
1058:Generated_Source\PSoC4/PWM_1.c **** *  Timer/Counter with the capture mode and Quadrature Decoder modes.
1059:Generated_Source\PSoC4/PWM_1.c **** *
1060:Generated_Source\PSoC4/PWM_1.c **** * Parameters:
1061:Generated_Source\PSoC4/PWM_1.c **** *  None
1062:Generated_Source\PSoC4/PWM_1.c **** *
1063:Generated_Source\PSoC4/PWM_1.c **** * Return:
1064:Generated_Source\PSoC4/PWM_1.c **** *  Capture buffer value
1065:Generated_Source\PSoC4/PWM_1.c **** *
1066:Generated_Source\PSoC4/PWM_1.c **** *******************************************************************************/
1067:Generated_Source\PSoC4/PWM_1.c **** uint32 PWM_1_ReadCaptureBuf(void)
1068:Generated_Source\PSoC4/PWM_1.c **** {
 1400              		.loc 1 1068 0
 1401              		.cfi_startproc
 1402              		@ args = 0, pretend = 0, frame = 0
 1403              		@ frame_needed = 1, uses_anonymous_args = 0
 1404 0000 80B5     		push	{r7, lr}
 1405              		.cfi_def_cfa_offset 8
 1406              		.cfi_offset 7, -8
 1407              		.cfi_offset 14, -4
 1408 0002 00AF     		add	r7, sp, #0
 1409              		.cfi_def_cfa_register 7
1069:Generated_Source\PSoC4/PWM_1.c ****     return (PWM_1_COMP_CAP_BUF_REG & PWM_1_16BIT_MASK);
 1410              		.loc 1 1069 0
 1411 0004 034B     		ldr	r3, .L91
 1412 0006 1B68     		ldr	r3, [r3]
 1413 0008 1B04     		lsls	r3, r3, #16
 1414 000a 1B0C     		lsrs	r3, r3, #16
1070:Generated_Source\PSoC4/PWM_1.c **** }
 1415              		.loc 1 1070 0
 1416 000c 1800     		movs	r0, r3
 1417 000e BD46     		mov	sp, r7
 1418              		@ sp needed
 1419 0010 80BD     		pop	{r7, pc}
 1420              	.L92:
 1421 0012 C046     		.align	2
 1422              	.L91:
 1423 0014 10010540 		.word	1074069776
 1424              		.cfi_endproc
 1425              	.LFE27:
 1426              		.size	PWM_1_ReadCaptureBuf, .-PWM_1_ReadCaptureBuf
 1427              		.section	.text.PWM_1_SetCaptureMode,"ax",%progbits
 1428              		.align	2
 1429              		.global	PWM_1_SetCaptureMode
 1430              		.code	16
 1431              		.thumb_func
 1432              		.type	PWM_1_SetCaptureMode, %function
 1433              	PWM_1_SetCaptureMode:
 1434              	.LFB28:
1071:Generated_Source\PSoC4/PWM_1.c **** 
1072:Generated_Source\PSoC4/PWM_1.c **** 
1073:Generated_Source\PSoC4/PWM_1.c **** /*******************************************************************************
1074:Generated_Source\PSoC4/PWM_1.c **** * Function Name: PWM_1_SetCaptureMode
ARM GAS  C:\Users\ASUS\AppData\Local\Temp\ccPv8D3q.s 			page 45


1075:Generated_Source\PSoC4/PWM_1.c **** ********************************************************************************
1076:Generated_Source\PSoC4/PWM_1.c **** *
1077:Generated_Source\PSoC4/PWM_1.c **** * Summary:
1078:Generated_Source\PSoC4/PWM_1.c **** *  Sets the capture trigger mode. For PWM mode this is the switch input.
1079:Generated_Source\PSoC4/PWM_1.c **** *  This input is not applicable to the Timer/Counter without Capture and
1080:Generated_Source\PSoC4/PWM_1.c **** *  Quadrature Decoder modes.
1081:Generated_Source\PSoC4/PWM_1.c **** *
1082:Generated_Source\PSoC4/PWM_1.c **** * Parameters:
1083:Generated_Source\PSoC4/PWM_1.c **** *  triggerMode: Enumerated trigger mode value
1084:Generated_Source\PSoC4/PWM_1.c **** *   Values:
1085:Generated_Source\PSoC4/PWM_1.c **** *     - PWM_1_TRIG_LEVEL     - Level
1086:Generated_Source\PSoC4/PWM_1.c **** *     - PWM_1_TRIG_RISING    - Rising edge
1087:Generated_Source\PSoC4/PWM_1.c **** *     - PWM_1_TRIG_FALLING   - Falling edge
1088:Generated_Source\PSoC4/PWM_1.c **** *     - PWM_1_TRIG_BOTH      - Both rising and falling edge
1089:Generated_Source\PSoC4/PWM_1.c **** *
1090:Generated_Source\PSoC4/PWM_1.c **** * Return:
1091:Generated_Source\PSoC4/PWM_1.c **** *  None
1092:Generated_Source\PSoC4/PWM_1.c **** *
1093:Generated_Source\PSoC4/PWM_1.c **** *******************************************************************************/
1094:Generated_Source\PSoC4/PWM_1.c **** void PWM_1_SetCaptureMode(uint32 triggerMode)
1095:Generated_Source\PSoC4/PWM_1.c **** {
 1435              		.loc 1 1095 0
 1436              		.cfi_startproc
 1437              		@ args = 0, pretend = 0, frame = 16
 1438              		@ frame_needed = 1, uses_anonymous_args = 0
 1439 0000 90B5     		push	{r4, r7, lr}
 1440              		.cfi_def_cfa_offset 12
 1441              		.cfi_offset 4, -12
 1442              		.cfi_offset 7, -8
 1443              		.cfi_offset 14, -4
 1444 0002 85B0     		sub	sp, sp, #20
 1445              		.cfi_def_cfa_offset 32
 1446 0004 00AF     		add	r7, sp, #0
 1447              		.cfi_def_cfa_register 7
 1448 0006 7860     		str	r0, [r7, #4]
1096:Generated_Source\PSoC4/PWM_1.c ****     uint8 enableInterrupts;
1097:Generated_Source\PSoC4/PWM_1.c **** 
1098:Generated_Source\PSoC4/PWM_1.c ****     enableInterrupts = CyEnterCriticalSection();
 1449              		.loc 1 1098 0
 1450 0008 0F23     		movs	r3, #15
 1451 000a FC18     		adds	r4, r7, r3
 1452 000c FFF7FEFF 		bl	CyEnterCriticalSection
 1453 0010 0300     		movs	r3, r0
 1454 0012 2370     		strb	r3, [r4]
1099:Generated_Source\PSoC4/PWM_1.c **** 
1100:Generated_Source\PSoC4/PWM_1.c ****     PWM_1_TRIG_CONTROL1_REG &= (uint32)~PWM_1_CAPTURE_MASK;
 1455              		.loc 1 1100 0
 1456 0014 0A4B     		ldr	r3, .L94
 1457 0016 0A4A     		ldr	r2, .L94
 1458 0018 1268     		ldr	r2, [r2]
 1459 001a 0321     		movs	r1, #3
 1460 001c 8A43     		bics	r2, r1
 1461 001e 1A60     		str	r2, [r3]
1101:Generated_Source\PSoC4/PWM_1.c ****     PWM_1_TRIG_CONTROL1_REG |= triggerMode;
 1462              		.loc 1 1101 0
 1463 0020 074B     		ldr	r3, .L94
 1464 0022 074A     		ldr	r2, .L94
ARM GAS  C:\Users\ASUS\AppData\Local\Temp\ccPv8D3q.s 			page 46


 1465 0024 1168     		ldr	r1, [r2]
 1466 0026 7A68     		ldr	r2, [r7, #4]
 1467 0028 0A43     		orrs	r2, r1
 1468 002a 1A60     		str	r2, [r3]
1102:Generated_Source\PSoC4/PWM_1.c **** 
1103:Generated_Source\PSoC4/PWM_1.c ****     CyExitCriticalSection(enableInterrupts);
 1469              		.loc 1 1103 0
 1470 002c 0F23     		movs	r3, #15
 1471 002e FB18     		adds	r3, r7, r3
 1472 0030 1B78     		ldrb	r3, [r3]
 1473 0032 1800     		movs	r0, r3
 1474 0034 FFF7FEFF 		bl	CyExitCriticalSection
1104:Generated_Source\PSoC4/PWM_1.c **** }
 1475              		.loc 1 1104 0
 1476 0038 C046     		nop
 1477 003a BD46     		mov	sp, r7
 1478 003c 05B0     		add	sp, sp, #20
 1479              		@ sp needed
 1480 003e 90BD     		pop	{r4, r7, pc}
 1481              	.L95:
 1482              		.align	2
 1483              	.L94:
 1484 0040 24010540 		.word	1074069796
 1485              		.cfi_endproc
 1486              	.LFE28:
 1487              		.size	PWM_1_SetCaptureMode, .-PWM_1_SetCaptureMode
 1488              		.section	.text.PWM_1_SetReloadMode,"ax",%progbits
 1489              		.align	2
 1490              		.global	PWM_1_SetReloadMode
 1491              		.code	16
 1492              		.thumb_func
 1493              		.type	PWM_1_SetReloadMode, %function
 1494              	PWM_1_SetReloadMode:
 1495              	.LFB29:
1105:Generated_Source\PSoC4/PWM_1.c **** 
1106:Generated_Source\PSoC4/PWM_1.c **** 
1107:Generated_Source\PSoC4/PWM_1.c **** /*******************************************************************************
1108:Generated_Source\PSoC4/PWM_1.c **** * Function Name: PWM_1_SetReloadMode
1109:Generated_Source\PSoC4/PWM_1.c **** ********************************************************************************
1110:Generated_Source\PSoC4/PWM_1.c **** *
1111:Generated_Source\PSoC4/PWM_1.c **** * Summary:
1112:Generated_Source\PSoC4/PWM_1.c **** *  Sets the reload trigger mode. For Quadrature Decoder mode this is the index
1113:Generated_Source\PSoC4/PWM_1.c **** *  input.
1114:Generated_Source\PSoC4/PWM_1.c **** *
1115:Generated_Source\PSoC4/PWM_1.c **** * Parameters:
1116:Generated_Source\PSoC4/PWM_1.c **** *  triggerMode: Enumerated trigger mode value
1117:Generated_Source\PSoC4/PWM_1.c **** *   Values:
1118:Generated_Source\PSoC4/PWM_1.c **** *     - PWM_1_TRIG_LEVEL     - Level
1119:Generated_Source\PSoC4/PWM_1.c **** *     - PWM_1_TRIG_RISING    - Rising edge
1120:Generated_Source\PSoC4/PWM_1.c **** *     - PWM_1_TRIG_FALLING   - Falling edge
1121:Generated_Source\PSoC4/PWM_1.c **** *     - PWM_1_TRIG_BOTH      - Both rising and falling edge
1122:Generated_Source\PSoC4/PWM_1.c **** *
1123:Generated_Source\PSoC4/PWM_1.c **** * Return:
1124:Generated_Source\PSoC4/PWM_1.c **** *  None
1125:Generated_Source\PSoC4/PWM_1.c **** *
1126:Generated_Source\PSoC4/PWM_1.c **** *******************************************************************************/
1127:Generated_Source\PSoC4/PWM_1.c **** void PWM_1_SetReloadMode(uint32 triggerMode)
ARM GAS  C:\Users\ASUS\AppData\Local\Temp\ccPv8D3q.s 			page 47


1128:Generated_Source\PSoC4/PWM_1.c **** {
 1496              		.loc 1 1128 0
 1497              		.cfi_startproc
 1498              		@ args = 0, pretend = 0, frame = 16
 1499              		@ frame_needed = 1, uses_anonymous_args = 0
 1500 0000 90B5     		push	{r4, r7, lr}
 1501              		.cfi_def_cfa_offset 12
 1502              		.cfi_offset 4, -12
 1503              		.cfi_offset 7, -8
 1504              		.cfi_offset 14, -4
 1505 0002 85B0     		sub	sp, sp, #20
 1506              		.cfi_def_cfa_offset 32
 1507 0004 00AF     		add	r7, sp, #0
 1508              		.cfi_def_cfa_register 7
 1509 0006 7860     		str	r0, [r7, #4]
1129:Generated_Source\PSoC4/PWM_1.c ****     uint8 enableInterrupts;
1130:Generated_Source\PSoC4/PWM_1.c **** 
1131:Generated_Source\PSoC4/PWM_1.c ****     enableInterrupts = CyEnterCriticalSection();
 1510              		.loc 1 1131 0
 1511 0008 0F23     		movs	r3, #15
 1512 000a FC18     		adds	r4, r7, r3
 1513 000c FFF7FEFF 		bl	CyEnterCriticalSection
 1514 0010 0300     		movs	r3, r0
 1515 0012 2370     		strb	r3, [r4]
1132:Generated_Source\PSoC4/PWM_1.c **** 
1133:Generated_Source\PSoC4/PWM_1.c ****     PWM_1_TRIG_CONTROL1_REG &= (uint32)~PWM_1_RELOAD_MASK;
 1516              		.loc 1 1133 0
 1517 0014 0B4B     		ldr	r3, .L97
 1518 0016 0B4A     		ldr	r2, .L97
 1519 0018 1268     		ldr	r2, [r2]
 1520 001a 3021     		movs	r1, #48
 1521 001c 8A43     		bics	r2, r1
 1522 001e 1A60     		str	r2, [r3]
1134:Generated_Source\PSoC4/PWM_1.c ****     PWM_1_TRIG_CONTROL1_REG |= ((uint32)(triggerMode << PWM_1_RELOAD_SHIFT));
 1523              		.loc 1 1134 0
 1524 0020 084B     		ldr	r3, .L97
 1525 0022 084A     		ldr	r2, .L97
 1526 0024 1168     		ldr	r1, [r2]
 1527 0026 7A68     		ldr	r2, [r7, #4]
 1528 0028 1201     		lsls	r2, r2, #4
 1529 002a 0A43     		orrs	r2, r1
 1530 002c 1A60     		str	r2, [r3]
1135:Generated_Source\PSoC4/PWM_1.c **** 
1136:Generated_Source\PSoC4/PWM_1.c ****     CyExitCriticalSection(enableInterrupts);
 1531              		.loc 1 1136 0
 1532 002e 0F23     		movs	r3, #15
 1533 0030 FB18     		adds	r3, r7, r3
 1534 0032 1B78     		ldrb	r3, [r3]
 1535 0034 1800     		movs	r0, r3
 1536 0036 FFF7FEFF 		bl	CyExitCriticalSection
1137:Generated_Source\PSoC4/PWM_1.c **** }
 1537              		.loc 1 1137 0
 1538 003a C046     		nop
 1539 003c BD46     		mov	sp, r7
 1540 003e 05B0     		add	sp, sp, #20
 1541              		@ sp needed
 1542 0040 90BD     		pop	{r4, r7, pc}
ARM GAS  C:\Users\ASUS\AppData\Local\Temp\ccPv8D3q.s 			page 48


 1543              	.L98:
 1544 0042 C046     		.align	2
 1545              	.L97:
 1546 0044 24010540 		.word	1074069796
 1547              		.cfi_endproc
 1548              	.LFE29:
 1549              		.size	PWM_1_SetReloadMode, .-PWM_1_SetReloadMode
 1550              		.section	.text.PWM_1_SetStartMode,"ax",%progbits
 1551              		.align	2
 1552              		.global	PWM_1_SetStartMode
 1553              		.code	16
 1554              		.thumb_func
 1555              		.type	PWM_1_SetStartMode, %function
 1556              	PWM_1_SetStartMode:
 1557              	.LFB30:
1138:Generated_Source\PSoC4/PWM_1.c **** 
1139:Generated_Source\PSoC4/PWM_1.c **** 
1140:Generated_Source\PSoC4/PWM_1.c **** /*******************************************************************************
1141:Generated_Source\PSoC4/PWM_1.c **** * Function Name: PWM_1_SetStartMode
1142:Generated_Source\PSoC4/PWM_1.c **** ********************************************************************************
1143:Generated_Source\PSoC4/PWM_1.c **** *
1144:Generated_Source\PSoC4/PWM_1.c **** * Summary:
1145:Generated_Source\PSoC4/PWM_1.c **** *  Sets the start trigger mode. For Quadrature Decoder mode this is the
1146:Generated_Source\PSoC4/PWM_1.c **** *  phiB input.
1147:Generated_Source\PSoC4/PWM_1.c **** *
1148:Generated_Source\PSoC4/PWM_1.c **** * Parameters:
1149:Generated_Source\PSoC4/PWM_1.c **** *  triggerMode: Enumerated trigger mode value
1150:Generated_Source\PSoC4/PWM_1.c **** *   Values:
1151:Generated_Source\PSoC4/PWM_1.c **** *     - PWM_1_TRIG_LEVEL     - Level
1152:Generated_Source\PSoC4/PWM_1.c **** *     - PWM_1_TRIG_RISING    - Rising edge
1153:Generated_Source\PSoC4/PWM_1.c **** *     - PWM_1_TRIG_FALLING   - Falling edge
1154:Generated_Source\PSoC4/PWM_1.c **** *     - PWM_1_TRIG_BOTH      - Both rising and falling edge
1155:Generated_Source\PSoC4/PWM_1.c **** *
1156:Generated_Source\PSoC4/PWM_1.c **** * Return:
1157:Generated_Source\PSoC4/PWM_1.c **** *  None
1158:Generated_Source\PSoC4/PWM_1.c **** *
1159:Generated_Source\PSoC4/PWM_1.c **** *******************************************************************************/
1160:Generated_Source\PSoC4/PWM_1.c **** void PWM_1_SetStartMode(uint32 triggerMode)
1161:Generated_Source\PSoC4/PWM_1.c **** {
 1558              		.loc 1 1161 0
 1559              		.cfi_startproc
 1560              		@ args = 0, pretend = 0, frame = 16
 1561              		@ frame_needed = 1, uses_anonymous_args = 0
 1562 0000 90B5     		push	{r4, r7, lr}
 1563              		.cfi_def_cfa_offset 12
 1564              		.cfi_offset 4, -12
 1565              		.cfi_offset 7, -8
 1566              		.cfi_offset 14, -4
 1567 0002 85B0     		sub	sp, sp, #20
 1568              		.cfi_def_cfa_offset 32
 1569 0004 00AF     		add	r7, sp, #0
 1570              		.cfi_def_cfa_register 7
 1571 0006 7860     		str	r0, [r7, #4]
1162:Generated_Source\PSoC4/PWM_1.c ****     uint8 enableInterrupts;
1163:Generated_Source\PSoC4/PWM_1.c **** 
1164:Generated_Source\PSoC4/PWM_1.c ****     enableInterrupts = CyEnterCriticalSection();
 1572              		.loc 1 1164 0
ARM GAS  C:\Users\ASUS\AppData\Local\Temp\ccPv8D3q.s 			page 49


 1573 0008 0F23     		movs	r3, #15
 1574 000a FC18     		adds	r4, r7, r3
 1575 000c FFF7FEFF 		bl	CyEnterCriticalSection
 1576 0010 0300     		movs	r3, r0
 1577 0012 2370     		strb	r3, [r4]
1165:Generated_Source\PSoC4/PWM_1.c **** 
1166:Generated_Source\PSoC4/PWM_1.c ****     PWM_1_TRIG_CONTROL1_REG &= (uint32)~PWM_1_START_MASK;
 1578              		.loc 1 1166 0
 1579 0014 0B4B     		ldr	r3, .L100
 1580 0016 0B4A     		ldr	r2, .L100
 1581 0018 1268     		ldr	r2, [r2]
 1582 001a 0B49     		ldr	r1, .L100+4
 1583 001c 0A40     		ands	r2, r1
 1584 001e 1A60     		str	r2, [r3]
1167:Generated_Source\PSoC4/PWM_1.c ****     PWM_1_TRIG_CONTROL1_REG |= ((uint32)(triggerMode << PWM_1_START_SHIFT));
 1585              		.loc 1 1167 0
 1586 0020 084B     		ldr	r3, .L100
 1587 0022 084A     		ldr	r2, .L100
 1588 0024 1168     		ldr	r1, [r2]
 1589 0026 7A68     		ldr	r2, [r7, #4]
 1590 0028 1202     		lsls	r2, r2, #8
 1591 002a 0A43     		orrs	r2, r1
 1592 002c 1A60     		str	r2, [r3]
1168:Generated_Source\PSoC4/PWM_1.c **** 
1169:Generated_Source\PSoC4/PWM_1.c ****     CyExitCriticalSection(enableInterrupts);
 1593              		.loc 1 1169 0
 1594 002e 0F23     		movs	r3, #15
 1595 0030 FB18     		adds	r3, r7, r3
 1596 0032 1B78     		ldrb	r3, [r3]
 1597 0034 1800     		movs	r0, r3
 1598 0036 FFF7FEFF 		bl	CyExitCriticalSection
1170:Generated_Source\PSoC4/PWM_1.c **** }
 1599              		.loc 1 1170 0
 1600 003a C046     		nop
 1601 003c BD46     		mov	sp, r7
 1602 003e 05B0     		add	sp, sp, #20
 1603              		@ sp needed
 1604 0040 90BD     		pop	{r4, r7, pc}
 1605              	.L101:
 1606 0042 C046     		.align	2
 1607              	.L100:
 1608 0044 24010540 		.word	1074069796
 1609 0048 FFFCFFFF 		.word	-769
 1610              		.cfi_endproc
 1611              	.LFE30:
 1612              		.size	PWM_1_SetStartMode, .-PWM_1_SetStartMode
 1613              		.section	.text.PWM_1_SetStopMode,"ax",%progbits
 1614              		.align	2
 1615              		.global	PWM_1_SetStopMode
 1616              		.code	16
 1617              		.thumb_func
 1618              		.type	PWM_1_SetStopMode, %function
 1619              	PWM_1_SetStopMode:
 1620              	.LFB31:
1171:Generated_Source\PSoC4/PWM_1.c **** 
1172:Generated_Source\PSoC4/PWM_1.c **** 
1173:Generated_Source\PSoC4/PWM_1.c **** /*******************************************************************************
ARM GAS  C:\Users\ASUS\AppData\Local\Temp\ccPv8D3q.s 			page 50


1174:Generated_Source\PSoC4/PWM_1.c **** * Function Name: PWM_1_SetStopMode
1175:Generated_Source\PSoC4/PWM_1.c **** ********************************************************************************
1176:Generated_Source\PSoC4/PWM_1.c **** *
1177:Generated_Source\PSoC4/PWM_1.c **** * Summary:
1178:Generated_Source\PSoC4/PWM_1.c **** *  Sets the stop trigger mode. For PWM mode this is the kill input.
1179:Generated_Source\PSoC4/PWM_1.c **** *
1180:Generated_Source\PSoC4/PWM_1.c **** * Parameters:
1181:Generated_Source\PSoC4/PWM_1.c **** *  triggerMode: Enumerated trigger mode value
1182:Generated_Source\PSoC4/PWM_1.c **** *   Values:
1183:Generated_Source\PSoC4/PWM_1.c **** *     - PWM_1_TRIG_LEVEL     - Level
1184:Generated_Source\PSoC4/PWM_1.c **** *     - PWM_1_TRIG_RISING    - Rising edge
1185:Generated_Source\PSoC4/PWM_1.c **** *     - PWM_1_TRIG_FALLING   - Falling edge
1186:Generated_Source\PSoC4/PWM_1.c **** *     - PWM_1_TRIG_BOTH      - Both rising and falling edge
1187:Generated_Source\PSoC4/PWM_1.c **** *
1188:Generated_Source\PSoC4/PWM_1.c **** * Return:
1189:Generated_Source\PSoC4/PWM_1.c **** *  None
1190:Generated_Source\PSoC4/PWM_1.c **** *
1191:Generated_Source\PSoC4/PWM_1.c **** *******************************************************************************/
1192:Generated_Source\PSoC4/PWM_1.c **** void PWM_1_SetStopMode(uint32 triggerMode)
1193:Generated_Source\PSoC4/PWM_1.c **** {
 1621              		.loc 1 1193 0
 1622              		.cfi_startproc
 1623              		@ args = 0, pretend = 0, frame = 16
 1624              		@ frame_needed = 1, uses_anonymous_args = 0
 1625 0000 90B5     		push	{r4, r7, lr}
 1626              		.cfi_def_cfa_offset 12
 1627              		.cfi_offset 4, -12
 1628              		.cfi_offset 7, -8
 1629              		.cfi_offset 14, -4
 1630 0002 85B0     		sub	sp, sp, #20
 1631              		.cfi_def_cfa_offset 32
 1632 0004 00AF     		add	r7, sp, #0
 1633              		.cfi_def_cfa_register 7
 1634 0006 7860     		str	r0, [r7, #4]
1194:Generated_Source\PSoC4/PWM_1.c ****     uint8 enableInterrupts;
1195:Generated_Source\PSoC4/PWM_1.c **** 
1196:Generated_Source\PSoC4/PWM_1.c ****     enableInterrupts = CyEnterCriticalSection();
 1635              		.loc 1 1196 0
 1636 0008 0F23     		movs	r3, #15
 1637 000a FC18     		adds	r4, r7, r3
 1638 000c FFF7FEFF 		bl	CyEnterCriticalSection
 1639 0010 0300     		movs	r3, r0
 1640 0012 2370     		strb	r3, [r4]
1197:Generated_Source\PSoC4/PWM_1.c **** 
1198:Generated_Source\PSoC4/PWM_1.c ****     PWM_1_TRIG_CONTROL1_REG &= (uint32)~PWM_1_STOP_MASK;
 1641              		.loc 1 1198 0
 1642 0014 0B4B     		ldr	r3, .L103
 1643 0016 0B4A     		ldr	r2, .L103
 1644 0018 1268     		ldr	r2, [r2]
 1645 001a C021     		movs	r1, #192
 1646 001c 8A43     		bics	r2, r1
 1647 001e 1A60     		str	r2, [r3]
1199:Generated_Source\PSoC4/PWM_1.c ****     PWM_1_TRIG_CONTROL1_REG |= ((uint32)(triggerMode << PWM_1_STOP_SHIFT));
 1648              		.loc 1 1199 0
 1649 0020 084B     		ldr	r3, .L103
 1650 0022 084A     		ldr	r2, .L103
 1651 0024 1168     		ldr	r1, [r2]
ARM GAS  C:\Users\ASUS\AppData\Local\Temp\ccPv8D3q.s 			page 51


 1652 0026 7A68     		ldr	r2, [r7, #4]
 1653 0028 9201     		lsls	r2, r2, #6
 1654 002a 0A43     		orrs	r2, r1
 1655 002c 1A60     		str	r2, [r3]
1200:Generated_Source\PSoC4/PWM_1.c **** 
1201:Generated_Source\PSoC4/PWM_1.c ****     CyExitCriticalSection(enableInterrupts);
 1656              		.loc 1 1201 0
 1657 002e 0F23     		movs	r3, #15
 1658 0030 FB18     		adds	r3, r7, r3
 1659 0032 1B78     		ldrb	r3, [r3]
 1660 0034 1800     		movs	r0, r3
 1661 0036 FFF7FEFF 		bl	CyExitCriticalSection
1202:Generated_Source\PSoC4/PWM_1.c **** }
 1662              		.loc 1 1202 0
 1663 003a C046     		nop
 1664 003c BD46     		mov	sp, r7
 1665 003e 05B0     		add	sp, sp, #20
 1666              		@ sp needed
 1667 0040 90BD     		pop	{r4, r7, pc}
 1668              	.L104:
 1669 0042 C046     		.align	2
 1670              	.L103:
 1671 0044 24010540 		.word	1074069796
 1672              		.cfi_endproc
 1673              	.LFE31:
 1674              		.size	PWM_1_SetStopMode, .-PWM_1_SetStopMode
 1675              		.section	.text.PWM_1_SetCountMode,"ax",%progbits
 1676              		.align	2
 1677              		.global	PWM_1_SetCountMode
 1678              		.code	16
 1679              		.thumb_func
 1680              		.type	PWM_1_SetCountMode, %function
 1681              	PWM_1_SetCountMode:
 1682              	.LFB32:
1203:Generated_Source\PSoC4/PWM_1.c **** 
1204:Generated_Source\PSoC4/PWM_1.c **** 
1205:Generated_Source\PSoC4/PWM_1.c **** /*******************************************************************************
1206:Generated_Source\PSoC4/PWM_1.c **** * Function Name: PWM_1_SetCountMode
1207:Generated_Source\PSoC4/PWM_1.c **** ********************************************************************************
1208:Generated_Source\PSoC4/PWM_1.c **** *
1209:Generated_Source\PSoC4/PWM_1.c **** * Summary:
1210:Generated_Source\PSoC4/PWM_1.c **** *  Sets the count trigger mode. For Quadrature Decoder mode this is the phiA
1211:Generated_Source\PSoC4/PWM_1.c **** *  input.
1212:Generated_Source\PSoC4/PWM_1.c **** *
1213:Generated_Source\PSoC4/PWM_1.c **** * Parameters:
1214:Generated_Source\PSoC4/PWM_1.c **** *  triggerMode: Enumerated trigger mode value
1215:Generated_Source\PSoC4/PWM_1.c **** *   Values:
1216:Generated_Source\PSoC4/PWM_1.c **** *     - PWM_1_TRIG_LEVEL     - Level
1217:Generated_Source\PSoC4/PWM_1.c **** *     - PWM_1_TRIG_RISING    - Rising edge
1218:Generated_Source\PSoC4/PWM_1.c **** *     - PWM_1_TRIG_FALLING   - Falling edge
1219:Generated_Source\PSoC4/PWM_1.c **** *     - PWM_1_TRIG_BOTH      - Both rising and falling edge
1220:Generated_Source\PSoC4/PWM_1.c **** *
1221:Generated_Source\PSoC4/PWM_1.c **** * Return:
1222:Generated_Source\PSoC4/PWM_1.c **** *  None
1223:Generated_Source\PSoC4/PWM_1.c **** *
1224:Generated_Source\PSoC4/PWM_1.c **** *******************************************************************************/
1225:Generated_Source\PSoC4/PWM_1.c **** void PWM_1_SetCountMode(uint32 triggerMode)
ARM GAS  C:\Users\ASUS\AppData\Local\Temp\ccPv8D3q.s 			page 52


1226:Generated_Source\PSoC4/PWM_1.c **** {
 1683              		.loc 1 1226 0
 1684              		.cfi_startproc
 1685              		@ args = 0, pretend = 0, frame = 16
 1686              		@ frame_needed = 1, uses_anonymous_args = 0
 1687 0000 90B5     		push	{r4, r7, lr}
 1688              		.cfi_def_cfa_offset 12
 1689              		.cfi_offset 4, -12
 1690              		.cfi_offset 7, -8
 1691              		.cfi_offset 14, -4
 1692 0002 85B0     		sub	sp, sp, #20
 1693              		.cfi_def_cfa_offset 32
 1694 0004 00AF     		add	r7, sp, #0
 1695              		.cfi_def_cfa_register 7
 1696 0006 7860     		str	r0, [r7, #4]
1227:Generated_Source\PSoC4/PWM_1.c ****     uint8 enableInterrupts;
1228:Generated_Source\PSoC4/PWM_1.c **** 
1229:Generated_Source\PSoC4/PWM_1.c ****     enableInterrupts = CyEnterCriticalSection();
 1697              		.loc 1 1229 0
 1698 0008 0F23     		movs	r3, #15
 1699 000a FC18     		adds	r4, r7, r3
 1700 000c FFF7FEFF 		bl	CyEnterCriticalSection
 1701 0010 0300     		movs	r3, r0
 1702 0012 2370     		strb	r3, [r4]
1230:Generated_Source\PSoC4/PWM_1.c **** 
1231:Generated_Source\PSoC4/PWM_1.c ****     PWM_1_TRIG_CONTROL1_REG &= (uint32)~PWM_1_COUNT_MASK;
 1703              		.loc 1 1231 0
 1704 0014 0B4B     		ldr	r3, .L106
 1705 0016 0B4A     		ldr	r2, .L106
 1706 0018 1268     		ldr	r2, [r2]
 1707 001a 0C21     		movs	r1, #12
 1708 001c 8A43     		bics	r2, r1
 1709 001e 1A60     		str	r2, [r3]
1232:Generated_Source\PSoC4/PWM_1.c ****     PWM_1_TRIG_CONTROL1_REG |= ((uint32)(triggerMode << PWM_1_COUNT_SHIFT));
 1710              		.loc 1 1232 0
 1711 0020 084B     		ldr	r3, .L106
 1712 0022 084A     		ldr	r2, .L106
 1713 0024 1168     		ldr	r1, [r2]
 1714 0026 7A68     		ldr	r2, [r7, #4]
 1715 0028 9200     		lsls	r2, r2, #2
 1716 002a 0A43     		orrs	r2, r1
 1717 002c 1A60     		str	r2, [r3]
1233:Generated_Source\PSoC4/PWM_1.c **** 
1234:Generated_Source\PSoC4/PWM_1.c ****     CyExitCriticalSection(enableInterrupts);
 1718              		.loc 1 1234 0
 1719 002e 0F23     		movs	r3, #15
 1720 0030 FB18     		adds	r3, r7, r3
 1721 0032 1B78     		ldrb	r3, [r3]
 1722 0034 1800     		movs	r0, r3
 1723 0036 FFF7FEFF 		bl	CyExitCriticalSection
1235:Generated_Source\PSoC4/PWM_1.c **** }
 1724              		.loc 1 1235 0
 1725 003a C046     		nop
 1726 003c BD46     		mov	sp, r7
 1727 003e 05B0     		add	sp, sp, #20
 1728              		@ sp needed
 1729 0040 90BD     		pop	{r4, r7, pc}
ARM GAS  C:\Users\ASUS\AppData\Local\Temp\ccPv8D3q.s 			page 53


 1730              	.L107:
 1731 0042 C046     		.align	2
 1732              	.L106:
 1733 0044 24010540 		.word	1074069796
 1734              		.cfi_endproc
 1735              	.LFE32:
 1736              		.size	PWM_1_SetCountMode, .-PWM_1_SetCountMode
 1737              		.section	.text.PWM_1_TriggerCommand,"ax",%progbits
 1738              		.align	2
 1739              		.global	PWM_1_TriggerCommand
 1740              		.code	16
 1741              		.thumb_func
 1742              		.type	PWM_1_TriggerCommand, %function
 1743              	PWM_1_TriggerCommand:
 1744              	.LFB33:
1236:Generated_Source\PSoC4/PWM_1.c **** 
1237:Generated_Source\PSoC4/PWM_1.c **** 
1238:Generated_Source\PSoC4/PWM_1.c **** /*******************************************************************************
1239:Generated_Source\PSoC4/PWM_1.c **** * Function Name: PWM_1_TriggerCommand
1240:Generated_Source\PSoC4/PWM_1.c **** ********************************************************************************
1241:Generated_Source\PSoC4/PWM_1.c **** *
1242:Generated_Source\PSoC4/PWM_1.c **** * Summary:
1243:Generated_Source\PSoC4/PWM_1.c **** *  Triggers the designated command to occur on the designated TCPWM instances.
1244:Generated_Source\PSoC4/PWM_1.c **** *  The mask can be used to apply this command simultaneously to more than one
1245:Generated_Source\PSoC4/PWM_1.c **** *  instance.  This allows multiple TCPWM instances to be synchronized.
1246:Generated_Source\PSoC4/PWM_1.c **** *
1247:Generated_Source\PSoC4/PWM_1.c **** * Parameters:
1248:Generated_Source\PSoC4/PWM_1.c **** *  mask: A combination of mask bits for each instance of the TCPWM that the
1249:Generated_Source\PSoC4/PWM_1.c **** *        command should apply to.  This function from one instance can be used
1250:Generated_Source\PSoC4/PWM_1.c **** *        to apply the command to any of the instances in the design.
1251:Generated_Source\PSoC4/PWM_1.c **** *        The mask value for a specific instance is available with the MASK
1252:Generated_Source\PSoC4/PWM_1.c **** *        define.
1253:Generated_Source\PSoC4/PWM_1.c **** *  command: Enumerated command values. Capture command only applicable for
1254:Generated_Source\PSoC4/PWM_1.c **** *           Timer/Counter with Capture and PWM modes.
1255:Generated_Source\PSoC4/PWM_1.c **** *   Values:
1256:Generated_Source\PSoC4/PWM_1.c **** *     - PWM_1_CMD_CAPTURE    - Trigger Capture/Switch command
1257:Generated_Source\PSoC4/PWM_1.c **** *     - PWM_1_CMD_RELOAD     - Trigger Reload/Index command
1258:Generated_Source\PSoC4/PWM_1.c **** *     - PWM_1_CMD_STOP       - Trigger Stop/Kill command
1259:Generated_Source\PSoC4/PWM_1.c **** *     - PWM_1_CMD_START      - Trigger Start/phiB command
1260:Generated_Source\PSoC4/PWM_1.c **** *
1261:Generated_Source\PSoC4/PWM_1.c **** * Return:
1262:Generated_Source\PSoC4/PWM_1.c **** *  None
1263:Generated_Source\PSoC4/PWM_1.c **** *
1264:Generated_Source\PSoC4/PWM_1.c **** *******************************************************************************/
1265:Generated_Source\PSoC4/PWM_1.c **** void PWM_1_TriggerCommand(uint32 mask, uint32 command)
1266:Generated_Source\PSoC4/PWM_1.c **** {
 1745              		.loc 1 1266 0
 1746              		.cfi_startproc
 1747              		@ args = 0, pretend = 0, frame = 16
 1748              		@ frame_needed = 1, uses_anonymous_args = 0
 1749 0000 90B5     		push	{r4, r7, lr}
 1750              		.cfi_def_cfa_offset 12
 1751              		.cfi_offset 4, -12
 1752              		.cfi_offset 7, -8
 1753              		.cfi_offset 14, -4
 1754 0002 85B0     		sub	sp, sp, #20
 1755              		.cfi_def_cfa_offset 32
ARM GAS  C:\Users\ASUS\AppData\Local\Temp\ccPv8D3q.s 			page 54


 1756 0004 00AF     		add	r7, sp, #0
 1757              		.cfi_def_cfa_register 7
 1758 0006 7860     		str	r0, [r7, #4]
 1759 0008 3960     		str	r1, [r7]
1267:Generated_Source\PSoC4/PWM_1.c ****     uint8 enableInterrupts;
1268:Generated_Source\PSoC4/PWM_1.c **** 
1269:Generated_Source\PSoC4/PWM_1.c ****     enableInterrupts = CyEnterCriticalSection();
 1760              		.loc 1 1269 0
 1761 000a 0F23     		movs	r3, #15
 1762 000c FC18     		adds	r4, r7, r3
 1763 000e FFF7FEFF 		bl	CyEnterCriticalSection
 1764 0012 0300     		movs	r3, r0
 1765 0014 2370     		strb	r3, [r4]
1270:Generated_Source\PSoC4/PWM_1.c **** 
1271:Generated_Source\PSoC4/PWM_1.c ****     PWM_1_COMMAND_REG = ((uint32)(mask << command));
 1766              		.loc 1 1271 0
 1767 0016 084B     		ldr	r3, .L109
 1768 0018 7968     		ldr	r1, [r7, #4]
 1769 001a 3A68     		ldr	r2, [r7]
 1770 001c 9140     		lsls	r1, r1, r2
 1771 001e 0A00     		movs	r2, r1
 1772 0020 1A60     		str	r2, [r3]
1272:Generated_Source\PSoC4/PWM_1.c **** 
1273:Generated_Source\PSoC4/PWM_1.c ****     CyExitCriticalSection(enableInterrupts);
 1773              		.loc 1 1273 0
 1774 0022 0F23     		movs	r3, #15
 1775 0024 FB18     		adds	r3, r7, r3
 1776 0026 1B78     		ldrb	r3, [r3]
 1777 0028 1800     		movs	r0, r3
 1778 002a FFF7FEFF 		bl	CyExitCriticalSection
1274:Generated_Source\PSoC4/PWM_1.c **** }
 1779              		.loc 1 1274 0
 1780 002e C046     		nop
 1781 0030 BD46     		mov	sp, r7
 1782 0032 05B0     		add	sp, sp, #20
 1783              		@ sp needed
 1784 0034 90BD     		pop	{r4, r7, pc}
 1785              	.L110:
 1786 0036 C046     		.align	2
 1787              	.L109:
 1788 0038 08000540 		.word	1074069512
 1789              		.cfi_endproc
 1790              	.LFE33:
 1791              		.size	PWM_1_TriggerCommand, .-PWM_1_TriggerCommand
 1792              		.section	.text.PWM_1_ReadStatus,"ax",%progbits
 1793              		.align	2
 1794              		.global	PWM_1_ReadStatus
 1795              		.code	16
 1796              		.thumb_func
 1797              		.type	PWM_1_ReadStatus, %function
 1798              	PWM_1_ReadStatus:
 1799              	.LFB34:
1275:Generated_Source\PSoC4/PWM_1.c **** 
1276:Generated_Source\PSoC4/PWM_1.c **** 
1277:Generated_Source\PSoC4/PWM_1.c **** /*******************************************************************************
1278:Generated_Source\PSoC4/PWM_1.c **** * Function Name: PWM_1_ReadStatus
1279:Generated_Source\PSoC4/PWM_1.c **** ********************************************************************************
ARM GAS  C:\Users\ASUS\AppData\Local\Temp\ccPv8D3q.s 			page 55


1280:Generated_Source\PSoC4/PWM_1.c **** *
1281:Generated_Source\PSoC4/PWM_1.c **** * Summary:
1282:Generated_Source\PSoC4/PWM_1.c **** *  Reads the status of the PWM_1.
1283:Generated_Source\PSoC4/PWM_1.c **** *
1284:Generated_Source\PSoC4/PWM_1.c **** * Parameters:
1285:Generated_Source\PSoC4/PWM_1.c **** *  None
1286:Generated_Source\PSoC4/PWM_1.c **** *
1287:Generated_Source\PSoC4/PWM_1.c **** * Return:
1288:Generated_Source\PSoC4/PWM_1.c **** *  Status
1289:Generated_Source\PSoC4/PWM_1.c **** *   Values:
1290:Generated_Source\PSoC4/PWM_1.c **** *     - PWM_1_STATUS_DOWN    - Set if counting down
1291:Generated_Source\PSoC4/PWM_1.c **** *     - PWM_1_STATUS_RUNNING - Set if counter is running
1292:Generated_Source\PSoC4/PWM_1.c **** *
1293:Generated_Source\PSoC4/PWM_1.c **** *******************************************************************************/
1294:Generated_Source\PSoC4/PWM_1.c **** uint32 PWM_1_ReadStatus(void)
1295:Generated_Source\PSoC4/PWM_1.c **** {
 1800              		.loc 1 1295 0
 1801              		.cfi_startproc
 1802              		@ args = 0, pretend = 0, frame = 0
 1803              		@ frame_needed = 1, uses_anonymous_args = 0
 1804 0000 80B5     		push	{r7, lr}
 1805              		.cfi_def_cfa_offset 8
 1806              		.cfi_offset 7, -8
 1807              		.cfi_offset 14, -4
 1808 0002 00AF     		add	r7, sp, #0
 1809              		.cfi_def_cfa_register 7
1296:Generated_Source\PSoC4/PWM_1.c ****     return ((PWM_1_STATUS_REG >> PWM_1_RUNNING_STATUS_SHIFT) |
 1810              		.loc 1 1296 0
 1811 0004 054B     		ldr	r3, .L113
 1812 0006 1B68     		ldr	r3, [r3]
 1813 0008 9A0F     		lsrs	r2, r3, #30
1297:Generated_Source\PSoC4/PWM_1.c ****             (PWM_1_STATUS_REG & PWM_1_STATUS_DOWN));
 1814              		.loc 1 1297 0
 1815 000a 044B     		ldr	r3, .L113
 1816 000c 1B68     		ldr	r3, [r3]
 1817 000e 0121     		movs	r1, #1
 1818 0010 0B40     		ands	r3, r1
1296:Generated_Source\PSoC4/PWM_1.c ****     return ((PWM_1_STATUS_REG >> PWM_1_RUNNING_STATUS_SHIFT) |
 1819              		.loc 1 1296 0
 1820 0012 1343     		orrs	r3, r2
1298:Generated_Source\PSoC4/PWM_1.c **** }
 1821              		.loc 1 1298 0
 1822 0014 1800     		movs	r0, r3
 1823 0016 BD46     		mov	sp, r7
 1824              		@ sp needed
 1825 0018 80BD     		pop	{r7, pc}
 1826              	.L114:
 1827 001a C046     		.align	2
 1828              	.L113:
 1829 001c 04010540 		.word	1074069764
 1830              		.cfi_endproc
 1831              	.LFE34:
 1832              		.size	PWM_1_ReadStatus, .-PWM_1_ReadStatus
 1833              		.section	.text.PWM_1_SetInterruptMode,"ax",%progbits
 1834              		.align	2
 1835              		.global	PWM_1_SetInterruptMode
 1836              		.code	16
ARM GAS  C:\Users\ASUS\AppData\Local\Temp\ccPv8D3q.s 			page 56


 1837              		.thumb_func
 1838              		.type	PWM_1_SetInterruptMode, %function
 1839              	PWM_1_SetInterruptMode:
 1840              	.LFB35:
1299:Generated_Source\PSoC4/PWM_1.c **** 
1300:Generated_Source\PSoC4/PWM_1.c **** 
1301:Generated_Source\PSoC4/PWM_1.c **** /*******************************************************************************
1302:Generated_Source\PSoC4/PWM_1.c **** * Function Name: PWM_1_SetInterruptMode
1303:Generated_Source\PSoC4/PWM_1.c **** ********************************************************************************
1304:Generated_Source\PSoC4/PWM_1.c **** *
1305:Generated_Source\PSoC4/PWM_1.c **** * Summary:
1306:Generated_Source\PSoC4/PWM_1.c **** *  Sets the interrupt mask to control which interrupt
1307:Generated_Source\PSoC4/PWM_1.c **** *  requests generate the interrupt signal.
1308:Generated_Source\PSoC4/PWM_1.c **** *
1309:Generated_Source\PSoC4/PWM_1.c **** * Parameters:
1310:Generated_Source\PSoC4/PWM_1.c **** *   interruptMask: Mask of bits to be enabled
1311:Generated_Source\PSoC4/PWM_1.c **** *   Values:
1312:Generated_Source\PSoC4/PWM_1.c **** *     - PWM_1_INTR_MASK_TC       - Terminal count mask
1313:Generated_Source\PSoC4/PWM_1.c **** *     - PWM_1_INTR_MASK_CC_MATCH - Compare count / capture mask
1314:Generated_Source\PSoC4/PWM_1.c **** *
1315:Generated_Source\PSoC4/PWM_1.c **** * Return:
1316:Generated_Source\PSoC4/PWM_1.c **** *  None
1317:Generated_Source\PSoC4/PWM_1.c **** *
1318:Generated_Source\PSoC4/PWM_1.c **** *******************************************************************************/
1319:Generated_Source\PSoC4/PWM_1.c **** void PWM_1_SetInterruptMode(uint32 interruptMask)
1320:Generated_Source\PSoC4/PWM_1.c **** {
 1841              		.loc 1 1320 0
 1842              		.cfi_startproc
 1843              		@ args = 0, pretend = 0, frame = 8
 1844              		@ frame_needed = 1, uses_anonymous_args = 0
 1845 0000 80B5     		push	{r7, lr}
 1846              		.cfi_def_cfa_offset 8
 1847              		.cfi_offset 7, -8
 1848              		.cfi_offset 14, -4
 1849 0002 82B0     		sub	sp, sp, #8
 1850              		.cfi_def_cfa_offset 16
 1851 0004 00AF     		add	r7, sp, #0
 1852              		.cfi_def_cfa_register 7
 1853 0006 7860     		str	r0, [r7, #4]
1321:Generated_Source\PSoC4/PWM_1.c ****     PWM_1_INTERRUPT_MASK_REG =  interruptMask;
 1854              		.loc 1 1321 0
 1855 0008 034B     		ldr	r3, .L116
 1856 000a 7A68     		ldr	r2, [r7, #4]
 1857 000c 1A60     		str	r2, [r3]
1322:Generated_Source\PSoC4/PWM_1.c **** }
 1858              		.loc 1 1322 0
 1859 000e C046     		nop
 1860 0010 BD46     		mov	sp, r7
 1861 0012 02B0     		add	sp, sp, #8
 1862              		@ sp needed
 1863 0014 80BD     		pop	{r7, pc}
 1864              	.L117:
 1865 0016 C046     		.align	2
 1866              	.L116:
 1867 0018 38010540 		.word	1074069816
 1868              		.cfi_endproc
 1869              	.LFE35:
ARM GAS  C:\Users\ASUS\AppData\Local\Temp\ccPv8D3q.s 			page 57


 1870              		.size	PWM_1_SetInterruptMode, .-PWM_1_SetInterruptMode
 1871              		.section	.text.PWM_1_GetInterruptSourceMasked,"ax",%progbits
 1872              		.align	2
 1873              		.global	PWM_1_GetInterruptSourceMasked
 1874              		.code	16
 1875              		.thumb_func
 1876              		.type	PWM_1_GetInterruptSourceMasked, %function
 1877              	PWM_1_GetInterruptSourceMasked:
 1878              	.LFB36:
1323:Generated_Source\PSoC4/PWM_1.c **** 
1324:Generated_Source\PSoC4/PWM_1.c **** 
1325:Generated_Source\PSoC4/PWM_1.c **** /*******************************************************************************
1326:Generated_Source\PSoC4/PWM_1.c **** * Function Name: PWM_1_GetInterruptSourceMasked
1327:Generated_Source\PSoC4/PWM_1.c **** ********************************************************************************
1328:Generated_Source\PSoC4/PWM_1.c **** *
1329:Generated_Source\PSoC4/PWM_1.c **** * Summary:
1330:Generated_Source\PSoC4/PWM_1.c **** *  Gets the interrupt requests masked by the interrupt mask.
1331:Generated_Source\PSoC4/PWM_1.c **** *
1332:Generated_Source\PSoC4/PWM_1.c **** * Parameters:
1333:Generated_Source\PSoC4/PWM_1.c **** *   None
1334:Generated_Source\PSoC4/PWM_1.c **** *
1335:Generated_Source\PSoC4/PWM_1.c **** * Return:
1336:Generated_Source\PSoC4/PWM_1.c **** *  Masked interrupt source
1337:Generated_Source\PSoC4/PWM_1.c **** *   Values:
1338:Generated_Source\PSoC4/PWM_1.c **** *     - PWM_1_INTR_MASK_TC       - Terminal count mask
1339:Generated_Source\PSoC4/PWM_1.c **** *     - PWM_1_INTR_MASK_CC_MATCH - Compare count / capture mask
1340:Generated_Source\PSoC4/PWM_1.c **** *
1341:Generated_Source\PSoC4/PWM_1.c **** *******************************************************************************/
1342:Generated_Source\PSoC4/PWM_1.c **** uint32 PWM_1_GetInterruptSourceMasked(void)
1343:Generated_Source\PSoC4/PWM_1.c **** {
 1879              		.loc 1 1343 0
 1880              		.cfi_startproc
 1881              		@ args = 0, pretend = 0, frame = 0
 1882              		@ frame_needed = 1, uses_anonymous_args = 0
 1883 0000 80B5     		push	{r7, lr}
 1884              		.cfi_def_cfa_offset 8
 1885              		.cfi_offset 7, -8
 1886              		.cfi_offset 14, -4
 1887 0002 00AF     		add	r7, sp, #0
 1888              		.cfi_def_cfa_register 7
1344:Generated_Source\PSoC4/PWM_1.c ****     return (PWM_1_INTERRUPT_MASKED_REG);
 1889              		.loc 1 1344 0
 1890 0004 024B     		ldr	r3, .L120
 1891 0006 1B68     		ldr	r3, [r3]
1345:Generated_Source\PSoC4/PWM_1.c **** }
 1892              		.loc 1 1345 0
 1893 0008 1800     		movs	r0, r3
 1894 000a BD46     		mov	sp, r7
 1895              		@ sp needed
 1896 000c 80BD     		pop	{r7, pc}
 1897              	.L121:
 1898 000e C046     		.align	2
 1899              	.L120:
 1900 0010 3C010540 		.word	1074069820
 1901              		.cfi_endproc
 1902              	.LFE36:
 1903              		.size	PWM_1_GetInterruptSourceMasked, .-PWM_1_GetInterruptSourceMasked
ARM GAS  C:\Users\ASUS\AppData\Local\Temp\ccPv8D3q.s 			page 58


 1904              		.section	.text.PWM_1_GetInterruptSource,"ax",%progbits
 1905              		.align	2
 1906              		.global	PWM_1_GetInterruptSource
 1907              		.code	16
 1908              		.thumb_func
 1909              		.type	PWM_1_GetInterruptSource, %function
 1910              	PWM_1_GetInterruptSource:
 1911              	.LFB37:
1346:Generated_Source\PSoC4/PWM_1.c **** 
1347:Generated_Source\PSoC4/PWM_1.c **** 
1348:Generated_Source\PSoC4/PWM_1.c **** /*******************************************************************************
1349:Generated_Source\PSoC4/PWM_1.c **** * Function Name: PWM_1_GetInterruptSource
1350:Generated_Source\PSoC4/PWM_1.c **** ********************************************************************************
1351:Generated_Source\PSoC4/PWM_1.c **** *
1352:Generated_Source\PSoC4/PWM_1.c **** * Summary:
1353:Generated_Source\PSoC4/PWM_1.c **** *  Gets the interrupt requests (without masking).
1354:Generated_Source\PSoC4/PWM_1.c **** *
1355:Generated_Source\PSoC4/PWM_1.c **** * Parameters:
1356:Generated_Source\PSoC4/PWM_1.c **** *  None
1357:Generated_Source\PSoC4/PWM_1.c **** *
1358:Generated_Source\PSoC4/PWM_1.c **** * Return:
1359:Generated_Source\PSoC4/PWM_1.c **** *  Interrupt request value
1360:Generated_Source\PSoC4/PWM_1.c **** *   Values:
1361:Generated_Source\PSoC4/PWM_1.c **** *     - PWM_1_INTR_MASK_TC       - Terminal count mask
1362:Generated_Source\PSoC4/PWM_1.c **** *     - PWM_1_INTR_MASK_CC_MATCH - Compare count / capture mask
1363:Generated_Source\PSoC4/PWM_1.c **** *
1364:Generated_Source\PSoC4/PWM_1.c **** *******************************************************************************/
1365:Generated_Source\PSoC4/PWM_1.c **** uint32 PWM_1_GetInterruptSource(void)
1366:Generated_Source\PSoC4/PWM_1.c **** {
 1912              		.loc 1 1366 0
 1913              		.cfi_startproc
 1914              		@ args = 0, pretend = 0, frame = 0
 1915              		@ frame_needed = 1, uses_anonymous_args = 0
 1916 0000 80B5     		push	{r7, lr}
 1917              		.cfi_def_cfa_offset 8
 1918              		.cfi_offset 7, -8
 1919              		.cfi_offset 14, -4
 1920 0002 00AF     		add	r7, sp, #0
 1921              		.cfi_def_cfa_register 7
1367:Generated_Source\PSoC4/PWM_1.c ****     return (PWM_1_INTERRUPT_REQ_REG);
 1922              		.loc 1 1367 0
 1923 0004 024B     		ldr	r3, .L124
 1924 0006 1B68     		ldr	r3, [r3]
1368:Generated_Source\PSoC4/PWM_1.c **** }
 1925              		.loc 1 1368 0
 1926 0008 1800     		movs	r0, r3
 1927 000a BD46     		mov	sp, r7
 1928              		@ sp needed
 1929 000c 80BD     		pop	{r7, pc}
 1930              	.L125:
 1931 000e C046     		.align	2
 1932              	.L124:
 1933 0010 30010540 		.word	1074069808
 1934              		.cfi_endproc
 1935              	.LFE37:
 1936              		.size	PWM_1_GetInterruptSource, .-PWM_1_GetInterruptSource
 1937              		.section	.text.PWM_1_ClearInterrupt,"ax",%progbits
ARM GAS  C:\Users\ASUS\AppData\Local\Temp\ccPv8D3q.s 			page 59


 1938              		.align	2
 1939              		.global	PWM_1_ClearInterrupt
 1940              		.code	16
 1941              		.thumb_func
 1942              		.type	PWM_1_ClearInterrupt, %function
 1943              	PWM_1_ClearInterrupt:
 1944              	.LFB38:
1369:Generated_Source\PSoC4/PWM_1.c **** 
1370:Generated_Source\PSoC4/PWM_1.c **** 
1371:Generated_Source\PSoC4/PWM_1.c **** /*******************************************************************************
1372:Generated_Source\PSoC4/PWM_1.c **** * Function Name: PWM_1_ClearInterrupt
1373:Generated_Source\PSoC4/PWM_1.c **** ********************************************************************************
1374:Generated_Source\PSoC4/PWM_1.c **** *
1375:Generated_Source\PSoC4/PWM_1.c **** * Summary:
1376:Generated_Source\PSoC4/PWM_1.c **** *  Clears the interrupt request.
1377:Generated_Source\PSoC4/PWM_1.c **** *
1378:Generated_Source\PSoC4/PWM_1.c **** * Parameters:
1379:Generated_Source\PSoC4/PWM_1.c **** *   interruptMask: Mask of interrupts to clear
1380:Generated_Source\PSoC4/PWM_1.c **** *   Values:
1381:Generated_Source\PSoC4/PWM_1.c **** *     - PWM_1_INTR_MASK_TC       - Terminal count mask
1382:Generated_Source\PSoC4/PWM_1.c **** *     - PWM_1_INTR_MASK_CC_MATCH - Compare count / capture mask
1383:Generated_Source\PSoC4/PWM_1.c **** *
1384:Generated_Source\PSoC4/PWM_1.c **** * Return:
1385:Generated_Source\PSoC4/PWM_1.c **** *  None
1386:Generated_Source\PSoC4/PWM_1.c **** *
1387:Generated_Source\PSoC4/PWM_1.c **** *******************************************************************************/
1388:Generated_Source\PSoC4/PWM_1.c **** void PWM_1_ClearInterrupt(uint32 interruptMask)
1389:Generated_Source\PSoC4/PWM_1.c **** {
 1945              		.loc 1 1389 0
 1946              		.cfi_startproc
 1947              		@ args = 0, pretend = 0, frame = 8
 1948              		@ frame_needed = 1, uses_anonymous_args = 0
 1949 0000 80B5     		push	{r7, lr}
 1950              		.cfi_def_cfa_offset 8
 1951              		.cfi_offset 7, -8
 1952              		.cfi_offset 14, -4
 1953 0002 82B0     		sub	sp, sp, #8
 1954              		.cfi_def_cfa_offset 16
 1955 0004 00AF     		add	r7, sp, #0
 1956              		.cfi_def_cfa_register 7
 1957 0006 7860     		str	r0, [r7, #4]
1390:Generated_Source\PSoC4/PWM_1.c ****     PWM_1_INTERRUPT_REQ_REG = interruptMask;
 1958              		.loc 1 1390 0
 1959 0008 034B     		ldr	r3, .L127
 1960 000a 7A68     		ldr	r2, [r7, #4]
 1961 000c 1A60     		str	r2, [r3]
1391:Generated_Source\PSoC4/PWM_1.c **** }
 1962              		.loc 1 1391 0
 1963 000e C046     		nop
 1964 0010 BD46     		mov	sp, r7
 1965 0012 02B0     		add	sp, sp, #8
 1966              		@ sp needed
 1967 0014 80BD     		pop	{r7, pc}
 1968              	.L128:
 1969 0016 C046     		.align	2
 1970              	.L127:
 1971 0018 30010540 		.word	1074069808
ARM GAS  C:\Users\ASUS\AppData\Local\Temp\ccPv8D3q.s 			page 60


 1972              		.cfi_endproc
 1973              	.LFE38:
 1974              		.size	PWM_1_ClearInterrupt, .-PWM_1_ClearInterrupt
 1975              		.section	.text.PWM_1_SetInterrupt,"ax",%progbits
 1976              		.align	2
 1977              		.global	PWM_1_SetInterrupt
 1978              		.code	16
 1979              		.thumb_func
 1980              		.type	PWM_1_SetInterrupt, %function
 1981              	PWM_1_SetInterrupt:
 1982              	.LFB39:
1392:Generated_Source\PSoC4/PWM_1.c **** 
1393:Generated_Source\PSoC4/PWM_1.c **** 
1394:Generated_Source\PSoC4/PWM_1.c **** /*******************************************************************************
1395:Generated_Source\PSoC4/PWM_1.c **** * Function Name: PWM_1_SetInterrupt
1396:Generated_Source\PSoC4/PWM_1.c **** ********************************************************************************
1397:Generated_Source\PSoC4/PWM_1.c **** *
1398:Generated_Source\PSoC4/PWM_1.c **** * Summary:
1399:Generated_Source\PSoC4/PWM_1.c **** *  Sets a software interrupt request.
1400:Generated_Source\PSoC4/PWM_1.c **** *
1401:Generated_Source\PSoC4/PWM_1.c **** * Parameters:
1402:Generated_Source\PSoC4/PWM_1.c **** *   interruptMask: Mask of interrupts to set
1403:Generated_Source\PSoC4/PWM_1.c **** *   Values:
1404:Generated_Source\PSoC4/PWM_1.c **** *     - PWM_1_INTR_MASK_TC       - Terminal count mask
1405:Generated_Source\PSoC4/PWM_1.c **** *     - PWM_1_INTR_MASK_CC_MATCH - Compare count / capture mask
1406:Generated_Source\PSoC4/PWM_1.c **** *
1407:Generated_Source\PSoC4/PWM_1.c **** * Return:
1408:Generated_Source\PSoC4/PWM_1.c **** *  None
1409:Generated_Source\PSoC4/PWM_1.c **** *
1410:Generated_Source\PSoC4/PWM_1.c **** *******************************************************************************/
1411:Generated_Source\PSoC4/PWM_1.c **** void PWM_1_SetInterrupt(uint32 interruptMask)
1412:Generated_Source\PSoC4/PWM_1.c **** {
 1983              		.loc 1 1412 0
 1984              		.cfi_startproc
 1985              		@ args = 0, pretend = 0, frame = 8
 1986              		@ frame_needed = 1, uses_anonymous_args = 0
 1987 0000 80B5     		push	{r7, lr}
 1988              		.cfi_def_cfa_offset 8
 1989              		.cfi_offset 7, -8
 1990              		.cfi_offset 14, -4
 1991 0002 82B0     		sub	sp, sp, #8
 1992              		.cfi_def_cfa_offset 16
 1993 0004 00AF     		add	r7, sp, #0
 1994              		.cfi_def_cfa_register 7
 1995 0006 7860     		str	r0, [r7, #4]
1413:Generated_Source\PSoC4/PWM_1.c ****     PWM_1_INTERRUPT_SET_REG = interruptMask;
 1996              		.loc 1 1413 0
 1997 0008 034B     		ldr	r3, .L130
 1998 000a 7A68     		ldr	r2, [r7, #4]
 1999 000c 1A60     		str	r2, [r3]
1414:Generated_Source\PSoC4/PWM_1.c **** }
 2000              		.loc 1 1414 0
 2001 000e C046     		nop
 2002 0010 BD46     		mov	sp, r7
 2003 0012 02B0     		add	sp, sp, #8
 2004              		@ sp needed
 2005 0014 80BD     		pop	{r7, pc}
ARM GAS  C:\Users\ASUS\AppData\Local\Temp\ccPv8D3q.s 			page 61


 2006              	.L131:
 2007 0016 C046     		.align	2
 2008              	.L130:
 2009 0018 34010540 		.word	1074069812
 2010              		.cfi_endproc
 2011              	.LFE39:
 2012              		.size	PWM_1_SetInterrupt, .-PWM_1_SetInterrupt
 2013              		.text
 2014              	.Letext0:
 2015              		.file 2 "Generated_Source\\PSoC4\\cytypes.h"