ARM GAS  C:\Users\ASUS\AppData\Local\Temp\ccKm645o.s 			page 1


   1              		.syntax unified
   2              		.cpu cortex-m0plus
   3              		.fpu softvfp
   4              		.eabi_attribute 20, 1
   5              		.eabi_attribute 21, 1
   6              		.eabi_attribute 23, 3
   7              		.eabi_attribute 24, 1
   8              		.eabi_attribute 25, 1
   9              		.eabi_attribute 26, 1
  10              		.eabi_attribute 30, 1
  11              		.eabi_attribute 34, 0
  12              		.eabi_attribute 18, 4
  13              		.thumb
  14              		.syntax unified
  15              		.file	"capsense_Control.c"
  16              		.text
  17              	.Ltext0:
  18              		.cfi_sections	.debug_frame
  19              		.section	.text.capsense_Initialize,"ax",%progbits
  20              		.align	2
  21              		.global	capsense_Initialize
  22              		.code	16
  23              		.thumb_func
  24              		.type	capsense_Initialize, %function
  25              	capsense_Initialize:
  26              	.LFB2:
  27              		.file 1 "Generated_Source\\PSoC4\\capsense_Control.c"
   1:Generated_Source\PSoC4/capsense_Control.c **** /***************************************************************************//**
   2:Generated_Source\PSoC4/capsense_Control.c **** * \file capsense_Control.c
   3:Generated_Source\PSoC4/capsense_Control.c **** * \version 7.10
   4:Generated_Source\PSoC4/capsense_Control.c **** *
   5:Generated_Source\PSoC4/capsense_Control.c **** * \brief
   6:Generated_Source\PSoC4/capsense_Control.c **** *   This file provides the source code to the Control module API of the
   7:Generated_Source\PSoC4/capsense_Control.c **** *   Component.
   8:Generated_Source\PSoC4/capsense_Control.c **** *
   9:Generated_Source\PSoC4/capsense_Control.c **** * \see capsense v7.10 Datasheet
  10:Generated_Source\PSoC4/capsense_Control.c **** *
  11:Generated_Source\PSoC4/capsense_Control.c **** *//*****************************************************************************
  12:Generated_Source\PSoC4/capsense_Control.c **** * Copyright (2016-2019), Cypress Semiconductor Corporation.
  13:Generated_Source\PSoC4/capsense_Control.c **** ********************************************************************************
  14:Generated_Source\PSoC4/capsense_Control.c **** * This software is owned by Cypress Semiconductor Corporation (Cypress) and is
  15:Generated_Source\PSoC4/capsense_Control.c **** * protected by and subject to worldwide patent protection (United States and
  16:Generated_Source\PSoC4/capsense_Control.c **** * foreign), United States copyright laws and international treaty provisions.
  17:Generated_Source\PSoC4/capsense_Control.c **** * Cypress hereby grants to licensee a personal, non-exclusive, non-transferable
  18:Generated_Source\PSoC4/capsense_Control.c **** * license to copy, use, modify, create derivative works of, and compile the
  19:Generated_Source\PSoC4/capsense_Control.c **** * Cypress Source Code and derivative works for the sole purpose of creating
  20:Generated_Source\PSoC4/capsense_Control.c **** * custom software in support of licensee product to be used only in conjunction
  21:Generated_Source\PSoC4/capsense_Control.c **** * with a Cypress integrated circuit as specified in the applicable agreement.
  22:Generated_Source\PSoC4/capsense_Control.c **** * Any reproduction, modification, translation, compilation, or representation of
  23:Generated_Source\PSoC4/capsense_Control.c **** * this software except as specified above is prohibited without the express
  24:Generated_Source\PSoC4/capsense_Control.c **** * written permission of Cypress.
  25:Generated_Source\PSoC4/capsense_Control.c **** *
  26:Generated_Source\PSoC4/capsense_Control.c **** * Disclaimer: CYPRESS MAKES NO WARRANTY OF ANY KIND, EXPRESS OR IMPLIED, WITH
  27:Generated_Source\PSoC4/capsense_Control.c **** * REGARD TO THIS MATERIAL, INCLUDING, BUT NOT LIMITED TO, THE IMPLIED
  28:Generated_Source\PSoC4/capsense_Control.c **** * WARRANTIES OF MERCHANTABILITY AND FITNESS FOR A PARTICULAR PURPOSE.
  29:Generated_Source\PSoC4/capsense_Control.c **** * Cypress reserves the right to make changes without further notice to the
  30:Generated_Source\PSoC4/capsense_Control.c **** * materials described herein. Cypress does not assume any liability arising out
ARM GAS  C:\Users\ASUS\AppData\Local\Temp\ccKm645o.s 			page 2


  31:Generated_Source\PSoC4/capsense_Control.c **** * of the application or use of any product or circuit described herein. Cypress
  32:Generated_Source\PSoC4/capsense_Control.c **** * does not authorize its products for use as critical components in life-support
  33:Generated_Source\PSoC4/capsense_Control.c **** * systems where a malfunction or failure may reasonably be expected to result in
  34:Generated_Source\PSoC4/capsense_Control.c **** * significant injury to the user. The inclusion of Cypress' product in a life-
  35:Generated_Source\PSoC4/capsense_Control.c **** * support systems application implies that the manufacturer assumes all risk of
  36:Generated_Source\PSoC4/capsense_Control.c **** * such use and in doing so indemnifies Cypress against all charges. Use may be
  37:Generated_Source\PSoC4/capsense_Control.c **** * limited by and subject to the applicable Cypress software license agreement.
  38:Generated_Source\PSoC4/capsense_Control.c **** *******************************************************************************/
  39:Generated_Source\PSoC4/capsense_Control.c **** 
  40:Generated_Source\PSoC4/capsense_Control.c **** #include "cytypes.h"
  41:Generated_Source\PSoC4/capsense_Control.c **** #include "CyLib.h"
  42:Generated_Source\PSoC4/capsense_Control.c **** #include "cyPm.h"
  43:Generated_Source\PSoC4/capsense_Control.c **** #include "capsense_Configuration.h"
  44:Generated_Source\PSoC4/capsense_Control.c **** #include "capsense_Structure.h"
  45:Generated_Source\PSoC4/capsense_Control.c **** #include "capsense_Control.h"
  46:Generated_Source\PSoC4/capsense_Control.c **** #include "capsense_Processing.h"
  47:Generated_Source\PSoC4/capsense_Control.c **** #include "capsense_Filter.h"
  48:Generated_Source\PSoC4/capsense_Control.c **** #include "capsense_Sensing.h"
  49:Generated_Source\PSoC4/capsense_Control.c **** #include "capsense_Tuner.h"
  50:Generated_Source\PSoC4/capsense_Control.c **** 
  51:Generated_Source\PSoC4/capsense_Control.c **** #if (capsense_ENABLE == capsense_SELF_TEST_EN)
  52:Generated_Source\PSoC4/capsense_Control.c ****     #include "capsense_SelfTest.h"
  53:Generated_Source\PSoC4/capsense_Control.c **** #endif
  54:Generated_Source\PSoC4/capsense_Control.c **** 
  55:Generated_Source\PSoC4/capsense_Control.c **** #if (0u != capsense_ADC_EN)
  56:Generated_Source\PSoC4/capsense_Control.c ****     #include "capsense_Adc.h"
  57:Generated_Source\PSoC4/capsense_Control.c **** #endif /* (0u != capsense_ADC_EN) */
  58:Generated_Source\PSoC4/capsense_Control.c **** 
  59:Generated_Source\PSoC4/capsense_Control.c **** #if ((capsense_ENABLE == capsense_GES_GLOBAL_EN) || \
  60:Generated_Source\PSoC4/capsense_Control.c ****      (capsense_ENABLE == capsense_BALLISTIC_MULTIPLIER_EN))
  61:Generated_Source\PSoC4/capsense_Control.c ****     #include "capsense_Gesture.h"
  62:Generated_Source\PSoC4/capsense_Control.c **** #endif /* (capsense_ENABLE == capsense_GES_GLOBAL_EN) */
  63:Generated_Source\PSoC4/capsense_Control.c **** 
  64:Generated_Source\PSoC4/capsense_Control.c **** /**************************************************************************************************
  65:Generated_Source\PSoC4/capsense_Control.c **** * Local definition
  66:Generated_Source\PSoC4/capsense_Control.c **** ***************************************************************************************************
  67:Generated_Source\PSoC4/capsense_Control.c **** #define capsense_INIT_DONE   (1u)
  68:Generated_Source\PSoC4/capsense_Control.c **** #define capsense_INIT_NEEDED (0u)
  69:Generated_Source\PSoC4/capsense_Control.c **** 
  70:Generated_Source\PSoC4/capsense_Control.c **** /**************************************************************************************************
  71:Generated_Source\PSoC4/capsense_Control.c **** * Local variables
  72:Generated_Source\PSoC4/capsense_Control.c **** ***************************************************************************************************
  73:Generated_Source\PSoC4/capsense_Control.c **** static uint8 capsense_InitVar = capsense_INIT_NEEDED;
  74:Generated_Source\PSoC4/capsense_Control.c **** 
  75:Generated_Source\PSoC4/capsense_Control.c **** /*******************************************************************************
  76:Generated_Source\PSoC4/capsense_Control.c **** * Function Name: capsense_Start
  77:Generated_Source\PSoC4/capsense_Control.c **** ****************************************************************************//**
  78:Generated_Source\PSoC4/capsense_Control.c **** *
  79:Generated_Source\PSoC4/capsense_Control.c **** * \brief
  80:Generated_Source\PSoC4/capsense_Control.c **** *  Initializes the Component hardware and firmware modules. This function is
  81:Generated_Source\PSoC4/capsense_Control.c **** *  called by the application program prior to calling any other function of the
  82:Generated_Source\PSoC4/capsense_Control.c **** *  Component.
  83:Generated_Source\PSoC4/capsense_Control.c **** *
  84:Generated_Source\PSoC4/capsense_Control.c **** * \details
  85:Generated_Source\PSoC4/capsense_Control.c **** *  This function initializes the Component hardware and firmware modules and
  86:Generated_Source\PSoC4/capsense_Control.c **** *  is called by the application program prior to calling any other API
  87:Generated_Source\PSoC4/capsense_Control.c **** *  of the Component. When this function is called, the following tasks are
ARM GAS  C:\Users\ASUS\AppData\Local\Temp\ccKm645o.s 			page 3


  88:Generated_Source\PSoC4/capsense_Control.c **** *  executed as part of the initialization process:
  89:Generated_Source\PSoC4/capsense_Control.c **** *    1. Initialize the registers of the \ref group_structures variable
  90:Generated_Source\PSoC4/capsense_Control.c **** *       capsense_dsRam based on the user selection in the Component
  91:Generated_Source\PSoC4/capsense_Control.c **** *       configuration wizard.
  92:Generated_Source\PSoC4/capsense_Control.c **** *    2. Configure the hardware to perform sensing.
  93:Generated_Source\PSoC4/capsense_Control.c **** *    \if SECTION_C_HIGH_LEVEL
  94:Generated_Source\PSoC4/capsense_Control.c **** *    3. If SmartSense Auto-tuning is selected for the CSD Tuning mode in the
  95:Generated_Source\PSoC4/capsense_Control.c **** *       Basic tab, the auto-tuning algorithm is executed to set the optimal
  96:Generated_Source\PSoC4/capsense_Control.c **** *       values for the hardware parameters of the widgets/sensors.
  97:Generated_Source\PSoC4/capsense_Control.c **** *    \endif
  98:Generated_Source\PSoC4/capsense_Control.c **** *    4. Calibrate the sensors and find the optimal values for IDACs of each
  99:Generated_Source\PSoC4/capsense_Control.c **** *       widget / sensor, if the Enable IDAC auto-calibration is enabled in the
 100:Generated_Source\PSoC4/capsense_Control.c **** *       Mode's Setting tabs.
 101:Generated_Source\PSoC4/capsense_Control.c **** *    5. Perform scanning for all the sensors and initialize the baseline history.
 102:Generated_Source\PSoC4/capsense_Control.c **** *    6. If the firmware filters are enabled in the Advanced General tab, the
 103:Generated_Source\PSoC4/capsense_Control.c **** *       filter histories are also initialized.
 104:Generated_Source\PSoC4/capsense_Control.c **** 
 105:Generated_Source\PSoC4/capsense_Control.c **** *  Any next call of this API repeats an initialization process except for
 106:Generated_Source\PSoC4/capsense_Control.c **** *  data structure initialization. Therefore, it is possible to change the
 107:Generated_Source\PSoC4/capsense_Control.c **** *  Component configuration from the application program by writing registers to the
 108:Generated_Source\PSoC4/capsense_Control.c **** *  data structure and calling this function again. This is also
 109:Generated_Source\PSoC4/capsense_Control.c **** *  done inside the capsense_RunTuner() function when a restart command
 110:Generated_Source\PSoC4/capsense_Control.c **** *  is received.
 111:Generated_Source\PSoC4/capsense_Control.c **** *
 112:Generated_Source\PSoC4/capsense_Control.c **** *  When the Component operation is stopped by the capsense_Stop()
 113:Generated_Source\PSoC4/capsense_Control.c **** *  function, the capsense_Start() function repeats an initialization
 114:Generated_Source\PSoC4/capsense_Control.c **** *  process including data structure initialization.
 115:Generated_Source\PSoC4/capsense_Control.c **** *
 116:Generated_Source\PSoC4/capsense_Control.c **** * \return
 117:Generated_Source\PSoC4/capsense_Control.c **** *  Returns the status of the initialization process. If CYRET_SUCCESS is not
 118:Generated_Source\PSoC4/capsense_Control.c **** *  received, some of the initialization fails and the Component may not operate
 119:Generated_Source\PSoC4/capsense_Control.c **** *  as expected.
 120:Generated_Source\PSoC4/capsense_Control.c **** *
 121:Generated_Source\PSoC4/capsense_Control.c **** *******************************************************************************/
 122:Generated_Source\PSoC4/capsense_Control.c **** cystatus capsense_Start(void)
 123:Generated_Source\PSoC4/capsense_Control.c **** {
 124:Generated_Source\PSoC4/capsense_Control.c ****     cystatus result;
 125:Generated_Source\PSoC4/capsense_Control.c ****     uint32 watchdogCounter;
 126:Generated_Source\PSoC4/capsense_Control.c **** 
 127:Generated_Source\PSoC4/capsense_Control.c ****     /* Initialize capsense modules */
 128:Generated_Source\PSoC4/capsense_Control.c ****     result = capsense_Initialize();
 129:Generated_Source\PSoC4/capsense_Control.c **** 
 130:Generated_Source\PSoC4/capsense_Control.c ****     #if (capsense_CSD_AUTOTUNE != capsense_CSD_SS_DIS)
 131:Generated_Source\PSoC4/capsense_Control.c ****         if (CYRET_SUCCESS == result)
 132:Generated_Source\PSoC4/capsense_Control.c ****         {
 133:Generated_Source\PSoC4/capsense_Control.c ****             result = capsense_SsAutoTune();
 134:Generated_Source\PSoC4/capsense_Control.c ****         }
 135:Generated_Source\PSoC4/capsense_Control.c ****     #endif /* #if (capsense_CSD_AUTOTUNE != capsense_CSD_SS_DIS) */
 136:Generated_Source\PSoC4/capsense_Control.c **** 
 137:Generated_Source\PSoC4/capsense_Control.c ****     #if (capsense_ANY_NONSS_AUTOCAL)
 138:Generated_Source\PSoC4/capsense_Control.c ****         if (CYRET_SUCCESS == result)
 139:Generated_Source\PSoC4/capsense_Control.c ****         {
 140:Generated_Source\PSoC4/capsense_Control.c ****             result = capsense_CalibrateAllWidgets();
 141:Generated_Source\PSoC4/capsense_Control.c ****         }
 142:Generated_Source\PSoC4/capsense_Control.c ****     #endif
 143:Generated_Source\PSoC4/capsense_Control.c **** 
 144:Generated_Source\PSoC4/capsense_Control.c ****     if (CYRET_SUCCESS == result)
ARM GAS  C:\Users\ASUS\AppData\Local\Temp\ccKm645o.s 			page 4


 145:Generated_Source\PSoC4/capsense_Control.c ****     {
 146:Generated_Source\PSoC4/capsense_Control.c ****         result = capsense_ScanAllWidgets();
 147:Generated_Source\PSoC4/capsense_Control.c ****     }
 148:Generated_Source\PSoC4/capsense_Control.c **** 
 149:Generated_Source\PSoC4/capsense_Control.c ****     if (CYRET_SUCCESS == result)
 150:Generated_Source\PSoC4/capsense_Control.c ****     {
 151:Generated_Source\PSoC4/capsense_Control.c ****         /* Init Watchdog Counter to prevent a hang */
 152:Generated_Source\PSoC4/capsense_Control.c ****         watchdogCounter = capsense_SW_WATCHDOG_SCAN_ALL;
 153:Generated_Source\PSoC4/capsense_Control.c **** 
 154:Generated_Source\PSoC4/capsense_Control.c ****         /* Wait for scan to finish. */
 155:Generated_Source\PSoC4/capsense_Control.c ****         while((capsense_NOT_BUSY != capsense_IsBusy()) && (0u != watchdogCounter))
 156:Generated_Source\PSoC4/capsense_Control.c ****         {
 157:Generated_Source\PSoC4/capsense_Control.c ****             watchdogCounter--;
 158:Generated_Source\PSoC4/capsense_Control.c ****         }
 159:Generated_Source\PSoC4/capsense_Control.c ****         if (0u == watchdogCounter)
 160:Generated_Source\PSoC4/capsense_Control.c ****         {
 161:Generated_Source\PSoC4/capsense_Control.c ****             result = CYRET_TIMEOUT;
 162:Generated_Source\PSoC4/capsense_Control.c ****         }
 163:Generated_Source\PSoC4/capsense_Control.c ****     }
 164:Generated_Source\PSoC4/capsense_Control.c **** 
 165:Generated_Source\PSoC4/capsense_Control.c ****     capsense_FtInitialize();
 166:Generated_Source\PSoC4/capsense_Control.c ****     capsense_InitializeAllBaselines();
 167:Generated_Source\PSoC4/capsense_Control.c **** 
 168:Generated_Source\PSoC4/capsense_Control.c ****     #if(capsense_ENABLE == capsense_GES_GLOBAL_EN)
 169:Generated_Source\PSoC4/capsense_Control.c ****         if (CYRET_SUCCESS == result)
 170:Generated_Source\PSoC4/capsense_Control.c ****         {
 171:Generated_Source\PSoC4/capsense_Control.c ****             capsense_InitializeGestures();
 172:Generated_Source\PSoC4/capsense_Control.c ****         }
 173:Generated_Source\PSoC4/capsense_Control.c ****     #endif /* (capsense_ENABLE == capsense_GES_GLOBAL_EN) */
 174:Generated_Source\PSoC4/capsense_Control.c **** 
 175:Generated_Source\PSoC4/capsense_Control.c ****     #if (0u != capsense_BALLISTIC_MULTIPLIER_EN)
 176:Generated_Source\PSoC4/capsense_Control.c ****         if (CYRET_SUCCESS == result)
 177:Generated_Source\PSoC4/capsense_Control.c ****         {
 178:Generated_Source\PSoC4/capsense_Control.c ****             capsense_InitializeBallisticMultiplier();
 179:Generated_Source\PSoC4/capsense_Control.c ****         }
 180:Generated_Source\PSoC4/capsense_Control.c ****     #endif /* (0u != capsense_BALLISTIC_MULTIPLIER_EN) */
 181:Generated_Source\PSoC4/capsense_Control.c **** 
 182:Generated_Source\PSoC4/capsense_Control.c ****     #if (0u != capsense_ADC_EN)
 183:Generated_Source\PSoC4/capsense_Control.c ****         capsense_AdcInitialize();
 184:Generated_Source\PSoC4/capsense_Control.c ****     #endif /* (0u != capsense_ADC_EN) */
 185:Generated_Source\PSoC4/capsense_Control.c **** 
 186:Generated_Source\PSoC4/capsense_Control.c ****     return result;
 187:Generated_Source\PSoC4/capsense_Control.c **** }
 188:Generated_Source\PSoC4/capsense_Control.c **** 
 189:Generated_Source\PSoC4/capsense_Control.c **** /*******************************************************************************
 190:Generated_Source\PSoC4/capsense_Control.c **** * Function Name: capsense_Initialize
 191:Generated_Source\PSoC4/capsense_Control.c **** ****************************************************************************//**
 192:Generated_Source\PSoC4/capsense_Control.c **** *
 193:Generated_Source\PSoC4/capsense_Control.c **** * \brief
 194:Generated_Source\PSoC4/capsense_Control.c **** *  This function initializes the capsense Component.
 195:Generated_Source\PSoC4/capsense_Control.c **** *
 196:Generated_Source\PSoC4/capsense_Control.c **** * \details
 197:Generated_Source\PSoC4/capsense_Control.c **** *  This API initializes all sub-modules of the capsense Component:
 198:Generated_Source\PSoC4/capsense_Control.c **** *   - Data Structure - set the default Component parameters defined in the Customizer.
 199:Generated_Source\PSoC4/capsense_Control.c **** *   - Data Processing - resets all widget statuses.
 200:Generated_Source\PSoC4/capsense_Control.c **** *   - Tuner - resets tuning state.
 201:Generated_Source\PSoC4/capsense_Control.c **** *   - Sensing - prepares CSD HW for operation.
ARM GAS  C:\Users\ASUS\AppData\Local\Temp\ccKm645o.s 			page 5


 202:Generated_Source\PSoC4/capsense_Control.c **** *
 203:Generated_Source\PSoC4/capsense_Control.c **** *  Note that Data Structure module is initialized only once after the reset or
 204:Generated_Source\PSoC4/capsense_Control.c **** *  capsense_Stop() API is called. The repeated calls of Initialize API
 205:Generated_Source\PSoC4/capsense_Control.c **** *  will not re-initialize Data Structure. This is done to preserve Component
 206:Generated_Source\PSoC4/capsense_Control.c **** *  parameters that user may set in runtime.
 207:Generated_Source\PSoC4/capsense_Control.c **** *
 208:Generated_Source\PSoC4/capsense_Control.c **** * \return
 209:Generated_Source\PSoC4/capsense_Control.c **** *  Return CYRET_SUCCESS if the initialization was successful.
 210:Generated_Source\PSoC4/capsense_Control.c **** *
 211:Generated_Source\PSoC4/capsense_Control.c **** *******************************************************************************/
 212:Generated_Source\PSoC4/capsense_Control.c **** cystatus capsense_Initialize(void)
 213:Generated_Source\PSoC4/capsense_Control.c **** {
  28              		.loc 1 213 0
  29              		.cfi_startproc
  30              		@ args = 0, pretend = 0, frame = 0
  31              		@ frame_needed = 0, uses_anonymous_args = 0
  32 0000 10B5     		push	{r4, lr}
  33              		.cfi_def_cfa_offset 8
  34              		.cfi_offset 4, -8
  35              		.cfi_offset 14, -4
 214:Generated_Source\PSoC4/capsense_Control.c ****     cystatus result;
 215:Generated_Source\PSoC4/capsense_Control.c **** 
 216:Generated_Source\PSoC4/capsense_Control.c ****     /* The Data Structure and Tuner are initialized only once */
 217:Generated_Source\PSoC4/capsense_Control.c ****     if (capsense_INIT_NEEDED == capsense_InitVar)
  36              		.loc 1 217 0
  37 0002 084B     		ldr	r3, .L3
  38 0004 1B78     		ldrb	r3, [r3]
  39 0006 002B     		cmp	r3, #0
  40 0008 06D1     		bne	.L2
 218:Generated_Source\PSoC4/capsense_Control.c ****     {
 219:Generated_Source\PSoC4/capsense_Control.c ****         capsense_DsInitialize();
  41              		.loc 1 219 0
  42 000a FFF7FEFF 		bl	capsense_DsInitialize
  43              	.LVL0:
 220:Generated_Source\PSoC4/capsense_Control.c ****         capsense_TuInitialize();
  44              		.loc 1 220 0
  45 000e FFF7FEFF 		bl	capsense_TuInitialize
  46              	.LVL1:
 221:Generated_Source\PSoC4/capsense_Control.c ****         capsense_InitVar = capsense_INIT_DONE;
  47              		.loc 1 221 0
  48 0012 0122     		movs	r2, #1
  49 0014 034B     		ldr	r3, .L3
  50 0016 1A70     		strb	r2, [r3]
  51              	.L2:
 222:Generated_Source\PSoC4/capsense_Control.c ****     }
 223:Generated_Source\PSoC4/capsense_Control.c **** 
 224:Generated_Source\PSoC4/capsense_Control.c ****     capsense_DpInitialize();
  52              		.loc 1 224 0
  53 0018 FFF7FEFF 		bl	capsense_DpInitialize
  54              	.LVL2:
 225:Generated_Source\PSoC4/capsense_Control.c **** 
 226:Generated_Source\PSoC4/capsense_Control.c ****     result = capsense_SsInitialize();
  55              		.loc 1 226 0
  56 001c FFF7FEFF 		bl	capsense_SsInitialize
  57              	.LVL3:
 227:Generated_Source\PSoC4/capsense_Control.c **** 
 228:Generated_Source\PSoC4/capsense_Control.c ****     return result;
ARM GAS  C:\Users\ASUS\AppData\Local\Temp\ccKm645o.s 			page 6


 229:Generated_Source\PSoC4/capsense_Control.c **** }
  58              		.loc 1 229 0
  59              		@ sp needed
  60 0020 10BD     		pop	{r4, pc}
  61              	.L4:
  62 0022 C046     		.align	2
  63              	.L3:
  64 0024 00000000 		.word	.LANCHOR0
  65              		.cfi_endproc
  66              	.LFE2:
  67              		.size	capsense_Initialize, .-capsense_Initialize
  68              		.section	.text.capsense_Start,"ax",%progbits
  69              		.align	2
  70              		.global	capsense_Start
  71              		.code	16
  72              		.thumb_func
  73              		.type	capsense_Start, %function
  74              	capsense_Start:
  75              	.LFB1:
 123:Generated_Source\PSoC4/capsense_Control.c ****     cystatus result;
  76              		.loc 1 123 0
  77              		.cfi_startproc
  78              		@ args = 0, pretend = 0, frame = 0
  79              		@ frame_needed = 0, uses_anonymous_args = 0
  80 0000 70B5     		push	{r4, r5, r6, lr}
  81              		.cfi_def_cfa_offset 16
  82              		.cfi_offset 4, -16
  83              		.cfi_offset 5, -12
  84              		.cfi_offset 6, -8
  85              		.cfi_offset 14, -4
 128:Generated_Source\PSoC4/capsense_Control.c **** 
  86              		.loc 1 128 0
  87 0002 FFF7FEFF 		bl	capsense_Initialize
  88              	.LVL4:
  89 0006 051E     		subs	r5, r0, #0
  90              	.LVL5:
 138:Generated_Source\PSoC4/capsense_Control.c ****         {
  91              		.loc 1 138 0
  92 0008 02D1     		bne	.L6
 140:Generated_Source\PSoC4/capsense_Control.c ****         }
  93              		.loc 1 140 0
  94 000a FFF7FEFF 		bl	capsense_CalibrateAllWidgets
  95              	.LVL6:
  96 000e 0500     		movs	r5, r0
  97              	.LVL7:
  98              	.L6:
 144:Generated_Source\PSoC4/capsense_Control.c ****     {
  99              		.loc 1 144 0
 100 0010 002D     		cmp	r5, #0
 101 0012 02D1     		bne	.L7
 146:Generated_Source\PSoC4/capsense_Control.c ****     }
 102              		.loc 1 146 0
 103 0014 FFF7FEFF 		bl	capsense_ScanAllWidgets
 104              	.LVL8:
 105 0018 0500     		movs	r5, r0
 106              	.LVL9:
 107              	.L7:
ARM GAS  C:\Users\ASUS\AppData\Local\Temp\ccKm645o.s 			page 7


 149:Generated_Source\PSoC4/capsense_Control.c ****     {
 108              		.loc 1 149 0
 109 001a 002D     		cmp	r5, #0
 110 001c 02D0     		beq	.L12
 111 001e 0BE0     		b	.L9
 112              	.LVL10:
 113              	.L11:
 157:Generated_Source\PSoC4/capsense_Control.c ****         }
 114              		.loc 1 157 0
 115 0020 013C     		subs	r4, r4, #1
 116              	.LVL11:
 117 0022 00E0     		b	.L8
 118              	.LVL12:
 119              	.L12:
 120 0024 074C     		ldr	r4, .L14
 121              	.LVL13:
 122              	.L8:
 155:Generated_Source\PSoC4/capsense_Control.c ****         {
 123              		.loc 1 155 0
 124 0026 FFF7FEFF 		bl	capsense_IsBusy
 125              	.LVL14:
 126 002a 0028     		cmp	r0, #0
 127 002c 01D0     		beq	.L10
 155:Generated_Source\PSoC4/capsense_Control.c ****         {
 128              		.loc 1 155 0 is_stmt 0 discriminator 1
 129 002e 002C     		cmp	r4, #0
 130 0030 F6D1     		bne	.L11
 131              	.L10:
 159:Generated_Source\PSoC4/capsense_Control.c ****         {
 132              		.loc 1 159 0 is_stmt 1
 133 0032 002C     		cmp	r4, #0
 134 0034 00D1     		bne	.L9
 161:Generated_Source\PSoC4/capsense_Control.c ****         }
 135              		.loc 1 161 0
 136 0036 1025     		movs	r5, #16
 137              	.LVL15:
 138              	.L9:
 165:Generated_Source\PSoC4/capsense_Control.c ****     capsense_InitializeAllBaselines();
 139              		.loc 1 165 0
 140 0038 FFF7FEFF 		bl	capsense_FtInitialize
 141              	.LVL16:
 166:Generated_Source\PSoC4/capsense_Control.c **** 
 142              		.loc 1 166 0
 143 003c FFF7FEFF 		bl	capsense_InitializeAllBaselines
 144              	.LVL17:
 187:Generated_Source\PSoC4/capsense_Control.c **** 
 145              		.loc 1 187 0
 146 0040 2800     		movs	r0, r5
 147              		@ sp needed
 148              	.LVL18:
 149 0042 70BD     		pop	{r4, r5, r6, pc}
 150              	.L15:
 151              		.align	2
 152              	.L14:
 153 0044 404B4C00 		.word	5000000
 154              		.cfi_endproc
 155              	.LFE1:
ARM GAS  C:\Users\ASUS\AppData\Local\Temp\ccKm645o.s 			page 8


 156              		.size	capsense_Start, .-capsense_Start
 157              		.section	.text.capsense_Stop,"ax",%progbits
 158              		.align	2
 159              		.global	capsense_Stop
 160              		.code	16
 161              		.thumb_func
 162              		.type	capsense_Stop, %function
 163              	capsense_Stop:
 164              	.LFB3:
 230:Generated_Source\PSoC4/capsense_Control.c **** 
 231:Generated_Source\PSoC4/capsense_Control.c **** /*******************************************************************************
 232:Generated_Source\PSoC4/capsense_Control.c **** * Function Name: capsense_Stop
 233:Generated_Source\PSoC4/capsense_Control.c **** ****************************************************************************//**
 234:Generated_Source\PSoC4/capsense_Control.c **** *
 235:Generated_Source\PSoC4/capsense_Control.c **** * \brief
 236:Generated_Source\PSoC4/capsense_Control.c **** *  Stops the Component operation.
 237:Generated_Source\PSoC4/capsense_Control.c **** *
 238:Generated_Source\PSoC4/capsense_Control.c **** * \details
 239:Generated_Source\PSoC4/capsense_Control.c **** *  This function stops the Component operation, no sensor scanning can be
 240:Generated_Source\PSoC4/capsense_Control.c **** *  executed when the Component is stopped. Once stopped, the hardware block may
 241:Generated_Source\PSoC4/capsense_Control.c **** *  be reconfigured by the application program for any other special usage. The
 242:Generated_Source\PSoC4/capsense_Control.c **** *  Component operation can be resumed by calling the capsense_Resume()
 243:Generated_Source\PSoC4/capsense_Control.c **** *  function or the Component can be reset by calling the
 244:Generated_Source\PSoC4/capsense_Control.c **** *  capsense_Start() function.
 245:Generated_Source\PSoC4/capsense_Control.c **** *
 246:Generated_Source\PSoC4/capsense_Control.c **** *  This function is called when no scanning is in progress.
 247:Generated_Source\PSoC4/capsense_Control.c **** *  I.e. capsense_IsBusy() returns a non-busy status.
 248:Generated_Source\PSoC4/capsense_Control.c **** *
 249:Generated_Source\PSoC4/capsense_Control.c **** * \return
 250:Generated_Source\PSoC4/capsense_Control.c **** *  Returns the status of the stop process. If CYRET_SUCCESS is not received,
 251:Generated_Source\PSoC4/capsense_Control.c **** *  the stop process fails and retries may be required.
 252:Generated_Source\PSoC4/capsense_Control.c **** *
 253:Generated_Source\PSoC4/capsense_Control.c **** *******************************************************************************/
 254:Generated_Source\PSoC4/capsense_Control.c **** cystatus capsense_Stop(void)
 255:Generated_Source\PSoC4/capsense_Control.c **** {
 165              		.loc 1 255 0
 166              		.cfi_startproc
 167              		@ args = 0, pretend = 0, frame = 0
 168              		@ frame_needed = 0, uses_anonymous_args = 0
 169              		@ link register save eliminated.
 170              	.LVL19:
 256:Generated_Source\PSoC4/capsense_Control.c ****     cystatus result = CYRET_SUCCESS;
 257:Generated_Source\PSoC4/capsense_Control.c **** 
 258:Generated_Source\PSoC4/capsense_Control.c ****     #if (capsense_ENABLE == capsense_ADC_EN)
 259:Generated_Source\PSoC4/capsense_Control.c ****         /* Release CSD resources */
 260:Generated_Source\PSoC4/capsense_Control.c ****         result = capsense_SsReleaseResources();
 261:Generated_Source\PSoC4/capsense_Control.c **** 
 262:Generated_Source\PSoC4/capsense_Control.c ****         /* Release ADC resources */
 263:Generated_Source\PSoC4/capsense_Control.c ****         capsense_AdcStop();
 264:Generated_Source\PSoC4/capsense_Control.c ****     #endif /* (capsense_ENABLE == capsense_ADC_EN) */
 265:Generated_Source\PSoC4/capsense_Control.c **** 
 266:Generated_Source\PSoC4/capsense_Control.c ****     capsense_InitVar = capsense_INIT_NEEDED;
 171              		.loc 1 266 0
 172 0000 0022     		movs	r2, #0
 173 0002 024B     		ldr	r3, .L17
 174 0004 1A70     		strb	r2, [r3]
 267:Generated_Source\PSoC4/capsense_Control.c **** 
ARM GAS  C:\Users\ASUS\AppData\Local\Temp\ccKm645o.s 			page 9


 268:Generated_Source\PSoC4/capsense_Control.c ****     return result;
 269:Generated_Source\PSoC4/capsense_Control.c **** }
 175              		.loc 1 269 0
 176 0006 0020     		movs	r0, #0
 177              		@ sp needed
 178 0008 7047     		bx	lr
 179              	.L18:
 180 000a C046     		.align	2
 181              	.L17:
 182 000c 00000000 		.word	.LANCHOR0
 183              		.cfi_endproc
 184              	.LFE3:
 185              		.size	capsense_Stop, .-capsense_Stop
 186              		.section	.text.capsense_Resume,"ax",%progbits
 187              		.align	2
 188              		.global	capsense_Resume
 189              		.code	16
 190              		.thumb_func
 191              		.type	capsense_Resume, %function
 192              	capsense_Resume:
 193              	.LFB4:
 270:Generated_Source\PSoC4/capsense_Control.c **** 
 271:Generated_Source\PSoC4/capsense_Control.c **** /*******************************************************************************
 272:Generated_Source\PSoC4/capsense_Control.c **** * Function Name: capsense_Resume
 273:Generated_Source\PSoC4/capsense_Control.c **** ****************************************************************************//**
 274:Generated_Source\PSoC4/capsense_Control.c **** *
 275:Generated_Source\PSoC4/capsense_Control.c **** * \brief
 276:Generated_Source\PSoC4/capsense_Control.c **** *  Resumes the Component operation if the capsense_Stop() function was
 277:Generated_Source\PSoC4/capsense_Control.c **** *  called previously.
 278:Generated_Source\PSoC4/capsense_Control.c **** *
 279:Generated_Source\PSoC4/capsense_Control.c **** * \details
 280:Generated_Source\PSoC4/capsense_Control.c **** *  This function resumes the Component operation if the operation is stopped
 281:Generated_Source\PSoC4/capsense_Control.c **** *  previously by the capsense_Stop() function. The following tasks are
 282:Generated_Source\PSoC4/capsense_Control.c **** *  executed as part of the operation resume process:
 283:Generated_Source\PSoC4/capsense_Control.c **** *    1. Reset all the Widgets/Sensors statuses.
 284:Generated_Source\PSoC4/capsense_Control.c **** *    2. Configure the hardware to perform sensing.
 285:Generated_Source\PSoC4/capsense_Control.c **** *
 286:Generated_Source\PSoC4/capsense_Control.c **** * \return
 287:Generated_Source\PSoC4/capsense_Control.c **** *  Returns the status of the resume process. If CYRET_SUCCESS is not received,
 288:Generated_Source\PSoC4/capsense_Control.c **** *  the resume process fails and retries may be required.
 289:Generated_Source\PSoC4/capsense_Control.c **** *
 290:Generated_Source\PSoC4/capsense_Control.c **** *******************************************************************************/
 291:Generated_Source\PSoC4/capsense_Control.c **** cystatus capsense_Resume(void)
 292:Generated_Source\PSoC4/capsense_Control.c **** {
 194              		.loc 1 292 0
 195              		.cfi_startproc
 196              		@ args = 0, pretend = 0, frame = 0
 197              		@ frame_needed = 0, uses_anonymous_args = 0
 198 0000 10B5     		push	{r4, lr}
 199              		.cfi_def_cfa_offset 8
 200              		.cfi_offset 4, -8
 201              		.cfi_offset 14, -4
 293:Generated_Source\PSoC4/capsense_Control.c ****     cystatus result;
 294:Generated_Source\PSoC4/capsense_Control.c **** 
 295:Generated_Source\PSoC4/capsense_Control.c ****     /* The Tuner are initialized only once in order not to break communication */
 296:Generated_Source\PSoC4/capsense_Control.c ****     if (capsense_INIT_NEEDED == capsense_InitVar)
 202              		.loc 1 296 0
ARM GAS  C:\Users\ASUS\AppData\Local\Temp\ccKm645o.s 			page 10


 203 0002 074B     		ldr	r3, .L21
 204 0004 1B78     		ldrb	r3, [r3]
 205 0006 002B     		cmp	r3, #0
 206 0008 04D1     		bne	.L20
 297:Generated_Source\PSoC4/capsense_Control.c ****     {
 298:Generated_Source\PSoC4/capsense_Control.c ****         capsense_TuInitialize();
 207              		.loc 1 298 0
 208 000a FFF7FEFF 		bl	capsense_TuInitialize
 209              	.LVL20:
 299:Generated_Source\PSoC4/capsense_Control.c ****         capsense_InitVar = capsense_INIT_DONE;
 210              		.loc 1 299 0
 211 000e 0122     		movs	r2, #1
 212 0010 034B     		ldr	r3, .L21
 213 0012 1A70     		strb	r2, [r3]
 214              	.L20:
 300:Generated_Source\PSoC4/capsense_Control.c ****     }
 301:Generated_Source\PSoC4/capsense_Control.c ****     capsense_DpInitialize();
 215              		.loc 1 301 0
 216 0014 FFF7FEFF 		bl	capsense_DpInitialize
 217              	.LVL21:
 302:Generated_Source\PSoC4/capsense_Control.c **** 
 303:Generated_Source\PSoC4/capsense_Control.c ****     result = capsense_SsInitialize();
 218              		.loc 1 303 0
 219 0018 FFF7FEFF 		bl	capsense_SsInitialize
 220              	.LVL22:
 304:Generated_Source\PSoC4/capsense_Control.c **** 
 305:Generated_Source\PSoC4/capsense_Control.c ****     return result;
 306:Generated_Source\PSoC4/capsense_Control.c **** }
 221              		.loc 1 306 0
 222              		@ sp needed
 223 001c 10BD     		pop	{r4, pc}
 224              	.L22:
 225 001e C046     		.align	2
 226              	.L21:
 227 0020 00000000 		.word	.LANCHOR0
 228              		.cfi_endproc
 229              	.LFE4:
 230              		.size	capsense_Resume, .-capsense_Resume
 231              		.section	.text.capsense_ProcessAllWidgets,"ax",%progbits
 232              		.align	2
 233              		.global	capsense_ProcessAllWidgets
 234              		.code	16
 235              		.thumb_func
 236              		.type	capsense_ProcessAllWidgets, %function
 237              	capsense_ProcessAllWidgets:
 238              	.LFB5:
 307:Generated_Source\PSoC4/capsense_Control.c **** 
 308:Generated_Source\PSoC4/capsense_Control.c **** /*******************************************************************************
 309:Generated_Source\PSoC4/capsense_Control.c **** * Function Name: capsense_ProcessAllWidgets
 310:Generated_Source\PSoC4/capsense_Control.c **** ****************************************************************************//**
 311:Generated_Source\PSoC4/capsense_Control.c **** *
 312:Generated_Source\PSoC4/capsense_Control.c **** * \brief
 313:Generated_Source\PSoC4/capsense_Control.c **** *  Performs full data processing of all enabled widgets.
 314:Generated_Source\PSoC4/capsense_Control.c **** *
 315:Generated_Source\PSoC4/capsense_Control.c **** * \details
 316:Generated_Source\PSoC4/capsense_Control.c **** *  This function performs all data processes for all enabled widgets in the
 317:Generated_Source\PSoC4/capsense_Control.c **** *  Component. The following tasks are executed as part of processing all the
ARM GAS  C:\Users\ASUS\AppData\Local\Temp\ccKm645o.s 			page 11


 318:Generated_Source\PSoC4/capsense_Control.c **** *  widgets:
 319:Generated_Source\PSoC4/capsense_Control.c **** *    1. Apply raw count filters to the raw counts, if they are enabled in the
 320:Generated_Source\PSoC4/capsense_Control.c **** *       customizer.
 321:Generated_Source\PSoC4/capsense_Control.c **** *    2. Update the thresholds if the SmartSense Full Auto-Tuning is enabled in
 322:Generated_Source\PSoC4/capsense_Control.c **** *       the customizer.
 323:Generated_Source\PSoC4/capsense_Control.c **** *    3. Update the baselines and difference counts for all the sensors.
 324:Generated_Source\PSoC4/capsense_Control.c **** *    4. Update the sensor and widget status (on/off), update the centroid for
 325:Generated_Source\PSoC4/capsense_Control.c **** *       the sliders and the X/Y position for the touchpads.
 326:Generated_Source\PSoC4/capsense_Control.c **** *
 327:Generated_Source\PSoC4/capsense_Control.c **** *  This function is called by an application program only after all the enabled
 328:Generated_Source\PSoC4/capsense_Control.c **** *  widgets (and sensors) in the Component is scanned. Calling this function
 329:Generated_Source\PSoC4/capsense_Control.c **** *  multiple times without sensor scanning causes unexpected behavior.
 330:Generated_Source\PSoC4/capsense_Control.c **** *
 331:Generated_Source\PSoC4/capsense_Control.c **** *  The disabled widgets are not processed by this function. To disable/enable
 332:Generated_Source\PSoC4/capsense_Control.c **** *  a widget, set the appropriate values in the
 333:Generated_Source\PSoC4/capsense_Control.c **** *  capsense_WDGT_ENABLE<RegisterNumber>_PARAM_ID register using the
 334:Generated_Source\PSoC4/capsense_Control.c **** *  capsense_SetParam() function.
 335:Generated_Source\PSoC4/capsense_Control.c **** *
 336:Generated_Source\PSoC4/capsense_Control.c **** *  If the Ballistic multiplier filter is enabled the Timestamp must be
 337:Generated_Source\PSoC4/capsense_Control.c **** *  updated before calling this function using the
 338:Generated_Source\PSoC4/capsense_Control.c **** *  capsense_IncrementGestureTimestamp() function.
 339:Generated_Source\PSoC4/capsense_Control.c **** *
 340:Generated_Source\PSoC4/capsense_Control.c **** *  If the Self-test library is enabled, this function executes the baseline duplication
 341:Generated_Source\PSoC4/capsense_Control.c **** *  test. Refer to capsense_CheckBaselineDuplication() for details.
 342:Generated_Source\PSoC4/capsense_Control.c **** *
 343:Generated_Source\PSoC4/capsense_Control.c **** *  If the ballistic multiplier filter is enabled, make sure the timestamp is
 344:Generated_Source\PSoC4/capsense_Control.c **** *  updated before calling this function. Use one of the following functions to update
 345:Generated_Source\PSoC4/capsense_Control.c **** *  the timestamp:
 346:Generated_Source\PSoC4/capsense_Control.c **** *  - capsense_IncrementGestureTimestamp().
 347:Generated_Source\PSoC4/capsense_Control.c **** *  - capsense_SetGestureTimestamp().
 348:Generated_Source\PSoC4/capsense_Control.c **** *
 349:Generated_Source\PSoC4/capsense_Control.c **** * \return
 350:Generated_Source\PSoC4/capsense_Control.c **** *  Returns the status of the processing operation. If CYRET_SUCCESS is not received,
 351:Generated_Source\PSoC4/capsense_Control.c **** *  the processing fails and retries may be required.
 352:Generated_Source\PSoC4/capsense_Control.c **** *
 353:Generated_Source\PSoC4/capsense_Control.c **** *******************************************************************************/
 354:Generated_Source\PSoC4/capsense_Control.c **** cystatus capsense_ProcessAllWidgets(void)
 355:Generated_Source\PSoC4/capsense_Control.c **** {
 239              		.loc 1 355 0
 240              		.cfi_startproc
 241              		@ args = 0, pretend = 0, frame = 0
 242              		@ frame_needed = 0, uses_anonymous_args = 0
 243 0000 70B5     		push	{r4, r5, r6, lr}
 244              		.cfi_def_cfa_offset 16
 245              		.cfi_offset 4, -16
 246              		.cfi_offset 5, -12
 247              		.cfi_offset 6, -8
 248              		.cfi_offset 14, -4
 249              	.LVL23:
 356:Generated_Source\PSoC4/capsense_Control.c ****     uint32 wdgtId;
 357:Generated_Source\PSoC4/capsense_Control.c ****     cystatus result = CYRET_SUCCESS;
 358:Generated_Source\PSoC4/capsense_Control.c ****     capsense_FLASH_WD_STRUCT const *ptrFlashWdgt;
 359:Generated_Source\PSoC4/capsense_Control.c **** 
 360:Generated_Source\PSoC4/capsense_Control.c ****     ptrFlashWdgt = capsense_dsFlash.wdgtArray;
 250              		.loc 1 360 0
 251 0002 174E     		ldr	r6, .L31
 357:Generated_Source\PSoC4/capsense_Control.c ****     capsense_FLASH_WD_STRUCT const *ptrFlashWdgt;
ARM GAS  C:\Users\ASUS\AppData\Local\Temp\ccKm645o.s 			page 12


 252              		.loc 1 357 0
 253 0004 0024     		movs	r4, #0
 361:Generated_Source\PSoC4/capsense_Control.c **** 
 362:Generated_Source\PSoC4/capsense_Control.c ****     for (wdgtId = 0u; wdgtId < capsense_TOTAL_WIDGETS; wdgtId++)
 254              		.loc 1 362 0
 255 0006 0025     		movs	r5, #0
 256 0008 26E0     		b	.L24
 257              	.LVL24:
 258              	.L29:
 363:Generated_Source\PSoC4/capsense_Control.c ****     {
 364:Generated_Source\PSoC4/capsense_Control.c ****         if (0uL != capsense_GET_WIDGET_EN_STATUS(wdgtId))
 259              		.loc 1 364 0
 260 000a 6B09     		lsrs	r3, r5, #5
 261 000c 0433     		adds	r3, r3, #4
 262 000e 9B00     		lsls	r3, r3, #2
 263 0010 144A     		ldr	r2, .L31+4
 264 0012 9B58     		ldr	r3, [r3, r2]
 265 0014 1F22     		movs	r2, #31
 266 0016 2A40     		ands	r2, r5
 267 0018 D340     		lsrs	r3, r3, r2
 268 001a DB07     		lsls	r3, r3, #31
 269 001c 1AD5     		bpl	.L25
 365:Generated_Source\PSoC4/capsense_Control.c ****         {
 366:Generated_Source\PSoC4/capsense_Control.c ****             switch(capsense_GET_SENSE_METHOD(ptrFlashWdgt))
 270              		.loc 1 366 0
 271 001e F37E     		ldrb	r3, [r6, #27]
 272 0020 012B     		cmp	r3, #1
 273 0022 02D0     		beq	.L27
 274 0024 022B     		cmp	r3, #2
 275 0026 09D0     		beq	.L28
 276 0028 11E0     		b	.L30
 277              	.L27:
 367:Generated_Source\PSoC4/capsense_Control.c ****             {
 368:Generated_Source\PSoC4/capsense_Control.c ****             #if (0u != capsense_TOTAL_CSD_WIDGETS)
 369:Generated_Source\PSoC4/capsense_Control.c ****                 case capsense_SENSE_METHOD_CSD_E:
 370:Generated_Source\PSoC4/capsense_Control.c ****                     result = capsense_DpProcessCsdWidgetRawCounts(ptrFlashWdgt);
 278              		.loc 1 370 0
 279 002a 3000     		movs	r0, r6
 280 002c FFF7FEFF 		bl	capsense_DpProcessCsdWidgetRawCounts
 281              	.LVL25:
 282 0030 0400     		movs	r4, r0
 283              	.LVL26:
 371:Generated_Source\PSoC4/capsense_Control.c ****                     capsense_DpProcessCsdWidgetStatus(wdgtId, ptrFlashWdgt);
 284              		.loc 1 371 0
 285 0032 3100     		movs	r1, r6
 286 0034 2800     		movs	r0, r5
 287              	.LVL27:
 288 0036 FFF7FEFF 		bl	capsense_DpProcessCsdWidgetStatus
 289              	.LVL28:
 372:Generated_Source\PSoC4/capsense_Control.c ****                     break;
 290              		.loc 1 372 0
 291 003a 0BE0     		b	.L25
 292              	.L28:
 373:Generated_Source\PSoC4/capsense_Control.c ****             #endif /* #if (0u != capsense_TOTAL_CSD_WIDGETS) */
 374:Generated_Source\PSoC4/capsense_Control.c **** 
 375:Generated_Source\PSoC4/capsense_Control.c ****             #if (0u != capsense_TOTAL_CSX_WIDGETS)
 376:Generated_Source\PSoC4/capsense_Control.c ****                 case capsense_SENSE_METHOD_CSX_E:
ARM GAS  C:\Users\ASUS\AppData\Local\Temp\ccKm645o.s 			page 13


 377:Generated_Source\PSoC4/capsense_Control.c ****                     result = capsense_DpProcessCsxWidgetRawCounts(ptrFlashWdgt);
 293              		.loc 1 377 0
 294 003c 3000     		movs	r0, r6
 295 003e FFF7FEFF 		bl	capsense_DpProcessCsxWidgetRawCounts
 296              	.LVL29:
 297 0042 0400     		movs	r4, r0
 298              	.LVL30:
 378:Generated_Source\PSoC4/capsense_Control.c ****                     capsense_DpProcessCsxWidgetStatus(wdgtId, ptrFlashWdgt);
 299              		.loc 1 378 0
 300 0044 3100     		movs	r1, r6
 301 0046 2800     		movs	r0, r5
 302              	.LVL31:
 303 0048 FFF7FEFF 		bl	capsense_DpProcessCsxWidgetStatus
 304              	.LVL32:
 379:Generated_Source\PSoC4/capsense_Control.c ****                     break;
 305              		.loc 1 379 0
 306 004c 02E0     		b	.L25
 307              	.L30:
 380:Generated_Source\PSoC4/capsense_Control.c ****             #endif /* #if (0u != capsense_TOTAL_CSX_WIDGETS) */
 381:Generated_Source\PSoC4/capsense_Control.c **** 
 382:Generated_Source\PSoC4/capsense_Control.c ****             #if (0u != capsense_TOTAL_ISX_WIDGETS)
 383:Generated_Source\PSoC4/capsense_Control.c ****                 case capsense_SENSE_METHOD_ISX_E:
 384:Generated_Source\PSoC4/capsense_Control.c ****                     result = capsense_DpProcessIsxWidgetRawCounts(ptrFlashWdgt);
 385:Generated_Source\PSoC4/capsense_Control.c ****                     capsense_DpProcessIsxWidgetStatus(wdgtId, ptrFlashWdgt);
 386:Generated_Source\PSoC4/capsense_Control.c ****                     break;
 387:Generated_Source\PSoC4/capsense_Control.c ****             #endif /* #if (0u != capsense_TOTAL_ISX_WIDGETS) */
 388:Generated_Source\PSoC4/capsense_Control.c **** 
 389:Generated_Source\PSoC4/capsense_Control.c ****             default:
 390:Generated_Source\PSoC4/capsense_Control.c ****                 CYASSERT(0u);
 308              		.loc 1 390 0 discriminator 1
 309 004e 0020     		movs	r0, #0
 310 0050 FFF7FEFF 		bl	CyHalt
 311              	.LVL33:
 312              	.L25:
 391:Generated_Source\PSoC4/capsense_Control.c ****                 break;
 392:Generated_Source\PSoC4/capsense_Control.c ****             }
 393:Generated_Source\PSoC4/capsense_Control.c **** 
 394:Generated_Source\PSoC4/capsense_Control.c ****             #if (capsense_ENABLE == capsense_TST_BSLN_DUPLICATION_EN)
 395:Generated_Source\PSoC4/capsense_Control.c ****                 if (CYRET_SUCCESS != result)
 396:Generated_Source\PSoC4/capsense_Control.c ****                 {
 397:Generated_Source\PSoC4/capsense_Control.c ****                     capsense_UpdateTestResultBaselineDuplication(wdgtId, result);
 398:Generated_Source\PSoC4/capsense_Control.c ****                     result = CYRET_BAD_DATA;
 399:Generated_Source\PSoC4/capsense_Control.c ****                 }
 400:Generated_Source\PSoC4/capsense_Control.c ****             #endif /* (capsense_ENABLE == capsense_TST_BSLN_DUPLICATION_EN) */
 401:Generated_Source\PSoC4/capsense_Control.c **** 
 402:Generated_Source\PSoC4/capsense_Control.c ****         }
 403:Generated_Source\PSoC4/capsense_Control.c ****         ptrFlashWdgt++;
 313              		.loc 1 403 0 discriminator 2
 314 0054 2836     		adds	r6, r6, #40
 315              	.LVL34:
 362:Generated_Source\PSoC4/capsense_Control.c ****     {
 316              		.loc 1 362 0 discriminator 2
 317 0056 0135     		adds	r5, r5, #1
 318              	.LVL35:
 319              	.L24:
 362:Generated_Source\PSoC4/capsense_Control.c ****     {
 320              		.loc 1 362 0 is_stmt 0 discriminator 1
ARM GAS  C:\Users\ASUS\AppData\Local\Temp\ccKm645o.s 			page 14


 321 0058 032D     		cmp	r5, #3
 322 005a D6D9     		bls	.L29
 404:Generated_Source\PSoC4/capsense_Control.c ****     }
 405:Generated_Source\PSoC4/capsense_Control.c ****     return result;
 406:Generated_Source\PSoC4/capsense_Control.c **** }
 323              		.loc 1 406 0 is_stmt 1
 324 005c 2000     		movs	r0, r4
 325              		@ sp needed
 326              	.LVL36:
 327              	.LVL37:
 328              	.LVL38:
 329 005e 70BD     		pop	{r4, r5, r6, pc}
 330              	.L32:
 331              		.align	2
 332              	.L31:
 333 0060 00000000 		.word	capsense_dsFlash
 334 0064 00000000 		.word	capsense_dsRam
 335              		.cfi_endproc
 336              	.LFE5:
 337              		.size	capsense_ProcessAllWidgets, .-capsense_ProcessAllWidgets
 338              		.section	.text.capsense_ProcessWidget,"ax",%progbits
 339              		.align	2
 340              		.global	capsense_ProcessWidget
 341              		.code	16
 342              		.thumb_func
 343              		.type	capsense_ProcessWidget, %function
 344              	capsense_ProcessWidget:
 345              	.LFB6:
 407:Generated_Source\PSoC4/capsense_Control.c **** 
 408:Generated_Source\PSoC4/capsense_Control.c **** /*******************************************************************************
 409:Generated_Source\PSoC4/capsense_Control.c **** * Function Name: capsense_ProcessWidget
 410:Generated_Source\PSoC4/capsense_Control.c **** ****************************************************************************//**
 411:Generated_Source\PSoC4/capsense_Control.c **** *
 412:Generated_Source\PSoC4/capsense_Control.c **** * \brief
 413:Generated_Source\PSoC4/capsense_Control.c **** *  Performs full data processing of the specified widget if it is enabled.
 414:Generated_Source\PSoC4/capsense_Control.c **** *
 415:Generated_Source\PSoC4/capsense_Control.c **** * \details
 416:Generated_Source\PSoC4/capsense_Control.c **** *  This function performs exactly the same tasks as
 417:Generated_Source\PSoC4/capsense_Control.c **** *  capsense_ProcessAllWidgets(), but only for a specified widget. This
 418:Generated_Source\PSoC4/capsense_Control.c **** *  function can be used along with the capsense_SetupWidget() and
 419:Generated_Source\PSoC4/capsense_Control.c **** *  capsense_Scan() functions to scan and process data for a specific
 420:Generated_Source\PSoC4/capsense_Control.c **** *  widget. This function is called only after all the sensors in the
 421:Generated_Source\PSoC4/capsense_Control.c **** *  widgets are scanned. A disabled widget is not processed by this function.
 422:Generated_Source\PSoC4/capsense_Control.c **** *
 423:Generated_Source\PSoC4/capsense_Control.c **** *  A pipeline scan method (i.e. during scanning of a widget perform processing
 424:Generated_Source\PSoC4/capsense_Control.c **** *  of the previously scanned widget) can be implemented using this function and
 425:Generated_Source\PSoC4/capsense_Control.c **** *  it may reduce the total execution time, increase the refresh rate and
 426:Generated_Source\PSoC4/capsense_Control.c **** *  decrease the average power consumption.
 427:Generated_Source\PSoC4/capsense_Control.c **** *
 428:Generated_Source\PSoC4/capsense_Control.c **** *  If the Ballistic multiplier filter is enabled the Timestamp must be
 429:Generated_Source\PSoC4/capsense_Control.c **** *  updated before calling this function using the
 430:Generated_Source\PSoC4/capsense_Control.c **** *  capsense_IncrementGestureTimestamp() function.
 431:Generated_Source\PSoC4/capsense_Control.c **** *
 432:Generated_Source\PSoC4/capsense_Control.c **** *  If the Self-test library is enabled, this function executes the baseline duplication
 433:Generated_Source\PSoC4/capsense_Control.c **** *  test. Refer to capsense_CheckBaselineDuplication() for details.
 434:Generated_Source\PSoC4/capsense_Control.c **** *
 435:Generated_Source\PSoC4/capsense_Control.c **** *  If the specified widget has enabled ballistic multiplier filter, make sure
ARM GAS  C:\Users\ASUS\AppData\Local\Temp\ccKm645o.s 			page 15


 436:Generated_Source\PSoC4/capsense_Control.c **** *  the timestamp is updated before calling this function. Use one of the following
 437:Generated_Source\PSoC4/capsense_Control.c **** *  functions to update the timestamp:
 438:Generated_Source\PSoC4/capsense_Control.c **** *  - capsense_IncrementGestureTimestamp().
 439:Generated_Source\PSoC4/capsense_Control.c **** *  - capsense_SetGestureTimestamp().
 440:Generated_Source\PSoC4/capsense_Control.c **** *
 441:Generated_Source\PSoC4/capsense_Control.c **** * \param widgetId
 442:Generated_Source\PSoC4/capsense_Control.c **** *  Specifies the ID number of the widget to be processed.
 443:Generated_Source\PSoC4/capsense_Control.c **** *  A macro for the widget ID can be found in the
 444:Generated_Source\PSoC4/capsense_Control.c **** *  capsense Configuration header file defined as
 445:Generated_Source\PSoC4/capsense_Control.c **** *  capsense_<WidgetName>_WDGT_ID
 446:Generated_Source\PSoC4/capsense_Control.c **** *
 447:Generated_Source\PSoC4/capsense_Control.c **** * \return
 448:Generated_Source\PSoC4/capsense_Control.c **** *  Returns the status of the widget processing:
 449:Generated_Source\PSoC4/capsense_Control.c **** *  - CYRET_SUCCESS - The operation is successfully completed.
 450:Generated_Source\PSoC4/capsense_Control.c **** *  - CYRET_BAD_PARAM - The input parameter is invalid.
 451:Generated_Source\PSoC4/capsense_Control.c **** *  - CYRET_INVALID_STATE - The specified widget is disabled.
 452:Generated_Source\PSoC4/capsense_Control.c **** *  - CYRET_BAD_DATA - The processing is failed.
 453:Generated_Source\PSoC4/capsense_Control.c **** *
 454:Generated_Source\PSoC4/capsense_Control.c **** *******************************************************************************/
 455:Generated_Source\PSoC4/capsense_Control.c **** cystatus capsense_ProcessWidget(uint32 widgetId)
 456:Generated_Source\PSoC4/capsense_Control.c **** {
 346              		.loc 1 456 0
 347              		.cfi_startproc
 348              		@ args = 0, pretend = 0, frame = 0
 349              		@ frame_needed = 0, uses_anonymous_args = 0
 350              	.LVL39:
 351 0000 70B5     		push	{r4, r5, r6, lr}
 352              		.cfi_def_cfa_offset 16
 353              		.cfi_offset 4, -16
 354              		.cfi_offset 5, -12
 355              		.cfi_offset 6, -8
 356              		.cfi_offset 14, -4
 357 0002 0500     		movs	r5, r0
 358              	.LVL40:
 457:Generated_Source\PSoC4/capsense_Control.c ****     cystatus result = CYRET_SUCCESS;
 458:Generated_Source\PSoC4/capsense_Control.c ****     capsense_FLASH_WD_STRUCT const *ptrFlashWdgt;
 459:Generated_Source\PSoC4/capsense_Control.c **** 
 460:Generated_Source\PSoC4/capsense_Control.c ****     if (widgetId >= capsense_TOTAL_WIDGETS)
 359              		.loc 1 460 0
 360 0004 0328     		cmp	r0, #3
 361 0006 01D8     		bhi	.L40
 457:Generated_Source\PSoC4/capsense_Control.c ****     cystatus result = CYRET_SUCCESS;
 362              		.loc 1 457 0
 363 0008 0024     		movs	r4, #0
 364 000a 00E0     		b	.L34
 365              	.L40:
 461:Generated_Source\PSoC4/capsense_Control.c ****     {
 462:Generated_Source\PSoC4/capsense_Control.c ****         result = CYRET_BAD_PARAM;
 366              		.loc 1 462 0
 367 000c 0124     		movs	r4, #1
 368              	.L34:
 369              	.LVL41:
 463:Generated_Source\PSoC4/capsense_Control.c ****     }
 464:Generated_Source\PSoC4/capsense_Control.c **** 
 465:Generated_Source\PSoC4/capsense_Control.c ****     if ((CYRET_SUCCESS == result) && (0uL == capsense_GET_WIDGET_EN_STATUS(widgetId)))
 370              		.loc 1 465 0
 371 000e 002C     		cmp	r4, #0
ARM GAS  C:\Users\ASUS\AppData\Local\Temp\ccKm645o.s 			page 16


 372 0010 0AD1     		bne	.L35
 373              		.loc 1 465 0 is_stmt 0 discriminator 1
 374 0012 6B09     		lsrs	r3, r5, #5
 375 0014 0433     		adds	r3, r3, #4
 376 0016 9B00     		lsls	r3, r3, #2
 377 0018 154A     		ldr	r2, .L43
 378 001a 9B58     		ldr	r3, [r3, r2]
 379 001c 1F22     		movs	r2, #31
 380 001e 2A40     		ands	r2, r5
 381 0020 D340     		lsrs	r3, r3, r2
 382 0022 DB07     		lsls	r3, r3, #31
 383 0024 00D4     		bmi	.L35
 466:Generated_Source\PSoC4/capsense_Control.c ****     {
 467:Generated_Source\PSoC4/capsense_Control.c ****         result = CYRET_INVALID_STATE;
 384              		.loc 1 467 0 is_stmt 1
 385 0026 1134     		adds	r4, r4, #17
 386              	.LVL42:
 387              	.L35:
 468:Generated_Source\PSoC4/capsense_Control.c ****     }
 469:Generated_Source\PSoC4/capsense_Control.c **** 
 470:Generated_Source\PSoC4/capsense_Control.c ****     if (CYRET_SUCCESS == result)
 388              		.loc 1 470 0
 389 0028 002C     		cmp	r4, #0
 390 002a 1FD1     		bne	.L36
 471:Generated_Source\PSoC4/capsense_Control.c ****     {
 472:Generated_Source\PSoC4/capsense_Control.c ****         ptrFlashWdgt = &capsense_dsFlash.wdgtArray[widgetId];
 391              		.loc 1 472 0
 392 002c AB00     		lsls	r3, r5, #2
 393 002e 5B19     		adds	r3, r3, r5
 394 0030 DE00     		lsls	r6, r3, #3
 395 0032 104B     		ldr	r3, .L43+4
 396 0034 F618     		adds	r6, r6, r3
 397              	.LVL43:
 473:Generated_Source\PSoC4/capsense_Control.c **** 
 474:Generated_Source\PSoC4/capsense_Control.c ****         switch(capsense_GET_SENSE_METHOD(ptrFlashWdgt))
 398              		.loc 1 474 0
 399 0036 F37E     		ldrb	r3, [r6, #27]
 400 0038 012B     		cmp	r3, #1
 401 003a 02D0     		beq	.L38
 402 003c 022B     		cmp	r3, #2
 403 003e 09D0     		beq	.L39
 404 0040 11E0     		b	.L42
 405              	.L38:
 475:Generated_Source\PSoC4/capsense_Control.c ****         {
 476:Generated_Source\PSoC4/capsense_Control.c ****         #if (0u != capsense_TOTAL_CSD_WIDGETS)
 477:Generated_Source\PSoC4/capsense_Control.c ****             case capsense_SENSE_METHOD_CSD_E:
 478:Generated_Source\PSoC4/capsense_Control.c ****                 result = capsense_DpProcessCsdWidgetRawCounts(ptrFlashWdgt);
 406              		.loc 1 478 0
 407 0042 3000     		movs	r0, r6
 408              	.LVL44:
 409 0044 FFF7FEFF 		bl	capsense_DpProcessCsdWidgetRawCounts
 410              	.LVL45:
 411 0048 0400     		movs	r4, r0
 412              	.LVL46:
 479:Generated_Source\PSoC4/capsense_Control.c ****                 capsense_DpProcessCsdWidgetStatus(widgetId, ptrFlashWdgt);
 413              		.loc 1 479 0
 414 004a 3100     		movs	r1, r6
ARM GAS  C:\Users\ASUS\AppData\Local\Temp\ccKm645o.s 			page 17


 415 004c 2800     		movs	r0, r5
 416              	.LVL47:
 417 004e FFF7FEFF 		bl	capsense_DpProcessCsdWidgetStatus
 418              	.LVL48:
 480:Generated_Source\PSoC4/capsense_Control.c ****                 break;
 419              		.loc 1 480 0
 420 0052 0BE0     		b	.L36
 421              	.LVL49:
 422              	.L39:
 481:Generated_Source\PSoC4/capsense_Control.c ****         #endif /* #if (0u != capsense_TOTAL_CSD_WIDGETS) */
 482:Generated_Source\PSoC4/capsense_Control.c **** 
 483:Generated_Source\PSoC4/capsense_Control.c ****         #if (0u != capsense_TOTAL_CSX_WIDGETS)
 484:Generated_Source\PSoC4/capsense_Control.c ****             case capsense_SENSE_METHOD_CSX_E:
 485:Generated_Source\PSoC4/capsense_Control.c ****                 result = capsense_DpProcessCsxWidgetRawCounts(ptrFlashWdgt);
 423              		.loc 1 485 0
 424 0054 3000     		movs	r0, r6
 425              	.LVL50:
 426 0056 FFF7FEFF 		bl	capsense_DpProcessCsxWidgetRawCounts
 427              	.LVL51:
 428 005a 0400     		movs	r4, r0
 429              	.LVL52:
 486:Generated_Source\PSoC4/capsense_Control.c ****                 capsense_DpProcessCsxWidgetStatus(widgetId, ptrFlashWdgt);
 430              		.loc 1 486 0
 431 005c 3100     		movs	r1, r6
 432 005e 2800     		movs	r0, r5
 433              	.LVL53:
 434 0060 FFF7FEFF 		bl	capsense_DpProcessCsxWidgetStatus
 435              	.LVL54:
 487:Generated_Source\PSoC4/capsense_Control.c ****                 break;
 436              		.loc 1 487 0
 437 0064 02E0     		b	.L36
 438              	.LVL55:
 439              	.L42:
 488:Generated_Source\PSoC4/capsense_Control.c ****         #endif /* #if (0u != capsense_TOTAL_CSX_WIDGETS) */
 489:Generated_Source\PSoC4/capsense_Control.c **** 
 490:Generated_Source\PSoC4/capsense_Control.c ****         #if (0u != capsense_TOTAL_ISX_WIDGETS)
 491:Generated_Source\PSoC4/capsense_Control.c ****             case capsense_SENSE_METHOD_ISX_E:
 492:Generated_Source\PSoC4/capsense_Control.c ****                 result = capsense_DpProcessIsxWidgetRawCounts(ptrFlashWdgt);
 493:Generated_Source\PSoC4/capsense_Control.c ****                 capsense_DpProcessIsxWidgetStatus(widgetId, ptrFlashWdgt);
 494:Generated_Source\PSoC4/capsense_Control.c ****                 break;
 495:Generated_Source\PSoC4/capsense_Control.c ****         #endif /* #if (0u != capsense_TOTAL_ISX_WIDGETS) */
 496:Generated_Source\PSoC4/capsense_Control.c **** 
 497:Generated_Source\PSoC4/capsense_Control.c ****         default:
 498:Generated_Source\PSoC4/capsense_Control.c ****             CYASSERT(0u);
 440              		.loc 1 498 0 discriminator 1
 441 0066 0020     		movs	r0, #0
 442              	.LVL56:
 443 0068 FFF7FEFF 		bl	CyHalt
 444              	.LVL57:
 445              	.L36:
 499:Generated_Source\PSoC4/capsense_Control.c ****             break;
 500:Generated_Source\PSoC4/capsense_Control.c ****         }
 501:Generated_Source\PSoC4/capsense_Control.c **** 
 502:Generated_Source\PSoC4/capsense_Control.c ****         #if (capsense_ENABLE == capsense_TST_BSLN_DUPLICATION_EN)
 503:Generated_Source\PSoC4/capsense_Control.c ****             if (CYRET_SUCCESS != result)
 504:Generated_Source\PSoC4/capsense_Control.c ****             {
 505:Generated_Source\PSoC4/capsense_Control.c ****                 capsense_UpdateTestResultBaselineDuplication(widgetId, result);
ARM GAS  C:\Users\ASUS\AppData\Local\Temp\ccKm645o.s 			page 18


 506:Generated_Source\PSoC4/capsense_Control.c ****                 result = CYRET_BAD_DATA;
 507:Generated_Source\PSoC4/capsense_Control.c ****             }
 508:Generated_Source\PSoC4/capsense_Control.c ****         #endif /* (capsense_ENABLE == capsense_TST_BSLN_DUPLICATION_EN) */
 509:Generated_Source\PSoC4/capsense_Control.c ****     }
 510:Generated_Source\PSoC4/capsense_Control.c ****     return result;
 511:Generated_Source\PSoC4/capsense_Control.c **** }
 446              		.loc 1 511 0
 447 006c 2000     		movs	r0, r4
 448              		@ sp needed
 449              	.LVL58:
 450              	.LVL59:
 451 006e 70BD     		pop	{r4, r5, r6, pc}
 452              	.L44:
 453              		.align	2
 454              	.L43:
 455 0070 00000000 		.word	capsense_dsRam
 456 0074 00000000 		.word	capsense_dsFlash
 457              		.cfi_endproc
 458              	.LFE6:
 459              		.size	capsense_ProcessWidget, .-capsense_ProcessWidget
 460              		.section	.text.capsense_ProcessWidgetExt,"ax",%progbits
 461              		.align	2
 462              		.global	capsense_ProcessWidgetExt
 463              		.code	16
 464              		.thumb_func
 465              		.type	capsense_ProcessWidgetExt, %function
 466              	capsense_ProcessWidgetExt:
 467              	.LFB7:
 512:Generated_Source\PSoC4/capsense_Control.c **** 
 513:Generated_Source\PSoC4/capsense_Control.c **** 
 514:Generated_Source\PSoC4/capsense_Control.c **** /*******************************************************************************
 515:Generated_Source\PSoC4/capsense_Control.c **** * Function Name: capsense_ProcessWidgetExt
 516:Generated_Source\PSoC4/capsense_Control.c **** ****************************************************************************//**
 517:Generated_Source\PSoC4/capsense_Control.c **** *
 518:Generated_Source\PSoC4/capsense_Control.c **** * \brief
 519:Generated_Source\PSoC4/capsense_Control.c **** *  Performs customized data processing on the selected widget.
 520:Generated_Source\PSoC4/capsense_Control.c **** *
 521:Generated_Source\PSoC4/capsense_Control.c **** * \details
 522:Generated_Source\PSoC4/capsense_Control.c **** *  This function performs data processes for the specified widget specified by
 523:Generated_Source\PSoC4/capsense_Control.c **** *  the mode parameter. The execution order of the requested operations is from
 524:Generated_Source\PSoC4/capsense_Control.c **** *  LSB to MSB of the mode parameter. For a different order, this API
 525:Generated_Source\PSoC4/capsense_Control.c **** *  can be called multiple times with the required mode parameter.
 526:Generated_Source\PSoC4/capsense_Control.c **** *
 527:Generated_Source\PSoC4/capsense_Control.c **** *  This function can be used with any of the available scan functions. This
 528:Generated_Source\PSoC4/capsense_Control.c **** *  function is called only after all the sensors in the specified widget are
 529:Generated_Source\PSoC4/capsense_Control.c **** *  scanned. Calling this function multiple times with the same mode without
 530:Generated_Source\PSoC4/capsense_Control.c **** *  sensor scanning causes unexpected behavior. This function ignores the value
 531:Generated_Source\PSoC4/capsense_Control.c **** *  of the wdgtEnable register.
 532:Generated_Source\PSoC4/capsense_Control.c **** *  \if SECTION_C_LOW_LEVEL
 533:Generated_Source\PSoC4/capsense_Control.c **** *  The capsense_PROCESS_CALC_NOISE and
 534:Generated_Source\PSoC4/capsense_Control.c **** *  capsense_PROCESS_THRESHOLDS flags are supported by the CSD sensing
 535:Generated_Source\PSoC4/capsense_Control.c **** *  method only when Auto-tuning mode is enabled.
 536:Generated_Source\PSoC4/capsense_Control.c **** *  \endif
 537:Generated_Source\PSoC4/capsense_Control.c **** *  The pipeline scan method (i.e. during scanning of a widget, processing
 538:Generated_Source\PSoC4/capsense_Control.c **** *  of a previously scanned widget is performed) can be implemented using this
 539:Generated_Source\PSoC4/capsense_Control.c **** *  function and it may reduce the total scan/process time, increase the refresh
 540:Generated_Source\PSoC4/capsense_Control.c **** *  rate and decrease the power consumption.
ARM GAS  C:\Users\ASUS\AppData\Local\Temp\ccKm645o.s 			page 19


 541:Generated_Source\PSoC4/capsense_Control.c **** *
 542:Generated_Source\PSoC4/capsense_Control.c **** *  If the Ballistic multiplier filter is enabled the Timestamp must be
 543:Generated_Source\PSoC4/capsense_Control.c **** *  updated before calling this function using the
 544:Generated_Source\PSoC4/capsense_Control.c **** *  capsense_IncrementGestureTimestamp() function.
 545:Generated_Source\PSoC4/capsense_Control.c **** *
 546:Generated_Source\PSoC4/capsense_Control.c **** *  If the Self-test library is enabled, this function executes the baseline duplication
 547:Generated_Source\PSoC4/capsense_Control.c **** *  test. Refer to capsense_CheckBaselineDuplication() for details.
 548:Generated_Source\PSoC4/capsense_Control.c **** *
 549:Generated_Source\PSoC4/capsense_Control.c **** *  If the specified widget has enabled ballistic multiplier filter, make sure
 550:Generated_Source\PSoC4/capsense_Control.c **** *  the timestamp is updated before calling this function. Use one of the following
 551:Generated_Source\PSoC4/capsense_Control.c **** *  functions to update the timestamp:
 552:Generated_Source\PSoC4/capsense_Control.c **** *  - capsense_IncrementGestureTimestamp().
 553:Generated_Source\PSoC4/capsense_Control.c **** *  - capsense_SetGestureTimestamp().
 554:Generated_Source\PSoC4/capsense_Control.c **** *
 555:Generated_Source\PSoC4/capsense_Control.c **** * \param widgetId
 556:Generated_Source\PSoC4/capsense_Control.c **** *  Specifies the ID number of the widget to be processed.
 557:Generated_Source\PSoC4/capsense_Control.c **** *  A macro for the widget ID can be found in the capsense Configuration header
 558:Generated_Source\PSoC4/capsense_Control.c **** *  file defined as capsense_<WidgetName>_WDGT_ID.
 559:Generated_Source\PSoC4/capsense_Control.c **** 
 560:Generated_Source\PSoC4/capsense_Control.c **** * \param mode
 561:Generated_Source\PSoC4/capsense_Control.c **** *  Specifies the type of widget processing to be executed for the
 562:Generated_Source\PSoC4/capsense_Control.c **** *  specified widget:
 563:Generated_Source\PSoC4/capsense_Control.c **** *    1. Bits [31..6] - Reserved.
 564:Generated_Source\PSoC4/capsense_Control.c **** *    2. Bits [5..0] - capsense_PROCESS_ALL - Execute all the tasks.
 565:Generated_Source\PSoC4/capsense_Control.c **** *    3. Bit [5] - capsense_PROCESS_STATUS - Update the status (on/off,
 566:Generated_Source\PSoC4/capsense_Control.c **** *       centroid position).
 567:Generated_Source\PSoC4/capsense_Control.c **** *    \if SECTION_C_LOW_LEVEL
 568:Generated_Source\PSoC4/capsense_Control.c **** *    4. Bit [4] - capsense_PROCESS_THRESHOLDS - Update the thresholds
 569:Generated_Source\PSoC4/capsense_Control.c **** *       (only in CSD auto-tuning mode).
 570:Generated_Source\PSoC4/capsense_Control.c **** *    5. Bit [3] - capsense_PROCESS_CALC_NOISE - Calculate the noise (only in
 571:Generated_Source\PSoC4/capsense_Control.c **** *       CSD auto-tuning mode).
 572:Generated_Source\PSoC4/capsense_Control.c **** *    \endif
 573:Generated_Source\PSoC4/capsense_Control.c **** *    6. Bit [2] - capsense_PROCESS_DIFFCOUNTS - Update the difference counts.
 574:Generated_Source\PSoC4/capsense_Control.c **** *    7. Bit [1] - capsense_PROCESS_BASELINE - Update the baselines.
 575:Generated_Source\PSoC4/capsense_Control.c **** *    8. Bit [0] - capsense_PROCESS_FILTER - Run the firmware filters.
 576:Generated_Source\PSoC4/capsense_Control.c **** *
 577:Generated_Source\PSoC4/capsense_Control.c **** * \return
 578:Generated_Source\PSoC4/capsense_Control.c **** *  Returns the status of the widget processing operation:
 579:Generated_Source\PSoC4/capsense_Control.c **** *  - CYRET_SUCCESS - The processing is successfully performed.
 580:Generated_Source\PSoC4/capsense_Control.c **** *  - CYRET_BAD_PARAM - The input parameter is invalid.
 581:Generated_Source\PSoC4/capsense_Control.c **** *  - CYRET_BAD_DATA - The processing is failed.
 582:Generated_Source\PSoC4/capsense_Control.c **** *
 583:Generated_Source\PSoC4/capsense_Control.c **** *******************************************************************************/
 584:Generated_Source\PSoC4/capsense_Control.c **** cystatus capsense_ProcessWidgetExt(uint32 widgetId, uint32 mode)
 585:Generated_Source\PSoC4/capsense_Control.c **** {
 468              		.loc 1 585 0
 469              		.cfi_startproc
 470              		@ args = 0, pretend = 0, frame = 16
 471              		@ frame_needed = 0, uses_anonymous_args = 0
 472              	.LVL60:
 473 0000 F0B5     		push	{r4, r5, r6, r7, lr}
 474              		.cfi_def_cfa_offset 20
 475              		.cfi_offset 4, -20
 476              		.cfi_offset 5, -16
 477              		.cfi_offset 6, -12
 478              		.cfi_offset 7, -8
 479              		.cfi_offset 14, -4
ARM GAS  C:\Users\ASUS\AppData\Local\Temp\ccKm645o.s 			page 20


 480 0002 85B0     		sub	sp, sp, #20
 481              		.cfi_def_cfa_offset 40
 482 0004 0500     		movs	r5, r0
 483 0006 0291     		str	r1, [sp, #8]
 484              	.LVL61:
 586:Generated_Source\PSoC4/capsense_Control.c ****     uint32 snsCount;
 587:Generated_Source\PSoC4/capsense_Control.c ****     cystatus result = CYRET_BAD_PARAM;
 588:Generated_Source\PSoC4/capsense_Control.c ****     capsense_FLASH_WD_STRUCT const *ptrFlashWdgt;
 589:Generated_Source\PSoC4/capsense_Control.c ****     capsense_PTR_FILTER_VARIANT fltrHistV;
 590:Generated_Source\PSoC4/capsense_Control.c ****     capsense_RAM_SNS_STRUCT *ptrSnsTmp;
 591:Generated_Source\PSoC4/capsense_Control.c **** 
 592:Generated_Source\PSoC4/capsense_Control.c ****     #if (0u != capsense_TOTAL_CSD_WIDGETS)
 593:Generated_Source\PSoC4/capsense_Control.c ****         uint32 isProxWdgt;
 594:Generated_Source\PSoC4/capsense_Control.c ****     #endif
 595:Generated_Source\PSoC4/capsense_Control.c **** 
 596:Generated_Source\PSoC4/capsense_Control.c ****     if (widgetId < capsense_TOTAL_WIDGETS)
 485              		.loc 1 596 0
 486 0008 0328     		cmp	r0, #3
 487 000a 42D8     		bhi	.L52
 597:Generated_Source\PSoC4/capsense_Control.c ****     {
 598:Generated_Source\PSoC4/capsense_Control.c ****         ptrFlashWdgt = &capsense_dsFlash.wdgtArray[widgetId];
 488              		.loc 1 598 0
 489 000c 8300     		lsls	r3, r0, #2
 490 000e 1B18     		adds	r3, r3, r0
 491 0010 DA00     		lsls	r2, r3, #3
 492 0012 224B     		ldr	r3, .L56
 493 0014 D618     		adds	r6, r2, r3
 494              	.LVL62:
 599:Generated_Source\PSoC4/capsense_Control.c ****         snsCount = capsense_GET_SNS_CNT_BY_PTR(ptrFlashWdgt);
 495              		.loc 1 599 0
 496 0016 338B     		ldrh	r3, [r6, #24]
 497              	.LVL63:
 600:Generated_Source\PSoC4/capsense_Control.c ****         ptrSnsTmp = ptrFlashWdgt->ptr2SnsRam;
 498              		.loc 1 600 0
 499 0018 B768     		ldr	r7, [r6, #8]
 500              	.LVL64:
 601:Generated_Source\PSoC4/capsense_Control.c ****         fltrHistV.ptr = ptrFlashWdgt->ptr2FltrHistory;
 501              		.loc 1 601 0
 502 001a F268     		ldr	r2, [r6, #12]
 503              	.LVL65:
 504 001c 0392     		str	r2, [sp, #12]
 602:Generated_Source\PSoC4/capsense_Control.c **** 
 603:Generated_Source\PSoC4/capsense_Control.c ****         switch(capsense_GET_SENSE_METHOD(ptrFlashWdgt))
 505              		.loc 1 603 0
 506 001e F27E     		ldrb	r2, [r6, #27]
 507              	.LVL66:
 508 0020 012A     		cmp	r2, #1
 509 0022 0CD0     		beq	.L53
 510 0024 022A     		cmp	r2, #2
 511 0026 21D0     		beq	.L54
 512 0028 2DE0     		b	.L55
 513              	.LVL67:
 514              	.L50:
 604:Generated_Source\PSoC4/capsense_Control.c ****         {
 605:Generated_Source\PSoC4/capsense_Control.c ****         #if (0u != capsense_TOTAL_CSD_WIDGETS)
 606:Generated_Source\PSoC4/capsense_Control.c ****             case capsense_SENSE_METHOD_CSD_E:
 607:Generated_Source\PSoC4/capsense_Control.c ****             {
ARM GAS  C:\Users\ASUS\AppData\Local\Temp\ccKm645o.s 			page 21


 608:Generated_Source\PSoC4/capsense_Control.c ****                 /* Determine if widget is type of proximity.
 609:Generated_Source\PSoC4/capsense_Control.c ****                  * The Proximity widgets use different filters and
 610:Generated_Source\PSoC4/capsense_Control.c ****                  * therefore have different filter history object structure */
 611:Generated_Source\PSoC4/capsense_Control.c ****                 isProxWdgt = (capsense_GET_WIDGET_TYPE(ptrFlashWdgt) == capsense_WD_PROXIMITY_E) ? 
 612:Generated_Source\PSoC4/capsense_Control.c **** 
 613:Generated_Source\PSoC4/capsense_Control.c ****                 /* Run the desired processing for the all CSD widget sensors */
 614:Generated_Source\PSoC4/capsense_Control.c ****                 for (;snsCount-- > 0u;)
 615:Generated_Source\PSoC4/capsense_Control.c ****                 {
 616:Generated_Source\PSoC4/capsense_Control.c ****                     result = capsense_DpProcessCsdSensorRawCountsExt(ptrFlashWdgt, ptrSnsTmp, fltrH
 515              		.loc 1 616 0
 516 002a 029B     		ldr	r3, [sp, #8]
 517 002c 039A     		ldr	r2, [sp, #12]
 518 002e 3900     		movs	r1, r7
 519 0030 3000     		movs	r0, r6
 520 0032 FFF7FEFF 		bl	capsense_DpProcessCsdSensorRawCountsExt
 521              	.LVL68:
 522 0036 0190     		str	r0, [sp, #4]
 523              	.LVL69:
 617:Generated_Source\PSoC4/capsense_Control.c **** 
 618:Generated_Source\PSoC4/capsense_Control.c ****                     #if (capsense_ENABLE == capsense_TST_BSLN_DUPLICATION_EN)
 619:Generated_Source\PSoC4/capsense_Control.c ****                         if (CYRET_SUCCESS != result)
 620:Generated_Source\PSoC4/capsense_Control.c ****                         {
 621:Generated_Source\PSoC4/capsense_Control.c ****                             result = (result | capsense_TST_LSBYTE) & snsCount;
 622:Generated_Source\PSoC4/capsense_Control.c ****                         }
 623:Generated_Source\PSoC4/capsense_Control.c ****                     #endif /* (capsense_ENABLE == capsense_TST_BSLN_DUPLICATION_EN) */
 624:Generated_Source\PSoC4/capsense_Control.c **** 
 625:Generated_Source\PSoC4/capsense_Control.c ****                     /* Move to the next sensor and filter history objects */
 626:Generated_Source\PSoC4/capsense_Control.c ****                     ptrSnsTmp++;
 524              		.loc 1 626 0
 525 0038 0A37     		adds	r7, r7, #10
 526              	.LVL70:
 614:Generated_Source\PSoC4/capsense_Control.c ****                 {
 527              		.loc 1 614 0
 528 003a 2300     		movs	r3, r4
 529 003c 01E0     		b	.L48
 530              	.LVL71:
 531              	.L53:
 587:Generated_Source\PSoC4/capsense_Control.c ****     capsense_FLASH_WD_STRUCT const *ptrFlashWdgt;
 532              		.loc 1 587 0
 533 003e 0122     		movs	r2, #1
 534 0040 0192     		str	r2, [sp, #4]
 535              	.LVL72:
 536              	.L48:
 614:Generated_Source\PSoC4/capsense_Control.c ****                 {
 537              		.loc 1 614 0
 538 0042 5C1E     		subs	r4, r3, #1
 539              	.LVL73:
 540 0044 002B     		cmp	r3, #0
 541 0046 F0D1     		bne	.L50
 627:Generated_Source\PSoC4/capsense_Control.c ****                     capsense_INC_FLTR_OBJ_VARIANT(isProxWdgt, fltrHistV);
 628:Generated_Source\PSoC4/capsense_Control.c ****                 }
 629:Generated_Source\PSoC4/capsense_Control.c **** 
 630:Generated_Source\PSoC4/capsense_Control.c ****                 if (0u != (mode & capsense_PROCESS_STATUS))
 542              		.loc 1 630 0
 543 0048 029B     		ldr	r3, [sp, #8]
 544 004a 9B06     		lsls	r3, r3, #26
 545 004c 23D5     		bpl	.L46
ARM GAS  C:\Users\ASUS\AppData\Local\Temp\ccKm645o.s 			page 22


 631:Generated_Source\PSoC4/capsense_Control.c ****                 {
 632:Generated_Source\PSoC4/capsense_Control.c ****                     capsense_DpProcessCsdWidgetStatus(widgetId, ptrFlashWdgt);
 546              		.loc 1 632 0
 547 004e 3100     		movs	r1, r6
 548 0050 2800     		movs	r0, r5
 549 0052 FFF7FEFF 		bl	capsense_DpProcessCsdWidgetStatus
 550              	.LVL74:
 551 0056 1EE0     		b	.L46
 552              	.L51:
 633:Generated_Source\PSoC4/capsense_Control.c ****                 }
 634:Generated_Source\PSoC4/capsense_Control.c ****                 break;
 635:Generated_Source\PSoC4/capsense_Control.c ****             }
 636:Generated_Source\PSoC4/capsense_Control.c ****         #endif /* #if (0u != capsense_TOTAL_CSD_WIDGETS) */
 637:Generated_Source\PSoC4/capsense_Control.c **** 
 638:Generated_Source\PSoC4/capsense_Control.c ****         #if (0u != capsense_TOTAL_CSX_WIDGETS)
 639:Generated_Source\PSoC4/capsense_Control.c ****             case capsense_SENSE_METHOD_CSX_E:
 640:Generated_Source\PSoC4/capsense_Control.c **** 
 641:Generated_Source\PSoC4/capsense_Control.c ****                 #if (0u != capsense_CSX_MULTIPHASE_TX_EN)
 642:Generated_Source\PSoC4/capsense_Control.c ****                     if ((0u != (mode & capsense_PROCESS_DECONVOLUTION)) &&
 643:Generated_Source\PSoC4/capsense_Control.c ****                         (0u != (ptrFlashWdgt->staticConfig & capsense_MULTIPHASE_TX_MASK)))
 644:Generated_Source\PSoC4/capsense_Control.c ****                     {
 645:Generated_Source\PSoC4/capsense_Control.c ****                         capsense_DpDeconvolution(ptrFlashWdgt);
 646:Generated_Source\PSoC4/capsense_Control.c ****                     }
 647:Generated_Source\PSoC4/capsense_Control.c ****                 #endif /* #if (0u != capsense_CSX_MULTIPHASE_TX_EN) */
 648:Generated_Source\PSoC4/capsense_Control.c **** 
 649:Generated_Source\PSoC4/capsense_Control.c ****                 /* Run the desired processing for the all CSX widget sensors */
 650:Generated_Source\PSoC4/capsense_Control.c ****                 for (;snsCount-- > 0u;)
 651:Generated_Source\PSoC4/capsense_Control.c ****                 {
 652:Generated_Source\PSoC4/capsense_Control.c ****                     result = capsense_DpProcessCsxSensorRawCountsExt(ptrFlashWdgt, ptrSnsTmp, fltrH
 553              		.loc 1 652 0
 554 0058 029B     		ldr	r3, [sp, #8]
 555 005a 039A     		ldr	r2, [sp, #12]
 556 005c 3900     		movs	r1, r7
 557 005e 3000     		movs	r0, r6
 558 0060 FFF7FEFF 		bl	capsense_DpProcessCsxSensorRawCountsExt
 559              	.LVL75:
 560 0064 0190     		str	r0, [sp, #4]
 561              	.LVL76:
 653:Generated_Source\PSoC4/capsense_Control.c **** 
 654:Generated_Source\PSoC4/capsense_Control.c ****                     #if (capsense_ENABLE == capsense_TST_BSLN_DUPLICATION_EN)
 655:Generated_Source\PSoC4/capsense_Control.c ****                         if (CYRET_SUCCESS != result)
 656:Generated_Source\PSoC4/capsense_Control.c ****                         {
 657:Generated_Source\PSoC4/capsense_Control.c ****                             result = (result | capsense_TST_LSBYTE) & snsCount;
 658:Generated_Source\PSoC4/capsense_Control.c ****                         }
 659:Generated_Source\PSoC4/capsense_Control.c ****                     #endif /* (capsense_ENABLE == capsense_TST_BSLN_DUPLICATION_EN) */
 660:Generated_Source\PSoC4/capsense_Control.c **** 
 661:Generated_Source\PSoC4/capsense_Control.c ****                     /* Move to the next sensor and filter history objects */
 662:Generated_Source\PSoC4/capsense_Control.c ****                     ptrSnsTmp++;
 562              		.loc 1 662 0
 563 0066 0A37     		adds	r7, r7, #10
 564              	.LVL77:
 650:Generated_Source\PSoC4/capsense_Control.c ****                 {
 565              		.loc 1 650 0
 566 0068 2300     		movs	r3, r4
 567 006a 01E0     		b	.L49
 568              	.LVL78:
 569              	.L54:
ARM GAS  C:\Users\ASUS\AppData\Local\Temp\ccKm645o.s 			page 23


 603:Generated_Source\PSoC4/capsense_Control.c ****         {
 570              		.loc 1 603 0
 571 006c 0122     		movs	r2, #1
 572 006e 0192     		str	r2, [sp, #4]
 573              	.LVL79:
 574              	.L49:
 650:Generated_Source\PSoC4/capsense_Control.c ****                 {
 575              		.loc 1 650 0
 576 0070 5C1E     		subs	r4, r3, #1
 577              	.LVL80:
 578 0072 002B     		cmp	r3, #0
 579 0074 F0D1     		bne	.L51
 663:Generated_Source\PSoC4/capsense_Control.c ****                     capsense_INC_REG_FLTR_OBJ(fltrHistV);
 664:Generated_Source\PSoC4/capsense_Control.c ****                 }
 665:Generated_Source\PSoC4/capsense_Control.c **** 
 666:Generated_Source\PSoC4/capsense_Control.c ****                 if (0u != (mode & capsense_PROCESS_STATUS))
 580              		.loc 1 666 0
 581 0076 029B     		ldr	r3, [sp, #8]
 582 0078 9B06     		lsls	r3, r3, #26
 583 007a 0CD5     		bpl	.L46
 667:Generated_Source\PSoC4/capsense_Control.c ****                 {
 668:Generated_Source\PSoC4/capsense_Control.c ****                     capsense_DpProcessCsxWidgetStatus(widgetId, ptrFlashWdgt);
 584              		.loc 1 668 0
 585 007c 3100     		movs	r1, r6
 586 007e 2800     		movs	r0, r5
 587 0080 FFF7FEFF 		bl	capsense_DpProcessCsxWidgetStatus
 588              	.LVL81:
 589 0084 07E0     		b	.L46
 590              	.LVL82:
 591              	.L55:
 669:Generated_Source\PSoC4/capsense_Control.c ****                 }
 670:Generated_Source\PSoC4/capsense_Control.c ****                 break;
 671:Generated_Source\PSoC4/capsense_Control.c ****         #endif /* #if (0u != capsense_TOTAL_CSX_WIDGETS) */
 672:Generated_Source\PSoC4/capsense_Control.c **** 
 673:Generated_Source\PSoC4/capsense_Control.c ****         #if (0u != capsense_TOTAL_ISX_WIDGETS)
 674:Generated_Source\PSoC4/capsense_Control.c ****             case capsense_SENSE_METHOD_ISX_E:
 675:Generated_Source\PSoC4/capsense_Control.c ****                 /* Run the desired processing for the all ISX widget sensors */
 676:Generated_Source\PSoC4/capsense_Control.c ****                 for (;snsCount-- > 0u;)
 677:Generated_Source\PSoC4/capsense_Control.c ****                 {
 678:Generated_Source\PSoC4/capsense_Control.c ****                     result = capsense_DpProcessIsxSensorRawCountsExt(ptrFlashWdgt, ptrSnsTmp, fltrH
 679:Generated_Source\PSoC4/capsense_Control.c **** 
 680:Generated_Source\PSoC4/capsense_Control.c ****                     #if (capsense_ENABLE == capsense_TST_BSLN_DUPLICATION_EN)
 681:Generated_Source\PSoC4/capsense_Control.c ****                         if (CYRET_SUCCESS != result)
 682:Generated_Source\PSoC4/capsense_Control.c ****                         {
 683:Generated_Source\PSoC4/capsense_Control.c ****                             result = (result | capsense_TST_LSBYTE) & snsCount;
 684:Generated_Source\PSoC4/capsense_Control.c ****                         }
 685:Generated_Source\PSoC4/capsense_Control.c ****                     #endif /* (capsense_ENABLE == capsense_TST_BSLN_DUPLICATION_EN) */
 686:Generated_Source\PSoC4/capsense_Control.c **** 
 687:Generated_Source\PSoC4/capsense_Control.c ****                     /* Move to the next sensor and filter history objects */
 688:Generated_Source\PSoC4/capsense_Control.c ****                     ptrSnsTmp++;
 689:Generated_Source\PSoC4/capsense_Control.c ****                     capsense_INC_REG_FLTR_OBJ(fltrHistV);
 690:Generated_Source\PSoC4/capsense_Control.c ****                 }
 691:Generated_Source\PSoC4/capsense_Control.c **** 
 692:Generated_Source\PSoC4/capsense_Control.c ****                 if (0u != (mode & capsense_PROCESS_STATUS))
 693:Generated_Source\PSoC4/capsense_Control.c ****                 {
 694:Generated_Source\PSoC4/capsense_Control.c ****                     capsense_DpProcessIsxWidgetStatus(widgetId, ptrFlashWdgt);
 695:Generated_Source\PSoC4/capsense_Control.c ****                 }
ARM GAS  C:\Users\ASUS\AppData\Local\Temp\ccKm645o.s 			page 24


 696:Generated_Source\PSoC4/capsense_Control.c ****                 break;
 697:Generated_Source\PSoC4/capsense_Control.c ****         #endif /* #if (0u != capsense_TOTAL_ISX_WIDGETS) */
 698:Generated_Source\PSoC4/capsense_Control.c **** 
 699:Generated_Source\PSoC4/capsense_Control.c ****         default:
 700:Generated_Source\PSoC4/capsense_Control.c ****             CYASSERT(0u);
 592              		.loc 1 700 0 discriminator 1
 593 0086 0020     		movs	r0, #0
 594              	.LVL83:
 595 0088 FFF7FEFF 		bl	CyHalt
 596              	.LVL84:
 587:Generated_Source\PSoC4/capsense_Control.c ****     capsense_FLASH_WD_STRUCT const *ptrFlashWdgt;
 597              		.loc 1 587 0 discriminator 1
 598 008c 0123     		movs	r3, #1
 599 008e 0193     		str	r3, [sp, #4]
 701:Generated_Source\PSoC4/capsense_Control.c ****             break;
 600              		.loc 1 701 0 discriminator 1
 601 0090 01E0     		b	.L46
 602              	.LVL85:
 603              	.L52:
 587:Generated_Source\PSoC4/capsense_Control.c ****     capsense_FLASH_WD_STRUCT const *ptrFlashWdgt;
 604              		.loc 1 587 0
 605 0092 0123     		movs	r3, #1
 606 0094 0193     		str	r3, [sp, #4]
 607              	.LVL86:
 608              	.L46:
 702:Generated_Source\PSoC4/capsense_Control.c ****         }
 703:Generated_Source\PSoC4/capsense_Control.c **** 
 704:Generated_Source\PSoC4/capsense_Control.c ****         #if (capsense_ENABLE == capsense_TST_BSLN_DUPLICATION_EN)
 705:Generated_Source\PSoC4/capsense_Control.c ****             if (CYRET_SUCCESS != result)
 706:Generated_Source\PSoC4/capsense_Control.c ****             {
 707:Generated_Source\PSoC4/capsense_Control.c ****                 capsense_UpdateTestResultBaselineDuplication(widgetId, snsCount);
 708:Generated_Source\PSoC4/capsense_Control.c ****                 result = CYRET_BAD_DATA;
 709:Generated_Source\PSoC4/capsense_Control.c ****             }
 710:Generated_Source\PSoC4/capsense_Control.c ****         #endif /* (capsense_ENABLE == capsense_TST_BSLN_DUPLICATION_EN) */
 711:Generated_Source\PSoC4/capsense_Control.c **** 
 712:Generated_Source\PSoC4/capsense_Control.c ****     }
 713:Generated_Source\PSoC4/capsense_Control.c ****     return result;
 714:Generated_Source\PSoC4/capsense_Control.c **** }
 609              		.loc 1 714 0
 610 0096 0198     		ldr	r0, [sp, #4]
 611 0098 05B0     		add	sp, sp, #20
 612              		@ sp needed
 613              	.LVL87:
 614 009a F0BD     		pop	{r4, r5, r6, r7, pc}
 615              	.L57:
 616              		.align	2
 617              	.L56:
 618 009c 00000000 		.word	capsense_dsFlash
 619              		.cfi_endproc
 620              	.LFE7:
 621              		.size	capsense_ProcessWidgetExt, .-capsense_ProcessWidgetExt
 622              		.section	.text.capsense_ProcessSensorExt,"ax",%progbits
 623              		.align	2
 624              		.global	capsense_ProcessSensorExt
 625              		.code	16
 626              		.thumb_func
 627              		.type	capsense_ProcessSensorExt, %function
ARM GAS  C:\Users\ASUS\AppData\Local\Temp\ccKm645o.s 			page 25


 628              	capsense_ProcessSensorExt:
 629              	.LFB8:
 715:Generated_Source\PSoC4/capsense_Control.c **** 
 716:Generated_Source\PSoC4/capsense_Control.c **** /*******************************************************************************
 717:Generated_Source\PSoC4/capsense_Control.c **** * Function Name: capsense_ProcessSensorExt
 718:Generated_Source\PSoC4/capsense_Control.c **** ****************************************************************************//**
 719:Generated_Source\PSoC4/capsense_Control.c **** *
 720:Generated_Source\PSoC4/capsense_Control.c **** * \brief
 721:Generated_Source\PSoC4/capsense_Control.c **** *  Performs customized data processing on the selected widget's sensor.
 722:Generated_Source\PSoC4/capsense_Control.c **** *
 723:Generated_Source\PSoC4/capsense_Control.c **** * \details
 724:Generated_Source\PSoC4/capsense_Control.c **** *  This function performs data processes for the specified sensor specified by
 725:Generated_Source\PSoC4/capsense_Control.c **** *  the mode parameter. The execution order of the requested operations is from
 726:Generated_Source\PSoC4/capsense_Control.c **** *  LSB to MSB of the mode parameter. For a different order, this
 727:Generated_Source\PSoC4/capsense_Control.c **** *  function can be called multiple times with the required mode parameter.
 728:Generated_Source\PSoC4/capsense_Control.c **** *
 729:Generated_Source\PSoC4/capsense_Control.c **** *  This function can be used with any of the available scan functions. This
 730:Generated_Source\PSoC4/capsense_Control.c **** *  function is called only after a specified sensor in the widget is
 731:Generated_Source\PSoC4/capsense_Control.c **** *  scanned. Calling this function multiple times with the same mode without
 732:Generated_Source\PSoC4/capsense_Control.c **** *  sensor scanning causes unexpected behavior. This function ignores the value
 733:Generated_Source\PSoC4/capsense_Control.c **** *  of the wdgtEnable register.
 734:Generated_Source\PSoC4/capsense_Control.c **** *
 735:Generated_Source\PSoC4/capsense_Control.c **** *  \if SECTION_C_LOW_LEVEL
 736:Generated_Source\PSoC4/capsense_Control.c **** *  The capsense_PROCESS_CALC_NOISE and
 737:Generated_Source\PSoC4/capsense_Control.c **** *  capsense_PROCESS_THRESHOLDS flags are supported by the CSD sensing
 738:Generated_Source\PSoC4/capsense_Control.c **** *  method only when Auto-tuning mode is enabled.
 739:Generated_Source\PSoC4/capsense_Control.c **** *  \endif
 740:Generated_Source\PSoC4/capsense_Control.c **** *
 741:Generated_Source\PSoC4/capsense_Control.c **** *  The pipeline scan method (i.e. during scanning of a sensor, processing
 742:Generated_Source\PSoC4/capsense_Control.c **** *  of a previously scanned sensor is performed) can be implemented using this
 743:Generated_Source\PSoC4/capsense_Control.c **** *  function and it may reduce the total scan/process time, increase the refresh
 744:Generated_Source\PSoC4/capsense_Control.c **** *  rate and decrease the power consumption.
 745:Generated_Source\PSoC4/capsense_Control.c **** *
 746:Generated_Source\PSoC4/capsense_Control.c **** *  If the Self-test library is enabled, this function executes the baseline duplication
 747:Generated_Source\PSoC4/capsense_Control.c **** *  test. Refer to capsense_CheckBaselineDuplication() for details.
 748:Generated_Source\PSoC4/capsense_Control.c **** *
 749:Generated_Source\PSoC4/capsense_Control.c **** * \param widgetId
 750:Generated_Source\PSoC4/capsense_Control.c **** *  Specifies the ID number of the widget to process one of its sensors.
 751:Generated_Source\PSoC4/capsense_Control.c **** *  A macro for the widget ID can be found in the
 752:Generated_Source\PSoC4/capsense_Control.c **** *  capsense Configuration header file defined as
 753:Generated_Source\PSoC4/capsense_Control.c **** *  capsense_<WidgetName>_WDGT_ID.
 754:Generated_Source\PSoC4/capsense_Control.c **** *
 755:Generated_Source\PSoC4/capsense_Control.c **** * \param sensorId
 756:Generated_Source\PSoC4/capsense_Control.c **** *  Specifies the ID number of the sensor within the widget to process it.
 757:Generated_Source\PSoC4/capsense_Control.c **** *  A macro for the sensor ID within a specified widget can be found in the
 758:Generated_Source\PSoC4/capsense_Control.c **** *  capsense Configuration header file defined as
 759:Generated_Source\PSoC4/capsense_Control.c **** *  capsense_<WidgetName>_SNS<SensorNumber>_ID.
 760:Generated_Source\PSoC4/capsense_Control.c **** *
 761:Generated_Source\PSoC4/capsense_Control.c **** * \param mode
 762:Generated_Source\PSoC4/capsense_Control.c **** *  Specifies the type of the sensor processing that needs to be executed for the
 763:Generated_Source\PSoC4/capsense_Control.c **** *  specified sensor:
 764:Generated_Source\PSoC4/capsense_Control.c **** *    1. Bits [31..5] - Reserved.
 765:Generated_Source\PSoC4/capsense_Control.c **** *    2. Bits [4..0] - capsense_PROCESS_ALL - Executes all the tasks.
 766:Generated_Source\PSoC4/capsense_Control.c **** *    \if SECTION_C_LOW_LEVEL
 767:Generated_Source\PSoC4/capsense_Control.c **** *    3. Bit [4] - capsense_PROCESS_THRESHOLDS - Updates the thresholds (only
 768:Generated_Source\PSoC4/capsense_Control.c **** *       in auto-tuning mode).
 769:Generated_Source\PSoC4/capsense_Control.c **** *    4. Bit [3] - capsense_PROCESS_CALC_NOISE - Calculates the noise (only
ARM GAS  C:\Users\ASUS\AppData\Local\Temp\ccKm645o.s 			page 26


 770:Generated_Source\PSoC4/capsense_Control.c **** *       in auto-tuning mode).
 771:Generated_Source\PSoC4/capsense_Control.c **** *    \endif
 772:Generated_Source\PSoC4/capsense_Control.c **** *    5. Bit [2] - capsense_PROCESS_DIFFCOUNTS - Updates the difference count.
 773:Generated_Source\PSoC4/capsense_Control.c **** *    6. Bit [1] - capsense_PROCESS_BASELINE - Updates the baseline.
 774:Generated_Source\PSoC4/capsense_Control.c **** *    7. Bit [0] - capsense_PROCESS_FILTER - Runs the firmware filters.
 775:Generated_Source\PSoC4/capsense_Control.c **** *
 776:Generated_Source\PSoC4/capsense_Control.c **** * \return
 777:Generated_Source\PSoC4/capsense_Control.c **** *  Returns the status of the sensor process operation:
 778:Generated_Source\PSoC4/capsense_Control.c **** *  - CYRET_SUCCESS - The processing is successfully performed.
 779:Generated_Source\PSoC4/capsense_Control.c **** *  - CYRET_BAD_PARAM - The input parameter is invalid.
 780:Generated_Source\PSoC4/capsense_Control.c **** *  - CYRET_BAD_DATA - The processing is failed.
 781:Generated_Source\PSoC4/capsense_Control.c **** *
 782:Generated_Source\PSoC4/capsense_Control.c **** *******************************************************************************/
 783:Generated_Source\PSoC4/capsense_Control.c **** cystatus capsense_ProcessSensorExt(uint32 widgetId, uint32 sensorId, uint32 mode)
 784:Generated_Source\PSoC4/capsense_Control.c **** {
 630              		.loc 1 784 0
 631              		.cfi_startproc
 632              		@ args = 0, pretend = 0, frame = 0
 633              		@ frame_needed = 0, uses_anonymous_args = 0
 634              	.LVL88:
 635 0000 F8B5     		push	{r3, r4, r5, r6, r7, lr}
 636              		.cfi_def_cfa_offset 24
 637              		.cfi_offset 3, -24
 638              		.cfi_offset 4, -20
 639              		.cfi_offset 5, -16
 640              		.cfi_offset 6, -12
 641              		.cfi_offset 7, -8
 642              		.cfi_offset 14, -4
 643              	.LVL89:
 785:Generated_Source\PSoC4/capsense_Control.c ****     cystatus result = CYRET_BAD_PARAM;
 786:Generated_Source\PSoC4/capsense_Control.c ****     capsense_FLASH_WD_STRUCT const *ptrFlashWdgt;
 787:Generated_Source\PSoC4/capsense_Control.c ****     capsense_PTR_FILTER_VARIANT fltrHistV;
 788:Generated_Source\PSoC4/capsense_Control.c ****     capsense_RAM_SNS_STRUCT *ptrSnsTmp;
 789:Generated_Source\PSoC4/capsense_Control.c **** 
 790:Generated_Source\PSoC4/capsense_Control.c ****     if ((widgetId < capsense_TOTAL_WIDGETS) && (sensorId < capsense_GET_SENSOR_COUNT(widgetId)))
 644              		.loc 1 790 0
 645 0002 0328     		cmp	r0, #3
 646 0004 28D8     		bhi	.L63
 647              		.loc 1 790 0 is_stmt 0 discriminator 1
 648 0006 8500     		lsls	r5, r0, #2
 649 0008 2D18     		adds	r5, r5, r0
 650 000a EC00     		lsls	r4, r5, #3
 651 000c 2500     		movs	r5, r4
 652 000e 144B     		ldr	r3, .L66
 653 0010 1C19     		adds	r4, r3, r4
 654 0012 238B     		ldrh	r3, [r4, #24]
 655 0014 8B42     		cmp	r3, r1
 656 0016 21D9     		bls	.L64
 657              	.LVL90:
 791:Generated_Source\PSoC4/capsense_Control.c ****     {
 792:Generated_Source\PSoC4/capsense_Control.c ****         result = CYRET_SUCCESS;
 793:Generated_Source\PSoC4/capsense_Control.c **** 
 794:Generated_Source\PSoC4/capsense_Control.c ****         ptrFlashWdgt = &capsense_dsFlash.wdgtArray[widgetId];
 658              		.loc 1 794 0 is_stmt 1
 659 0018 114F     		ldr	r7, .L66
 660 001a ED19     		adds	r5, r5, r7
 661              	.LVL91:
ARM GAS  C:\Users\ASUS\AppData\Local\Temp\ccKm645o.s 			page 27


 795:Generated_Source\PSoC4/capsense_Control.c ****         fltrHistV.ptr = ptrFlashWdgt->ptr2FltrHistory;
 662              		.loc 1 795 0
 663 001c EB68     		ldr	r3, [r5, #12]
 664              	.LVL92:
 665 001e 9C46     		mov	ip, r3
 666              	.LVL93:
 796:Generated_Source\PSoC4/capsense_Control.c ****         ptrSnsTmp = ptrFlashWdgt->ptr2SnsRam;
 797:Generated_Source\PSoC4/capsense_Control.c ****         ptrSnsTmp += sensorId;
 667              		.loc 1 797 0
 668 0020 8B00     		lsls	r3, r1, #2
 669              	.LVL94:
 670 0022 5918     		adds	r1, r3, r1
 671              	.LVL95:
 672 0024 4E00     		lsls	r6, r1, #1
 673 0026 AB68     		ldr	r3, [r5, #8]
 674 0028 9919     		adds	r1, r3, r6
 675              	.LVL96:
 798:Generated_Source\PSoC4/capsense_Control.c **** 
 799:Generated_Source\PSoC4/capsense_Control.c ****         switch(capsense_GET_SENSE_METHOD(ptrFlashWdgt))
 676              		.loc 1 799 0
 677 002a EB7E     		ldrb	r3, [r5, #27]
 678 002c 012B     		cmp	r3, #1
 679 002e 02D0     		beq	.L61
 680 0030 022B     		cmp	r3, #2
 681 0032 06D0     		beq	.L62
 682 0034 0BE0     		b	.L65
 683              	.L61:
 800:Generated_Source\PSoC4/capsense_Control.c ****         {
 801:Generated_Source\PSoC4/capsense_Control.c ****         #if (0u != capsense_TOTAL_CSD_WIDGETS)
 802:Generated_Source\PSoC4/capsense_Control.c ****             case capsense_SENSE_METHOD_CSD_E:
 803:Generated_Source\PSoC4/capsense_Control.c ****                 if (capsense_WD_PROXIMITY_E == (capsense_WD_TYPE_ENUM)ptrFlashWdgt->wdgtType)
 804:Generated_Source\PSoC4/capsense_Control.c ****                 {
 805:Generated_Source\PSoC4/capsense_Control.c ****                     #if (0u != capsense_PROX_RC_ALP_FILTER_EN)
 806:Generated_Source\PSoC4/capsense_Control.c ****                         fltrHistV.ptr = &fltrHistV.ptrAlp[sensorId];
 807:Generated_Source\PSoC4/capsense_Control.c ****                     #elif (0u != capsense_PROX_RC_FILTER_EN)
 808:Generated_Source\PSoC4/capsense_Control.c ****                         fltrHistV.ptr = &fltrHistV.ptrProx[sensorId];
 809:Generated_Source\PSoC4/capsense_Control.c ****                     #endif
 810:Generated_Source\PSoC4/capsense_Control.c ****                 }
 811:Generated_Source\PSoC4/capsense_Control.c ****                 else
 812:Generated_Source\PSoC4/capsense_Control.c ****                 {
 813:Generated_Source\PSoC4/capsense_Control.c ****                     #if (0u != capsense_REGULAR_RC_ALP_FILTER_EN)
 814:Generated_Source\PSoC4/capsense_Control.c ****                         fltrHistV.ptr = &fltrHistV.ptrAlp[sensorId];
 815:Generated_Source\PSoC4/capsense_Control.c ****                     #elif (0u != capsense_REGULAR_RC_FILTER_EN)
 816:Generated_Source\PSoC4/capsense_Control.c ****                         fltrHistV.ptr = &fltrHistV.ptrRegular[sensorId];
 817:Generated_Source\PSoC4/capsense_Control.c ****                     #endif
 818:Generated_Source\PSoC4/capsense_Control.c ****                 }
 819:Generated_Source\PSoC4/capsense_Control.c **** 
 820:Generated_Source\PSoC4/capsense_Control.c ****                 result = capsense_DpProcessCsdSensorRawCountsExt(ptrFlashWdgt, ptrSnsTmp, fltrHistV
 684              		.loc 1 820 0
 685 0036 1300     		movs	r3, r2
 686              	.LVL97:
 687 0038 6246     		mov	r2, ip
 688              	.LVL98:
 689 003a 2800     		movs	r0, r5
 690              	.LVL99:
 691 003c FFF7FEFF 		bl	capsense_DpProcessCsdSensorRawCountsExt
 692              	.LVL100:
ARM GAS  C:\Users\ASUS\AppData\Local\Temp\ccKm645o.s 			page 28


 821:Generated_Source\PSoC4/capsense_Control.c ****                 break;
 693              		.loc 1 821 0
 694 0040 0DE0     		b	.L59
 695              	.LVL101:
 696              	.L62:
 822:Generated_Source\PSoC4/capsense_Control.c ****         #endif /* #if (0u != capsense_TOTAL_CSD_WIDGETS) */
 823:Generated_Source\PSoC4/capsense_Control.c **** 
 824:Generated_Source\PSoC4/capsense_Control.c ****         #if (0u != capsense_TOTAL_CSX_WIDGETS)
 825:Generated_Source\PSoC4/capsense_Control.c ****             case capsense_SENSE_METHOD_CSX_E:
 826:Generated_Source\PSoC4/capsense_Control.c ****                 #if (0u != capsense_REGULAR_RC_ALP_FILTER_EN)
 827:Generated_Source\PSoC4/capsense_Control.c ****                     fltrHistV.ptr = &fltrHistV.ptrAlp[sensorId];
 828:Generated_Source\PSoC4/capsense_Control.c ****                 #elif (0u != capsense_REGULAR_RC_FILTER_EN)
 829:Generated_Source\PSoC4/capsense_Control.c ****                     fltrHistV.ptr = &fltrHistV.ptrRegular[sensorId];
 830:Generated_Source\PSoC4/capsense_Control.c ****                 #endif
 831:Generated_Source\PSoC4/capsense_Control.c **** 
 832:Generated_Source\PSoC4/capsense_Control.c ****                 result = capsense_DpProcessCsxSensorRawCountsExt(ptrFlashWdgt, ptrSnsTmp, fltrHistV
 697              		.loc 1 832 0
 698 0042 1300     		movs	r3, r2
 699              	.LVL102:
 700 0044 6246     		mov	r2, ip
 701              	.LVL103:
 702 0046 2800     		movs	r0, r5
 703              	.LVL104:
 704 0048 FFF7FEFF 		bl	capsense_DpProcessCsxSensorRawCountsExt
 705              	.LVL105:
 833:Generated_Source\PSoC4/capsense_Control.c ****                 break;
 706              		.loc 1 833 0
 707 004c 07E0     		b	.L59
 708              	.LVL106:
 709              	.L65:
 834:Generated_Source\PSoC4/capsense_Control.c ****         #endif /* #if (0u != capsense_TOTAL_CSX_WIDGETS) */
 835:Generated_Source\PSoC4/capsense_Control.c **** 
 836:Generated_Source\PSoC4/capsense_Control.c ****         #if (0u != capsense_TOTAL_ISX_WIDGETS)
 837:Generated_Source\PSoC4/capsense_Control.c ****             case capsense_SENSE_METHOD_ISX_E:
 838:Generated_Source\PSoC4/capsense_Control.c ****                 if (capsense_WD_PROXIMITY_E == (capsense_WD_TYPE_ENUM)ptrFlashWdgt->wdgtType)
 839:Generated_Source\PSoC4/capsense_Control.c ****                 {
 840:Generated_Source\PSoC4/capsense_Control.c ****                     #if (0u != capsense_PROX_RC_FILTER_EN)
 841:Generated_Source\PSoC4/capsense_Control.c ****                         fltrHistV.ptr = &fltrHistV.ptrProx[sensorId];
 842:Generated_Source\PSoC4/capsense_Control.c ****                     #endif /* #if (0u != capsense_PROX_RC_FILTER_EN) */
 843:Generated_Source\PSoC4/capsense_Control.c ****                 }
 844:Generated_Source\PSoC4/capsense_Control.c ****                 else
 845:Generated_Source\PSoC4/capsense_Control.c ****                 {
 846:Generated_Source\PSoC4/capsense_Control.c ****                     #if (0u != capsense_REGULAR_RC_FILTER_EN)
 847:Generated_Source\PSoC4/capsense_Control.c ****                         fltrHistV.ptr = &fltrHistV.ptrRegular[sensorId];
 848:Generated_Source\PSoC4/capsense_Control.c ****                     #endif /* #if (0u != capsense_REGULAR_RC_FILTER_EN) */
 849:Generated_Source\PSoC4/capsense_Control.c ****                 }
 850:Generated_Source\PSoC4/capsense_Control.c **** 
 851:Generated_Source\PSoC4/capsense_Control.c ****                 result = capsense_DpProcessIsxSensorRawCountsExt(ptrFlashWdgt, ptrSnsTmp, fltrHistV
 852:Generated_Source\PSoC4/capsense_Control.c ****                 break;
 853:Generated_Source\PSoC4/capsense_Control.c ****         #endif /* #if (0u != capsense_TOTAL_ISX_WIDGETS) */
 854:Generated_Source\PSoC4/capsense_Control.c **** 
 855:Generated_Source\PSoC4/capsense_Control.c ****         default:
 856:Generated_Source\PSoC4/capsense_Control.c ****             CYASSERT(0u);
 710              		.loc 1 856 0 discriminator 1
 711 004e 0020     		movs	r0, #0
 712              	.LVL107:
 713 0050 FFF7FEFF 		bl	CyHalt
ARM GAS  C:\Users\ASUS\AppData\Local\Temp\ccKm645o.s 			page 29


 714              	.LVL108:
 792:Generated_Source\PSoC4/capsense_Control.c **** 
 715              		.loc 1 792 0 discriminator 1
 716 0054 0020     		movs	r0, #0
 857:Generated_Source\PSoC4/capsense_Control.c ****             break;
 717              		.loc 1 857 0 discriminator 1
 718 0056 02E0     		b	.L59
 719              	.LVL109:
 720              	.L63:
 785:Generated_Source\PSoC4/capsense_Control.c ****     capsense_FLASH_WD_STRUCT const *ptrFlashWdgt;
 721              		.loc 1 785 0
 722 0058 0120     		movs	r0, #1
 723              	.LVL110:
 724 005a 00E0     		b	.L59
 725              	.LVL111:
 726              	.L64:
 727 005c 0120     		movs	r0, #1
 728              	.LVL112:
 729              	.L59:
 858:Generated_Source\PSoC4/capsense_Control.c ****         }
 859:Generated_Source\PSoC4/capsense_Control.c **** 
 860:Generated_Source\PSoC4/capsense_Control.c ****         #if (capsense_ENABLE == capsense_TST_BSLN_DUPLICATION_EN)
 861:Generated_Source\PSoC4/capsense_Control.c ****             if (CYRET_SUCCESS != result)
 862:Generated_Source\PSoC4/capsense_Control.c ****             {
 863:Generated_Source\PSoC4/capsense_Control.c ****                 capsense_UpdateTestResultBaselineDuplication(widgetId, sensorId);
 864:Generated_Source\PSoC4/capsense_Control.c ****                 result = CYRET_BAD_DATA;
 865:Generated_Source\PSoC4/capsense_Control.c ****             }
 866:Generated_Source\PSoC4/capsense_Control.c ****         #endif /* (capsense_ENABLE == capsense_TST_BSLN_DUPLICATION_EN) */
 867:Generated_Source\PSoC4/capsense_Control.c **** 
 868:Generated_Source\PSoC4/capsense_Control.c ****     }
 869:Generated_Source\PSoC4/capsense_Control.c ****     return result;
 870:Generated_Source\PSoC4/capsense_Control.c **** }
 730              		.loc 1 870 0
 731              		@ sp needed
 732 005e F8BD     		pop	{r3, r4, r5, r6, r7, pc}
 733              	.L67:
 734              		.align	2
 735              	.L66:
 736 0060 00000000 		.word	capsense_dsFlash
 737              		.cfi_endproc
 738              	.LFE8:
 739              		.size	capsense_ProcessSensorExt, .-capsense_ProcessSensorExt
 740              		.section	.text.capsense_Sleep,"ax",%progbits
 741              		.align	2
 742              		.global	capsense_Sleep
 743              		.code	16
 744              		.thumb_func
 745              		.type	capsense_Sleep, %function
 746              	capsense_Sleep:
 747              	.LFB9:
 871:Generated_Source\PSoC4/capsense_Control.c **** 
 872:Generated_Source\PSoC4/capsense_Control.c **** /*******************************************************************************
 873:Generated_Source\PSoC4/capsense_Control.c **** * Function Name: capsense_Sleep
 874:Generated_Source\PSoC4/capsense_Control.c **** ****************************************************************************//**
 875:Generated_Source\PSoC4/capsense_Control.c **** *
 876:Generated_Source\PSoC4/capsense_Control.c **** * \brief
 877:Generated_Source\PSoC4/capsense_Control.c **** *  Prepares the Component for deep sleep.
ARM GAS  C:\Users\ASUS\AppData\Local\Temp\ccKm645o.s 			page 30


 878:Generated_Source\PSoC4/capsense_Control.c **** *
 879:Generated_Source\PSoC4/capsense_Control.c **** * \details
 880:Generated_Source\PSoC4/capsense_Control.c **** *  Currently this function is empty and exists as a place for future updates,
 881:Generated_Source\PSoC4/capsense_Control.c **** *  this function will be used to prepare the Component to enter deep sleep.
 882:Generated_Source\PSoC4/capsense_Control.c **** *
 883:Generated_Source\PSoC4/capsense_Control.c **** *******************************************************************************/
 884:Generated_Source\PSoC4/capsense_Control.c **** void capsense_Sleep(void)
 885:Generated_Source\PSoC4/capsense_Control.c **** {
 748              		.loc 1 885 0
 749              		.cfi_startproc
 750              		@ args = 0, pretend = 0, frame = 0
 751              		@ frame_needed = 0, uses_anonymous_args = 0
 752              		@ link register save eliminated.
 886:Generated_Source\PSoC4/capsense_Control.c **** }
 753              		.loc 1 886 0
 754              		@ sp needed
 755 0000 7047     		bx	lr
 756              		.cfi_endproc
 757              	.LFE9:
 758              		.size	capsense_Sleep, .-capsense_Sleep
 759 0002 C046     		.section	.text.capsense_Wakeup,"ax",%progbits
 760              		.align	2
 761              		.global	capsense_Wakeup
 762              		.code	16
 763              		.thumb_func
 764              		.type	capsense_Wakeup, %function
 765              	capsense_Wakeup:
 766              	.LFB10:
 887:Generated_Source\PSoC4/capsense_Control.c **** 
 888:Generated_Source\PSoC4/capsense_Control.c **** 
 889:Generated_Source\PSoC4/capsense_Control.c **** /*******************************************************************************
 890:Generated_Source\PSoC4/capsense_Control.c **** * Function Name: capsense_Wakeup
 891:Generated_Source\PSoC4/capsense_Control.c **** ****************************************************************************//**
 892:Generated_Source\PSoC4/capsense_Control.c **** *
 893:Generated_Source\PSoC4/capsense_Control.c **** * \brief
 894:Generated_Source\PSoC4/capsense_Control.c **** *  Resumes the Component after deep sleep power mode.
 895:Generated_Source\PSoC4/capsense_Control.c **** *
 896:Generated_Source\PSoC4/capsense_Control.c **** * \details
 897:Generated_Source\PSoC4/capsense_Control.c **** *  Resumes the Component after deep sleep power mode. This function is used to
 898:Generated_Source\PSoC4/capsense_Control.c **** *  resume the Component after exiting deep sleep.
 899:Generated_Source\PSoC4/capsense_Control.c **** *
 900:Generated_Source\PSoC4/capsense_Control.c **** *******************************************************************************/
 901:Generated_Source\PSoC4/capsense_Control.c **** void capsense_Wakeup(void)
 902:Generated_Source\PSoC4/capsense_Control.c **** {
 767              		.loc 1 902 0
 768              		.cfi_startproc
 769              		@ args = 0, pretend = 0, frame = 0
 770              		@ frame_needed = 0, uses_anonymous_args = 0
 771              		@ link register save eliminated.
 903:Generated_Source\PSoC4/capsense_Control.c ****     #if(capsense_ENABLE == capsense_CSDV2)
 904:Generated_Source\PSoC4/capsense_Control.c ****         #if(capsense_BLOCK_ANALOG_WAKEUP_DELAY_US > 0uL)
 905:Generated_Source\PSoC4/capsense_Control.c ****             CyDelayUs(capsense_BLOCK_ANALOG_WAKEUP_DELAY_US);
 906:Generated_Source\PSoC4/capsense_Control.c ****         #endif /* (capsense_BLOCK_ANALOG_WAKEUP_DELAY_US > 0uL) */
 907:Generated_Source\PSoC4/capsense_Control.c ****     #endif /* (capsense_ENABLE == capsense_CSDV2) */
 908:Generated_Source\PSoC4/capsense_Control.c **** }
 772              		.loc 1 908 0
 773              		@ sp needed
ARM GAS  C:\Users\ASUS\AppData\Local\Temp\ccKm645o.s 			page 31


 774 0000 7047     		bx	lr
 775              		.cfi_endproc
 776              	.LFE10:
 777              		.size	capsense_Wakeup, .-capsense_Wakeup
 778 0002 C046     		.bss
 779              		.set	.LANCHOR0,. + 0
 780              		.type	capsense_InitVar, %object
 781              		.size	capsense_InitVar, 1
 782              	capsense_InitVar:
 783 0000 00       		.space	1
 784              		.text
 785              	.Letext0:
 786              		.file 2 "Generated_Source\\PSoC4\\cytypes.h"
 787              		.file 3 "Generated_Source\\PSoC4\\capsense_Configuration.h"
 788              		.file 4 "Generated_Source\\PSoC4\\capsense_Structure.h"
 789              		.file 5 "Generated_Source\\PSoC4\\capsense_Tuner.h"
 790              		.file 6 "Generated_Source\\PSoC4\\capsense_Processing.h"
 791              		.file 7 "Generated_Source\\PSoC4\\capsense_Sensing.h"
 792              		.file 8 "Generated_Source\\PSoC4\\capsense_Filter.h"
 793              		.file 9 "Generated_Source\\PSoC4\\CyLib.h"