ARM GAS  C:\Users\Usuario\AppData\Local\Temp\ccDls1GV.s 			page 1


   1              		.syntax unified
   2              		.cpu cortex-m0plus
   3              		.fpu softvfp
   4              		.eabi_attribute 20, 1
   5              		.eabi_attribute 21, 1
   6              		.eabi_attribute 23, 3
   7              		.eabi_attribute 24, 1
   8              		.eabi_attribute 25, 1
   9              		.eabi_attribute 26, 1
  10              		.eabi_attribute 30, 1
  11              		.eabi_attribute 34, 0
  12              		.eabi_attribute 18, 4
  13              		.thumb
  14              		.syntax unified
  15              		.file	"main.c"
  16              		.text
  17              	.Ltext0:
  18              		.cfi_sections	.debug_frame
  19              		.section	.text.pin_write,"ax",%progbits
  20              		.align	2
  21              		.global	pin_write
  22              		.code	16
  23              		.thumb_func
  24              		.type	pin_write, %function
  25              	pin_write:
  26              	.LFB33:
  27              		.file 1 "../../api/machine/pin.c"
   1:../../api/machine/pin.c **** // Project Name: Aixt project, https://gitlab.com/fermarsan/aixt-project.git
   2:../../api/machine/pin.c **** // File Name: sleep_us.c
   3:../../api/machine/pin.c **** // Author: Javier Leon, Camilo Lucas and Fernando Martínez Santa
   4:../../api/machine/pin.c **** // Date: 2023
   5:../../api/machine/pin.c **** // License: MIT
   6:../../api/machine/pin.c **** //
   7:../../api/machine/pin.c **** // Description: Pin management functions
   8:../../api/machine/pin.c **** //              (CY8CKIT-145-40XX)
   9:../../api/machine/pin.c **** 
  10:../../api/machine/pin.c **** #define pin_high(PIN)   pin_write(PIN, 1)
  11:../../api/machine/pin.c **** #define pin_low(PIN)    pin_write(PIN, 0)
  12:../../api/machine/pin.c **** 
  13:../../api/machine/pin.c **** void pin_write(int pin_name, int value) {  
  28              		.loc 1 13 0
  29              		.cfi_startproc
  30              		@ args = 0, pretend = 0, frame = 0
  31              		@ frame_needed = 0, uses_anonymous_args = 0
  32              	.LVL0:
  33 0000 10B5     		push	{r4, lr}
  34              		.cfi_def_cfa_offset 8
  35              		.cfi_offset 4, -8
  36              		.cfi_offset 14, -4
  14:../../api/machine/pin.c ****     switch (pin_name)
  37              		.loc 1 14 0
  38 0002 0E28     		cmp	r0, #14
  39 0004 4AD8     		bhi	.L1
  40 0006 8000     		lsls	r0, r0, #2
  41              	.LVL1:
  42 0008 254B     		ldr	r3, .L16
  43 000a 1B58     		ldr	r3, [r3, r0]
ARM GAS  C:\Users\Usuario\AppData\Local\Temp\ccDls1GV.s 			page 2


  44 000c 9F46     		mov	pc, r3
  45              		.section	.rodata
  46              		.align	2
  47              	.L4:
  48 0000 0E000000 		.word	.L3
  49 0004 9C000000 		.word	.L1
  50 0008 9C000000 		.word	.L1
  51 000c 1A000000 		.word	.L5
  52 0010 26000000 		.word	.L6
  53 0014 32000000 		.word	.L7
  54 0018 3E000000 		.word	.L8
  55 001c 4A000000 		.word	.L9
  56 0020 56000000 		.word	.L10
  57 0024 62000000 		.word	.L11
  58 0028 6E000000 		.word	.L12
  59 002c 9C000000 		.word	.L1
  60 0030 7A000000 		.word	.L13
  61 0034 86000000 		.word	.L14
  62 0038 92000000 		.word	.L15
  63              		.section	.text.pin_write
  64              	.L3:
  15:../../api/machine/pin.c ****     {
  16:../../api/machine/pin.c ****     case led1:
  17:../../api/machine/pin.c ****         led1_Write(!value);
  65              		.loc 1 17 0
  66 000e 4842     		rsbs	r0, r1, #0
  67 0010 4841     		adcs	r0, r0, r1
  68              	.LVL2:
  69 0012 C0B2     		uxtb	r0, r0
  70 0014 FFF7FEFF 		bl	led1_Write
  71              	.LVL3:
  18:../../api/machine/pin.c ****         break;
  72              		.loc 1 18 0
  73 0018 40E0     		b	.L1
  74              	.LVL4:
  75              	.L5:
  19:../../api/machine/pin.c ****     case led4:
  20:../../api/machine/pin.c ****         led4_Write(!value);
  76              		.loc 1 20 0
  77 001a 4842     		rsbs	r0, r1, #0
  78 001c 4841     		adcs	r0, r0, r1
  79              	.LVL5:
  80 001e C0B2     		uxtb	r0, r0
  81 0020 FFF7FEFF 		bl	led4_Write
  82              	.LVL6:
  21:../../api/machine/pin.c ****         break;
  83              		.loc 1 21 0
  84 0024 3AE0     		b	.L1
  85              	.LVL7:
  86              	.L6:
  22:../../api/machine/pin.c ****     case led5:
  23:../../api/machine/pin.c ****         led5_Write(!value);
  87              		.loc 1 23 0
  88 0026 4842     		rsbs	r0, r1, #0
  89 0028 4841     		adcs	r0, r0, r1
  90              	.LVL8:
  91 002a C0B2     		uxtb	r0, r0
ARM GAS  C:\Users\Usuario\AppData\Local\Temp\ccDls1GV.s 			page 3


  92 002c FFF7FEFF 		bl	led5_Write
  93              	.LVL9:
  24:../../api/machine/pin.c ****         break;
  94              		.loc 1 24 0
  95 0030 34E0     		b	.L1
  96              	.LVL10:
  97              	.L7:
  25:../../api/machine/pin.c ****     case led6:
  26:../../api/machine/pin.c ****         led6_Write(!value);
  98              		.loc 1 26 0
  99 0032 4842     		rsbs	r0, r1, #0
 100 0034 4841     		adcs	r0, r0, r1
 101              	.LVL11:
 102 0036 C0B2     		uxtb	r0, r0
 103 0038 FFF7FEFF 		bl	led6_Write
 104              	.LVL12:
  27:../../api/machine/pin.c ****         break;
 105              		.loc 1 27 0
 106 003c 2EE0     		b	.L1
 107              	.LVL13:
 108              	.L8:
  28:../../api/machine/pin.c ****     case led7:
  29:../../api/machine/pin.c ****         led7_Write(!value);
 109              		.loc 1 29 0
 110 003e 4842     		rsbs	r0, r1, #0
 111 0040 4841     		adcs	r0, r0, r1
 112              	.LVL14:
 113 0042 C0B2     		uxtb	r0, r0
 114 0044 FFF7FEFF 		bl	led7_Write
 115              	.LVL15:
  30:../../api/machine/pin.c ****         break;
 116              		.loc 1 30 0
 117 0048 28E0     		b	.L1
 118              	.LVL16:
 119              	.L9:
  31:../../api/machine/pin.c ****     case led8:
  32:../../api/machine/pin.c ****         led8_Write(!value);
 120              		.loc 1 32 0
 121 004a 4842     		rsbs	r0, r1, #0
 122 004c 4841     		adcs	r0, r0, r1
 123              	.LVL17:
 124 004e C0B2     		uxtb	r0, r0
 125 0050 FFF7FEFF 		bl	led8_Write
 126              	.LVL18:
  33:../../api/machine/pin.c ****         break;
 127              		.loc 1 33 0
 128 0054 22E0     		b	.L1
 129              	.LVL19:
 130              	.L10:
  34:../../api/machine/pin.c ****     case led9:
  35:../../api/machine/pin.c ****         led9_Write(!value);
 131              		.loc 1 35 0
 132 0056 4842     		rsbs	r0, r1, #0
 133 0058 4841     		adcs	r0, r0, r1
 134              	.LVL20:
 135 005a C0B2     		uxtb	r0, r0
 136 005c FFF7FEFF 		bl	led9_Write
ARM GAS  C:\Users\Usuario\AppData\Local\Temp\ccDls1GV.s 			page 4


 137              	.LVL21:
  36:../../api/machine/pin.c ****         break;
 138              		.loc 1 36 0
 139 0060 1CE0     		b	.L1
 140              	.LVL22:
 141              	.L11:
  37:../../api/machine/pin.c ****     case led10:
  38:../../api/machine/pin.c ****         led10_Write(!value);
 142              		.loc 1 38 0
 143 0062 4842     		rsbs	r0, r1, #0
 144 0064 4841     		adcs	r0, r0, r1
 145              	.LVL23:
 146 0066 C0B2     		uxtb	r0, r0
 147 0068 FFF7FEFF 		bl	led10_Write
 148              	.LVL24:
  39:../../api/machine/pin.c ****         break;
 149              		.loc 1 39 0
 150 006c 16E0     		b	.L1
 151              	.LVL25:
 152              	.L12:
  40:../../api/machine/pin.c ****     case led11:
  41:../../api/machine/pin.c ****         led11_Write(!value);
 153              		.loc 1 41 0
 154 006e 4842     		rsbs	r0, r1, #0
 155 0070 4841     		adcs	r0, r0, r1
 156              	.LVL26:
 157 0072 C0B2     		uxtb	r0, r0
 158 0074 FFF7FEFF 		bl	led11_Write
 159              	.LVL27:
  42:../../api/machine/pin.c ****         break;
 160              		.loc 1 42 0
 161 0078 10E0     		b	.L1
 162              	.LVL28:
 163              	.L13:
  43:../../api/machine/pin.c ****     case do0:
  44:../../api/machine/pin.c ****         do0_Write(!value);
 164              		.loc 1 44 0
 165 007a 4842     		rsbs	r0, r1, #0
 166 007c 4841     		adcs	r0, r0, r1
 167              	.LVL29:
 168 007e C0B2     		uxtb	r0, r0
 169 0080 FFF7FEFF 		bl	do0_Write
 170              	.LVL30:
  45:../../api/machine/pin.c ****         break;
 171              		.loc 1 45 0
 172 0084 0AE0     		b	.L1
 173              	.LVL31:
 174              	.L14:
  46:../../api/machine/pin.c ****     case do1:
  47:../../api/machine/pin.c ****         do1_Write(!value);
 175              		.loc 1 47 0
 176 0086 4842     		rsbs	r0, r1, #0
 177 0088 4841     		adcs	r0, r0, r1
 178              	.LVL32:
 179 008a C0B2     		uxtb	r0, r0
 180 008c FFF7FEFF 		bl	do1_Write
 181              	.LVL33:
ARM GAS  C:\Users\Usuario\AppData\Local\Temp\ccDls1GV.s 			page 5


  48:../../api/machine/pin.c ****         break;
 182              		.loc 1 48 0
 183 0090 04E0     		b	.L1
 184              	.LVL34:
 185              	.L15:
  49:../../api/machine/pin.c ****     case do2:
  50:../../api/machine/pin.c ****         do2_Write(!value);
 186              		.loc 1 50 0
 187 0092 4842     		rsbs	r0, r1, #0
 188 0094 4841     		adcs	r0, r0, r1
 189              	.LVL35:
 190 0096 C0B2     		uxtb	r0, r0
 191 0098 FFF7FEFF 		bl	do2_Write
 192              	.LVL36:
 193              	.L1:
  51:../../api/machine/pin.c ****         break;
  52:../../api/machine/pin.c ****     default:
  53:../../api/machine/pin.c ****         break;
  54:../../api/machine/pin.c ****     }
  55:../../api/machine/pin.c **** }
 194              		.loc 1 55 0
 195              		@ sp needed
 196 009c 10BD     		pop	{r4, pc}
 197              	.L17:
 198 009e C046     		.align	2
 199              	.L16:
 200 00a0 00000000 		.word	.L4
 201              		.cfi_endproc
 202              	.LFE33:
 203              		.size	pin_write, .-pin_write
 204              		.section	.text.pin_read,"ax",%progbits
 205              		.align	2
 206              		.global	pin_read
 207              		.code	16
 208              		.thumb_func
 209              		.type	pin_read, %function
 210              	pin_read:
 211              	.LFB34:
  56:../../api/machine/pin.c **** 
  57:../../api/machine/pin.c **** int pin_read(int pin_name) {   
 212              		.loc 1 57 0
 213              		.cfi_startproc
 214              		@ args = 0, pretend = 0, frame = 0
 215              		@ frame_needed = 0, uses_anonymous_args = 0
 216              	.LVL37:
 217 0000 10B5     		push	{r4, lr}
 218              		.cfi_def_cfa_offset 8
 219              		.cfi_offset 4, -8
 220              		.cfi_offset 14, -4
  58:../../api/machine/pin.c ****     switch (pin_name)
 221              		.loc 1 58 0
 222 0002 1128     		cmp	r0, #17
 223 0004 0BD0     		beq	.L20
 224 0006 02DC     		bgt	.L21
 225 0008 1028     		cmp	r0, #16
 226 000a 05D0     		beq	.L22
 227 000c 10E0     		b	.L19
ARM GAS  C:\Users\Usuario\AppData\Local\Temp\ccDls1GV.s 			page 6


 228              	.L21:
 229 000e 1228     		cmp	r0, #18
 230 0010 08D0     		beq	.L23
 231 0012 1328     		cmp	r0, #19
 232 0014 09D0     		beq	.L24
 233 0016 0BE0     		b	.L19
 234              	.L22:
  59:../../api/machine/pin.c ****     {
  60:../../api/machine/pin.c ****     case sw2:
  61:../../api/machine/pin.c ****         return sw2_Read();
 235              		.loc 1 61 0
 236 0018 FFF7FEFF 		bl	sw2_Read
 237              	.LVL38:
 238 001c 08E0     		b	.L18
 239              	.LVL39:
 240              	.L20:
  62:../../api/machine/pin.c ****         break;
  63:../../api/machine/pin.c ****     case di0:
  64:../../api/machine/pin.c ****         return di0_Read();
 241              		.loc 1 64 0
 242 001e FFF7FEFF 		bl	di0_Read
 243              	.LVL40:
 244 0022 05E0     		b	.L18
 245              	.LVL41:
 246              	.L23:
  65:../../api/machine/pin.c ****         break;
  66:../../api/machine/pin.c ****     case di1:
  67:../../api/machine/pin.c ****         return di1_Read();
 247              		.loc 1 67 0
 248 0024 FFF7FEFF 		bl	di1_Read
 249              	.LVL42:
 250 0028 02E0     		b	.L18
 251              	.LVL43:
 252              	.L24:
  68:../../api/machine/pin.c ****         break;
  69:../../api/machine/pin.c ****     case di2:
  70:../../api/machine/pin.c ****         return di2_Read();
 253              		.loc 1 70 0
 254 002a FFF7FEFF 		bl	di2_Read
 255              	.LVL44:
 256 002e FFE7     		b	.L18
 257              	.LVL45:
 258              	.L19:
 259              	.LVL46:
 260              	.L18:
  71:../../api/machine/pin.c ****         break;
  72:../../api/machine/pin.c ****     default:
  73:../../api/machine/pin.c ****         break;
  74:../../api/machine/pin.c ****     }
  75:../../api/machine/pin.c **** }...
 261              		.loc 1 75 0
 262              		@ sp needed
 263 0030 10BD     		pop	{r4, pc}
 264              		.cfi_endproc
 265              	.LFE34:
 266              		.size	pin_read, .-pin_read
 267 0032 C046     		.section	.text.pwm_duty,"ax",%progbits
ARM GAS  C:\Users\Usuario\AppData\Local\Temp\ccDls1GV.s 			page 7


 268              		.align	2
 269              		.global	pwm_duty
 270              		.code	16
 271              		.thumb_func
 272              		.type	pwm_duty, %function
 273              	pwm_duty:
 274              	.LFB36:
 275              		.file 2 "../../api/machine/pwm.c"
   1:../../api/machine/pwm.c **** // Project Name: Aixt project, https://gitlab.com/fermarsan/aixt-project.git
   2:../../api/machine/pwm.c **** // File Name: pwm.c
   3:../../api/machine/pwm.c **** // Author: Javier Leon, Camilo Lucas and Fernando Martínez Santa
   4:../../api/machine/pwm.c **** // Date: 2023
   5:../../api/machine/pwm.c **** // License: MIT
   6:../../api/machine/pwm.c **** //
   7:../../api/machine/pwm.c **** // Description: This is a module to emulate a PWM output in console.
   8:../../api/machine/pwm.c **** //              (CY8CKIT-145-40XX)
   9:../../api/machine/pwm.c **** 
  10:../../api/machine/pwm.c **** #include <stdio.h>
  11:../../api/machine/pwm.c **** #include <stdlib.h>
  12:../../api/machine/pwm.c **** 
  13:../../api/machine/pwm.c **** void pwm_duty(int pwm_id, int duty) {
 276              		.loc 2 13 0
 277              		.cfi_startproc
 278              		@ args = 0, pretend = 0, frame = 0
 279              		@ frame_needed = 0, uses_anonymous_args = 0
 280              	.LVL47:
 281 0000 10B5     		push	{r4, lr}
 282              		.cfi_def_cfa_offset 8
 283              		.cfi_offset 4, -8
 284              		.cfi_offset 14, -4
  14:../../api/machine/pwm.c ****     if (pwm_id==1){
 285              		.loc 2 14 0
 286 0002 0128     		cmp	r0, #1
 287 0004 06D1     		bne	.L27
  15:../../api/machine/pwm.c ****         pwm0_WriteCompare(65535-duty*655);
 288              		.loc 2 15 0
 289 0006 0C48     		ldr	r0, .L30
 290              	.LVL48:
 291 0008 4143     		muls	r1, r0
 292              	.LVL49:
 293 000a 0C4B     		ldr	r3, .L30+4
 294 000c C818     		adds	r0, r1, r3
 295 000e FFF7FEFF 		bl	pwm0_WriteCompare
 296              	.LVL50:
 297 0012 10E0     		b	.L26
 298              	.LVL51:
 299              	.L27:
  16:../../api/machine/pwm.c ****     }
  17:../../api/machine/pwm.c ****     else if (pwm_id==2){
 300              		.loc 2 17 0
 301 0014 0228     		cmp	r0, #2
 302 0016 06D1     		bne	.L29
  18:../../api/machine/pwm.c ****         pwm1_WriteCompare(65535-duty*655);
 303              		.loc 2 18 0
 304 0018 0748     		ldr	r0, .L30
 305              	.LVL52:
 306 001a 4143     		muls	r1, r0
ARM GAS  C:\Users\Usuario\AppData\Local\Temp\ccDls1GV.s 			page 8


 307              	.LVL53:
 308 001c 074B     		ldr	r3, .L30+4
 309 001e C818     		adds	r0, r1, r3
 310 0020 FFF7FEFF 		bl	pwm1_WriteCompare
 311              	.LVL54:
 312 0024 07E0     		b	.L26
 313              	.LVL55:
 314              	.L29:
  19:../../api/machine/pwm.c ****     }
  20:../../api/machine/pwm.c ****     else if (pwm_id==3){
 315              		.loc 2 20 0
 316 0026 0328     		cmp	r0, #3
 317 0028 05D1     		bne	.L26
  21:../../api/machine/pwm.c ****         pwm2_WriteCompare(65535-duty*655);
 318              		.loc 2 21 0
 319 002a 0348     		ldr	r0, .L30
 320              	.LVL56:
 321 002c 4143     		muls	r1, r0
 322              	.LVL57:
 323 002e 034B     		ldr	r3, .L30+4
 324 0030 C818     		adds	r0, r1, r3
 325 0032 FFF7FEFF 		bl	pwm2_WriteCompare
 326              	.LVL58:
 327              	.L26:
  22:../../api/machine/pwm.c ****     }
  23:../../api/machine/pwm.c **** }...
 328              		.loc 2 23 0
 329              		@ sp needed
 330 0036 10BD     		pop	{r4, pc}
 331              	.L31:
 332              		.align	2
 333              	.L30:
 334 0038 71FDFFFF 		.word	-655
 335 003c FFFF0000 		.word	65535
 336              		.cfi_endproc
 337              	.LFE36:
 338              		.size	pwm_duty, .-pwm_duty
 339              		.section	.text.main,"ax",%progbits
 340              		.align	2
 341              		.global	main
 342              		.code	16
 343              		.thumb_func
 344              		.type	main, %function
 345              	main:
 346              	.LFB37:
 347              		.file 3 "main.c"
   1:main.c        **** /* ========================================
   2:main.c        ****  *
   3:main.c        ****  * Copyright YOUR COMPANY, THE YEAR
   4:main.c        ****  * All Rights Reserved
   5:main.c        ****  * UNPUBLISHED, LICENSED SOFTWARE.
   6:main.c        ****  *
   7:main.c        ****  * CONFIDENTIAL AND PROPRIETARY INFORMATION
   8:main.c        ****  * WHICH IS THE PROPERTY OF your company.
   9:main.c        ****  *
  10:main.c        ****  * ========================================
  11:main.c        **** */
ARM GAS  C:\Users\Usuario\AppData\Local\Temp\ccDls1GV.s 			page 9


  12:main.c        **** #include "project.h"
  13:main.c        **** 
  14:main.c        **** #define STEP_SIZE (capsense_LINEARSLIDER_X_RESOLUTION/capsense_LINEARSLIDER_NUM_SENSORS)
  15:main.c        **** 
  16:main.c        **** #include "../../api/builtin.c"
  17:main.c        **** #include "../../api/machine/pin.c"
  18:main.c        **** #include "../../api/machine/pwm.c"
  19:main.c        **** #include "../../api/time/sleep_ms.c"
  20:main.c        **** 
  21:main.c        **** 
  22:main.c        **** int main(void)
  23:main.c        **** {   
 348              		.loc 3 23 0
 349              		.cfi_startproc
 350              		@ Volatile: function does not return.
 351              		@ args = 0, pretend = 0, frame = 0
 352              		@ frame_needed = 0, uses_anonymous_args = 0
 353 0000 10B5     		push	{r4, lr}
 354              		.cfi_def_cfa_offset 8
 355              		.cfi_offset 4, -8
 356              		.cfi_offset 14, -4
  24:main.c        ****     CyGlobalIntEnable; /* Enable global interrupts. */
 357              		.loc 3 24 0
 358              		.syntax divided
 359              	@ 24 "main.c" 1
 360 0002 62B6     		CPSIE   i
 361              	@ 0 "" 2
  25:main.c        ****     uart_Start();    /* Configuracion General*/
 362              		.loc 3 25 0
 363              		.thumb
 364              		.syntax unified
 365 0004 FFF7FEFF 		bl	uart_Start
 366              	.LVL59:
  26:main.c        ****     pwm0_Start();
 367              		.loc 3 26 0
 368 0008 FFF7FEFF 		bl	pwm0_Start
 369              	.LVL60:
  27:main.c        ****     pwm1_Start();
 370              		.loc 3 27 0
 371 000c FFF7FEFF 		bl	pwm1_Start
 372              	.LVL61:
  28:main.c        ****     pwm2_Start();
 373              		.loc 3 28 0
 374 0010 FFF7FEFF 		bl	pwm2_Start
 375              	.LVL62:
  29:main.c        ****     clock_Start();
 376              		.loc 3 29 0
 377 0014 FF20     		movs	r0, #255
 378 0016 FFF7FEFF 		bl	clock_StartEx
 379              	.LVL63:
  30:main.c        ****     capsense_Start();
 380              		.loc 3 30 0
 381 001a FFF7FEFF 		bl	capsense_Start
 382              	.LVL64:
  31:main.c        ****     capsense_InitializeAllBaselines();
 383              		.loc 3 31 0
 384 001e FFF7FEFF 		bl	capsense_InitializeAllBaselines
ARM GAS  C:\Users\Usuario\AppData\Local\Temp\ccDls1GV.s 			page 10


 385              	.LVL65:
  32:main.c        ****     capsense_ScanAllWidgets();
 386              		.loc 3 32 0
 387 0022 FFF7FEFF 		bl	capsense_ScanAllWidgets
 388              	.LVL66:
 389              	.L33:
 390 0026 FEE7     		b	.L33
 391              		.cfi_endproc
 392              	.LFE37:
 393              		.size	main, .-main
 394              		.section	.text.CAPSENSE0,"ax",%progbits
 395              		.align	2
 396              		.global	CAPSENSE0
 397              		.code	16
 398              		.thumb_func
 399              		.type	CAPSENSE0, %function
 400              	CAPSENSE0:
 401              	.LFB38:
  33:main.c        ****  
  34:main.c        ****             
  35:main.c        ****     for(;;)
  36:main.c        ****     {
  37:main.c        ****         //pin_high(do1);
  38:main.c        ****         //sleep_ms(300);
  39:main.c        ****         //pin_low(do1);
  40:main.c        ****         //sleep_ms(300);
  41:main.c        ****         
  42:main.c        ****         //pwm_duty(1, 10);
  43:main.c        ****         //sleep_ms(2000);
  44:main.c        ****         //pwm_duty(1, 20);
  45:main.c        ****         //sleep_ms(2000);
  46:main.c        ****         //pwm_duty(1, 30);
  47:main.c        ****         //sleep_ms(2000);
  48:main.c        ****         //pwm_duty(1, 40);
  49:main.c        ****         //sleep_ms(2000);
  50:main.c        ****         //pwm_duty(1, 50);
  51:main.c        ****         //sleep_ms(2000);
  52:main.c        ****         //pwm_duty(1, 60);
  53:main.c        ****         //sleep_ms(2000);
  54:main.c        ****         //pwm_duty(1, 70);
  55:main.c        ****         //sleep_ms(2000);
  56:main.c        ****         //pwm_duty(1, 80);
  57:main.c        ****         //sleep_ms(2000);
  58:main.c        ****         //pwm_duty(1, 90);
  59:main.c        ****         //sleep_ms(2000);
  60:main.c        ****         //pwm_duty(1, 100);
  61:main.c        ****         //sleep_ms(2000);
  62:main.c        ****     }
  63:main.c        **** }
  64:main.c        ****     
  65:main.c        **** void CAPSENSE0()
  66:main.c        ****     {
 402              		.loc 3 66 0
 403              		.cfi_startproc
 404              		@ args = 0, pretend = 0, frame = 0
 405              		@ frame_needed = 0, uses_anonymous_args = 0
 406 0000 10B5     		push	{r4, lr}
ARM GAS  C:\Users\Usuario\AppData\Local\Temp\ccDls1GV.s 			page 11


 407              		.cfi_def_cfa_offset 8
 408              		.cfi_offset 4, -8
 409              		.cfi_offset 14, -4
 410              	.L35:
  67:main.c        ****         for(;;)
  68:main.c        ****         {
  69:main.c        ****             if (!capsense_IsBusy())
 411              		.loc 3 69 0
 412 0002 FFF7FEFF 		bl	capsense_IsBusy
 413              	.LVL67:
 414 0006 0028     		cmp	r0, #0
 415 0008 FBD1     		bne	.L35
  70:main.c        ****             {capsense_ProcessAllWidgets();
 416              		.loc 3 70 0
 417 000a FFF7FEFF 		bl	capsense_ProcessAllWidgets
 418              	.LVL68:
  71:main.c        ****             break;}
  72:main.c        ****         }
  73:main.c        ****     }
 419              		.loc 3 73 0
 420              		@ sp needed
 421 000e 10BD     		pop	{r4, pc}
 422              		.cfi_endproc
 423              	.LFE38:
 424              		.size	CAPSENSE0, .-CAPSENSE0
 425              		.section	.text.CAPSENSE1,"ax",%progbits
 426              		.align	2
 427              		.global	CAPSENSE1
 428              		.code	16
 429              		.thumb_func
 430              		.type	CAPSENSE1, %function
 431              	CAPSENSE1:
 432              	.LFB39:
  74:main.c        ****     
  75:main.c        **** void CAPSENSE1()
  76:main.c        ****     {
 433              		.loc 3 76 0
 434              		.cfi_startproc
 435              		@ args = 0, pretend = 0, frame = 0
 436              		@ frame_needed = 0, uses_anonymous_args = 0
 437 0000 10B5     		push	{r4, lr}
 438              		.cfi_def_cfa_offset 8
 439              		.cfi_offset 4, -8
 440              		.cfi_offset 14, -4
  77:main.c        ****         capsense_UpdateAllBaselines();
 441              		.loc 3 77 0
 442 0002 FFF7FEFF 		bl	capsense_UpdateAllBaselines
 443              	.LVL69:
  78:main.c        ****         capsense_ScanAllWidgets();
 444              		.loc 3 78 0
 445 0006 FFF7FEFF 		bl	capsense_ScanAllWidgets
 446              	.LVL70:
  79:main.c        ****     }
 447              		.loc 3 79 0
 448              		@ sp needed
 449 000a 10BD     		pop	{r4, pc}
 450              		.cfi_endproc
ARM GAS  C:\Users\Usuario\AppData\Local\Temp\ccDls1GV.s 			page 12


 451              	.LFE39:
 452              		.size	CAPSENSE1, .-CAPSENSE1
 453              		.text
 454              	.Letext0:
 455              		.file 4 "Generated_Source\\PSoC4/led1.h"
 456              		.file 5 "Generated_Source\\PSoC4/led4.h"
 457              		.file 6 "Generated_Source\\PSoC4/led5.h"
 458              		.file 7 "Generated_Source\\PSoC4/led6.h"
 459              		.file 8 "Generated_Source\\PSoC4/led7.h"
 460              		.file 9 "Generated_Source\\PSoC4/led8.h"
 461              		.file 10 "Generated_Source\\PSoC4/led9.h"
 462              		.file 11 "Generated_Source\\PSoC4/led10.h"
 463              		.file 12 "Generated_Source\\PSoC4/led11.h"
 464              		.file 13 "Generated_Source\\PSoC4/do0.h"
 465              		.file 14 "Generated_Source\\PSoC4/do1.h"
 466              		.file 15 "Generated_Source\\PSoC4/do2.h"
 467              		.file 16 "Generated_Source\\PSoC4/sw2.h"
 468              		.file 17 "Generated_Source\\PSoC4/di0.h"
 469              		.file 18 "Generated_Source\\PSoC4/di1.h"
 470              		.file 19 "Generated_Source\\PSoC4/di2.h"
 471              		.file 20 "Generated_Source\\PSoC4/pwm0.h"
 472              		.file 21 "Generated_Source\\PSoC4/pwm1.h"
 473              		.file 22 "Generated_Source\\PSoC4/pwm2.h"
 474              		.file 23 "Generated_Source\\PSoC4/uart.h"
 475              		.file 24 "Generated_Source\\PSoC4/clock.h"
 476              		.file 25 "Generated_Source\\PSoC4/capsense_Control.h"
 477              		.file 26 "Generated_Source\\PSoC4/capsense_Filter.h"
 478              		.file 27 "Generated_Source\\PSoC4/capsense_Sensing.h"
 479              		.file 28 "../../api/builtin.c"