ARM GAS  C:\Users\Usuario\AppData\Local\Temp\ccz1TFQf.s 			page 1


   1              		.syntax unified
   2              		.cpu cortex-m0
   3              		.fpu softvfp
   4              		.eabi_attribute 20, 1
   5              		.eabi_attribute 21, 1
   6              		.eabi_attribute 23, 3
   7              		.eabi_attribute 24, 1
   8              		.eabi_attribute 25, 1
   9              		.eabi_attribute 26, 1
  10              		.eabi_attribute 30, 1
  11              		.eabi_attribute 34, 0
  12              		.eabi_attribute 18, 4
  13              		.thumb
  14              		.syntax unified
  15              		.file	"adc.c"
  16              		.text
  17              	.Ltext0:
  18              		.cfi_sections	.debug_frame
  19              		.section	.text.adc_Init,"ax",%progbits
  20              		.align	2
  21              		.global	adc_Init
  22              		.code	16
  23              		.thumb_func
  24              		.type	adc_Init, %function
  25              	adc_Init:
  26              	.LFB1:
  27              		.file 1 "Generated_Source\\PSoC4\\adc.c"
   1:Generated_Source\PSoC4/adc.c **** /*******************************************************************************
   2:Generated_Source\PSoC4/adc.c **** * File Name: adc.c
   3:Generated_Source\PSoC4/adc.c **** * Version 2.50
   4:Generated_Source\PSoC4/adc.c **** *
   5:Generated_Source\PSoC4/adc.c **** * Description:
   6:Generated_Source\PSoC4/adc.c **** *  This file provides the source code to the API for the Sequencing Successive
   7:Generated_Source\PSoC4/adc.c **** *  Approximation ADC Component Component.
   8:Generated_Source\PSoC4/adc.c **** *
   9:Generated_Source\PSoC4/adc.c **** * Note:
  10:Generated_Source\PSoC4/adc.c **** *
  11:Generated_Source\PSoC4/adc.c **** ********************************************************************************
  12:Generated_Source\PSoC4/adc.c **** * Copyright 2008-2017, Cypress Semiconductor Corporation.  All rights reserved.
  13:Generated_Source\PSoC4/adc.c **** * You may use this file only in accordance with the license, terms, conditions,
  14:Generated_Source\PSoC4/adc.c **** * disclaimers, and limitations in the end user license agreement accompanying
  15:Generated_Source\PSoC4/adc.c **** * the software package with which this file was provided.
  16:Generated_Source\PSoC4/adc.c **** *******************************************************************************/
  17:Generated_Source\PSoC4/adc.c **** 
  18:Generated_Source\PSoC4/adc.c **** #include "adc.h"
  19:Generated_Source\PSoC4/adc.c **** 
  20:Generated_Source\PSoC4/adc.c **** 
  21:Generated_Source\PSoC4/adc.c **** /***************************************
  22:Generated_Source\PSoC4/adc.c **** * Global data allocation
  23:Generated_Source\PSoC4/adc.c **** ***************************************/
  24:Generated_Source\PSoC4/adc.c **** uint8 adc_initVar = 0u;
  25:Generated_Source\PSoC4/adc.c **** volatile int16 adc_offset[adc_TOTAL_CHANNELS_NUM];
  26:Generated_Source\PSoC4/adc.c **** volatile int32 adc_countsPer10Volt[adc_TOTAL_CHANNELS_NUM];   /* Gain compensation */
  27:Generated_Source\PSoC4/adc.c **** 
  28:Generated_Source\PSoC4/adc.c **** 
  29:Generated_Source\PSoC4/adc.c **** /***************************************
  30:Generated_Source\PSoC4/adc.c **** * Local data allocation
ARM GAS  C:\Users\Usuario\AppData\Local\Temp\ccz1TFQf.s 			page 2


  31:Generated_Source\PSoC4/adc.c **** ***************************************/
  32:Generated_Source\PSoC4/adc.c **** /* Channels configuration generated by customiser */
  33:Generated_Source\PSoC4/adc.c **** static const uint32 CYCODE adc_channelsConfig[] = { 0x00000000u };
  34:Generated_Source\PSoC4/adc.c **** 
  35:Generated_Source\PSoC4/adc.c **** 
  36:Generated_Source\PSoC4/adc.c **** /*******************************************************************************
  37:Generated_Source\PSoC4/adc.c **** * Function Name: adc_Start
  38:Generated_Source\PSoC4/adc.c **** ********************************************************************************
  39:Generated_Source\PSoC4/adc.c **** *
  40:Generated_Source\PSoC4/adc.c **** * Summary:
  41:Generated_Source\PSoC4/adc.c **** *  Performs all required initialization for this component
  42:Generated_Source\PSoC4/adc.c **** *  and enables the power. The power will be set to the appropriate
  43:Generated_Source\PSoC4/adc.c **** *  power based on the clock frequency.
  44:Generated_Source\PSoC4/adc.c **** *
  45:Generated_Source\PSoC4/adc.c **** * Parameters:
  46:Generated_Source\PSoC4/adc.c **** *  None.
  47:Generated_Source\PSoC4/adc.c **** *
  48:Generated_Source\PSoC4/adc.c **** * Return:
  49:Generated_Source\PSoC4/adc.c **** *  None.
  50:Generated_Source\PSoC4/adc.c **** *
  51:Generated_Source\PSoC4/adc.c **** * Global variables:
  52:Generated_Source\PSoC4/adc.c **** *  The adc_initVar variable is used to indicate when/if initial
  53:Generated_Source\PSoC4/adc.c **** *  configuration of this component has happened. The variable is initialized to
  54:Generated_Source\PSoC4/adc.c **** *  zero and set to 1 the first time ADC_Start() is called. This allows for
  55:Generated_Source\PSoC4/adc.c **** *  component Re-Start without re-initialization in all subsequent calls to the
  56:Generated_Source\PSoC4/adc.c **** *  adc_Start() routine.
  57:Generated_Source\PSoC4/adc.c **** *  If re-initialization of the component is required the variable should be set
  58:Generated_Source\PSoC4/adc.c **** *  to zero before call of adc_Start() routine, or the user may call
  59:Generated_Source\PSoC4/adc.c **** *  adc_Init() and adc_Enable() as done in the
  60:Generated_Source\PSoC4/adc.c **** *  adc_Start() routine.
  61:Generated_Source\PSoC4/adc.c **** *
  62:Generated_Source\PSoC4/adc.c **** *******************************************************************************/
  63:Generated_Source\PSoC4/adc.c **** void adc_Start(void)
  64:Generated_Source\PSoC4/adc.c **** {
  65:Generated_Source\PSoC4/adc.c ****     /* If not Initialized then initialize all required hardware and software */
  66:Generated_Source\PSoC4/adc.c ****     if(adc_initVar == 0u)
  67:Generated_Source\PSoC4/adc.c ****     {
  68:Generated_Source\PSoC4/adc.c ****         adc_Init();
  69:Generated_Source\PSoC4/adc.c ****         adc_initVar = 1u;
  70:Generated_Source\PSoC4/adc.c ****     }
  71:Generated_Source\PSoC4/adc.c ****     adc_Enable();
  72:Generated_Source\PSoC4/adc.c **** }
  73:Generated_Source\PSoC4/adc.c **** 
  74:Generated_Source\PSoC4/adc.c **** 
  75:Generated_Source\PSoC4/adc.c **** /*******************************************************************************
  76:Generated_Source\PSoC4/adc.c **** * Function Name: adc_Init
  77:Generated_Source\PSoC4/adc.c **** ********************************************************************************
  78:Generated_Source\PSoC4/adc.c **** *
  79:Generated_Source\PSoC4/adc.c **** * Summary:
  80:Generated_Source\PSoC4/adc.c **** *  Initialize component's parameters to the parameters set by user in the
  81:Generated_Source\PSoC4/adc.c **** *  customizer of the component placed onto schematic. Usually called in
  82:Generated_Source\PSoC4/adc.c **** *  adc_Start().
  83:Generated_Source\PSoC4/adc.c **** *
  84:Generated_Source\PSoC4/adc.c **** * Parameters:
  85:Generated_Source\PSoC4/adc.c **** *  None.
  86:Generated_Source\PSoC4/adc.c **** *
  87:Generated_Source\PSoC4/adc.c **** * Return:
ARM GAS  C:\Users\Usuario\AppData\Local\Temp\ccz1TFQf.s 			page 3


  88:Generated_Source\PSoC4/adc.c **** *  None.
  89:Generated_Source\PSoC4/adc.c **** *
  90:Generated_Source\PSoC4/adc.c **** * Global variables:
  91:Generated_Source\PSoC4/adc.c **** *  The adc_offset variable is initialized.
  92:Generated_Source\PSoC4/adc.c **** *
  93:Generated_Source\PSoC4/adc.c **** *******************************************************************************/
  94:Generated_Source\PSoC4/adc.c **** void adc_Init(void)
  95:Generated_Source\PSoC4/adc.c **** {
  28              		.loc 1 95 0
  29              		.cfi_startproc
  30              		@ args = 0, pretend = 0, frame = 0
  31              		@ frame_needed = 0, uses_anonymous_args = 0
  32 0000 10B5     		push	{r4, lr}
  33              		.cfi_def_cfa_offset 8
  34              		.cfi_offset 4, -8
  35              		.cfi_offset 14, -4
  96:Generated_Source\PSoC4/adc.c ****     uint32 chNum;
  97:Generated_Source\PSoC4/adc.c ****     uint32 tmpRegVal;
  98:Generated_Source\PSoC4/adc.c ****     int32 counts;
  99:Generated_Source\PSoC4/adc.c **** 
 100:Generated_Source\PSoC4/adc.c ****     #if(adc_TOTAL_CHANNELS_NUM > 1u)
 101:Generated_Source\PSoC4/adc.c ****         static const uint8 CYCODE adc_InputsPlacement[] =
 102:Generated_Source\PSoC4/adc.c ****         {
 103:Generated_Source\PSoC4/adc.c ****             (uint8)(adc_cy_psoc4_sarmux_8__CH_0_PORT << 4u) |
 104:Generated_Source\PSoC4/adc.c ****             (uint8)adc_cy_psoc4_sarmux_8__CH_0_PIN
 105:Generated_Source\PSoC4/adc.c ****             ,(uint8)(adc_cy_psoc4_sarmux_8__CH_1_PORT << 4u) |
 106:Generated_Source\PSoC4/adc.c ****              (uint8)adc_cy_psoc4_sarmux_8__CH_1_PIN
 107:Generated_Source\PSoC4/adc.c ****             #if(adc_TOTAL_CHANNELS_NUM > 2u)
 108:Generated_Source\PSoC4/adc.c ****                 ,(uint8)(adc_cy_psoc4_sarmux_8__CH_2_PORT << 4u) |
 109:Generated_Source\PSoC4/adc.c ****                  (uint8)adc_cy_psoc4_sarmux_8__CH_2_PIN
 110:Generated_Source\PSoC4/adc.c ****             #endif /* End adc_TOTAL_CHANNELS_NUM > 2u */
 111:Generated_Source\PSoC4/adc.c ****             #if(adc_TOTAL_CHANNELS_NUM > 3u)
 112:Generated_Source\PSoC4/adc.c ****                 ,(uint8)(adc_cy_psoc4_sarmux_8__CH_3_PORT << 4u) |
 113:Generated_Source\PSoC4/adc.c ****                  (uint8)adc_cy_psoc4_sarmux_8__CH_3_PIN
 114:Generated_Source\PSoC4/adc.c ****             #endif /* End adc_TOTAL_CHANNELS_NUM > 3u */
 115:Generated_Source\PSoC4/adc.c ****             #if(adc_TOTAL_CHANNELS_NUM > 4u)
 116:Generated_Source\PSoC4/adc.c ****                 ,(uint8)(adc_cy_psoc4_sarmux_8__CH_4_PORT << 4u) |
 117:Generated_Source\PSoC4/adc.c ****                  (uint8)adc_cy_psoc4_sarmux_8__CH_4_PIN
 118:Generated_Source\PSoC4/adc.c ****             #endif /* End adc_TOTAL_CHANNELS_NUM > 4u */
 119:Generated_Source\PSoC4/adc.c ****             #if(adc_TOTAL_CHANNELS_NUM > 5u)
 120:Generated_Source\PSoC4/adc.c ****                 ,(uint8)(adc_cy_psoc4_sarmux_8__CH_5_PORT << 4u) |
 121:Generated_Source\PSoC4/adc.c ****                  (uint8)adc_cy_psoc4_sarmux_8__CH_5_PIN
 122:Generated_Source\PSoC4/adc.c ****             #endif /* End adc_TOTAL_CHANNELS_NUM > 5u */
 123:Generated_Source\PSoC4/adc.c ****             #if(adc_TOTAL_CHANNELS_NUM > 6u)
 124:Generated_Source\PSoC4/adc.c ****                 ,(uint8)(adc_cy_psoc4_sarmux_8__CH_6_PORT << 4u) |
 125:Generated_Source\PSoC4/adc.c ****                  (uint8)adc_cy_psoc4_sarmux_8__CH_6_PIN
 126:Generated_Source\PSoC4/adc.c ****             #endif /* End adc_TOTAL_CHANNELS_NUM > 6u */
 127:Generated_Source\PSoC4/adc.c ****             #if(adc_TOTAL_CHANNELS_NUM > 7u)
 128:Generated_Source\PSoC4/adc.c ****                 ,(uint8)(adc_cy_psoc4_sarmux_8__CH_7_PORT << 4u) |
 129:Generated_Source\PSoC4/adc.c ****                  (uint8)adc_cy_psoc4_sarmux_8__CH_7_PIN
 130:Generated_Source\PSoC4/adc.c ****             #endif /* End adc_TOTAL_CHANNELS_NUM > 7u */
 131:Generated_Source\PSoC4/adc.c ****             #if(adc_TOTAL_CHANNELS_NUM > 8u)
 132:Generated_Source\PSoC4/adc.c ****                 ,(uint8)(adc_cy_psoc4_sarmux_8__CH_8_PORT << 4u) |
 133:Generated_Source\PSoC4/adc.c ****                  (uint8)adc_cy_psoc4_sarmux_8__CH_8_PIN
 134:Generated_Source\PSoC4/adc.c ****             #endif /* End adc_TOTAL_CHANNELS_NUM > 8u */
 135:Generated_Source\PSoC4/adc.c ****             #if(adc_TOTAL_CHANNELS_NUM > 9u)
 136:Generated_Source\PSoC4/adc.c ****                 ,(uint8)(adc_cy_psoc4_sarmux_8__CH_9_PORT << 4u) |
ARM GAS  C:\Users\Usuario\AppData\Local\Temp\ccz1TFQf.s 			page 4


 137:Generated_Source\PSoC4/adc.c ****                  (uint8)adc_cy_psoc4_sarmux_8__CH_9_PIN
 138:Generated_Source\PSoC4/adc.c ****             #endif /* End adc_TOTAL_CHANNELS_NUM > 9u */
 139:Generated_Source\PSoC4/adc.c ****             #if(adc_TOTAL_CHANNELS_NUM > 10u)
 140:Generated_Source\PSoC4/adc.c ****                 ,(uint8)(adc_cy_psoc4_sarmux_8__CH_10_PORT << 4u) |
 141:Generated_Source\PSoC4/adc.c ****                  (uint8)adc_cy_psoc4_sarmux_8__CH_10_PIN
 142:Generated_Source\PSoC4/adc.c ****             #endif /* End adc_TOTAL_CHANNELS_NUM > 10u */
 143:Generated_Source\PSoC4/adc.c ****             #if(adc_TOTAL_CHANNELS_NUM > 11u)
 144:Generated_Source\PSoC4/adc.c ****                 ,(uint8)(adc_cy_psoc4_sarmux_8__CH_11_PORT << 4u) |
 145:Generated_Source\PSoC4/adc.c ****                  (uint8)adc_cy_psoc4_sarmux_8__CH_11_PIN
 146:Generated_Source\PSoC4/adc.c ****             #endif /* End adc_TOTAL_CHANNELS_NUM > 11u */
 147:Generated_Source\PSoC4/adc.c ****             #if(adc_TOTAL_CHANNELS_NUM > 12u)
 148:Generated_Source\PSoC4/adc.c ****                 ,(uint8)(adc_cy_psoc4_sarmux_8__CH_12_PORT << 4u) |
 149:Generated_Source\PSoC4/adc.c ****                  (uint8)adc_cy_psoc4_sarmux_8__CH_12_PIN
 150:Generated_Source\PSoC4/adc.c ****             #endif /* End adc_TOTAL_CHANNELS_NUM > 12u */
 151:Generated_Source\PSoC4/adc.c ****             #if(adc_TOTAL_CHANNELS_NUM > 13u)
 152:Generated_Source\PSoC4/adc.c ****                 ,(uint8)(adc_cy_psoc4_sarmux_8__CH_13_PORT << 4u) |
 153:Generated_Source\PSoC4/adc.c ****                  (uint8)adc_cy_psoc4_sarmux_8__CH_13_PIN
 154:Generated_Source\PSoC4/adc.c ****             #endif /* End adc_TOTAL_CHANNELS_NUM > 13u */
 155:Generated_Source\PSoC4/adc.c ****             #if(adc_TOTAL_CHANNELS_NUM > 14u)
 156:Generated_Source\PSoC4/adc.c ****                 ,(uint8)(adc_cy_psoc4_sarmux_8__CH_14_PORT << 4u) |
 157:Generated_Source\PSoC4/adc.c ****                  (uint8)adc_cy_psoc4_sarmux_8__CH_14_PIN
 158:Generated_Source\PSoC4/adc.c ****             #endif /* End adc_TOTAL_CHANNELS_NUM > 14u */
 159:Generated_Source\PSoC4/adc.c ****             #if(adc_TOTAL_CHANNELS_NUM > 15u)
 160:Generated_Source\PSoC4/adc.c ****                 ,(uint8)(adc_cy_psoc4_sarmux_8__CH_15_PORT << 4u) |
 161:Generated_Source\PSoC4/adc.c ****                  (uint8)adc_cy_psoc4_sarmux_8__CH_15_PIN
 162:Generated_Source\PSoC4/adc.c ****             #endif /* End adc_TOTAL_CHANNELS_NUM > 15u */
 163:Generated_Source\PSoC4/adc.c ****             #if(adc_TOTAL_CHANNELS_NUM > 16u)
 164:Generated_Source\PSoC4/adc.c ****                 ,(uint8)(adc_cy_psoc4_sarmux_8__CH_16_PORT << 4u) |
 165:Generated_Source\PSoC4/adc.c ****                  (uint8)adc_cy_psoc4_sarmux_8__CH_16_PIN
 166:Generated_Source\PSoC4/adc.c ****             #endif /* End adc_TOTAL_CHANNELS_NUM > 16u */
 167:Generated_Source\PSoC4/adc.c ****         };
 168:Generated_Source\PSoC4/adc.c ****     #endif /* End adc_TOTAL_CHANNELS_NUM > 1u */
 169:Generated_Source\PSoC4/adc.c **** 
 170:Generated_Source\PSoC4/adc.c ****     #if(adc_IRQ_REMOVE == 0u)
 171:Generated_Source\PSoC4/adc.c ****         /* Start and set interrupt vector */
 172:Generated_Source\PSoC4/adc.c ****         CyIntSetPriority(adc_INTC_NUMBER, adc_INTC_PRIOR_NUMBER);
  36              		.loc 1 172 0
  37 0002 0321     		movs	r1, #3
  38 0004 0E20     		movs	r0, #14
  39 0006 FFF7FEFF 		bl	CyIntSetPriority
  40              	.LVL0:
 173:Generated_Source\PSoC4/adc.c ****         (void)CyIntSetVector(adc_INTC_NUMBER, &adc_ISR);
  41              		.loc 1 173 0
  42 000a 2449     		ldr	r1, .L6
  43 000c 0E20     		movs	r0, #14
  44 000e FFF7FEFF 		bl	CyIntSetVector
  45              	.LVL1:
 174:Generated_Source\PSoC4/adc.c ****     #endif   /* End adc_IRQ_REMOVE */
 175:Generated_Source\PSoC4/adc.c **** 
 176:Generated_Source\PSoC4/adc.c ****     /* Init SAR and MUX registers */
 177:Generated_Source\PSoC4/adc.c ****     adc_SAR_CHAN_EN_REG = adc_DEFAULT_EN_CHANNELS;
  46              		.loc 1 177 0
  47 0012 0122     		movs	r2, #1
  48 0014 224B     		ldr	r3, .L6+4
  49 0016 1A60     		str	r2, [r3]
 178:Generated_Source\PSoC4/adc.c ****     adc_SAR_CTRL_REG |= adc_DEFAULT_CTRL_REG_CFG | 
 179:Generated_Source\PSoC4/adc.c ****         /* Enable the SAR internal pump when global pump is enabled */
ARM GAS  C:\Users\Usuario\AppData\Local\Temp\ccz1TFQf.s 			page 5


 180:Generated_Source\PSoC4/adc.c ****         (((adc_PUMP_CTRL_REG & adc_PUMP_CTRL_ENABLED) != 0u) ? 
  50              		.loc 1 180 0
  51 0018 224B     		ldr	r3, .L6+8
  52 001a 1B68     		ldr	r3, [r3]
 178:Generated_Source\PSoC4/adc.c ****     adc_SAR_CTRL_REG |= adc_DEFAULT_CTRL_REG_CFG | 
  53              		.loc 1 178 0
  54 001c 002B     		cmp	r3, #0
  55 001e 01DA     		bge	.L5
  56 0020 2149     		ldr	r1, .L6+12
  57 0022 00E0     		b	.L2
  58              	.L5:
  59 0024 2149     		ldr	r1, .L6+16
  60              	.L2:
 178:Generated_Source\PSoC4/adc.c ****     adc_SAR_CTRL_REG |= adc_DEFAULT_CTRL_REG_CFG | 
  61              		.loc 1 178 0 is_stmt 0 discriminator 4
  62 0026 224A     		ldr	r2, .L6+20
  63 0028 1368     		ldr	r3, [r2]
  64 002a 0B43     		orrs	r3, r1
  65 002c 1360     		str	r3, [r2]
 181:Generated_Source\PSoC4/adc.c ****         adc_BOOSTPUMP_EN : 0u);
 182:Generated_Source\PSoC4/adc.c ****     adc_SAR_SAMPLE_CTRL_REG = adc_DEFAULT_SAMPLE_CTRL_REG_CFG;
  66              		.loc 1 182 0 is_stmt 1 discriminator 4
  67 002e 214A     		ldr	r2, .L6+24
  68 0030 214B     		ldr	r3, .L6+28
  69 0032 1A60     		str	r2, [r3]
 183:Generated_Source\PSoC4/adc.c ****     adc_SAR_RANGE_THRES_REG = adc_DEFAULT_RANGE_THRES_REG_CFG;
  70              		.loc 1 183 0 discriminator 4
  71 0034 214A     		ldr	r2, .L6+32
  72 0036 224B     		ldr	r3, .L6+36
  73 0038 1A60     		str	r2, [r3]
 184:Generated_Source\PSoC4/adc.c ****     adc_SAR_RANGE_COND_REG  = adc_COMPARE_MODE;
  74              		.loc 1 184 0 discriminator 4
  75 003a 0023     		movs	r3, #0
  76 003c 214A     		ldr	r2, .L6+40
  77 003e 1360     		str	r3, [r2]
 185:Generated_Source\PSoC4/adc.c ****     adc_SAR_SAMPLE_TIME01_REG = adc_DEFAULT_SAMPLE_TIME01_REG_CFG;
  78              		.loc 1 185 0 discriminator 4
  79 0040 214A     		ldr	r2, .L6+44
  80 0042 2249     		ldr	r1, .L6+48
  81 0044 0A60     		str	r2, [r1]
 186:Generated_Source\PSoC4/adc.c ****     adc_SAR_SAMPLE_TIME23_REG = adc_DEFAULT_SAMPLE_TIME23_REG_CFG;
  82              		.loc 1 186 0 discriminator 4
  83 0046 2249     		ldr	r1, .L6+52
  84 0048 0A60     		str	r2, [r1]
 187:Generated_Source\PSoC4/adc.c ****     
 188:Generated_Source\PSoC4/adc.c ****     /* Connect Vm to VSSA when even one channel is single-ended or multiple channels configured */
 189:Generated_Source\PSoC4/adc.c ****     #if(adc_DEFAULT_MUX_SWITCH0 != 0u)
 190:Generated_Source\PSoC4/adc.c ****         adc_MUX_SWITCH0_REG |= adc_DEFAULT_MUX_SWITCH0;
  85              		.loc 1 190 0 discriminator 4
  86 004a 2249     		ldr	r1, .L6+56
  87 004c 0A68     		ldr	r2, [r1]
  88 004e 8020     		movs	r0, #128
  89 0050 4002     		lsls	r0, r0, #9
  90 0052 0243     		orrs	r2, r0
  91 0054 0A60     		str	r2, [r1]
 191:Generated_Source\PSoC4/adc.c ****         /* Set MUX_HW_CTRL_VSSA in MUX_SWITCH_HW_CTRL when multiple channels enabled */
 192:Generated_Source\PSoC4/adc.c ****         #if(adc_TOTAL_CHANNELS_NUM > 1u)
ARM GAS  C:\Users\Usuario\AppData\Local\Temp\ccz1TFQf.s 			page 6


 193:Generated_Source\PSoC4/adc.c ****             adc_MUX_SWITCH_HW_CTRL_REG |= adc_DEFAULT_MUX_SWITCH0;
 194:Generated_Source\PSoC4/adc.c ****         #endif /* adc_TOTAL_CHANNELS_NUM > 1u */
 195:Generated_Source\PSoC4/adc.c ****     #endif /*adc_CHANNELS_MODE !=0 */
 196:Generated_Source\PSoC4/adc.c **** 
 197:Generated_Source\PSoC4/adc.c ****     adc_SAR_SATURATE_INTR_MASK_REG = 0u;
  92              		.loc 1 197 0 discriminator 4
  93 0056 204A     		ldr	r2, .L6+60
  94 0058 1360     		str	r3, [r2]
 198:Generated_Source\PSoC4/adc.c ****     adc_SAR_RANGE_INTR_MASK_REG = 0u;
  95              		.loc 1 198 0 discriminator 4
  96 005a 204A     		ldr	r2, .L6+64
  97 005c 1360     		str	r3, [r2]
 199:Generated_Source\PSoC4/adc.c ****     adc_SAR_INTR_MASK_REG = adc_SAR_INTR_MASK;
  98              		.loc 1 199 0 discriminator 4
  99 005e 0133     		adds	r3, r3, #1
 100 0060 1F4A     		ldr	r2, .L6+68
 101 0062 1360     		str	r3, [r2]
 200:Generated_Source\PSoC4/adc.c **** 
 201:Generated_Source\PSoC4/adc.c ****     #if(adc_CY_SAR_IP_VER == adc_CY_SAR_IP_VER0)
 202:Generated_Source\PSoC4/adc.c ****         adc_ANA_TRIM_REG = adc_TRIM_COEF;
 102              		.loc 1 202 0 discriminator 4
 103 0064 0221     		movs	r1, #2
 104 0066 1F4A     		ldr	r2, .L6+72
 105 0068 1160     		str	r1, [r2]
 203:Generated_Source\PSoC4/adc.c ****     #endif /* (adc_CY_SAR_IP_VER == adc_CY_SAR_IP_VER0) */
 204:Generated_Source\PSoC4/adc.c **** 
 205:Generated_Source\PSoC4/adc.c ****     /* Read and modify default configuration based on characterization */
 206:Generated_Source\PSoC4/adc.c ****     tmpRegVal = adc_SAR_DFT_CTRL_REG;
 106              		.loc 1 206 0 discriminator 4
 107 006a 1F49     		ldr	r1, .L6+76
 108 006c 0868     		ldr	r0, [r1]
 109              	.LVL2:
 207:Generated_Source\PSoC4/adc.c ****     tmpRegVal &= (uint32)~adc_DCEN;
 110              		.loc 1 207 0 discriminator 4
 111 006e 1F4A     		ldr	r2, .L6+80
 112 0070 0240     		ands	r2, r0
 113              	.LVL3:
 208:Generated_Source\PSoC4/adc.c ****     
 209:Generated_Source\PSoC4/adc.c ****     #if(adc_CY_SAR_IP_VER == adc_CY_SAR_IP_VER0)
 210:Generated_Source\PSoC4/adc.c ****         #if(adc_NOMINAL_CLOCK_FREQ > (adc_MAX_FREQUENCY / 2))
 211:Generated_Source\PSoC4/adc.c ****             tmpRegVal |= adc_SEL_CSEL_DFT_CHAR;
 212:Generated_Source\PSoC4/adc.c ****         #else  /* clock speed < 9 Mhz */
 213:Generated_Source\PSoC4/adc.c ****             tmpRegVal |= adc_DLY_INC;
 114              		.loc 1 213 0 discriminator 4
 115 0072 1343     		orrs	r3, r2
 116              	.LVL4:
 214:Generated_Source\PSoC4/adc.c ****         #endif /* clock speed > 9 Mhz */
 215:Generated_Source\PSoC4/adc.c ****     #else
 216:Generated_Source\PSoC4/adc.c ****         #if ((adc_DEFAULT_VREF_SEL == adc__INTERNAL1024) || \
 217:Generated_Source\PSoC4/adc.c ****              (adc_DEFAULT_VREF_SEL == adc__INTERNALVREF))
 218:Generated_Source\PSoC4/adc.c ****             tmpRegVal |= adc_DLY_INC;
 219:Generated_Source\PSoC4/adc.c ****         #else
 220:Generated_Source\PSoC4/adc.c ****             tmpRegVal |= adc_DCEN;
 221:Generated_Source\PSoC4/adc.c ****             tmpRegVal &= (uint32)~adc_DLY_INC;
 222:Generated_Source\PSoC4/adc.c ****         #endif /* ((adc_DEFAULT_VREF_SEL == adc__INTERNAL1024) || \
 223:Generated_Source\PSoC4/adc.c ****                    (adc_DEFAULT_VREF_SEL == adc__INTERNALVREF)) */
 224:Generated_Source\PSoC4/adc.c ****     #endif /* (adc_CY_SAR_IP_VER == adc_CY_SAR_IP_VER0) */
ARM GAS  C:\Users\Usuario\AppData\Local\Temp\ccz1TFQf.s 			page 7


 225:Generated_Source\PSoC4/adc.c ****     
 226:Generated_Source\PSoC4/adc.c ****     adc_SAR_DFT_CTRL_REG = tmpRegVal;
 117              		.loc 1 226 0 discriminator 4
 118 0074 0B60     		str	r3, [r1]
 119              	.LVL5:
 227:Generated_Source\PSoC4/adc.c **** 
 228:Generated_Source\PSoC4/adc.c ****     #if(adc_MAX_RESOLUTION != adc_RESOLUTION_12)
 229:Generated_Source\PSoC4/adc.c ****         adc_WOUNDING_REG = adc_ALT_WOUNDING;
 230:Generated_Source\PSoC4/adc.c ****     #endif /* adc_MAX_RESOLUTION != adc_RESOLUTION_12 */
 231:Generated_Source\PSoC4/adc.c **** 
 232:Generated_Source\PSoC4/adc.c ****     for(chNum = 0u; chNum < adc_TOTAL_CHANNELS_NUM; chNum++)
 120              		.loc 1 232 0 discriminator 4
 121 0076 0023     		movs	r3, #0
 122              	.LVL6:
 123 0078 0CE0     		b	.L3
 124              	.LVL7:
 125              	.L4:
 233:Generated_Source\PSoC4/adc.c ****     {
 234:Generated_Source\PSoC4/adc.c ****         tmpRegVal = (adc_channelsConfig[chNum] & adc_CHANNEL_CONFIG_MASK);
 235:Generated_Source\PSoC4/adc.c ****         #if(adc_TOTAL_CHANNELS_NUM > 1u)
 236:Generated_Source\PSoC4/adc.c ****             tmpRegVal |= adc_InputsPlacement[chNum];
 237:Generated_Source\PSoC4/adc.c ****         #endif /* End adc_TOTAL_CHANNELS_NUM > 1u */
 238:Generated_Source\PSoC4/adc.c ****         
 239:Generated_Source\PSoC4/adc.c ****         
 240:Generated_Source\PSoC4/adc.c ****         /* When the part is limited to 10-bit then the SUB_RESOLUTION bit
 241:Generated_Source\PSoC4/adc.c ****         *  will be ignored and the RESOLUTION bit selects between 10-bit
 242:Generated_Source\PSoC4/adc.c ****         *  (0) and 8-bit (1) resolution.
 243:Generated_Source\PSoC4/adc.c ****         */
 244:Generated_Source\PSoC4/adc.c ****         #if((adc_MAX_RESOLUTION != adc_RESOLUTION_12) && \
 245:Generated_Source\PSoC4/adc.c ****             (adc_ALT_WOUNDING == adc_WOUNDING_10BIT))
 246:Generated_Source\PSoC4/adc.c ****             tmpRegVal &= (uint32)(~adc_ALT_RESOLUTION_ON);
 247:Generated_Source\PSoC4/adc.c ****         #endif /* adc_MAX_RESOLUTION != adc_RESOLUTION_12 */
 248:Generated_Source\PSoC4/adc.c **** 
 249:Generated_Source\PSoC4/adc.c ****         #if(adc_INJ_CHANNEL_ENABLED)
 250:Generated_Source\PSoC4/adc.c ****         if(chNum < adc_SEQUENCED_CHANNELS_NUM)
 251:Generated_Source\PSoC4/adc.c ****         #endif /* adc_INJ_CHANNEL_ENABLED */
 252:Generated_Source\PSoC4/adc.c ****         {
 253:Generated_Source\PSoC4/adc.c ****             CY_SET_REG32((reg32 *)(adc_SAR_CHAN_CONFIG_IND + (uint32)(chNum << 2)), tmpRegVal);
 126              		.loc 1 253 0
 127 007a 9A00     		lsls	r2, r3, #2
 128 007c 1C49     		ldr	r1, .L6+84
 129 007e 5018     		adds	r0, r2, r1
 130 0080 0021     		movs	r1, #0
 131 0082 0160     		str	r1, [r0]
 132              	.LVL8:
 254:Generated_Source\PSoC4/adc.c **** 
 255:Generated_Source\PSoC4/adc.c ****             if((adc_channelsConfig[chNum] & adc_IS_SATURATE_EN_MASK) != 0u)
 256:Generated_Source\PSoC4/adc.c ****             {
 257:Generated_Source\PSoC4/adc.c ****                 adc_SAR_SATURATE_INTR_MASK_REG |= (uint16)((uint16)1 << chNum);
 258:Generated_Source\PSoC4/adc.c ****             }
 259:Generated_Source\PSoC4/adc.c **** 
 260:Generated_Source\PSoC4/adc.c ****             if((adc_channelsConfig[chNum] & adc_IS_RANGE_CTRL_EN_MASK) != 0u)
 261:Generated_Source\PSoC4/adc.c ****             {
 262:Generated_Source\PSoC4/adc.c ****                 adc_SAR_RANGE_INTR_MASK_REG |= (uint16)((uint16)1 << chNum);
 263:Generated_Source\PSoC4/adc.c ****             }
 264:Generated_Source\PSoC4/adc.c ****         }
 265:Generated_Source\PSoC4/adc.c ****         #if(adc_INJ_CHANNEL_ENABLED)
ARM GAS  C:\Users\Usuario\AppData\Local\Temp\ccz1TFQf.s 			page 8


 266:Generated_Source\PSoC4/adc.c ****             else
 267:Generated_Source\PSoC4/adc.c ****             {
 268:Generated_Source\PSoC4/adc.c ****                 CY_SET_REG32(adc_SAR_INJ_CHAN_CONFIG_PTR, tmpRegVal | adc_INJ_TAILGATING);
 269:Generated_Source\PSoC4/adc.c **** 
 270:Generated_Source\PSoC4/adc.c ****                 if((adc_channelsConfig[chNum] & adc_IS_SATURATE_EN_MASK) != 0u)
 271:Generated_Source\PSoC4/adc.c ****                 {
 272:Generated_Source\PSoC4/adc.c ****                     adc_SAR_INTR_MASK_REG |= adc_INJ_SATURATE_MASK;
 273:Generated_Source\PSoC4/adc.c ****                 }
 274:Generated_Source\PSoC4/adc.c **** 
 275:Generated_Source\PSoC4/adc.c ****                 if((adc_channelsConfig[chNum] & adc_IS_RANGE_CTRL_EN_MASK) != 0u)
 276:Generated_Source\PSoC4/adc.c ****                 {
 277:Generated_Source\PSoC4/adc.c ****                     adc_SAR_INTR_MASK_REG |= adc_INJ_RANGE_MASK;
 278:Generated_Source\PSoC4/adc.c ****                 }
 279:Generated_Source\PSoC4/adc.c ****             }
 280:Generated_Source\PSoC4/adc.c ****         #endif /* adc_INJ_CHANNEL_ENABLED */
 281:Generated_Source\PSoC4/adc.c **** 
 282:Generated_Source\PSoC4/adc.c ****         if((adc_channelsConfig[chNum] & adc_ALT_RESOLUTION_ON) != 0u)
 283:Generated_Source\PSoC4/adc.c ****         {
 284:Generated_Source\PSoC4/adc.c ****                counts = (int32)adc_DEFAULT_MAX_WRK_ALT;
 285:Generated_Source\PSoC4/adc.c ****         }
 286:Generated_Source\PSoC4/adc.c ****         else
 287:Generated_Source\PSoC4/adc.c ****         {
 288:Generated_Source\PSoC4/adc.c ****                counts = (int32)adc_SAR_WRK_MAX_12BIT;
 289:Generated_Source\PSoC4/adc.c ****         }
 290:Generated_Source\PSoC4/adc.c **** 
 291:Generated_Source\PSoC4/adc.c ****         if((adc_channelsConfig[chNum] & adc_DIFFERENTIAL_EN) == 0u)
 292:Generated_Source\PSoC4/adc.c ****         {
 293:Generated_Source\PSoC4/adc.c ****             #if((adc_DEFAULT_SE_RESULT_FORMAT_SEL == adc__FSIGNED) && \
 294:Generated_Source\PSoC4/adc.c ****                 (adc_DEFAULT_NEG_INPUT_SEL == adc__VREF))
 295:Generated_Source\PSoC4/adc.c ****                 /* Set offset to the minus half scale to convert results to unsigned format */
 296:Generated_Source\PSoC4/adc.c ****                 adc_offset[chNum] = (int16)(counts / -2);
 297:Generated_Source\PSoC4/adc.c ****             #else
 298:Generated_Source\PSoC4/adc.c ****                 adc_offset[chNum] = 0;
 133              		.loc 1 298 0
 134 0084 5C00     		lsls	r4, r3, #1
 135 0086 1B48     		ldr	r0, .L6+88
 136 0088 2152     		strh	r1, [r4, r0]
 299:Generated_Source\PSoC4/adc.c ****             #endif /* end DEFAULT_SE_RESULT_FORMAT_SEL == adc__FSIGNED */
 300:Generated_Source\PSoC4/adc.c ****         }
 301:Generated_Source\PSoC4/adc.c ****         else    /* Differential channel */
 302:Generated_Source\PSoC4/adc.c ****         {
 303:Generated_Source\PSoC4/adc.c ****             #if(adc_DEFAULT_DIFF_RESULT_FORMAT_SEL == adc__FUNSIGNED)
 304:Generated_Source\PSoC4/adc.c ****                 /* Set offset to the half scale to convert results to signed format */
 305:Generated_Source\PSoC4/adc.c ****                 adc_offset[chNum] = (int16)(counts / 2);
 306:Generated_Source\PSoC4/adc.c ****             #else
 307:Generated_Source\PSoC4/adc.c ****                 adc_offset[chNum] = 0;
 308:Generated_Source\PSoC4/adc.c ****             #endif /* end adc_DEFAULT_DIFF_RESULT_FORMAT_SEL == adc__FUNSIGNED */
 309:Generated_Source\PSoC4/adc.c ****         }
 310:Generated_Source\PSoC4/adc.c ****         /* Calculate gain in counts per 10 volts with rounding */
 311:Generated_Source\PSoC4/adc.c ****         adc_countsPer10Volt[chNum] = (int16)(((counts * adc_10MV_COUNTS) +
 137              		.loc 1 311 0
 138 008a 8020     		movs	r0, #128
 139 008c 4001     		lsls	r0, r0, #5
 140 008e 1A49     		ldr	r1, .L6+92
 141 0090 5050     		str	r0, [r2, r1]
 232:Generated_Source\PSoC4/adc.c ****     {
 142              		.loc 1 232 0
ARM GAS  C:\Users\Usuario\AppData\Local\Temp\ccz1TFQf.s 			page 9


 143 0092 0133     		adds	r3, r3, #1
 144              	.LVL9:
 145              	.L3:
 232:Generated_Source\PSoC4/adc.c ****     {
 146              		.loc 1 232 0 is_stmt 0 discriminator 1
 147 0094 002B     		cmp	r3, #0
 148 0096 F0D0     		beq	.L4
 312:Generated_Source\PSoC4/adc.c ****                             adc_DEFAULT_VREF_MV_VALUE) / (adc_DEFAULT_VREF_MV_VALUE * 2));
 313:Generated_Source\PSoC4/adc.c ****     }
 314:Generated_Source\PSoC4/adc.c **** }
 149              		.loc 1 314 0 is_stmt 1
 150              		@ sp needed
 151 0098 10BD     		pop	{r4, pc}
 152              	.L7:
 153 009a C046     		.align	2
 154              	.L6:
 155 009c 00000000 		.word	adc_ISR
 156 00a0 20001A40 		.word	1075445792
 157 00a4 80031A40 		.word	1075446656
 158 00a8 70021051 		.word	1360003696
 159 00ac 70020051 		.word	1358955120
 160 00b0 00001A40 		.word	1075445760
 161 00b4 85000080 		.word	-2147483515
 162 00b8 04001A40 		.word	1075445764
 163 00bc 0000FF07 		.word	134152192
 164 00c0 18001A40 		.word	1075445784
 165 00c4 1C001A40 		.word	1075445788
 166 00c8 04000400 		.word	262148
 167 00cc 10001A40 		.word	1075445776
 168 00d0 14001A40 		.word	1075445780
 169 00d4 00031A40 		.word	1075446528
 170 00d8 28021A40 		.word	1075446312
 171 00dc 38021A40 		.word	1075446328
 172 00e0 18021A40 		.word	1075446296
 173 00e4 000F1A40 		.word	1075449600
 174 00e8 30001A40 		.word	1075445808
 175 00ec FFFFFFDF 		.word	-536870913
 176 00f0 80001A40 		.word	1075445888
 177 00f4 00000000 		.word	adc_offset
 178 00f8 00000000 		.word	adc_countsPer10Volt
 179              		.cfi_endproc
 180              	.LFE1:
 181              		.size	adc_Init, .-adc_Init
 182              		.section	.text.adc_Enable,"ax",%progbits
 183              		.align	2
 184              		.global	adc_Enable
 185              		.code	16
 186              		.thumb_func
 187              		.type	adc_Enable, %function
 188              	adc_Enable:
 189              	.LFB2:
 315:Generated_Source\PSoC4/adc.c **** 
 316:Generated_Source\PSoC4/adc.c **** /*******************************************************************************
 317:Generated_Source\PSoC4/adc.c **** * Function Name: ADC_SAR_1_Enable
 318:Generated_Source\PSoC4/adc.c **** ********************************************************************************
 319:Generated_Source\PSoC4/adc.c **** *
 320:Generated_Source\PSoC4/adc.c **** * Summary:
ARM GAS  C:\Users\Usuario\AppData\Local\Temp\ccz1TFQf.s 			page 10


 321:Generated_Source\PSoC4/adc.c **** *  Enables the clock and analog power for SAR ADC.
 322:Generated_Source\PSoC4/adc.c **** *
 323:Generated_Source\PSoC4/adc.c **** * Parameters:
 324:Generated_Source\PSoC4/adc.c **** *  None.
 325:Generated_Source\PSoC4/adc.c **** *
 326:Generated_Source\PSoC4/adc.c **** * Return:
 327:Generated_Source\PSoC4/adc.c **** *  None.
 328:Generated_Source\PSoC4/adc.c **** *
 329:Generated_Source\PSoC4/adc.c **** *******************************************************************************/
 330:Generated_Source\PSoC4/adc.c **** void adc_Enable(void)
 331:Generated_Source\PSoC4/adc.c **** {
 190              		.loc 1 331 0
 191              		.cfi_startproc
 192              		@ args = 0, pretend = 0, frame = 0
 193              		@ frame_needed = 0, uses_anonymous_args = 0
 194 0000 10B5     		push	{r4, lr}
 195              		.cfi_def_cfa_offset 8
 196              		.cfi_offset 4, -8
 197              		.cfi_offset 14, -4
 332:Generated_Source\PSoC4/adc.c ****     if (0u == (adc_SAR_CTRL_REG & adc_ENABLE))
 198              		.loc 1 332 0
 199 0002 074B     		ldr	r3, .L10
 200 0004 1B68     		ldr	r3, [r3]
 201 0006 002B     		cmp	r3, #0
 202 0008 08DB     		blt	.L8
 333:Generated_Source\PSoC4/adc.c ****     {
 334:Generated_Source\PSoC4/adc.c ****         #if(adc_CY_SAR_IP_VER != adc_CY_SAR_IP_VER0)
 335:Generated_Source\PSoC4/adc.c **** 
 336:Generated_Source\PSoC4/adc.c ****             while (0u != (adc_SAR_STATUS_REG & adc_STATUS_BUSY))
 337:Generated_Source\PSoC4/adc.c ****             {
 338:Generated_Source\PSoC4/adc.c ****                 /* wait for SAR to go idle to avoid deadlock */
 339:Generated_Source\PSoC4/adc.c ****             }
 340:Generated_Source\PSoC4/adc.c ****         #endif /* (adc_CY_SAR_IP_VER != adc_CY_SAR_IP_VER0) */
 341:Generated_Source\PSoC4/adc.c ****         
 342:Generated_Source\PSoC4/adc.c ****         adc_SAR_CTRL_REG |= adc_ENABLE;
 203              		.loc 1 342 0
 204 000a 054A     		ldr	r2, .L10
 205 000c 1368     		ldr	r3, [r2]
 206 000e 8021     		movs	r1, #128
 207 0010 0906     		lsls	r1, r1, #24
 208 0012 0B43     		orrs	r3, r1
 209 0014 1360     		str	r3, [r2]
 343:Generated_Source\PSoC4/adc.c ****         
 344:Generated_Source\PSoC4/adc.c ****         /* The block is ready to use 10 us after the enable signal is set high. */
 345:Generated_Source\PSoC4/adc.c ****         CyDelayUs(adc_10US_DELAY);         
 210              		.loc 1 345 0
 211 0016 0A20     		movs	r0, #10
 212 0018 FFF7FEFF 		bl	CyDelayUs
 213              	.LVL10:
 214              	.L8:
 346:Generated_Source\PSoC4/adc.c ****     }
 347:Generated_Source\PSoC4/adc.c **** }
 215              		.loc 1 347 0
 216              		@ sp needed
 217 001c 10BD     		pop	{r4, pc}
 218              	.L11:
 219 001e C046     		.align	2
ARM GAS  C:\Users\Usuario\AppData\Local\Temp\ccz1TFQf.s 			page 11


 220              	.L10:
 221 0020 00001A40 		.word	1075445760
 222              		.cfi_endproc
 223              	.LFE2:
 224              		.size	adc_Enable, .-adc_Enable
 225              		.section	.text.adc_Start,"ax",%progbits
 226              		.align	2
 227              		.global	adc_Start
 228              		.code	16
 229              		.thumb_func
 230              		.type	adc_Start, %function
 231              	adc_Start:
 232              	.LFB0:
  64:Generated_Source\PSoC4/adc.c ****     /* If not Initialized then initialize all required hardware and software */
 233              		.loc 1 64 0
 234              		.cfi_startproc
 235              		@ args = 0, pretend = 0, frame = 0
 236              		@ frame_needed = 0, uses_anonymous_args = 0
 237 0000 10B5     		push	{r4, lr}
 238              		.cfi_def_cfa_offset 8
 239              		.cfi_offset 4, -8
 240              		.cfi_offset 14, -4
  66:Generated_Source\PSoC4/adc.c ****     {
 241              		.loc 1 66 0
 242 0002 064B     		ldr	r3, .L14
 243 0004 1B78     		ldrb	r3, [r3]
 244 0006 002B     		cmp	r3, #0
 245 0008 04D1     		bne	.L13
  68:Generated_Source\PSoC4/adc.c ****         adc_initVar = 1u;
 246              		.loc 1 68 0
 247 000a FFF7FEFF 		bl	adc_Init
 248              	.LVL11:
  69:Generated_Source\PSoC4/adc.c ****     }
 249              		.loc 1 69 0
 250 000e 0122     		movs	r2, #1
 251 0010 024B     		ldr	r3, .L14
 252 0012 1A70     		strb	r2, [r3]
 253              	.L13:
  71:Generated_Source\PSoC4/adc.c **** }
 254              		.loc 1 71 0
 255 0014 FFF7FEFF 		bl	adc_Enable
 256              	.LVL12:
  72:Generated_Source\PSoC4/adc.c **** 
 257              		.loc 1 72 0
 258              		@ sp needed
 259 0018 10BD     		pop	{r4, pc}
 260              	.L15:
 261 001a C046     		.align	2
 262              	.L14:
 263 001c 00000000 		.word	.LANCHOR0
 264              		.cfi_endproc
 265              	.LFE0:
 266              		.size	adc_Start, .-adc_Start
 267              		.section	.text.adc_Stop,"ax",%progbits
 268              		.align	2
 269              		.global	adc_Stop
 270              		.code	16
ARM GAS  C:\Users\Usuario\AppData\Local\Temp\ccz1TFQf.s 			page 12


 271              		.thumb_func
 272              		.type	adc_Stop, %function
 273              	adc_Stop:
 274              	.LFB3:
 348:Generated_Source\PSoC4/adc.c **** 
 349:Generated_Source\PSoC4/adc.c **** 
 350:Generated_Source\PSoC4/adc.c **** /*******************************************************************************
 351:Generated_Source\PSoC4/adc.c **** * Function Name: adc_Stop
 352:Generated_Source\PSoC4/adc.c **** ********************************************************************************
 353:Generated_Source\PSoC4/adc.c **** *
 354:Generated_Source\PSoC4/adc.c **** * Summary:
 355:Generated_Source\PSoC4/adc.c **** *  This function stops ADC conversions and puts the ADC into its lowest power
 356:Generated_Source\PSoC4/adc.c **** *  mode.
 357:Generated_Source\PSoC4/adc.c **** *
 358:Generated_Source\PSoC4/adc.c **** * Parameters:
 359:Generated_Source\PSoC4/adc.c **** *  None.
 360:Generated_Source\PSoC4/adc.c **** *
 361:Generated_Source\PSoC4/adc.c **** * Return:
 362:Generated_Source\PSoC4/adc.c **** *  None.
 363:Generated_Source\PSoC4/adc.c **** *
 364:Generated_Source\PSoC4/adc.c **** *******************************************************************************/
 365:Generated_Source\PSoC4/adc.c **** void adc_Stop(void)
 366:Generated_Source\PSoC4/adc.c **** {
 275              		.loc 1 366 0
 276              		.cfi_startproc
 277              		@ args = 0, pretend = 0, frame = 0
 278              		@ frame_needed = 0, uses_anonymous_args = 0
 279              		@ link register save eliminated.
 367:Generated_Source\PSoC4/adc.c ****     adc_SAR_CTRL_REG &= (uint32)~adc_ENABLE;
 280              		.loc 1 367 0
 281 0000 024A     		ldr	r2, .L17
 282 0002 1368     		ldr	r3, [r2]
 283 0004 5B00     		lsls	r3, r3, #1
 284 0006 5B08     		lsrs	r3, r3, #1
 285 0008 1360     		str	r3, [r2]
 368:Generated_Source\PSoC4/adc.c **** }
 286              		.loc 1 368 0
 287              		@ sp needed
 288 000a 7047     		bx	lr
 289              	.L18:
 290              		.align	2
 291              	.L17:
 292 000c 00001A40 		.word	1075445760
 293              		.cfi_endproc
 294              	.LFE3:
 295              		.size	adc_Stop, .-adc_Stop
 296              		.section	.text.adc_StartConvert,"ax",%progbits
 297              		.align	2
 298              		.global	adc_StartConvert
 299              		.code	16
 300              		.thumb_func
 301              		.type	adc_StartConvert, %function
 302              	adc_StartConvert:
 303              	.LFB4:
 369:Generated_Source\PSoC4/adc.c **** 
 370:Generated_Source\PSoC4/adc.c **** 
 371:Generated_Source\PSoC4/adc.c **** /*******************************************************************************
ARM GAS  C:\Users\Usuario\AppData\Local\Temp\ccz1TFQf.s 			page 13


 372:Generated_Source\PSoC4/adc.c **** * Function Name: adc_StartConvert
 373:Generated_Source\PSoC4/adc.c **** ********************************************************************************
 374:Generated_Source\PSoC4/adc.c **** *
 375:Generated_Source\PSoC4/adc.c **** * Summary:
 376:Generated_Source\PSoC4/adc.c **** *  Description:
 377:Generated_Source\PSoC4/adc.c **** *  For free running mode, this API starts the conversion process and it
 378:Generated_Source\PSoC4/adc.c **** *  runs continuously.
 379:Generated_Source\PSoC4/adc.c **** *
 380:Generated_Source\PSoC4/adc.c **** *  In a triggered mode, this routine triggers every conversion by
 381:Generated_Source\PSoC4/adc.c **** *  writing into the FW_TRIGGER bit in SAR_START_CTRL reg. In triggered mode,
 382:Generated_Source\PSoC4/adc.c **** *  every conversion has to start by this API.
 383:Generated_Source\PSoC4/adc.c **** *
 384:Generated_Source\PSoC4/adc.c **** * Parameters:
 385:Generated_Source\PSoC4/adc.c **** *  None.
 386:Generated_Source\PSoC4/adc.c **** *
 387:Generated_Source\PSoC4/adc.c **** * Return:
 388:Generated_Source\PSoC4/adc.c **** *  None.
 389:Generated_Source\PSoC4/adc.c **** *
 390:Generated_Source\PSoC4/adc.c **** *******************************************************************************/
 391:Generated_Source\PSoC4/adc.c **** void adc_StartConvert(void)
 392:Generated_Source\PSoC4/adc.c **** {
 304              		.loc 1 392 0
 305              		.cfi_startproc
 306              		@ args = 0, pretend = 0, frame = 0
 307              		@ frame_needed = 0, uses_anonymous_args = 0
 308              		@ link register save eliminated.
 393:Generated_Source\PSoC4/adc.c ****     #if(adc_DEFAULT_SAMPLE_MODE_SEL == adc__FREERUNNING)
 394:Generated_Source\PSoC4/adc.c ****         adc_SAR_SAMPLE_CTRL_REG |= adc_CONTINUOUS_EN;
 309              		.loc 1 394 0
 310 0000 034A     		ldr	r2, .L20
 311 0002 1368     		ldr	r3, [r2]
 312 0004 8021     		movs	r1, #128
 313 0006 4902     		lsls	r1, r1, #9
 314 0008 0B43     		orrs	r3, r1
 315 000a 1360     		str	r3, [r2]
 395:Generated_Source\PSoC4/adc.c ****     #else /* Firmware trigger */
 396:Generated_Source\PSoC4/adc.c ****         adc_SAR_START_CTRL_REG = adc_FW_TRIGGER;
 397:Generated_Source\PSoC4/adc.c ****     #endif /* End adc_DEFAULT_SAMPLE_MODE == adc__FREERUNNING */
 398:Generated_Source\PSoC4/adc.c **** 
 399:Generated_Source\PSoC4/adc.c **** }
 316              		.loc 1 399 0
 317              		@ sp needed
 318 000c 7047     		bx	lr
 319              	.L21:
 320 000e C046     		.align	2
 321              	.L20:
 322 0010 04001A40 		.word	1075445764
 323              		.cfi_endproc
 324              	.LFE4:
 325              		.size	adc_StartConvert, .-adc_StartConvert
 326              		.section	.text.adc_StopConvert,"ax",%progbits
 327              		.align	2
 328              		.global	adc_StopConvert
 329              		.code	16
 330              		.thumb_func
 331              		.type	adc_StopConvert, %function
 332              	adc_StopConvert:
ARM GAS  C:\Users\Usuario\AppData\Local\Temp\ccz1TFQf.s 			page 14


 333              	.LFB5:
 400:Generated_Source\PSoC4/adc.c **** 
 401:Generated_Source\PSoC4/adc.c **** 
 402:Generated_Source\PSoC4/adc.c **** /*******************************************************************************
 403:Generated_Source\PSoC4/adc.c **** * Function Name: adc_StopConvert
 404:Generated_Source\PSoC4/adc.c **** ********************************************************************************
 405:Generated_Source\PSoC4/adc.c **** *
 406:Generated_Source\PSoC4/adc.c **** * Summary:
 407:Generated_Source\PSoC4/adc.c **** *  Forces the ADC to stop all conversions.
 408:Generated_Source\PSoC4/adc.c **** *
 409:Generated_Source\PSoC4/adc.c **** * Parameters:
 410:Generated_Source\PSoC4/adc.c **** *  None.
 411:Generated_Source\PSoC4/adc.c **** *
 412:Generated_Source\PSoC4/adc.c **** * Return:
 413:Generated_Source\PSoC4/adc.c **** *  None.
 414:Generated_Source\PSoC4/adc.c **** *
 415:Generated_Source\PSoC4/adc.c **** *******************************************************************************/
 416:Generated_Source\PSoC4/adc.c **** void adc_StopConvert(void)
 417:Generated_Source\PSoC4/adc.c **** {
 334              		.loc 1 417 0
 335              		.cfi_startproc
 336              		@ args = 0, pretend = 0, frame = 0
 337              		@ frame_needed = 0, uses_anonymous_args = 0
 338              		@ link register save eliminated.
 418:Generated_Source\PSoC4/adc.c ****     #if(adc_DEFAULT_SAMPLE_MODE_SEL == adc__FREERUNNING)
 419:Generated_Source\PSoC4/adc.c ****         adc_SAR_SAMPLE_CTRL_REG &= (uint32)(~adc_CONTINUOUS_EN);
 339              		.loc 1 419 0
 340 0000 024A     		ldr	r2, .L23
 341 0002 1168     		ldr	r1, [r2]
 342 0004 024B     		ldr	r3, .L23+4
 343 0006 0B40     		ands	r3, r1
 344 0008 1360     		str	r3, [r2]
 420:Generated_Source\PSoC4/adc.c ****     #endif /* adc_DEFAULT_SAMPLE_MODE == adc__FREERUNNING */
 421:Generated_Source\PSoC4/adc.c **** }
 345              		.loc 1 421 0
 346              		@ sp needed
 347 000a 7047     		bx	lr
 348              	.L24:
 349              		.align	2
 350              	.L23:
 351 000c 04001A40 		.word	1075445764
 352 0010 FFFFFEFF 		.word	-65537
 353              		.cfi_endproc
 354              	.LFE5:
 355              		.size	adc_StopConvert, .-adc_StopConvert
 356              		.section	.text.adc_IsEndConversion,"ax",%progbits
 357              		.align	2
 358              		.global	adc_IsEndConversion
 359              		.code	16
 360              		.thumb_func
 361              		.type	adc_IsEndConversion, %function
 362              	adc_IsEndConversion:
 363              	.LFB6:
 422:Generated_Source\PSoC4/adc.c **** 
 423:Generated_Source\PSoC4/adc.c **** 
 424:Generated_Source\PSoC4/adc.c **** /*******************************************************************************
 425:Generated_Source\PSoC4/adc.c **** * Function Name: adc_IsEndConversion
ARM GAS  C:\Users\Usuario\AppData\Local\Temp\ccz1TFQf.s 			page 15


 426:Generated_Source\PSoC4/adc.c **** ********************************************************************************
 427:Generated_Source\PSoC4/adc.c **** *
 428:Generated_Source\PSoC4/adc.c **** * Summary:
 429:Generated_Source\PSoC4/adc.c **** *  Description: Checks for ADC end of conversion for the case one
 430:Generated_Source\PSoC4/adc.c **** *  channel and end of scan for the case of multiple channels. It acts
 431:Generated_Source\PSoC4/adc.c **** *  as a software version of the EOC. This function provides the
 432:Generated_Source\PSoC4/adc.c **** *  programmer with two options. In one mode this function
 433:Generated_Source\PSoC4/adc.c **** *  immediately returns with the conversion status. In the other mode,
 434:Generated_Source\PSoC4/adc.c **** *  the function does not return (blocking) until the conversion has
 435:Generated_Source\PSoC4/adc.c **** *  completed.
 436:Generated_Source\PSoC4/adc.c **** *
 437:Generated_Source\PSoC4/adc.c **** * Parameters:
 438:Generated_Source\PSoC4/adc.c **** *  ADC_RETURN_STATUS        -> Immediately returns conversion result status
 439:Generated_Source\PSoC4/adc.c **** *  ADC_WAIT_FOR_RESULT      -> Does not return until ADC complete
 440:Generated_Source\PSoC4/adc.c **** *  ADC_RETURN_STATUS_INJ    -> Immediately returns conversion result status
 441:Generated_Source\PSoC4/adc.c **** *                              for injection channel
 442:Generated_Source\PSoC4/adc.c **** *  ADC_WAIT_FOR_RESULT_INJ  -> Does not return until ADC completes injection
 443:Generated_Source\PSoC4/adc.c **** *                              channel conversion
 444:Generated_Source\PSoC4/adc.c **** *
 445:Generated_Source\PSoC4/adc.c **** * Return:
 446:Generated_Source\PSoC4/adc.c **** *  If a non-zero value is returned, the last conversion or scan has completed.
 447:Generated_Source\PSoC4/adc.c **** *  If the returned value is zero, the ADC is still in the process of a scan.
 448:Generated_Source\PSoC4/adc.c **** *
 449:Generated_Source\PSoC4/adc.c **** *******************************************************************************/
 450:Generated_Source\PSoC4/adc.c **** uint32 adc_IsEndConversion(uint32 retMode)
 451:Generated_Source\PSoC4/adc.c **** {
 364              		.loc 1 451 0
 365              		.cfi_startproc
 366              		@ args = 0, pretend = 0, frame = 0
 367              		@ frame_needed = 0, uses_anonymous_args = 0
 368              		@ link register save eliminated.
 369              	.LVL13:
 370 0000 0200     		movs	r2, r0
 371              	.LVL14:
 452:Generated_Source\PSoC4/adc.c ****     uint32 status = 0u;
 453:Generated_Source\PSoC4/adc.c **** 
 454:Generated_Source\PSoC4/adc.c ****     if((retMode & (adc_RETURN_STATUS | adc_WAIT_FOR_RESULT)) != 0u)
 372              		.loc 1 454 0
 373 0002 8307     		lsls	r3, r0, #30
 374 0004 0CD0     		beq	.L29
 375              	.LVL15:
 376              	.L28:
 455:Generated_Source\PSoC4/adc.c ****     {
 456:Generated_Source\PSoC4/adc.c ****         do
 457:Generated_Source\PSoC4/adc.c ****         {
 458:Generated_Source\PSoC4/adc.c ****             status = adc_SAR_INTR_REG & adc_EOS_MASK;
 377              		.loc 1 458 0 discriminator 2
 378 0006 074B     		ldr	r3, .L30
 379 0008 1B68     		ldr	r3, [r3]
 380 000a 0120     		movs	r0, #1
 381 000c 1840     		ands	r0, r3
 382              	.LVL16:
 459:Generated_Source\PSoC4/adc.c ****         }while((status == 0u) && ((retMode & adc_WAIT_FOR_RESULT) != 0u));
 383              		.loc 1 459 0 discriminator 2
 384 000e 01D1     		bne	.L27
 385              		.loc 1 459 0 is_stmt 0 discriminator 1
 386 0010 9307     		lsls	r3, r2, #30
ARM GAS  C:\Users\Usuario\AppData\Local\Temp\ccz1TFQf.s 			page 16


 387 0012 F8D4     		bmi	.L28
 388              	.L27:
 460:Generated_Source\PSoC4/adc.c **** 
 461:Generated_Source\PSoC4/adc.c ****         if(status != 0u)
 389              		.loc 1 461 0 is_stmt 1
 390 0014 0028     		cmp	r0, #0
 391 0016 04D0     		beq	.L26
 462:Generated_Source\PSoC4/adc.c ****         {
 463:Generated_Source\PSoC4/adc.c ****             /* Clear EOS bit */
 464:Generated_Source\PSoC4/adc.c ****             adc_SAR_INTR_REG = adc_EOS_MASK;
 392              		.loc 1 464 0
 393 0018 0122     		movs	r2, #1
 394              	.LVL17:
 395 001a 024B     		ldr	r3, .L30
 396 001c 1A60     		str	r2, [r3]
 397 001e 00E0     		b	.L26
 398              	.LVL18:
 399              	.L29:
 452:Generated_Source\PSoC4/adc.c **** 
 400              		.loc 1 452 0
 401 0020 0020     		movs	r0, #0
 402              	.LVL19:
 403              	.L26:
 465:Generated_Source\PSoC4/adc.c ****         }
 466:Generated_Source\PSoC4/adc.c ****     }
 467:Generated_Source\PSoC4/adc.c **** 
 468:Generated_Source\PSoC4/adc.c ****     #if(adc_INJ_CHANNEL_ENABLED)
 469:Generated_Source\PSoC4/adc.c ****         if((retMode & (adc_RETURN_STATUS_INJ | adc_WAIT_FOR_RESULT_INJ)) != 0u)
 470:Generated_Source\PSoC4/adc.c ****         {
 471:Generated_Source\PSoC4/adc.c ****             do
 472:Generated_Source\PSoC4/adc.c ****             {
 473:Generated_Source\PSoC4/adc.c ****                 status |= adc_SAR_INTR_REG & adc_INJ_EOC_MASK;
 474:Generated_Source\PSoC4/adc.c ****             }while(((status & adc_INJ_EOC_MASK) == 0u) &&
 475:Generated_Source\PSoC4/adc.c ****                    ((retMode & adc_WAIT_FOR_RESULT_INJ) != 0u));
 476:Generated_Source\PSoC4/adc.c **** 
 477:Generated_Source\PSoC4/adc.c ****             if((status & adc_INJ_EOC_MASK) != 0u)
 478:Generated_Source\PSoC4/adc.c ****             {
 479:Generated_Source\PSoC4/adc.c ****                 /* Clear Injection EOS bit */
 480:Generated_Source\PSoC4/adc.c ****                 adc_SAR_INTR_REG = adc_INJ_EOC_MASK;
 481:Generated_Source\PSoC4/adc.c ****             }
 482:Generated_Source\PSoC4/adc.c ****         }
 483:Generated_Source\PSoC4/adc.c ****     #endif /* adc_INJ_CHANNEL_ENABLED */
 484:Generated_Source\PSoC4/adc.c **** 
 485:Generated_Source\PSoC4/adc.c ****     return (status);
 486:Generated_Source\PSoC4/adc.c **** }
 404              		.loc 1 486 0
 405              		@ sp needed
 406 0022 7047     		bx	lr
 407              	.L31:
 408              		.align	2
 409              	.L30:
 410 0024 10021A40 		.word	1075446288
 411              		.cfi_endproc
 412              	.LFE6:
 413              		.size	adc_IsEndConversion, .-adc_IsEndConversion
 414              		.section	.text.adc_GetResult16,"ax",%progbits
 415              		.align	2
ARM GAS  C:\Users\Usuario\AppData\Local\Temp\ccz1TFQf.s 			page 17


 416              		.global	adc_GetResult16
 417              		.code	16
 418              		.thumb_func
 419              		.type	adc_GetResult16, %function
 420              	adc_GetResult16:
 421              	.LFB7:
 487:Generated_Source\PSoC4/adc.c **** 
 488:Generated_Source\PSoC4/adc.c **** 
 489:Generated_Source\PSoC4/adc.c **** /*******************************************************************************
 490:Generated_Source\PSoC4/adc.c **** * Function Name: adc_GetResult16
 491:Generated_Source\PSoC4/adc.c **** ********************************************************************************
 492:Generated_Source\PSoC4/adc.c **** *
 493:Generated_Source\PSoC4/adc.c **** * Summary:
 494:Generated_Source\PSoC4/adc.c **** *  Gets the data available in the SAR DATA register.
 495:Generated_Source\PSoC4/adc.c **** *
 496:Generated_Source\PSoC4/adc.c **** * Parameters:
 497:Generated_Source\PSoC4/adc.c **** *  chan: The ADC channel in which to return the result. The first channel
 498:Generated_Source\PSoC4/adc.c **** *  is 0 and the injection channel if enabled is the number of valid channels.
 499:Generated_Source\PSoC4/adc.c **** *
 500:Generated_Source\PSoC4/adc.c **** * Return:
 501:Generated_Source\PSoC4/adc.c **** *  Returns converted data as a signed 16-bit integer
 502:Generated_Source\PSoC4/adc.c **** *
 503:Generated_Source\PSoC4/adc.c **** *******************************************************************************/
 504:Generated_Source\PSoC4/adc.c **** int16 adc_GetResult16(uint32 chan)
 505:Generated_Source\PSoC4/adc.c **** {
 422              		.loc 1 505 0
 423              		.cfi_startproc
 424              		@ args = 0, pretend = 0, frame = 0
 425              		@ frame_needed = 0, uses_anonymous_args = 0
 426              	.LVL20:
 427 0000 10B5     		push	{r4, lr}
 428              		.cfi_def_cfa_offset 8
 429              		.cfi_offset 4, -8
 430              		.cfi_offset 14, -4
 431 0002 041E     		subs	r4, r0, #0
 506:Generated_Source\PSoC4/adc.c ****     uint32 result;
 507:Generated_Source\PSoC4/adc.c **** 
 508:Generated_Source\PSoC4/adc.c ****     /* Halt CPU in debug mode if channel is out of valid range */
 509:Generated_Source\PSoC4/adc.c ****     CYASSERT(chan < adc_TOTAL_CHANNELS_NUM);
 432              		.loc 1 509 0
 433 0004 02D0     		beq	.L33
 434              		.loc 1 509 0 is_stmt 0 discriminator 1
 435 0006 0020     		movs	r0, #0
 436              	.LVL21:
 437 0008 FFF7FEFF 		bl	CyHalt
 438              	.LVL22:
 439              	.L33:
 510:Generated_Source\PSoC4/adc.c **** 
 511:Generated_Source\PSoC4/adc.c ****     if(chan < adc_SEQUENCED_CHANNELS_NUM)
 440              		.loc 1 511 0 is_stmt 1
 441 000c 002C     		cmp	r4, #0
 442 000e 07D1     		bne	.L35
 512:Generated_Source\PSoC4/adc.c ****     {
 513:Generated_Source\PSoC4/adc.c ****         result = CY_GET_REG32((reg32 *)(adc_SAR_CHAN_RESULT_IND + (uint32)(chan << 2u))) &
 443              		.loc 1 513 0
 444 0010 A400     		lsls	r4, r4, #2
 445              	.LVL23:
ARM GAS  C:\Users\Usuario\AppData\Local\Temp\ccz1TFQf.s 			page 18


 446 0012 054B     		ldr	r3, .L36
 447 0014 9C46     		mov	ip, r3
 448 0016 6444     		add	r4, r4, ip
 449 0018 2068     		ldr	r0, [r4]
 450 001a 0004     		lsls	r0, r0, #16
 451 001c 000C     		lsrs	r0, r0, #16
 452              	.LVL24:
 453 001e 00E0     		b	.L34
 454              	.LVL25:
 455              	.L35:
 514:Generated_Source\PSoC4/adc.c ****                 adc_RESULT_MASK;
 515:Generated_Source\PSoC4/adc.c ****     }
 516:Generated_Source\PSoC4/adc.c ****     else
 517:Generated_Source\PSoC4/adc.c ****     {
 518:Generated_Source\PSoC4/adc.c ****         #if(adc_INJ_CHANNEL_ENABLED)
 519:Generated_Source\PSoC4/adc.c ****             result = adc_SAR_INJ_RESULT_REG & adc_RESULT_MASK;
 520:Generated_Source\PSoC4/adc.c ****         #else
 521:Generated_Source\PSoC4/adc.c ****             result = 0u;
 456              		.loc 1 521 0
 457 0020 0020     		movs	r0, #0
 458              	.LVL26:
 459              	.L34:
 522:Generated_Source\PSoC4/adc.c ****         #endif /* adc_INJ_CHANNEL_ENABLED */
 523:Generated_Source\PSoC4/adc.c ****     }
 524:Generated_Source\PSoC4/adc.c **** 
 525:Generated_Source\PSoC4/adc.c ****     return ( (int16)result );
 460              		.loc 1 525 0
 461 0022 00B2     		sxth	r0, r0
 462              	.LVL27:
 526:Generated_Source\PSoC4/adc.c **** }
 463              		.loc 1 526 0
 464              		@ sp needed
 465 0024 10BD     		pop	{r4, pc}
 466              	.L37:
 467 0026 C046     		.align	2
 468              	.L36:
 469 0028 80011A40 		.word	1075446144
 470              		.cfi_endproc
 471              	.LFE7:
 472              		.size	adc_GetResult16, .-adc_GetResult16
 473              		.section	.text.adc_SetChanMask,"ax",%progbits
 474              		.align	2
 475              		.global	adc_SetChanMask
 476              		.code	16
 477              		.thumb_func
 478              		.type	adc_SetChanMask, %function
 479              	adc_SetChanMask:
 480              	.LFB8:
 527:Generated_Source\PSoC4/adc.c **** 
 528:Generated_Source\PSoC4/adc.c **** 
 529:Generated_Source\PSoC4/adc.c **** /*******************************************************************************
 530:Generated_Source\PSoC4/adc.c **** * Function Name: adc_SetChanMask
 531:Generated_Source\PSoC4/adc.c **** ********************************************************************************
 532:Generated_Source\PSoC4/adc.c **** *
 533:Generated_Source\PSoC4/adc.c **** * Summary:
 534:Generated_Source\PSoC4/adc.c **** *  Sets the channel enable mask.
 535:Generated_Source\PSoC4/adc.c **** *
ARM GAS  C:\Users\Usuario\AppData\Local\Temp\ccz1TFQf.s 			page 19


 536:Generated_Source\PSoC4/adc.c **** * Parameters:
 537:Generated_Source\PSoC4/adc.c **** *  mask: Sets which channels that will be
 538:Generated_Source\PSoC4/adc.c **** *  scanned. Setting bits for channels that do not exist will have no
 539:Generated_Source\PSoC4/adc.c **** *  effect. For example, if only 6 channels were enabled, setting a
 540:Generated_Source\PSoC4/adc.c **** *  mask of 0x0103 would only enable the last two channels (0 and 1).
 541:Generated_Source\PSoC4/adc.c **** *  This API will not enable the injection channel.
 542:Generated_Source\PSoC4/adc.c **** *  Examples: If the component is setup to sequence through 8
 543:Generated_Source\PSoC4/adc.c **** *  channels, a mask of 0x000F would enable channels 0, 1, 2, and 3.
 544:Generated_Source\PSoC4/adc.c **** *
 545:Generated_Source\PSoC4/adc.c **** * Return:
 546:Generated_Source\PSoC4/adc.c **** *  None.
 547:Generated_Source\PSoC4/adc.c **** *
 548:Generated_Source\PSoC4/adc.c **** *******************************************************************************/
 549:Generated_Source\PSoC4/adc.c **** void adc_SetChanMask(uint32 mask)
 550:Generated_Source\PSoC4/adc.c **** {
 481              		.loc 1 550 0
 482              		.cfi_startproc
 483              		@ args = 0, pretend = 0, frame = 0
 484              		@ frame_needed = 0, uses_anonymous_args = 0
 485              		@ link register save eliminated.
 486              	.LVL28:
 551:Generated_Source\PSoC4/adc.c ****     adc_SAR_CHAN_EN_REG = mask & adc_MAX_CHANNELS_EN_MASK;
 487              		.loc 1 551 0
 488 0000 0123     		movs	r3, #1
 489 0002 1840     		ands	r0, r3
 490              	.LVL29:
 491 0004 014B     		ldr	r3, .L39
 492 0006 1860     		str	r0, [r3]
 552:Generated_Source\PSoC4/adc.c **** }
 493              		.loc 1 552 0
 494              		@ sp needed
 495 0008 7047     		bx	lr
 496              	.L40:
 497 000a C046     		.align	2
 498              	.L39:
 499 000c 20001A40 		.word	1075445792
 500              		.cfi_endproc
 501              	.LFE8:
 502              		.size	adc_SetChanMask, .-adc_SetChanMask
 503              		.section	.text.adc_SetLowLimit,"ax",%progbits
 504              		.align	2
 505              		.global	adc_SetLowLimit
 506              		.code	16
 507              		.thumb_func
 508              		.type	adc_SetLowLimit, %function
 509              	adc_SetLowLimit:
 510              	.LFB9:
 553:Generated_Source\PSoC4/adc.c **** 
 554:Generated_Source\PSoC4/adc.c **** #if(adc_INJ_CHANNEL_ENABLED)
 555:Generated_Source\PSoC4/adc.c **** 
 556:Generated_Source\PSoC4/adc.c **** 
 557:Generated_Source\PSoC4/adc.c ****     /*******************************************************************************
 558:Generated_Source\PSoC4/adc.c ****     * Function Name: adc_EnableInjection
 559:Generated_Source\PSoC4/adc.c ****     ********************************************************************************
 560:Generated_Source\PSoC4/adc.c ****     *
 561:Generated_Source\PSoC4/adc.c ****     * Summary:
 562:Generated_Source\PSoC4/adc.c ****     *  Enables the injection channel for the next scan only.
ARM GAS  C:\Users\Usuario\AppData\Local\Temp\ccz1TFQf.s 			page 20


 563:Generated_Source\PSoC4/adc.c ****     *
 564:Generated_Source\PSoC4/adc.c ****     * Parameters:
 565:Generated_Source\PSoC4/adc.c ****     *  None.
 566:Generated_Source\PSoC4/adc.c ****     *
 567:Generated_Source\PSoC4/adc.c ****     * Return:
 568:Generated_Source\PSoC4/adc.c ****     *  None.
 569:Generated_Source\PSoC4/adc.c ****     *
 570:Generated_Source\PSoC4/adc.c ****     *******************************************************************************/
 571:Generated_Source\PSoC4/adc.c ****     void adc_EnableInjection(void)
 572:Generated_Source\PSoC4/adc.c ****     {
 573:Generated_Source\PSoC4/adc.c ****         adc_SAR_INJ_CHAN_CONFIG_REG |= adc_INJ_CHAN_EN;
 574:Generated_Source\PSoC4/adc.c ****     }
 575:Generated_Source\PSoC4/adc.c **** 
 576:Generated_Source\PSoC4/adc.c **** #endif /* adc_INJ_CHANNEL_ENABLED */
 577:Generated_Source\PSoC4/adc.c **** 
 578:Generated_Source\PSoC4/adc.c **** 
 579:Generated_Source\PSoC4/adc.c **** /*******************************************************************************
 580:Generated_Source\PSoC4/adc.c **** * Function Name: adc_SetLowLimit
 581:Generated_Source\PSoC4/adc.c **** ********************************************************************************
 582:Generated_Source\PSoC4/adc.c **** *
 583:Generated_Source\PSoC4/adc.c **** * Summary:
 584:Generated_Source\PSoC4/adc.c **** *  Sets the low limit parameter for a limit condition.
 585:Generated_Source\PSoC4/adc.c **** *
 586:Generated_Source\PSoC4/adc.c **** * Parameters:
 587:Generated_Source\PSoC4/adc.c **** *  lowLimit: The low limit for a limit condition.
 588:Generated_Source\PSoC4/adc.c **** *
 589:Generated_Source\PSoC4/adc.c **** * Return:
 590:Generated_Source\PSoC4/adc.c **** *  None.
 591:Generated_Source\PSoC4/adc.c **** *
 592:Generated_Source\PSoC4/adc.c **** *******************************************************************************/
 593:Generated_Source\PSoC4/adc.c **** void adc_SetLowLimit(uint32 lowLimit)
 594:Generated_Source\PSoC4/adc.c **** {
 511              		.loc 1 594 0
 512              		.cfi_startproc
 513              		@ args = 0, pretend = 0, frame = 0
 514              		@ frame_needed = 0, uses_anonymous_args = 0
 515              		@ link register save eliminated.
 516              	.LVL30:
 595:Generated_Source\PSoC4/adc.c ****     adc_SAR_RANGE_THRES_REG &= (uint32)(~adc_RANGE_LOW_MASK);
 517              		.loc 1 595 0
 518 0000 054A     		ldr	r2, .L42
 519 0002 1368     		ldr	r3, [r2]
 520 0004 1B0C     		lsrs	r3, r3, #16
 521 0006 1B04     		lsls	r3, r3, #16
 522 0008 1360     		str	r3, [r2]
 596:Generated_Source\PSoC4/adc.c ****     adc_SAR_RANGE_THRES_REG |= lowLimit & adc_RANGE_LOW_MASK;
 523              		.loc 1 596 0
 524 000a 1368     		ldr	r3, [r2]
 525 000c 0004     		lsls	r0, r0, #16
 526              	.LVL31:
 527 000e 000C     		lsrs	r0, r0, #16
 528 0010 1843     		orrs	r0, r3
 529 0012 1060     		str	r0, [r2]
 597:Generated_Source\PSoC4/adc.c **** }
 530              		.loc 1 597 0
 531              		@ sp needed
 532 0014 7047     		bx	lr
ARM GAS  C:\Users\Usuario\AppData\Local\Temp\ccz1TFQf.s 			page 21


 533              	.L43:
 534 0016 C046     		.align	2
 535              	.L42:
 536 0018 18001A40 		.word	1075445784
 537              		.cfi_endproc
 538              	.LFE9:
 539              		.size	adc_SetLowLimit, .-adc_SetLowLimit
 540              		.section	.text.adc_SetHighLimit,"ax",%progbits
 541              		.align	2
 542              		.global	adc_SetHighLimit
 543              		.code	16
 544              		.thumb_func
 545              		.type	adc_SetHighLimit, %function
 546              	adc_SetHighLimit:
 547              	.LFB10:
 598:Generated_Source\PSoC4/adc.c **** 
 599:Generated_Source\PSoC4/adc.c **** 
 600:Generated_Source\PSoC4/adc.c **** /*******************************************************************************
 601:Generated_Source\PSoC4/adc.c **** * Function Name: adc_SetHighLimit
 602:Generated_Source\PSoC4/adc.c **** ********************************************************************************
 603:Generated_Source\PSoC4/adc.c **** *
 604:Generated_Source\PSoC4/adc.c **** * Summary:
 605:Generated_Source\PSoC4/adc.c **** *  Sets the low limit parameter for a limit condition.
 606:Generated_Source\PSoC4/adc.c **** *
 607:Generated_Source\PSoC4/adc.c **** * Parameters:
 608:Generated_Source\PSoC4/adc.c **** *  highLimit: The high limit for a limit condition.
 609:Generated_Source\PSoC4/adc.c **** *
 610:Generated_Source\PSoC4/adc.c **** * Return:
 611:Generated_Source\PSoC4/adc.c **** *  None.
 612:Generated_Source\PSoC4/adc.c **** *
 613:Generated_Source\PSoC4/adc.c **** *******************************************************************************/
 614:Generated_Source\PSoC4/adc.c **** void adc_SetHighLimit(uint32 highLimit)
 615:Generated_Source\PSoC4/adc.c **** {
 548              		.loc 1 615 0
 549              		.cfi_startproc
 550              		@ args = 0, pretend = 0, frame = 0
 551              		@ frame_needed = 0, uses_anonymous_args = 0
 552              		@ link register save eliminated.
 553              	.LVL32:
 616:Generated_Source\PSoC4/adc.c ****     adc_SAR_RANGE_THRES_REG &= (uint32)(~adc_RANGE_HIGH_MASK);
 554              		.loc 1 616 0
 555 0000 044A     		ldr	r2, .L45
 556 0002 1368     		ldr	r3, [r2]
 557 0004 1B04     		lsls	r3, r3, #16
 558 0006 1B0C     		lsrs	r3, r3, #16
 559 0008 1360     		str	r3, [r2]
 617:Generated_Source\PSoC4/adc.c ****     adc_SAR_RANGE_THRES_REG |= (uint32)(highLimit << adc_RANGE_HIGH_OFFSET);
 560              		.loc 1 617 0
 561 000a 1368     		ldr	r3, [r2]
 562 000c 0004     		lsls	r0, r0, #16
 563              	.LVL33:
 564 000e 1843     		orrs	r0, r3
 565 0010 1060     		str	r0, [r2]
 618:Generated_Source\PSoC4/adc.c **** }
 566              		.loc 1 618 0
 567              		@ sp needed
 568 0012 7047     		bx	lr
ARM GAS  C:\Users\Usuario\AppData\Local\Temp\ccz1TFQf.s 			page 22


 569              	.L46:
 570              		.align	2
 571              	.L45:
 572 0014 18001A40 		.word	1075445784
 573              		.cfi_endproc
 574              	.LFE10:
 575              		.size	adc_SetHighLimit, .-adc_SetHighLimit
 576              		.section	.text.adc_SetLimitMask,"ax",%progbits
 577              		.align	2
 578              		.global	adc_SetLimitMask
 579              		.code	16
 580              		.thumb_func
 581              		.type	adc_SetLimitMask, %function
 582              	adc_SetLimitMask:
 583              	.LFB11:
 619:Generated_Source\PSoC4/adc.c **** 
 620:Generated_Source\PSoC4/adc.c **** 
 621:Generated_Source\PSoC4/adc.c **** /*******************************************************************************
 622:Generated_Source\PSoC4/adc.c **** * Function Name: adc_SetLimitMask
 623:Generated_Source\PSoC4/adc.c **** ********************************************************************************
 624:Generated_Source\PSoC4/adc.c **** *
 625:Generated_Source\PSoC4/adc.c **** * Summary:
 626:Generated_Source\PSoC4/adc.c **** *  Sets the channel limit condition mask.
 627:Generated_Source\PSoC4/adc.c **** *
 628:Generated_Source\PSoC4/adc.c **** * Parameters:
 629:Generated_Source\PSoC4/adc.c **** *  mask: Sets which channels that may cause a
 630:Generated_Source\PSoC4/adc.c **** *  limit condition interrupt. Setting bits for channels that do not exist
 631:Generated_Source\PSoC4/adc.c **** *  will have no effect. For example, if only 6 channels were enabled,
 632:Generated_Source\PSoC4/adc.c **** *  setting a mask of 0x0103 would only enable the last two channels (0 and 1).
 633:Generated_Source\PSoC4/adc.c **** *
 634:Generated_Source\PSoC4/adc.c **** * Return:
 635:Generated_Source\PSoC4/adc.c **** *  None.
 636:Generated_Source\PSoC4/adc.c **** *
 637:Generated_Source\PSoC4/adc.c **** *******************************************************************************/
 638:Generated_Source\PSoC4/adc.c **** void adc_SetLimitMask(uint32 mask)
 639:Generated_Source\PSoC4/adc.c **** {
 584              		.loc 1 639 0
 585              		.cfi_startproc
 586              		@ args = 0, pretend = 0, frame = 0
 587              		@ frame_needed = 0, uses_anonymous_args = 0
 588              		@ link register save eliminated.
 589              	.LVL34:
 640:Generated_Source\PSoC4/adc.c ****     adc_SAR_RANGE_INTR_MASK_REG = mask & adc_MAX_CHANNELS_EN_MASK;
 590              		.loc 1 640 0
 591 0000 0123     		movs	r3, #1
 592 0002 1840     		ands	r0, r3
 593              	.LVL35:
 594 0004 014B     		ldr	r3, .L48
 595 0006 1860     		str	r0, [r3]
 641:Generated_Source\PSoC4/adc.c **** }
 596              		.loc 1 641 0
 597              		@ sp needed
 598 0008 7047     		bx	lr
 599              	.L49:
 600 000a C046     		.align	2
 601              	.L48:
 602 000c 38021A40 		.word	1075446328
ARM GAS  C:\Users\Usuario\AppData\Local\Temp\ccz1TFQf.s 			page 23


 603              		.cfi_endproc
 604              	.LFE11:
 605              		.size	adc_SetLimitMask, .-adc_SetLimitMask
 606              		.section	.text.adc_SetSatMask,"ax",%progbits
 607              		.align	2
 608              		.global	adc_SetSatMask
 609              		.code	16
 610              		.thumb_func
 611              		.type	adc_SetSatMask, %function
 612              	adc_SetSatMask:
 613              	.LFB12:
 642:Generated_Source\PSoC4/adc.c **** 
 643:Generated_Source\PSoC4/adc.c **** 
 644:Generated_Source\PSoC4/adc.c **** /*******************************************************************************
 645:Generated_Source\PSoC4/adc.c **** * Function Name: adc_SetSatMask
 646:Generated_Source\PSoC4/adc.c **** ********************************************************************************
 647:Generated_Source\PSoC4/adc.c **** *
 648:Generated_Source\PSoC4/adc.c **** * Summary:
 649:Generated_Source\PSoC4/adc.c **** *  Sets the channel saturation event mask.
 650:Generated_Source\PSoC4/adc.c **** *
 651:Generated_Source\PSoC4/adc.c **** * Parameters:
 652:Generated_Source\PSoC4/adc.c **** *  mask: Sets which channels that may cause a
 653:Generated_Source\PSoC4/adc.c **** *  saturation event interrupt. Setting bits for channels that do not exist
 654:Generated_Source\PSoC4/adc.c **** *  will have no effect. For example, if only 8 channels were enabled,
 655:Generated_Source\PSoC4/adc.c **** *  setting a mask of 0x01C0 would only enable two channels (6 and 7).
 656:Generated_Source\PSoC4/adc.c **** *
 657:Generated_Source\PSoC4/adc.c **** * Return:
 658:Generated_Source\PSoC4/adc.c **** *  None.
 659:Generated_Source\PSoC4/adc.c **** *
 660:Generated_Source\PSoC4/adc.c **** *******************************************************************************/
 661:Generated_Source\PSoC4/adc.c **** void adc_SetSatMask(uint32 mask)
 662:Generated_Source\PSoC4/adc.c **** {
 614              		.loc 1 662 0
 615              		.cfi_startproc
 616              		@ args = 0, pretend = 0, frame = 0
 617              		@ frame_needed = 0, uses_anonymous_args = 0
 618              		@ link register save eliminated.
 619              	.LVL36:
 663:Generated_Source\PSoC4/adc.c ****     adc_SAR_SATURATE_INTR_MASK_REG = mask & adc_MAX_CHANNELS_EN_MASK;
 620              		.loc 1 663 0
 621 0000 0123     		movs	r3, #1
 622 0002 1840     		ands	r0, r3
 623              	.LVL37:
 624 0004 014B     		ldr	r3, .L51
 625 0006 1860     		str	r0, [r3]
 664:Generated_Source\PSoC4/adc.c **** }
 626              		.loc 1 664 0
 627              		@ sp needed
 628 0008 7047     		bx	lr
 629              	.L52:
 630 000a C046     		.align	2
 631              	.L51:
 632 000c 28021A40 		.word	1075446312
 633              		.cfi_endproc
 634              	.LFE12:
 635              		.size	adc_SetSatMask, .-adc_SetSatMask
 636              		.section	.text.adc_SetOffset,"ax",%progbits
ARM GAS  C:\Users\Usuario\AppData\Local\Temp\ccz1TFQf.s 			page 24


 637              		.align	2
 638              		.global	adc_SetOffset
 639              		.code	16
 640              		.thumb_func
 641              		.type	adc_SetOffset, %function
 642              	adc_SetOffset:
 643              	.LFB13:
 665:Generated_Source\PSoC4/adc.c **** 
 666:Generated_Source\PSoC4/adc.c **** 
 667:Generated_Source\PSoC4/adc.c **** /*******************************************************************************
 668:Generated_Source\PSoC4/adc.c **** * Function Name: adc_SetOffset
 669:Generated_Source\PSoC4/adc.c **** ********************************************************************************
 670:Generated_Source\PSoC4/adc.c **** *
 671:Generated_Source\PSoC4/adc.c **** * Summary:
 672:Generated_Source\PSoC4/adc.c **** *   Description: Sets the ADC offset which is used by the functions
 673:Generated_Source\PSoC4/adc.c **** *   ADC_CountsTo_uVolts, ADC_CountsTo_mVolts and ADC_CountsTo_Volts
 674:Generated_Source\PSoC4/adc.c **** *   to substract the offset from the given reading
 675:Generated_Source\PSoC4/adc.c **** *   before calculating the voltage conversion.
 676:Generated_Source\PSoC4/adc.c **** *
 677:Generated_Source\PSoC4/adc.c **** * Parameters:
 678:Generated_Source\PSoC4/adc.c **** *  chan: ADC channel number.
 679:Generated_Source\PSoC4/adc.c **** *  offset: This value is a measured value when the
 680:Generated_Source\PSoC4/adc.c **** *          inputs are shorted or connected to the same input voltage.
 681:Generated_Source\PSoC4/adc.c **** *
 682:Generated_Source\PSoC4/adc.c **** * Return:
 683:Generated_Source\PSoC4/adc.c **** *  None.
 684:Generated_Source\PSoC4/adc.c **** *
 685:Generated_Source\PSoC4/adc.c **** * Global variables:
 686:Generated_Source\PSoC4/adc.c **** *  adc_Offset:  Modified to set the user provided offset.
 687:Generated_Source\PSoC4/adc.c **** *
 688:Generated_Source\PSoC4/adc.c **** *******************************************************************************/
 689:Generated_Source\PSoC4/adc.c **** void adc_SetOffset(uint32 chan, int16 offset)
 690:Generated_Source\PSoC4/adc.c **** {
 644              		.loc 1 690 0
 645              		.cfi_startproc
 646              		@ args = 0, pretend = 0, frame = 0
 647              		@ frame_needed = 0, uses_anonymous_args = 0
 648              	.LVL38:
 649 0000 70B5     		push	{r4, r5, r6, lr}
 650              		.cfi_def_cfa_offset 16
 651              		.cfi_offset 4, -16
 652              		.cfi_offset 5, -12
 653              		.cfi_offset 6, -8
 654              		.cfi_offset 14, -4
 655 0002 0400     		movs	r4, r0
 656 0004 0D00     		movs	r5, r1
 691:Generated_Source\PSoC4/adc.c ****     /* Halt CPU in debug mode if channel is out of valid range */
 692:Generated_Source\PSoC4/adc.c ****     CYASSERT(chan < adc_TOTAL_CHANNELS_NUM);
 657              		.loc 1 692 0
 658 0006 0028     		cmp	r0, #0
 659 0008 02D0     		beq	.L54
 660              		.loc 1 692 0 is_stmt 0 discriminator 1
 661 000a 0020     		movs	r0, #0
 662              	.LVL39:
 663 000c FFF7FEFF 		bl	CyHalt
 664              	.LVL40:
 665              	.L54:
ARM GAS  C:\Users\Usuario\AppData\Local\Temp\ccz1TFQf.s 			page 25


 693:Generated_Source\PSoC4/adc.c **** 
 694:Generated_Source\PSoC4/adc.c ****     adc_offset[chan] = offset;
 666              		.loc 1 694 0 is_stmt 1
 667 0010 6400     		lsls	r4, r4, #1
 668              	.LVL41:
 669 0012 014B     		ldr	r3, .L55
 670 0014 E552     		strh	r5, [r4, r3]
 695:Generated_Source\PSoC4/adc.c **** }
 671              		.loc 1 695 0
 672              		@ sp needed
 673 0016 70BD     		pop	{r4, r5, r6, pc}
 674              	.L56:
 675              		.align	2
 676              	.L55:
 677 0018 00000000 		.word	adc_offset
 678              		.cfi_endproc
 679              	.LFE13:
 680              		.size	adc_SetOffset, .-adc_SetOffset
 681              		.section	.text.adc_SetGain,"ax",%progbits
 682              		.align	2
 683              		.global	adc_SetGain
 684              		.code	16
 685              		.thumb_func
 686              		.type	adc_SetGain, %function
 687              	adc_SetGain:
 688              	.LFB14:
 696:Generated_Source\PSoC4/adc.c **** 
 697:Generated_Source\PSoC4/adc.c **** 
 698:Generated_Source\PSoC4/adc.c **** /*******************************************************************************
 699:Generated_Source\PSoC4/adc.c **** * Function Name: adc_SetGain
 700:Generated_Source\PSoC4/adc.c **** ********************************************************************************
 701:Generated_Source\PSoC4/adc.c **** *
 702:Generated_Source\PSoC4/adc.c **** * Summary:
 703:Generated_Source\PSoC4/adc.c **** *  Description: Sets the ADC gain in counts per 10 volt for the voltage
 704:Generated_Source\PSoC4/adc.c **** *  conversion functions below. This value is set by default by the
 705:Generated_Source\PSoC4/adc.c **** *  reference and input range settings. It should only be used to further
 706:Generated_Source\PSoC4/adc.c **** *  calibrate the ADC with a known input or if an external reference is
 707:Generated_Source\PSoC4/adc.c **** *  used. Affects the ADC_CountsTo_uVolts, ADC_CountsTo_mVolts
 708:Generated_Source\PSoC4/adc.c **** *  and ADC_CountsTo_Volts functions by supplying the correct
 709:Generated_Source\PSoC4/adc.c **** *  conversion between ADC counts and voltage.
 710:Generated_Source\PSoC4/adc.c **** *
 711:Generated_Source\PSoC4/adc.c **** * Parameters:
 712:Generated_Source\PSoC4/adc.c **** *  chan: ADC channel number.
 713:Generated_Source\PSoC4/adc.c **** *  adcGain: ADC gain in counts per 10 volts.
 714:Generated_Source\PSoC4/adc.c **** *
 715:Generated_Source\PSoC4/adc.c **** * Return:
 716:Generated_Source\PSoC4/adc.c **** *  None.
 717:Generated_Source\PSoC4/adc.c **** *
 718:Generated_Source\PSoC4/adc.c **** * Global variables:
 719:Generated_Source\PSoC4/adc.c **** *  adc_CountsPer10Volt:  modified to set the ADC gain in counts
 720:Generated_Source\PSoC4/adc.c **** *   per 10 volt.
 721:Generated_Source\PSoC4/adc.c **** *
 722:Generated_Source\PSoC4/adc.c **** *******************************************************************************/
 723:Generated_Source\PSoC4/adc.c **** void adc_SetGain(uint32 chan, int32 adcGain)
 724:Generated_Source\PSoC4/adc.c **** {
 689              		.loc 1 724 0
 690              		.cfi_startproc
ARM GAS  C:\Users\Usuario\AppData\Local\Temp\ccz1TFQf.s 			page 26


 691              		@ args = 0, pretend = 0, frame = 0
 692              		@ frame_needed = 0, uses_anonymous_args = 0
 693              	.LVL42:
 694 0000 70B5     		push	{r4, r5, r6, lr}
 695              		.cfi_def_cfa_offset 16
 696              		.cfi_offset 4, -16
 697              		.cfi_offset 5, -12
 698              		.cfi_offset 6, -8
 699              		.cfi_offset 14, -4
 700 0002 0400     		movs	r4, r0
 701 0004 0D00     		movs	r5, r1
 725:Generated_Source\PSoC4/adc.c ****     /* Halt CPU in debug mode if channel is out of valid range */
 726:Generated_Source\PSoC4/adc.c ****     CYASSERT(chan < adc_TOTAL_CHANNELS_NUM);
 702              		.loc 1 726 0
 703 0006 0028     		cmp	r0, #0
 704 0008 02D0     		beq	.L58
 705              		.loc 1 726 0 is_stmt 0 discriminator 1
 706 000a 0020     		movs	r0, #0
 707              	.LVL43:
 708 000c FFF7FEFF 		bl	CyHalt
 709              	.LVL44:
 710              	.L58:
 727:Generated_Source\PSoC4/adc.c **** 
 728:Generated_Source\PSoC4/adc.c ****     adc_countsPer10Volt[chan] = adcGain;
 711              		.loc 1 728 0 is_stmt 1
 712 0010 A400     		lsls	r4, r4, #2
 713              	.LVL45:
 714 0012 014B     		ldr	r3, .L59
 715 0014 E550     		str	r5, [r4, r3]
 729:Generated_Source\PSoC4/adc.c **** }
 716              		.loc 1 729 0
 717              		@ sp needed
 718              	.LVL46:
 719 0016 70BD     		pop	{r4, r5, r6, pc}
 720              	.L60:
 721              		.align	2
 722              	.L59:
 723 0018 00000000 		.word	adc_countsPer10Volt
 724              		.cfi_endproc
 725              	.LFE14:
 726              		.size	adc_SetGain, .-adc_SetGain
 727              		.global	__aeabi_idiv
 728              		.section	.text.adc_CountsTo_mVolts,"ax",%progbits
 729              		.align	2
 730              		.global	adc_CountsTo_mVolts
 731              		.code	16
 732              		.thumb_func
 733              		.type	adc_CountsTo_mVolts, %function
 734              	adc_CountsTo_mVolts:
 735              	.LFB15:
 730:Generated_Source\PSoC4/adc.c **** 
 731:Generated_Source\PSoC4/adc.c **** 
 732:Generated_Source\PSoC4/adc.c **** #if(adc_DEFAULT_JUSTIFICATION_SEL == adc__RIGHT)
 733:Generated_Source\PSoC4/adc.c **** 
 734:Generated_Source\PSoC4/adc.c **** 
 735:Generated_Source\PSoC4/adc.c ****     /*******************************************************************************
 736:Generated_Source\PSoC4/adc.c ****     * Function Name: adc_CountsTo_mVolts
ARM GAS  C:\Users\Usuario\AppData\Local\Temp\ccz1TFQf.s 			page 27


 737:Generated_Source\PSoC4/adc.c ****     ********************************************************************************
 738:Generated_Source\PSoC4/adc.c ****     *
 739:Generated_Source\PSoC4/adc.c ****     * Summary:
 740:Generated_Source\PSoC4/adc.c ****     *  This function converts ADC counts to mVolts
 741:Generated_Source\PSoC4/adc.c ****     *  This function is not available when left data format justification selected.
 742:Generated_Source\PSoC4/adc.c ****     *
 743:Generated_Source\PSoC4/adc.c ****     * Parameters:
 744:Generated_Source\PSoC4/adc.c ****     *  chan: The ADC channel number.
 745:Generated_Source\PSoC4/adc.c ****     *  adcCounts: Result from the ADC conversion
 746:Generated_Source\PSoC4/adc.c ****     *
 747:Generated_Source\PSoC4/adc.c ****     * Return:
 748:Generated_Source\PSoC4/adc.c ****     *  Results in mVolts
 749:Generated_Source\PSoC4/adc.c ****     *
 750:Generated_Source\PSoC4/adc.c ****     * Global variables:
 751:Generated_Source\PSoC4/adc.c ****     *  adc_countsPer10Volt:  used to convert ADC counts to mVolts.
 752:Generated_Source\PSoC4/adc.c ****     *  adc_Offset:  Used as the offset while converting ADC counts
 753:Generated_Source\PSoC4/adc.c ****     *   to mVolts.
 754:Generated_Source\PSoC4/adc.c ****     *
 755:Generated_Source\PSoC4/adc.c ****     *******************************************************************************/
 756:Generated_Source\PSoC4/adc.c ****     int16 adc_CountsTo_mVolts(uint32 chan, int16 adcCounts)
 757:Generated_Source\PSoC4/adc.c ****     {
 736              		.loc 1 757 0
 737              		.cfi_startproc
 738              		@ args = 0, pretend = 0, frame = 0
 739              		@ frame_needed = 0, uses_anonymous_args = 0
 740              	.LVL47:
 741 0000 70B5     		push	{r4, r5, r6, lr}
 742              		.cfi_def_cfa_offset 16
 743              		.cfi_offset 4, -16
 744              		.cfi_offset 5, -12
 745              		.cfi_offset 6, -8
 746              		.cfi_offset 14, -4
 747 0002 0400     		movs	r4, r0
 748 0004 0D00     		movs	r5, r1
 758:Generated_Source\PSoC4/adc.c ****         int16 mVolts;
 759:Generated_Source\PSoC4/adc.c **** 
 760:Generated_Source\PSoC4/adc.c ****         /* Halt CPU in debug mode if channel is out of valid range */
 761:Generated_Source\PSoC4/adc.c ****         CYASSERT(chan < adc_TOTAL_CHANNELS_NUM);
 749              		.loc 1 761 0
 750 0006 0028     		cmp	r0, #0
 751 0008 02D0     		beq	.L62
 752              		.loc 1 761 0 is_stmt 0 discriminator 1
 753 000a 0020     		movs	r0, #0
 754              	.LVL48:
 755 000c FFF7FEFF 		bl	CyHalt
 756              	.LVL49:
 757              	.L62:
 762:Generated_Source\PSoC4/adc.c **** 
 763:Generated_Source\PSoC4/adc.c ****         /* Divide the adcCount when accumulate averaging mode selected */
 764:Generated_Source\PSoC4/adc.c ****         #if(adc_DEFAULT_AVG_MODE == adc__ACCUMULATE)
 765:Generated_Source\PSoC4/adc.c ****             if((adc_channelsConfig[chan] & adc_AVERAGING_EN) != 0u)
 766:Generated_Source\PSoC4/adc.c ****             {
 767:Generated_Source\PSoC4/adc.c ****                 adcCounts /= adc_DEFAULT_AVG_SAMPLES_DIV;
 768:Generated_Source\PSoC4/adc.c ****             }
 769:Generated_Source\PSoC4/adc.c ****         #endif /* adc_DEFAULT_AVG_MODE == adc__ACCUMULATE */
 770:Generated_Source\PSoC4/adc.c **** 
 771:Generated_Source\PSoC4/adc.c ****         /* Subtract ADC offset */
ARM GAS  C:\Users\Usuario\AppData\Local\Temp\ccz1TFQf.s 			page 28


 772:Generated_Source\PSoC4/adc.c ****         adcCounts -= adc_offset[chan];
 758              		.loc 1 772 0 is_stmt 1
 759 0010 6300     		lsls	r3, r4, #1
 760 0012 0F4A     		ldr	r2, .L65
 761 0014 995A     		ldrh	r1, [r3, r2]
 762 0016 09B2     		sxth	r1, r1
 763 0018 691A     		subs	r1, r5, r1
 764 001a 09B2     		sxth	r1, r1
 765              	.LVL50:
 773:Generated_Source\PSoC4/adc.c **** 
 774:Generated_Source\PSoC4/adc.c ****         mVolts = (int16)((((int32)adcCounts * adc_10MV_COUNTS) + ( (adcCounts > 0) ?
 766              		.loc 1 774 0
 767 001c 0D48     		ldr	r0, .L65+4
 768 001e 4843     		muls	r0, r1
 775:Generated_Source\PSoC4/adc.c ****                  (adc_countsPer10Volt[chan] / 2) : (-(adc_countsPer10Volt[chan] / 2)) ))
 769              		.loc 1 775 0
 770 0020 0029     		cmp	r1, #0
 771 0022 06DD     		ble	.L63
 772              		.loc 1 775 0 is_stmt 0 discriminator 1
 773 0024 A300     		lsls	r3, r4, #2
 774 0026 0C4A     		ldr	r2, .L65+8
 775 0028 9A58     		ldr	r2, [r3, r2]
 776 002a D30F     		lsrs	r3, r2, #31
 777 002c 9A18     		adds	r2, r3, r2
 778 002e 5310     		asrs	r3, r2, #1
 779 0030 06E0     		b	.L64
 780              	.L63:
 781              		.loc 1 775 0 discriminator 2
 782 0032 A300     		lsls	r3, r4, #2
 783 0034 084A     		ldr	r2, .L65+8
 784 0036 9A58     		ldr	r2, [r3, r2]
 785 0038 D30F     		lsrs	r3, r2, #31
 786 003a 9A18     		adds	r2, r3, r2
 787 003c 5210     		asrs	r2, r2, #1
 788 003e 5342     		rsbs	r3, r2, #0
 789              	.L64:
 774:Generated_Source\PSoC4/adc.c ****                  (adc_countsPer10Volt[chan] / 2) : (-(adc_countsPer10Volt[chan] / 2)) ))
 790              		.loc 1 774 0 is_stmt 1
 791 0040 1818     		adds	r0, r3, r0
 776:Generated_Source\PSoC4/adc.c ****                  / adc_countsPer10Volt[chan]);
 792              		.loc 1 776 0
 793 0042 A400     		lsls	r4, r4, #2
 794              	.LVL51:
 795 0044 044B     		ldr	r3, .L65+8
 796 0046 E158     		ldr	r1, [r4, r3]
 797              	.LVL52:
 798 0048 FFF7FEFF 		bl	__aeabi_idiv
 799              	.LVL53:
 774:Generated_Source\PSoC4/adc.c ****                  (adc_countsPer10Volt[chan] / 2) : (-(adc_countsPer10Volt[chan] / 2)) ))
 800              		.loc 1 774 0
 801 004c 00B2     		sxth	r0, r0
 802              	.LVL54:
 777:Generated_Source\PSoC4/adc.c **** 
 778:Generated_Source\PSoC4/adc.c ****         return( mVolts );
 779:Generated_Source\PSoC4/adc.c ****     }
 803              		.loc 1 779 0
 804              		@ sp needed
ARM GAS  C:\Users\Usuario\AppData\Local\Temp\ccz1TFQf.s 			page 29


 805 004e 70BD     		pop	{r4, r5, r6, pc}
 806              	.L66:
 807              		.align	2
 808              	.L65:
 809 0050 00000000 		.word	adc_offset
 810 0054 10270000 		.word	10000
 811 0058 00000000 		.word	adc_countsPer10Volt
 812              		.cfi_endproc
 813              	.LFE15:
 814              		.size	adc_CountsTo_mVolts, .-adc_CountsTo_mVolts
 815              		.global	__aeabi_lmul
 816              		.global	__aeabi_ldivmod
 817              		.section	.text.adc_CountsTo_uVolts,"ax",%progbits
 818              		.align	2
 819              		.global	adc_CountsTo_uVolts
 820              		.code	16
 821              		.thumb_func
 822              		.type	adc_CountsTo_uVolts, %function
 823              	adc_CountsTo_uVolts:
 824              	.LFB16:
 780:Generated_Source\PSoC4/adc.c **** 
 781:Generated_Source\PSoC4/adc.c **** 
 782:Generated_Source\PSoC4/adc.c ****     /*******************************************************************************
 783:Generated_Source\PSoC4/adc.c ****     * Function Name: adc_CountsTo_uVolts
 784:Generated_Source\PSoC4/adc.c ****     ********************************************************************************
 785:Generated_Source\PSoC4/adc.c ****     *
 786:Generated_Source\PSoC4/adc.c ****     * Summary:
 787:Generated_Source\PSoC4/adc.c ****     *  This function converts ADC counts to micro Volts
 788:Generated_Source\PSoC4/adc.c ****     *  This function is not available when left data format justification selected.
 789:Generated_Source\PSoC4/adc.c ****     *
 790:Generated_Source\PSoC4/adc.c ****     * Parameters:
 791:Generated_Source\PSoC4/adc.c ****     *  chan: The ADC channel number.
 792:Generated_Source\PSoC4/adc.c ****     *  adcCounts: Result from the ADC conversion
 793:Generated_Source\PSoC4/adc.c ****     *
 794:Generated_Source\PSoC4/adc.c ****     * Return:
 795:Generated_Source\PSoC4/adc.c ****     *  Results in uVolts
 796:Generated_Source\PSoC4/adc.c ****     *
 797:Generated_Source\PSoC4/adc.c ****     * Global variables:
 798:Generated_Source\PSoC4/adc.c ****     *  adc_countsPer10Volt:  used to convert ADC counts to uVolts.
 799:Generated_Source\PSoC4/adc.c ****     *  adc_Offset:  Used as the offset while converting ADC counts
 800:Generated_Source\PSoC4/adc.c ****     *   to mVolts.
 801:Generated_Source\PSoC4/adc.c ****     *
 802:Generated_Source\PSoC4/adc.c ****     * Theory:
 803:Generated_Source\PSoC4/adc.c ****     *  Care must be taken to not exceed the maximum value for a 31 bit signed
 804:Generated_Source\PSoC4/adc.c ****     *  number in the conversion to uVolts and at the same time not loose
 805:Generated_Source\PSoC4/adc.c ****     *  resolution.
 806:Generated_Source\PSoC4/adc.c ****     *  To convert adcCounts to microVolts it is required to be multiplied
 807:Generated_Source\PSoC4/adc.c ****     *  on 10 million and later divide on gain in counts per 10V.
 808:Generated_Source\PSoC4/adc.c ****     *
 809:Generated_Source\PSoC4/adc.c ****     *******************************************************************************/
 810:Generated_Source\PSoC4/adc.c ****     int32 adc_CountsTo_uVolts(uint32 chan, int16 adcCounts)
 811:Generated_Source\PSoC4/adc.c ****     {
 825              		.loc 1 811 0
 826              		.cfi_startproc
 827              		@ args = 0, pretend = 0, frame = 0
 828              		@ frame_needed = 0, uses_anonymous_args = 0
 829              	.LVL55:
ARM GAS  C:\Users\Usuario\AppData\Local\Temp\ccz1TFQf.s 			page 30


 830 0000 70B5     		push	{r4, r5, r6, lr}
 831              		.cfi_def_cfa_offset 16
 832              		.cfi_offset 4, -16
 833              		.cfi_offset 5, -12
 834              		.cfi_offset 6, -8
 835              		.cfi_offset 14, -4
 836 0002 0500     		movs	r5, r0
 837 0004 0C00     		movs	r4, r1
 812:Generated_Source\PSoC4/adc.c ****         int64 uVolts;
 813:Generated_Source\PSoC4/adc.c **** 
 814:Generated_Source\PSoC4/adc.c ****         /* Halt CPU in debug mode if channel is out of valid range */
 815:Generated_Source\PSoC4/adc.c ****         CYASSERT(chan < adc_TOTAL_CHANNELS_NUM);
 838              		.loc 1 815 0
 839 0006 0028     		cmp	r0, #0
 840 0008 02D0     		beq	.L68
 841              		.loc 1 815 0 is_stmt 0 discriminator 1
 842 000a 0020     		movs	r0, #0
 843              	.LVL56:
 844 000c FFF7FEFF 		bl	CyHalt
 845              	.LVL57:
 846              	.L68:
 816:Generated_Source\PSoC4/adc.c **** 
 817:Generated_Source\PSoC4/adc.c ****         /* Divide the adcCount when accumulate averaging mode selected */
 818:Generated_Source\PSoC4/adc.c ****         #if(adc_DEFAULT_AVG_MODE == adc__ACCUMULATE)
 819:Generated_Source\PSoC4/adc.c ****             if((adc_channelsConfig[chan] & adc_AVERAGING_EN) != 0u)
 820:Generated_Source\PSoC4/adc.c ****             {
 821:Generated_Source\PSoC4/adc.c ****                 adcCounts /= adc_DEFAULT_AVG_SAMPLES_DIV;
 822:Generated_Source\PSoC4/adc.c ****             }
 823:Generated_Source\PSoC4/adc.c ****         #endif /* adc_DEFAULT_AVG_MODE == adc__ACCUMULATE */
 824:Generated_Source\PSoC4/adc.c **** 
 825:Generated_Source\PSoC4/adc.c ****         /* Subtract ADC offset */
 826:Generated_Source\PSoC4/adc.c ****         adcCounts -= adc_offset[chan];
 847              		.loc 1 826 0 is_stmt 1
 848 0010 6A00     		lsls	r2, r5, #1
 849 0012 084B     		ldr	r3, .L69
 850 0014 D05A     		ldrh	r0, [r2, r3]
 851 0016 00B2     		sxth	r0, r0
 852 0018 201A     		subs	r0, r4, r0
 853 001a 00B2     		sxth	r0, r0
 854              	.LVL58:
 827:Generated_Source\PSoC4/adc.c **** 
 828:Generated_Source\PSoC4/adc.c ****         uVolts = ((int64)adcCounts * adc_10UV_COUNTS) / adc_countsPer10Volt[chan];
 855              		.loc 1 828 0
 856 001c C117     		asrs	r1, r0, #31
 857 001e 064A     		ldr	r2, .L69+4
 858 0020 0023     		movs	r3, #0
 859 0022 FFF7FEFF 		bl	__aeabi_lmul
 860              	.LVL59:
 861 0026 AD00     		lsls	r5, r5, #2
 862              	.LVL60:
 863 0028 044B     		ldr	r3, .L69+8
 864 002a EA58     		ldr	r2, [r5, r3]
 865 002c D317     		asrs	r3, r2, #31
 866 002e FFF7FEFF 		bl	__aeabi_ldivmod
 867              	.LVL61:
 829:Generated_Source\PSoC4/adc.c **** 
 830:Generated_Source\PSoC4/adc.c ****         return( (int32)uVolts );
ARM GAS  C:\Users\Usuario\AppData\Local\Temp\ccz1TFQf.s 			page 31


 831:Generated_Source\PSoC4/adc.c ****     }
 868              		.loc 1 831 0
 869              		@ sp needed
 870 0032 70BD     		pop	{r4, r5, r6, pc}
 871              	.L70:
 872              		.align	2
 873              	.L69:
 874 0034 00000000 		.word	adc_offset
 875 0038 80969800 		.word	10000000
 876 003c 00000000 		.word	adc_countsPer10Volt
 877              		.cfi_endproc
 878              	.LFE16:
 879              		.size	adc_CountsTo_uVolts, .-adc_CountsTo_uVolts
 880              		.global	__aeabi_i2f
 881              		.global	__aeabi_fmul
 882              		.global	__aeabi_fdiv
 883              		.section	.text.adc_CountsTo_Volts,"ax",%progbits
 884              		.align	2
 885              		.global	adc_CountsTo_Volts
 886              		.code	16
 887              		.thumb_func
 888              		.type	adc_CountsTo_Volts, %function
 889              	adc_CountsTo_Volts:
 890              	.LFB17:
 832:Generated_Source\PSoC4/adc.c **** 
 833:Generated_Source\PSoC4/adc.c **** 
 834:Generated_Source\PSoC4/adc.c ****     /*******************************************************************************
 835:Generated_Source\PSoC4/adc.c ****     * Function Name: adc_CountsTo_Volts
 836:Generated_Source\PSoC4/adc.c ****     ********************************************************************************
 837:Generated_Source\PSoC4/adc.c ****     *
 838:Generated_Source\PSoC4/adc.c ****     * Summary:
 839:Generated_Source\PSoC4/adc.c ****     *  Converts the ADC output to Volts as a floating point number.
 840:Generated_Source\PSoC4/adc.c ****     *  This function is not available when left data format justification selected.
 841:Generated_Source\PSoC4/adc.c ****     *
 842:Generated_Source\PSoC4/adc.c ****     * Parameters:
 843:Generated_Source\PSoC4/adc.c ****     *  chan: The ADC channel number.
 844:Generated_Source\PSoC4/adc.c ****     *  Result from the ADC conversion
 845:Generated_Source\PSoC4/adc.c ****     *
 846:Generated_Source\PSoC4/adc.c ****     * Return:
 847:Generated_Source\PSoC4/adc.c ****     *  Results in Volts
 848:Generated_Source\PSoC4/adc.c ****     *
 849:Generated_Source\PSoC4/adc.c ****     * Global variables:
 850:Generated_Source\PSoC4/adc.c ****     *  adc_countsPer10Volt:  used to convert ADC counts to Volts.
 851:Generated_Source\PSoC4/adc.c ****     *  adc_Offset:  Used as the offset while converting ADC counts
 852:Generated_Source\PSoC4/adc.c ****     *   to mVolts.
 853:Generated_Source\PSoC4/adc.c ****     *
 854:Generated_Source\PSoC4/adc.c ****     *******************************************************************************/
 855:Generated_Source\PSoC4/adc.c ****     float32 adc_CountsTo_Volts(uint32 chan, int16 adcCounts)
 856:Generated_Source\PSoC4/adc.c ****     {
 891              		.loc 1 856 0
 892              		.cfi_startproc
 893              		@ args = 0, pretend = 0, frame = 0
 894              		@ frame_needed = 0, uses_anonymous_args = 0
 895              	.LVL62:
 896 0000 70B5     		push	{r4, r5, r6, lr}
 897              		.cfi_def_cfa_offset 16
 898              		.cfi_offset 4, -16
ARM GAS  C:\Users\Usuario\AppData\Local\Temp\ccz1TFQf.s 			page 32


 899              		.cfi_offset 5, -12
 900              		.cfi_offset 6, -8
 901              		.cfi_offset 14, -4
 902 0002 0400     		movs	r4, r0
 903 0004 0D00     		movs	r5, r1
 857:Generated_Source\PSoC4/adc.c ****         float32 volts;
 858:Generated_Source\PSoC4/adc.c **** 
 859:Generated_Source\PSoC4/adc.c ****         /* Halt CPU in debug mode if channel is out of valid range */
 860:Generated_Source\PSoC4/adc.c ****         CYASSERT(chan < adc_TOTAL_CHANNELS_NUM);
 904              		.loc 1 860 0
 905 0006 0028     		cmp	r0, #0
 906 0008 02D0     		beq	.L72
 907              		.loc 1 860 0 is_stmt 0 discriminator 1
 908 000a 0020     		movs	r0, #0
 909              	.LVL63:
 910 000c FFF7FEFF 		bl	CyHalt
 911              	.LVL64:
 912              	.L72:
 861:Generated_Source\PSoC4/adc.c **** 
 862:Generated_Source\PSoC4/adc.c ****         /* Divide the adcCount when accumulate averaging mode selected */
 863:Generated_Source\PSoC4/adc.c ****         #if(adc_DEFAULT_AVG_MODE == adc__ACCUMULATE)
 864:Generated_Source\PSoC4/adc.c ****             if((adc_channelsConfig[chan] & adc_AVERAGING_EN) != 0u)
 865:Generated_Source\PSoC4/adc.c ****             {
 866:Generated_Source\PSoC4/adc.c ****                 adcCounts /= adc_DEFAULT_AVG_SAMPLES_DIV;
 867:Generated_Source\PSoC4/adc.c ****             }
 868:Generated_Source\PSoC4/adc.c ****         #endif /* adc_DEFAULT_AVG_MODE == adc__ACCUMULATE */
 869:Generated_Source\PSoC4/adc.c **** 
 870:Generated_Source\PSoC4/adc.c ****         /* Subtract ADC offset */
 871:Generated_Source\PSoC4/adc.c ****         adcCounts -= adc_offset[chan];
 913              		.loc 1 871 0 is_stmt 1
 914 0010 6200     		lsls	r2, r4, #1
 915 0012 0A4B     		ldr	r3, .L73
 916 0014 D05A     		ldrh	r0, [r2, r3]
 917 0016 00B2     		sxth	r0, r0
 918 0018 281A     		subs	r0, r5, r0
 919 001a 00B2     		sxth	r0, r0
 920              	.LVL65:
 872:Generated_Source\PSoC4/adc.c **** 
 873:Generated_Source\PSoC4/adc.c ****         volts = ((float32)adcCounts * adc_10V_COUNTS) / (float32)adc_countsPer10Volt[chan];
 921              		.loc 1 873 0
 922 001c FFF7FEFF 		bl	__aeabi_i2f
 923              	.LVL66:
 924 0020 0749     		ldr	r1, .L73+4
 925 0022 FFF7FEFF 		bl	__aeabi_fmul
 926              	.LVL67:
 927 0026 051C     		adds	r5, r0, #0
 928 0028 A400     		lsls	r4, r4, #2
 929              	.LVL68:
 930 002a 064B     		ldr	r3, .L73+8
 931 002c E058     		ldr	r0, [r4, r3]
 932 002e FFF7FEFF 		bl	__aeabi_i2f
 933              	.LVL69:
 934 0032 011C     		adds	r1, r0, #0
 935 0034 281C     		adds	r0, r5, #0
 936 0036 FFF7FEFF 		bl	__aeabi_fdiv
 937              	.LVL70:
 874:Generated_Source\PSoC4/adc.c **** 
ARM GAS  C:\Users\Usuario\AppData\Local\Temp\ccz1TFQf.s 			page 33


 875:Generated_Source\PSoC4/adc.c ****         return( volts );
 876:Generated_Source\PSoC4/adc.c ****     }
 938              		.loc 1 876 0
 939              		@ sp needed
 940 003a 70BD     		pop	{r4, r5, r6, pc}
 941              	.L74:
 942              		.align	2
 943              	.L73:
 944 003c 00000000 		.word	adc_offset
 945 0040 00002041 		.word	1092616192
 946 0044 00000000 		.word	adc_countsPer10Volt
 947              		.cfi_endproc
 948              	.LFE17:
 949              		.size	adc_CountsTo_Volts, .-adc_CountsTo_Volts
 950              		.comm	adc_countsPer10Volt,4,4
 951              		.comm	adc_offset,2,4
 952              		.global	adc_initVar
 953              		.bss
 954              		.set	.LANCHOR0,. + 0
 955              		.type	adc_initVar, %object
 956              		.size	adc_initVar, 1
 957              	adc_initVar:
 958 0000 00       		.space	1
 959              		.text
 960              	.Letext0:
 961              		.file 2 "Generated_Source\\PSoC4\\cytypes.h"
 962              		.file 3 "Generated_Source\\PSoC4\\CyLib.h"