ARM GAS  C:\Users\Usuario\AppData\Local\Temp\ccWvF59u.s 			page 1


   1              		.syntax unified
   2              		.cpu cortex-m0
   3              		.fpu softvfp
   4              		.eabi_attribute 20, 1
   5              		.eabi_attribute 21, 1
   6              		.eabi_attribute 23, 3
   7              		.eabi_attribute 24, 1
   8              		.eabi_attribute 25, 1
   9              		.eabi_attribute 26, 1
  10              		.eabi_attribute 30, 1
  11              		.eabi_attribute 34, 0
  12              		.eabi_attribute 18, 4
  13              		.thumb
  14              		.syntax unified
  15              		.file	"bootloadable.c"
  16              		.text
  17              	.Ltext0:
  18              		.cfi_sections	.debug_frame
  19              		.section	.text.bootloadable_Load,"ax",%progbits
  20              		.align	2
  21              		.global	bootloadable_Load
  22              		.code	16
  23              		.thumb_func
  24              		.type	bootloadable_Load, %function
  25              	bootloadable_Load:
  26              	.LFB0:
  27              		.file 1 "Generated_Source\\PSoC4\\bootloadable.c"
   1:Generated_Source\PSoC4/bootloadable.c **** /****************************************************************************//**
   2:Generated_Source\PSoC4/bootloadable.c **** * \file bootloadable.c
   3:Generated_Source\PSoC4/bootloadable.c **** * \version 1.60
   4:Generated_Source\PSoC4/bootloadable.c **** *
   5:Generated_Source\PSoC4/bootloadable.c **** * \brief
   6:Generated_Source\PSoC4/bootloadable.c **** *   Provides an API for the Bootloadable application.
   7:Generated_Source\PSoC4/bootloadable.c **** *
   8:Generated_Source\PSoC4/bootloadable.c **** ********************************************************************************
   9:Generated_Source\PSoC4/bootloadable.c **** * \copyright
  10:Generated_Source\PSoC4/bootloadable.c **** * Copyright 2008-2015, Cypress Semiconductor Corporation.  All rights reserved.
  11:Generated_Source\PSoC4/bootloadable.c **** * You may use this file only in accordance with the license, terms, conditions,
  12:Generated_Source\PSoC4/bootloadable.c **** * disclaimers, and limitations in the end user license agreement accompanying
  13:Generated_Source\PSoC4/bootloadable.c **** * the software package with which this file was provided.
  14:Generated_Source\PSoC4/bootloadable.c **** *******************************************************************************/
  15:Generated_Source\PSoC4/bootloadable.c **** 
  16:Generated_Source\PSoC4/bootloadable.c **** #include "bootloadable.h"
  17:Generated_Source\PSoC4/bootloadable.c **** 
  18:Generated_Source\PSoC4/bootloadable.c **** /**
  19:Generated_Source\PSoC4/bootloadable.c ****  \defgroup functions_group Functions
  20:Generated_Source\PSoC4/bootloadable.c ****  @{
  21:Generated_Source\PSoC4/bootloadable.c **** */
  22:Generated_Source\PSoC4/bootloadable.c **** 
  23:Generated_Source\PSoC4/bootloadable.c **** #if (CYDEV_PROJ_TYPE == CYDEV_PROJ_TYPE_LOADABLEANDBOOTLOADER)
  24:Generated_Source\PSoC4/bootloadable.c **** static cystatus bootloadable_WriteFlashByte(const uint32 address, const uint8 inputValue) CYLARGE \
  25:Generated_Source\PSoC4/bootloadable.c ****                                ;
  26:Generated_Source\PSoC4/bootloadable.c **** #endif /*(CYDEV_PROJ_TYPE == CYDEV_PROJ_TYPE_LOADABLEANDBOOTLOADER)*/
  27:Generated_Source\PSoC4/bootloadable.c **** 
  28:Generated_Source\PSoC4/bootloadable.c **** /*******************************************************************************
  29:Generated_Source\PSoC4/bootloadable.c **** * Function Name: bootloadable_Load
  30:Generated_Source\PSoC4/bootloadable.c **** ****************************************************************************//**
ARM GAS  C:\Users\Usuario\AppData\Local\Temp\ccWvF59u.s 			page 2


  31:Generated_Source\PSoC4/bootloadable.c **** *
  32:Generated_Source\PSoC4/bootloadable.c **** * \brief
  33:Generated_Source\PSoC4/bootloadable.c **** *  Schedules the Bootloader/Launcher to be launched and then performs
  34:Generated_Source\PSoC4/bootloadable.c **** *  a software reset to launch it
  35:Generated_Source\PSoC4/bootloadable.c **** *
  36:Generated_Source\PSoC4/bootloadable.c **** * \return
  37:Generated_Source\PSoC4/bootloadable.c **** *  This method will never return. It will load a new application and reset
  38:Generated_Source\PSoC4/bootloadable.c **** *  the device.
  39:Generated_Source\PSoC4/bootloadable.c **** *
  40:Generated_Source\PSoC4/bootloadable.c **** *******************************************************************************/
  41:Generated_Source\PSoC4/bootloadable.c **** void bootloadable_Load(void) 
  42:Generated_Source\PSoC4/bootloadable.c **** {
  28              		.loc 1 42 0
  29              		.cfi_startproc
  30              		@ args = 0, pretend = 0, frame = 0
  31              		@ frame_needed = 0, uses_anonymous_args = 0
  32 0000 10B5     		push	{r4, lr}
  33              		.cfi_def_cfa_offset 8
  34              		.cfi_offset 4, -8
  35              		.cfi_offset 14, -4
  43:Generated_Source\PSoC4/bootloadable.c ****     /* Schedule Bootloader to start after reset */
  44:Generated_Source\PSoC4/bootloadable.c ****     bootloadable_SET_RUN_TYPE(bootloadable_SCHEDULE_BTLDR);
  36              		.loc 1 44 0
  37 0002 4022     		movs	r2, #64
  38 0004 024B     		ldr	r3, .L2
  39 0006 1A60     		str	r2, [r3]
  45:Generated_Source\PSoC4/bootloadable.c **** 
  46:Generated_Source\PSoC4/bootloadable.c ****     CySoftwareReset();
  40              		.loc 1 46 0
  41 0008 FFF7FEFF 		bl	CySoftwareReset
  42              	.LVL0:
  47:Generated_Source\PSoC4/bootloadable.c **** }
  43              		.loc 1 47 0
  44              		@ sp needed
  45 000c 10BD     		pop	{r4, pc}
  46              	.L3:
  47 000e C046     		.align	2
  48              	.L2:
  49 0010 00000000 		.word	cyBtldrRunType
  50              		.cfi_endproc
  51              	.LFE0:
  52              		.size	bootloadable_Load, .-bootloadable_Load
  53              		.section	.text.bootloadable_SetFlashByte,"ax",%progbits
  54              		.align	2
  55              		.global	bootloadable_SetFlashByte
  56              		.code	16
  57              		.thumb_func
  58              		.type	bootloadable_SetFlashByte, %function
  59              	bootloadable_SetFlashByte:
  60              	.LFB1:
  48:Generated_Source\PSoC4/bootloadable.c **** 
  49:Generated_Source\PSoC4/bootloadable.c **** #if (CYDEV_PROJ_TYPE == CYDEV_PROJ_TYPE_LOADABLEANDBOOTLOADER)
  50:Generated_Source\PSoC4/bootloadable.c **** /*******************************************************************************
  51:Generated_Source\PSoC4/bootloadable.c **** * Function Name: bootloadable_GetActiveApplication
  52:Generated_Source\PSoC4/bootloadable.c **** ****************************************************************************//**
  53:Generated_Source\PSoC4/bootloadable.c **** *
  54:Generated_Source\PSoC4/bootloadable.c **** * \brief
ARM GAS  C:\Users\Usuario\AppData\Local\Temp\ccWvF59u.s 			page 3


  55:Generated_Source\PSoC4/bootloadable.c **** *   Gets the application which will be loaded after a next reset event.
  56:Generated_Source\PSoC4/bootloadable.c **** *   NOTE Intended for the combination project type ONLY!
  57:Generated_Source\PSoC4/bootloadable.c **** *
  58:Generated_Source\PSoC4/bootloadable.c **** * \return 
  59:Generated_Source\PSoC4/bootloadable.c **** *  A number of the current active application set in the metadata section.
  60:Generated_Source\PSoC4/bootloadable.c **** *  \n  0 - app#0 is set as active.
  61:Generated_Source\PSoC4/bootloadable.c **** *  \n  1 - app#1 is set as active.
  62:Generated_Source\PSoC4/bootloadable.c **** *
  63:Generated_Source\PSoC4/bootloadable.c **** * \note If neither of the applications is set active, then the API returns 0x02.
  64:Generated_Source\PSoC4/bootloadable.c **** *
  65:Generated_Source\PSoC4/bootloadable.c **** *******************************************************************************/
  66:Generated_Source\PSoC4/bootloadable.c **** uint8 bootloadable_GetActiveApplication(void) CYSMALL \
  67:Generated_Source\PSoC4/bootloadable.c ****                           
  68:Generated_Source\PSoC4/bootloadable.c **** {   
  69:Generated_Source\PSoC4/bootloadable.c ****     uint8 result = bootloadable_MD_BTLDB_ACTIVE_NONE;
  70:Generated_Source\PSoC4/bootloadable.c ****     
  71:Generated_Source\PSoC4/bootloadable.c ****     if (0u != bootloadable_GET_CODE_DATA( \
  72:Generated_Source\PSoC4/bootloadable.c ****               bootloadable_MD_BTLDB_ACTIVE_OFFSET(bootloadable_MD_BTLDB_ACTIVE_0))) 
  73:Generated_Source\PSoC4/bootloadable.c ****     {
  74:Generated_Source\PSoC4/bootloadable.c ****         result = bootloadable_MD_BTLDB_ACTIVE_0;
  75:Generated_Source\PSoC4/bootloadable.c ****     }
  76:Generated_Source\PSoC4/bootloadable.c ****     else if (0u != bootloadable_GET_CODE_DATA( \
  77:Generated_Source\PSoC4/bootloadable.c ****                    bootloadable_MD_BTLDB_ACTIVE_OFFSET(bootloadable_MD_BTLDB_ACTIVE_1)))
  78:Generated_Source\PSoC4/bootloadable.c ****     {
  79:Generated_Source\PSoC4/bootloadable.c ****         result = bootloadable_MD_BTLDB_ACTIVE_1;    
  80:Generated_Source\PSoC4/bootloadable.c ****     }
  81:Generated_Source\PSoC4/bootloadable.c ****     else
  82:Generated_Source\PSoC4/bootloadable.c ****     {
  83:Generated_Source\PSoC4/bootloadable.c ****         /*Do nothing, result is none*/
  84:Generated_Source\PSoC4/bootloadable.c ****     }
  85:Generated_Source\PSoC4/bootloadable.c ****     
  86:Generated_Source\PSoC4/bootloadable.c ****     return (result);
  87:Generated_Source\PSoC4/bootloadable.c **** }
  88:Generated_Source\PSoC4/bootloadable.c **** 
  89:Generated_Source\PSoC4/bootloadable.c **** /*******************************************************************************
  90:Generated_Source\PSoC4/bootloadable.c **** * Function Name: bootloadable_SetActiveApplication
  91:Generated_Source\PSoC4/bootloadable.c **** ****************************************************************************//**
  92:Generated_Source\PSoC4/bootloadable.c **** *
  93:Generated_Source\PSoC4/bootloadable.c **** * \brief 
  94:Generated_Source\PSoC4/bootloadable.c **** *   Sets the application which will be loaded after a next reset event.          
  95:Generated_Source\PSoC4/bootloadable.c **** *   
  96:Generated_Source\PSoC4/bootloadable.c **** * \details
  97:Generated_Source\PSoC4/bootloadable.c **** * Theory: 
  98:Generated_Source\PSoC4/bootloadable.c **** *   This API sets in the Flash (metadata section) the given active application 
  99:Generated_Source\PSoC4/bootloadable.c **** *   number.
 100:Generated_Source\PSoC4/bootloadable.c **** *          
 101:Generated_Source\PSoC4/bootloadable.c **** *   NOTE The active application number is not set directly, but the boolean 
 102:Generated_Source\PSoC4/bootloadable.c **** *   mark instead means that the application is active or not for the relative 
 103:Generated_Source\PSoC4/bootloadable.c **** *   metadata. Both metadata sections are updated. For example, if the second 
 104:Generated_Source\PSoC4/bootloadable.c **** *   application is to be set active, then in the metadata section for the first 
 105:Generated_Source\PSoC4/bootloadable.c **** *   application there will be a "0" written, which means that it is not active, and 
 106:Generated_Source\PSoC4/bootloadable.c **** *   for the second metadata section there will be a "1" written, which means that it is 
 107:Generated_Source\PSoC4/bootloadable.c **** *   active. 
 108:Generated_Source\PSoC4/bootloadable.c **** *
 109:Generated_Source\PSoC4/bootloadable.c **** *   NOTE Intended for the combination project type ONLY!
 110:Generated_Source\PSoC4/bootloadable.c **** *
 111:Generated_Source\PSoC4/bootloadable.c **** * \param appId  
ARM GAS  C:\Users\Usuario\AppData\Local\Temp\ccWvF59u.s 			page 4


 112:Generated_Source\PSoC4/bootloadable.c **** *   The active application number to be written to flash (metadata section) 
 113:Generated_Source\PSoC4/bootloadable.c **** *   NOTE Possible values are:
 114:Generated_Source\PSoC4/bootloadable.c **** *   0 - for the first application
 115:Generated_Source\PSoC4/bootloadable.c **** *   1 - for the second application.
 116:Generated_Source\PSoC4/bootloadable.c **** *   Any other number is considered invalid. 
 117:Generated_Source\PSoC4/bootloadable.c **** *
 118:Generated_Source\PSoC4/bootloadable.c **** * \return 
 119:Generated_Source\PSoC4/bootloadable.c **** *   A status of writing to flash operation.
 120:Generated_Source\PSoC4/bootloadable.c **** *   \n CYRET_SUCCESS - Returned if appId was successfully changed. 
 121:Generated_Source\PSoC4/bootloadable.c **** *   \n CYRET_BAD_PARAM - Returned if the parameter appID passed to the function has the 
 122:Generated_Source\PSoC4/bootloadable.c **** *                       same value as the active application ID. 
 123:Generated_Source\PSoC4/bootloadable.c **** *   \note - The other non-zero value is considered as a failure during writing to flash.  
 124:Generated_Source\PSoC4/bootloadable.c **** *
 125:Generated_Source\PSoC4/bootloadable.c **** *   \note - This API does not update Bootloader_activeApp variable.
 126:Generated_Source\PSoC4/bootloadable.c **** *
 127:Generated_Source\PSoC4/bootloadable.c **** *******************************************************************************/
 128:Generated_Source\PSoC4/bootloadable.c **** cystatus bootloadable_SetActiveApplication(uint8 appId) CYSMALL \
 129:Generated_Source\PSoC4/bootloadable.c ****                 
 130:Generated_Source\PSoC4/bootloadable.c **** {
 131:Generated_Source\PSoC4/bootloadable.c ****     cystatus result = CYRET_SUCCESS;
 132:Generated_Source\PSoC4/bootloadable.c **** 
 133:Generated_Source\PSoC4/bootloadable.c ****     uint8 CYDATA idx;
 134:Generated_Source\PSoC4/bootloadable.c ****     
 135:Generated_Source\PSoC4/bootloadable.c ****     /* If invalid application number */
 136:Generated_Source\PSoC4/bootloadable.c ****     if (appId > bootloadable_MD_BTLDB_ACTIVE_1)
 137:Generated_Source\PSoC4/bootloadable.c ****     {
 138:Generated_Source\PSoC4/bootloadable.c ****         result = CYRET_BAD_PARAM;
 139:Generated_Source\PSoC4/bootloadable.c ****     }
 140:Generated_Source\PSoC4/bootloadable.c ****     else
 141:Generated_Source\PSoC4/bootloadable.c ****     {
 142:Generated_Source\PSoC4/bootloadable.c ****         /* If appID has same value as active application ID */
 143:Generated_Source\PSoC4/bootloadable.c ****         if (1u == bootloadable_GET_CODE_DATA(bootloadable_MD_BTLDB_ACTIVE_OFFSET(appId)))
 144:Generated_Source\PSoC4/bootloadable.c ****         {
 145:Generated_Source\PSoC4/bootloadable.c ****             result = CYRET_BAD_PARAM;
 146:Generated_Source\PSoC4/bootloadable.c ****         }
 147:Generated_Source\PSoC4/bootloadable.c ****         else
 148:Generated_Source\PSoC4/bootloadable.c ****         {
 149:Generated_Source\PSoC4/bootloadable.c ****             /* Updating metadata section */
 150:Generated_Source\PSoC4/bootloadable.c ****             for(idx = 0u; idx < bootloadable_MAX_NUM_OF_BTLDB; idx++)
 151:Generated_Source\PSoC4/bootloadable.c ****             {
 152:Generated_Source\PSoC4/bootloadable.c ****                 result |= bootloadable_WriteFlashByte((uint32) bootloadable_MD_BTLDB_ACTIVE_OFFSET(
 153:Generated_Source\PSoC4/bootloadable.c ****                                                                                             (uint8)
 154:Generated_Source\PSoC4/bootloadable.c ****             }
 155:Generated_Source\PSoC4/bootloadable.c ****         }
 156:Generated_Source\PSoC4/bootloadable.c ****     }
 157:Generated_Source\PSoC4/bootloadable.c ****     
 158:Generated_Source\PSoC4/bootloadable.c ****     return (result);
 159:Generated_Source\PSoC4/bootloadable.c **** }
 160:Generated_Source\PSoC4/bootloadable.c **** 
 161:Generated_Source\PSoC4/bootloadable.c **** /*******************************************************************************
 162:Generated_Source\PSoC4/bootloadable.c **** * Function Name: bootloadable_WriteFlashByte
 163:Generated_Source\PSoC4/bootloadable.c **** ****************************************************************************//**
 164:Generated_Source\PSoC4/bootloadable.c **** *
 165:Generated_Source\PSoC4/bootloadable.c **** * \brief 
 166:Generated_Source\PSoC4/bootloadable.c **** *   This API writes to flash the specified data.
 167:Generated_Source\PSoC4/bootloadable.c **** *
 168:Generated_Source\PSoC4/bootloadable.c **** * \param address 
ARM GAS  C:\Users\Usuario\AppData\Local\Temp\ccWvF59u.s 			page 5


 169:Generated_Source\PSoC4/bootloadable.c **** *   The address in flash.
 170:Generated_Source\PSoC4/bootloadable.c **** *
 171:Generated_Source\PSoC4/bootloadable.c **** * \param inputValue 
 172:Generated_Source\PSoC4/bootloadable.c **** *   One-byte data.
 173:Generated_Source\PSoC4/bootloadable.c **** *
 174:Generated_Source\PSoC4/bootloadable.c **** * \return 
 175:Generated_Source\PSoC4/bootloadable.c **** *   A status of the writing to flash procedure.
 176:Generated_Source\PSoC4/bootloadable.c **** *
 177:Generated_Source\PSoC4/bootloadable.c **** *******************************************************************************/
 178:Generated_Source\PSoC4/bootloadable.c **** static cystatus bootloadable_WriteFlashByte(const uint32 address, const uint8 inputValue) CYLARGE \
 179:Generated_Source\PSoC4/bootloadable.c ****                                
 180:Generated_Source\PSoC4/bootloadable.c **** {
 181:Generated_Source\PSoC4/bootloadable.c ****     cystatus result = CYRET_SUCCESS;
 182:Generated_Source\PSoC4/bootloadable.c ****     uint32 flsAddr = address - CYDEV_FLASH_BASE;
 183:Generated_Source\PSoC4/bootloadable.c ****     uint8  rowData[CYDEV_FLS_ROW_SIZE];
 184:Generated_Source\PSoC4/bootloadable.c **** 
 185:Generated_Source\PSoC4/bootloadable.c ****     #if !(CY_PSOC4)
 186:Generated_Source\PSoC4/bootloadable.c ****         uint8 arrayId = ( uint8 )(flsAddr / CYDEV_FLS_SECTOR_SIZE);
 187:Generated_Source\PSoC4/bootloadable.c ****     #endif  /* !(CY_PSOC4) */
 188:Generated_Source\PSoC4/bootloadable.c **** 
 189:Generated_Source\PSoC4/bootloadable.c ****     #if (CY_PSOC4)
 190:Generated_Source\PSoC4/bootloadable.c ****         uint16 rowNum = ( uint16 )(flsAddr / CYDEV_FLS_ROW_SIZE);
 191:Generated_Source\PSoC4/bootloadable.c ****     #else
 192:Generated_Source\PSoC4/bootloadable.c ****         uint16 rowNum = ( uint16 )((flsAddr % CYDEV_FLS_SECTOR_SIZE) / CYDEV_FLS_ROW_SIZE);
 193:Generated_Source\PSoC4/bootloadable.c ****     #endif  /* (CY_PSOC4) */
 194:Generated_Source\PSoC4/bootloadable.c **** 
 195:Generated_Source\PSoC4/bootloadable.c ****     uint32 baseAddr = address - (address % CYDEV_FLS_ROW_SIZE);
 196:Generated_Source\PSoC4/bootloadable.c ****     uint16 idx;
 197:Generated_Source\PSoC4/bootloadable.c **** 
 198:Generated_Source\PSoC4/bootloadable.c ****     for(idx = 0u; idx < CYDEV_FLS_ROW_SIZE; idx++)
 199:Generated_Source\PSoC4/bootloadable.c ****     {
 200:Generated_Source\PSoC4/bootloadable.c ****         rowData[idx] = (uint8)bootloadable_GET_CODE_DATA(baseAddr + idx);
 201:Generated_Source\PSoC4/bootloadable.c ****     }
 202:Generated_Source\PSoC4/bootloadable.c **** 
 203:Generated_Source\PSoC4/bootloadable.c ****     rowData[address % CYDEV_FLS_ROW_SIZE] = inputValue;
 204:Generated_Source\PSoC4/bootloadable.c **** 
 205:Generated_Source\PSoC4/bootloadable.c ****     #if(CY_PSOC4)
 206:Generated_Source\PSoC4/bootloadable.c ****         result = CySysFlashWriteRow((uint32) rowNum, rowData);
 207:Generated_Source\PSoC4/bootloadable.c ****     #else
 208:Generated_Source\PSoC4/bootloadable.c ****         result = CyWriteRowData(arrayId, rowNum, rowData);
 209:Generated_Source\PSoC4/bootloadable.c ****     #endif  /* (CY_PSOC4) */
 210:Generated_Source\PSoC4/bootloadable.c **** 
 211:Generated_Source\PSoC4/bootloadable.c ****     #if(CY_PSOC5)
 212:Generated_Source\PSoC4/bootloadable.c ****         /***************************************************************************
 213:Generated_Source\PSoC4/bootloadable.c ****         * When writing to flash, data in the instruction cache can become stale.
 214:Generated_Source\PSoC4/bootloadable.c ****         * Therefore, the cache data does not correlate to the data just written to
 215:Generated_Source\PSoC4/bootloadable.c ****         * flash. A call to CyFlushCache() is required to invalidate the data in the
 216:Generated_Source\PSoC4/bootloadable.c ****         * cache and force fresh information to be loaded from flash.
 217:Generated_Source\PSoC4/bootloadable.c ****         ***************************************************************************/
 218:Generated_Source\PSoC4/bootloadable.c ****         CyFlushCache();
 219:Generated_Source\PSoC4/bootloadable.c ****     #endif /* (CY_PSOC5) */
 220:Generated_Source\PSoC4/bootloadable.c ****     return (result);
 221:Generated_Source\PSoC4/bootloadable.c **** }
 222:Generated_Source\PSoC4/bootloadable.c **** #endif /*(CYDEV_PROJ_TYPE == CYDEV_PROJ_TYPE_LOADABLEANDBOOTLOADER)*/
 223:Generated_Source\PSoC4/bootloadable.c **** /** @} functions_group */
 224:Generated_Source\PSoC4/bootloadable.c **** 
 225:Generated_Source\PSoC4/bootloadable.c **** /*******************************************************************************
ARM GAS  C:\Users\Usuario\AppData\Local\Temp\ccWvF59u.s 			page 6


 226:Generated_Source\PSoC4/bootloadable.c **** * The following code is OBSOLETE and must not be used.
 227:Generated_Source\PSoC4/bootloadable.c **** *******************************************************************************/
 228:Generated_Source\PSoC4/bootloadable.c **** void bootloadable_SetFlashByte(uint32 address, uint8 runType) 
 229:Generated_Source\PSoC4/bootloadable.c **** {
  61              		.loc 1 229 0
  62              		.cfi_startproc
  63              		@ args = 0, pretend = 0, frame = 128
  64              		@ frame_needed = 0, uses_anonymous_args = 0
  65              	.LVL1:
  66 0000 70B5     		push	{r4, r5, r6, lr}
  67              		.cfi_def_cfa_offset 16
  68              		.cfi_offset 4, -16
  69              		.cfi_offset 5, -12
  70              		.cfi_offset 6, -8
  71              		.cfi_offset 14, -4
  72 0002 A0B0     		sub	sp, sp, #128
  73              		.cfi_def_cfa_offset 144
  74 0004 0500     		movs	r5, r0
  75              	.LVL2:
 230:Generated_Source\PSoC4/bootloadable.c ****     uint32 flsAddr = address - CYDEV_FLASH_BASE;
 231:Generated_Source\PSoC4/bootloadable.c ****     uint8  rowData[CYDEV_FLS_ROW_SIZE];
 232:Generated_Source\PSoC4/bootloadable.c **** 
 233:Generated_Source\PSoC4/bootloadable.c ****     #if !(CY_PSOC4)
 234:Generated_Source\PSoC4/bootloadable.c ****         uint8 arrayId = ( uint8 )(flsAddr / CYDEV_FLS_SECTOR_SIZE);
 235:Generated_Source\PSoC4/bootloadable.c ****     #endif  /* !(CY_PSOC4) */
 236:Generated_Source\PSoC4/bootloadable.c **** 
 237:Generated_Source\PSoC4/bootloadable.c ****     #if (CY_PSOC4)
 238:Generated_Source\PSoC4/bootloadable.c ****         uint16 rowNum = ( uint16 )(flsAddr / CYDEV_FLS_ROW_SIZE);
  76              		.loc 1 238 0
  77 0006 C009     		lsrs	r0, r0, #7
  78              	.LVL3:
 239:Generated_Source\PSoC4/bootloadable.c ****     #else
 240:Generated_Source\PSoC4/bootloadable.c ****         uint16 rowNum = ( uint16 )((flsAddr % CYDEV_FLS_SECTOR_SIZE) / CYDEV_FLS_ROW_SIZE);
 241:Generated_Source\PSoC4/bootloadable.c ****     #endif  /* (CY_PSOC4) */
 242:Generated_Source\PSoC4/bootloadable.c **** 
 243:Generated_Source\PSoC4/bootloadable.c ****     uint32 baseAddr = address - (address % CYDEV_FLS_ROW_SIZE);
  79              		.loc 1 243 0
  80 0008 7F23     		movs	r3, #127
  81 000a 2C00     		movs	r4, r5
  82 000c 9C43     		bics	r4, r3
  83              	.LVL4:
 244:Generated_Source\PSoC4/bootloadable.c ****     uint16 idx;
 245:Generated_Source\PSoC4/bootloadable.c **** 
 246:Generated_Source\PSoC4/bootloadable.c **** 
 247:Generated_Source\PSoC4/bootloadable.c ****     for (idx = 0u; idx < CYDEV_FLS_ROW_SIZE; idx++)
  84              		.loc 1 247 0
  85 000e 0023     		movs	r3, #0
  86 0010 04E0     		b	.L5
  87              	.LVL5:
  88              	.L6:
 248:Generated_Source\PSoC4/bootloadable.c ****     {
 249:Generated_Source\PSoC4/bootloadable.c ****         rowData[idx] = bootloadable_GET_CODE_DATA(baseAddr + idx);
  89              		.loc 1 249 0 discriminator 3
  90 0012 1A5D     		ldrb	r2, [r3, r4]
  91 0014 6E46     		mov	r6, sp
  92 0016 F254     		strb	r2, [r6, r3]
 247:Generated_Source\PSoC4/bootloadable.c ****     {
ARM GAS  C:\Users\Usuario\AppData\Local\Temp\ccWvF59u.s 			page 7


  93              		.loc 1 247 0 discriminator 3
  94 0018 0133     		adds	r3, r3, #1
  95              	.LVL6:
  96 001a 9BB2     		uxth	r3, r3
  97              	.LVL7:
  98              	.L5:
 247:Generated_Source\PSoC4/bootloadable.c ****     {
  99              		.loc 1 247 0 is_stmt 0 discriminator 1
 100 001c 7F2B     		cmp	r3, #127
 101 001e F8D9     		bls	.L6
 250:Generated_Source\PSoC4/bootloadable.c ****     }
 251:Generated_Source\PSoC4/bootloadable.c ****     rowData[address % CYDEV_FLS_ROW_SIZE] = runType;
 102              		.loc 1 251 0 is_stmt 1
 103 0020 7F23     		movs	r3, #127
 104              	.LVL8:
 105 0022 1D40     		ands	r5, r3
 106              	.LVL9:
 107 0024 6B46     		mov	r3, sp
 108 0026 5955     		strb	r1, [r3, r5]
 252:Generated_Source\PSoC4/bootloadable.c **** 
 253:Generated_Source\PSoC4/bootloadable.c ****     #if(CY_PSOC4)
 254:Generated_Source\PSoC4/bootloadable.c ****         (void) CySysFlashWriteRow((uint32) rowNum, rowData);
 109              		.loc 1 254 0
 110 0028 0004     		lsls	r0, r0, #16
 111              	.LVL10:
 112 002a 000C     		lsrs	r0, r0, #16
 113 002c 6946     		mov	r1, sp
 114              	.LVL11:
 115 002e FFF7FEFF 		bl	CySysFlashWriteRow
 116              	.LVL12:
 255:Generated_Source\PSoC4/bootloadable.c ****     #else
 256:Generated_Source\PSoC4/bootloadable.c ****         (void) CyWriteRowData(arrayId, rowNum, rowData);
 257:Generated_Source\PSoC4/bootloadable.c ****     #endif  /* (CY_PSOC4) */
 258:Generated_Source\PSoC4/bootloadable.c **** 
 259:Generated_Source\PSoC4/bootloadable.c ****     #if(CY_PSOC5)
 260:Generated_Source\PSoC4/bootloadable.c ****         /***************************************************************************
 261:Generated_Source\PSoC4/bootloadable.c ****         * When writing to flash, data in the instruction cache can become obsolete.
 262:Generated_Source\PSoC4/bootloadable.c ****         * Therefore, the cache data does not correlate to the data just written to
 263:Generated_Source\PSoC4/bootloadable.c ****         * flash. A call to CyFlushCache() is required to invalidate the data in the
 264:Generated_Source\PSoC4/bootloadable.c ****         * cache and force fresh information to be loaded from flash.
 265:Generated_Source\PSoC4/bootloadable.c ****         ***************************************************************************/
 266:Generated_Source\PSoC4/bootloadable.c ****         CyFlushCache();
 267:Generated_Source\PSoC4/bootloadable.c ****     #endif /* (CY_PSOC5) */
 268:Generated_Source\PSoC4/bootloadable.c **** }
 117              		.loc 1 268 0
 118 0032 20B0     		add	sp, sp, #128
 119              		@ sp needed
 120              	.LVL13:
 121 0034 70BD     		pop	{r4, r5, r6, pc}
 122              		.cfi_endproc
 123              	.LFE1:
 124              		.size	bootloadable_SetFlashByte, .-bootloadable_SetFlashByte
 125 0036 C046     		.text
 126              	.Letext0:
 127              		.file 2 "Generated_Source\\PSoC4\\cytypes.h"
 128              		.file 3 "Generated_Source\\PSoC4\\CyLib.h"
 129              		.file 4 "Generated_Source\\PSoC4\\CyFlash.h"
ARM GAS  C:\Users\Usuario\AppData\Local\Temp\ccWvF59u.s 			page 8


 130              		.file 5 "Generated_Source\\PSoC4\\bootloadable.h"