ARM GAS  C:\Users\Usuario\AppData\Local\Temp\ccr0LJi0.s 			page 1


   1              		.syntax unified
   2              		.cpu cortex-m0
   3              		.fpu softvfp
   4              		.eabi_attribute 20, 1
   5              		.eabi_attribute 21, 1
   6              		.eabi_attribute 23, 3
   7              		.eabi_attribute 24, 1
   8              		.eabi_attribute 25, 1
   9              		.eabi_attribute 26, 1
  10              		.eabi_attribute 30, 1
  11              		.eabi_attribute 34, 0
  12              		.eabi_attribute 18, 4
  13              		.thumb
  14              		.syntax unified
  15              		.file	"cyfitter_cfg.c"
  16              		.text
  17              	.Ltext0:
  18              		.cfi_sections	.debug_frame
  19              		.section	.text.CYMEMZERO,"ax",%progbits
  20              		.align	2
  21              		.code	16
  22              		.thumb_func
  23              		.type	CYMEMZERO, %function
  24              	CYMEMZERO:
  25              	.LFB0:
  26              		.file 1 "Generated_Source\\PSoC4\\cyfitter_cfg.c"
   1:Generated_Source\PSoC4/cyfitter_cfg.c **** 
   2:Generated_Source\PSoC4/cyfitter_cfg.c **** /*******************************************************************************
   3:Generated_Source\PSoC4/cyfitter_cfg.c **** * File Name: cyfitter_cfg.c
   4:Generated_Source\PSoC4/cyfitter_cfg.c **** * 
   5:Generated_Source\PSoC4/cyfitter_cfg.c **** * PSoC Creator  4.4
   6:Generated_Source\PSoC4/cyfitter_cfg.c **** *
   7:Generated_Source\PSoC4/cyfitter_cfg.c **** * Description:
   8:Generated_Source\PSoC4/cyfitter_cfg.c **** * This file contains device initialization code.
   9:Generated_Source\PSoC4/cyfitter_cfg.c **** * Except for the user defined sections in CyClockStartupError(), this file should not be modified.
  10:Generated_Source\PSoC4/cyfitter_cfg.c **** * This file is automatically generated by PSoC Creator.
  11:Generated_Source\PSoC4/cyfitter_cfg.c **** *
  12:Generated_Source\PSoC4/cyfitter_cfg.c **** ********************************************************************************
  13:Generated_Source\PSoC4/cyfitter_cfg.c **** * Copyright (c) 2007-2020 Cypress Semiconductor.  All rights reserved.
  14:Generated_Source\PSoC4/cyfitter_cfg.c **** * You may use this file only in accordance with the license, terms, conditions, 
  15:Generated_Source\PSoC4/cyfitter_cfg.c **** * disclaimers, and limitations in the end user license agreement accompanying 
  16:Generated_Source\PSoC4/cyfitter_cfg.c **** * the software package with which this file was provided.
  17:Generated_Source\PSoC4/cyfitter_cfg.c **** ********************************************************************************/
  18:Generated_Source\PSoC4/cyfitter_cfg.c **** 
  19:Generated_Source\PSoC4/cyfitter_cfg.c **** #include <string.h>
  20:Generated_Source\PSoC4/cyfitter_cfg.c **** #include "cytypes.h"
  21:Generated_Source\PSoC4/cyfitter_cfg.c **** #include "cydevice_trm.h"
  22:Generated_Source\PSoC4/cyfitter_cfg.c **** #include "cyfitter.h"
  23:Generated_Source\PSoC4/cyfitter_cfg.c **** #include "CyLib.h"
  24:Generated_Source\PSoC4/cyfitter_cfg.c **** #include "CyLFClk.h"
  25:Generated_Source\PSoC4/cyfitter_cfg.c **** #include "cyfitter_cfg.h"
  26:Generated_Source\PSoC4/cyfitter_cfg.c **** #include "cyapicallbacks.h"
  27:Generated_Source\PSoC4/cyfitter_cfg.c **** 
  28:Generated_Source\PSoC4/cyfitter_cfg.c **** 
  29:Generated_Source\PSoC4/cyfitter_cfg.c **** #if defined(__GNUC__) || defined(__ARMCC_VERSION)
  30:Generated_Source\PSoC4/cyfitter_cfg.c ****     #define CYPACKED 
  31:Generated_Source\PSoC4/cyfitter_cfg.c ****     #define CYPACKED_ATTR __attribute__ ((packed))
ARM GAS  C:\Users\Usuario\AppData\Local\Temp\ccr0LJi0.s 			page 2


  32:Generated_Source\PSoC4/cyfitter_cfg.c ****     #define CYALIGNED __attribute__ ((aligned))
  33:Generated_Source\PSoC4/cyfitter_cfg.c ****     #define CY_CFG_UNUSED __attribute__ ((unused))
  34:Generated_Source\PSoC4/cyfitter_cfg.c ****     #ifndef CY_CFG_SECTION
  35:Generated_Source\PSoC4/cyfitter_cfg.c ****         #define CY_CFG_SECTION __attribute__ ((section(".psocinit")))
  36:Generated_Source\PSoC4/cyfitter_cfg.c ****     #endif
  37:Generated_Source\PSoC4/cyfitter_cfg.c ****     
  38:Generated_Source\PSoC4/cyfitter_cfg.c ****     #if defined(__ARMCC_VERSION)
  39:Generated_Source\PSoC4/cyfitter_cfg.c ****         #define CY_CFG_MEMORY_BARRIER() __memory_changed()
  40:Generated_Source\PSoC4/cyfitter_cfg.c ****     #else
  41:Generated_Source\PSoC4/cyfitter_cfg.c ****         #define CY_CFG_MEMORY_BARRIER() __sync_synchronize()
  42:Generated_Source\PSoC4/cyfitter_cfg.c ****     #endif
  43:Generated_Source\PSoC4/cyfitter_cfg.c ****     
  44:Generated_Source\PSoC4/cyfitter_cfg.c **** #elif defined(__ICCARM__)
  45:Generated_Source\PSoC4/cyfitter_cfg.c ****     #include <intrinsics.h>
  46:Generated_Source\PSoC4/cyfitter_cfg.c **** 
  47:Generated_Source\PSoC4/cyfitter_cfg.c ****     #define CYPACKED __packed
  48:Generated_Source\PSoC4/cyfitter_cfg.c ****     #define CYPACKED_ATTR 
  49:Generated_Source\PSoC4/cyfitter_cfg.c ****     #define CYALIGNED _Pragma("data_alignment=4")
  50:Generated_Source\PSoC4/cyfitter_cfg.c ****     #define CY_CFG_UNUSED _Pragma("diag_suppress=Pe177")
  51:Generated_Source\PSoC4/cyfitter_cfg.c ****     #define CY_CFG_SECTION _Pragma("location=\".psocinit\"")
  52:Generated_Source\PSoC4/cyfitter_cfg.c ****     
  53:Generated_Source\PSoC4/cyfitter_cfg.c ****     #define CY_CFG_MEMORY_BARRIER() __DMB()
  54:Generated_Source\PSoC4/cyfitter_cfg.c ****     
  55:Generated_Source\PSoC4/cyfitter_cfg.c **** #else
  56:Generated_Source\PSoC4/cyfitter_cfg.c ****     #error Unsupported toolchain
  57:Generated_Source\PSoC4/cyfitter_cfg.c **** #endif
  58:Generated_Source\PSoC4/cyfitter_cfg.c **** 
  59:Generated_Source\PSoC4/cyfitter_cfg.c **** #ifndef CYCODE
  60:Generated_Source\PSoC4/cyfitter_cfg.c ****     #define CYCODE
  61:Generated_Source\PSoC4/cyfitter_cfg.c **** #endif
  62:Generated_Source\PSoC4/cyfitter_cfg.c **** #ifndef CYDATA
  63:Generated_Source\PSoC4/cyfitter_cfg.c ****     #define CYDATA
  64:Generated_Source\PSoC4/cyfitter_cfg.c **** #endif
  65:Generated_Source\PSoC4/cyfitter_cfg.c **** #ifndef CYFAR
  66:Generated_Source\PSoC4/cyfitter_cfg.c ****     #define CYFAR
  67:Generated_Source\PSoC4/cyfitter_cfg.c **** #endif
  68:Generated_Source\PSoC4/cyfitter_cfg.c **** #ifndef CYXDATA
  69:Generated_Source\PSoC4/cyfitter_cfg.c ****     #define CYXDATA
  70:Generated_Source\PSoC4/cyfitter_cfg.c **** #endif
  71:Generated_Source\PSoC4/cyfitter_cfg.c **** 
  72:Generated_Source\PSoC4/cyfitter_cfg.c **** 
  73:Generated_Source\PSoC4/cyfitter_cfg.c **** CY_CFG_UNUSED
  74:Generated_Source\PSoC4/cyfitter_cfg.c **** static void CYMEMZERO(void *s, size_t n);
  75:Generated_Source\PSoC4/cyfitter_cfg.c **** CY_CFG_UNUSED
  76:Generated_Source\PSoC4/cyfitter_cfg.c **** static void CYMEMZERO(void *s, size_t n)
  77:Generated_Source\PSoC4/cyfitter_cfg.c **** {
  27              		.loc 1 77 0
  28              		.cfi_startproc
  29              		@ args = 0, pretend = 0, frame = 0
  30              		@ frame_needed = 0, uses_anonymous_args = 0
  31              	.LVL0:
  32 0000 10B5     		push	{r4, lr}
  33              		.cfi_def_cfa_offset 8
  34              		.cfi_offset 4, -8
  35              		.cfi_offset 14, -4
  36 0002 0A00     		movs	r2, r1
  78:Generated_Source\PSoC4/cyfitter_cfg.c **** 	(void)memset(s, 0, n);
ARM GAS  C:\Users\Usuario\AppData\Local\Temp\ccr0LJi0.s 			page 3


  37              		.loc 1 78 0
  38 0004 0021     		movs	r1, #0
  39              	.LVL1:
  40 0006 FFF7FEFF 		bl	memset
  41              	.LVL2:
  79:Generated_Source\PSoC4/cyfitter_cfg.c **** }
  42              		.loc 1 79 0
  43              		@ sp needed
  44 000a 10BD     		pop	{r4, pc}
  45              		.cfi_endproc
  46              	.LFE0:
  47              		.size	CYMEMZERO, .-CYMEMZERO
  48              		.section	.psocinit,"ax",%progbits
  49              		.align	2
  50              		.code	16
  51              		.thumb_func
  52              		.type	ClockSetup, %function
  53              	ClockSetup:
  54              	.LFB3:
  80:Generated_Source\PSoC4/cyfitter_cfg.c **** CY_CFG_UNUSED
  81:Generated_Source\PSoC4/cyfitter_cfg.c **** static void CYCONFIGCPY(void *dest, const void *src, size_t n);
  82:Generated_Source\PSoC4/cyfitter_cfg.c **** CY_CFG_UNUSED
  83:Generated_Source\PSoC4/cyfitter_cfg.c **** static void CYCONFIGCPY(void *dest, const void *src, size_t n)
  84:Generated_Source\PSoC4/cyfitter_cfg.c **** {
  85:Generated_Source\PSoC4/cyfitter_cfg.c **** 	(void)memcpy(dest, src, n);
  86:Generated_Source\PSoC4/cyfitter_cfg.c **** }
  87:Generated_Source\PSoC4/cyfitter_cfg.c **** CY_CFG_UNUSED
  88:Generated_Source\PSoC4/cyfitter_cfg.c **** static void CYCONFIGCPYCODE(void *dest, const void *src, size_t n);
  89:Generated_Source\PSoC4/cyfitter_cfg.c **** CY_CFG_UNUSED
  90:Generated_Source\PSoC4/cyfitter_cfg.c **** static void CYCONFIGCPYCODE(void *dest, const void *src, size_t n)
  91:Generated_Source\PSoC4/cyfitter_cfg.c **** {
  92:Generated_Source\PSoC4/cyfitter_cfg.c **** 	(void)memcpy(dest, src, n);
  93:Generated_Source\PSoC4/cyfitter_cfg.c **** }
  94:Generated_Source\PSoC4/cyfitter_cfg.c **** 
  95:Generated_Source\PSoC4/cyfitter_cfg.c **** 
  96:Generated_Source\PSoC4/cyfitter_cfg.c **** 
  97:Generated_Source\PSoC4/cyfitter_cfg.c **** 
  98:Generated_Source\PSoC4/cyfitter_cfg.c **** /* Clock startup error codes                                                   */
  99:Generated_Source\PSoC4/cyfitter_cfg.c **** #define CYCLOCKSTART_NO_ERROR    0u
 100:Generated_Source\PSoC4/cyfitter_cfg.c **** #define CYCLOCKSTART_XTAL_ERROR  1u
 101:Generated_Source\PSoC4/cyfitter_cfg.c **** #define CYCLOCKSTART_32KHZ_ERROR 2u
 102:Generated_Source\PSoC4/cyfitter_cfg.c **** #define CYCLOCKSTART_PLL_ERROR   3u
 103:Generated_Source\PSoC4/cyfitter_cfg.c **** #define CYCLOCKSTART_FLL_ERROR   4u
 104:Generated_Source\PSoC4/cyfitter_cfg.c **** #define CYCLOCKSTART_WCO_ERROR   5u
 105:Generated_Source\PSoC4/cyfitter_cfg.c **** 
 106:Generated_Source\PSoC4/cyfitter_cfg.c **** 
 107:Generated_Source\PSoC4/cyfitter_cfg.c **** #ifdef CY_NEED_CYCLOCKSTARTUPERROR
 108:Generated_Source\PSoC4/cyfitter_cfg.c **** /*******************************************************************************
 109:Generated_Source\PSoC4/cyfitter_cfg.c **** * Function Name: CyClockStartupError
 110:Generated_Source\PSoC4/cyfitter_cfg.c **** ********************************************************************************
 111:Generated_Source\PSoC4/cyfitter_cfg.c **** * Summary:
 112:Generated_Source\PSoC4/cyfitter_cfg.c **** *  If an error is encountered during clock configuration (crystal startup error,
 113:Generated_Source\PSoC4/cyfitter_cfg.c **** *  PLL lock error, etc.), the system will end up here.  Unless reimplemented by
 114:Generated_Source\PSoC4/cyfitter_cfg.c **** *  the customer, this function will stop in an infinite loop.
 115:Generated_Source\PSoC4/cyfitter_cfg.c **** *
 116:Generated_Source\PSoC4/cyfitter_cfg.c **** * Parameters:
 117:Generated_Source\PSoC4/cyfitter_cfg.c **** *   void
ARM GAS  C:\Users\Usuario\AppData\Local\Temp\ccr0LJi0.s 			page 4


 118:Generated_Source\PSoC4/cyfitter_cfg.c **** *
 119:Generated_Source\PSoC4/cyfitter_cfg.c **** * Return:
 120:Generated_Source\PSoC4/cyfitter_cfg.c **** *   void
 121:Generated_Source\PSoC4/cyfitter_cfg.c **** *
 122:Generated_Source\PSoC4/cyfitter_cfg.c **** *******************************************************************************/
 123:Generated_Source\PSoC4/cyfitter_cfg.c **** CY_CFG_UNUSED
 124:Generated_Source\PSoC4/cyfitter_cfg.c **** static void CyClockStartupError(uint8 errorCode);
 125:Generated_Source\PSoC4/cyfitter_cfg.c **** CY_CFG_UNUSED
 126:Generated_Source\PSoC4/cyfitter_cfg.c **** static void CyClockStartupError(uint8 errorCode)
 127:Generated_Source\PSoC4/cyfitter_cfg.c **** {
 128:Generated_Source\PSoC4/cyfitter_cfg.c ****     /* To remove the compiler warning if errorCode not used.                */
 129:Generated_Source\PSoC4/cyfitter_cfg.c ****     errorCode = errorCode;
 130:Generated_Source\PSoC4/cyfitter_cfg.c **** 
 131:Generated_Source\PSoC4/cyfitter_cfg.c ****     /* If we have a clock startup error (bad MHz crystal, PLL lock, etc.),  */
 132:Generated_Source\PSoC4/cyfitter_cfg.c ****     /* we will end up here to allow the customer to implement something to  */
 133:Generated_Source\PSoC4/cyfitter_cfg.c ****     /* deal with the clock condition.                                       */
 134:Generated_Source\PSoC4/cyfitter_cfg.c **** 
 135:Generated_Source\PSoC4/cyfitter_cfg.c **** #ifdef CY_CFG_CLOCK_STARTUP_ERROR_CALLBACK
 136:Generated_Source\PSoC4/cyfitter_cfg.c ****     CY_CFG_Clock_Startup_ErrorCallback();
 137:Generated_Source\PSoC4/cyfitter_cfg.c **** #else
 138:Generated_Source\PSoC4/cyfitter_cfg.c ****     /*  If not using CY_CFG_CLOCK_STARTUP_ERROR_CALLBACK, place your clock startup code here. */
 139:Generated_Source\PSoC4/cyfitter_cfg.c ****     /* `#START CyClockStartupError` */
 140:Generated_Source\PSoC4/cyfitter_cfg.c **** 
 141:Generated_Source\PSoC4/cyfitter_cfg.c **** 
 142:Generated_Source\PSoC4/cyfitter_cfg.c **** 
 143:Generated_Source\PSoC4/cyfitter_cfg.c ****     /* `#END` */
 144:Generated_Source\PSoC4/cyfitter_cfg.c **** 
 145:Generated_Source\PSoC4/cyfitter_cfg.c ****     while(1) {}
 146:Generated_Source\PSoC4/cyfitter_cfg.c **** #endif /* CY_CFG_CLOCK_STARTUP_ERROR_CALLBACK */
 147:Generated_Source\PSoC4/cyfitter_cfg.c **** }
 148:Generated_Source\PSoC4/cyfitter_cfg.c **** #endif
 149:Generated_Source\PSoC4/cyfitter_cfg.c **** 
 150:Generated_Source\PSoC4/cyfitter_cfg.c **** 
 151:Generated_Source\PSoC4/cyfitter_cfg.c **** 
 152:Generated_Source\PSoC4/cyfitter_cfg.c **** /*******************************************************************************
 153:Generated_Source\PSoC4/cyfitter_cfg.c **** * Function Name: ClockSetup
 154:Generated_Source\PSoC4/cyfitter_cfg.c **** ********************************************************************************
 155:Generated_Source\PSoC4/cyfitter_cfg.c **** *
 156:Generated_Source\PSoC4/cyfitter_cfg.c **** * Summary:
 157:Generated_Source\PSoC4/cyfitter_cfg.c **** *   Performs the initialization of all of the clocks in the device based on the
 158:Generated_Source\PSoC4/cyfitter_cfg.c **** *   settings in the Clock tab of the DWR.  This includes enabling the requested
 159:Generated_Source\PSoC4/cyfitter_cfg.c **** *   clocks and setting the necessary dividers to produce the desired frequency. 
 160:Generated_Source\PSoC4/cyfitter_cfg.c **** *
 161:Generated_Source\PSoC4/cyfitter_cfg.c **** * Parameters:
 162:Generated_Source\PSoC4/cyfitter_cfg.c **** *   void
 163:Generated_Source\PSoC4/cyfitter_cfg.c **** *
 164:Generated_Source\PSoC4/cyfitter_cfg.c **** * Return:
 165:Generated_Source\PSoC4/cyfitter_cfg.c **** *   void
 166:Generated_Source\PSoC4/cyfitter_cfg.c **** *
 167:Generated_Source\PSoC4/cyfitter_cfg.c **** *******************************************************************************/
 168:Generated_Source\PSoC4/cyfitter_cfg.c **** static void ClockSetup(void);
 169:Generated_Source\PSoC4/cyfitter_cfg.c **** CY_CFG_SECTION
 170:Generated_Source\PSoC4/cyfitter_cfg.c **** static void ClockSetup(void)
 171:Generated_Source\PSoC4/cyfitter_cfg.c **** {
  55              		.loc 1 171 0
  56              		.cfi_startproc
  57              		@ args = 0, pretend = 0, frame = 0
ARM GAS  C:\Users\Usuario\AppData\Local\Temp\ccr0LJi0.s 			page 5


  58              		@ frame_needed = 0, uses_anonymous_args = 0
  59 0000 70B5     		push	{r4, r5, r6, lr}
  60              		.cfi_def_cfa_offset 16
  61              		.cfi_offset 4, -16
  62              		.cfi_offset 5, -12
  63              		.cfi_offset 6, -8
  64              		.cfi_offset 14, -4
 172:Generated_Source\PSoC4/cyfitter_cfg.c **** 	/* Enable HALF_EN before trimming for the flash accelerator. */
 173:Generated_Source\PSoC4/cyfitter_cfg.c **** 	CY_SET_REG32((void CYXDATA *)(CYREG_CLK_SELECT), (CY_GET_REG32((void *)CYREG_CLK_SELECT) | 0x00040
  65              		.loc 1 173 0
  66 0002 1C4C     		ldr	r4, .L3
  67 0004 2368     		ldr	r3, [r4]
  68 0006 8022     		movs	r2, #128
  69 0008 D202     		lsls	r2, r2, #11
  70 000a 1343     		orrs	r3, r2
  71 000c 2360     		str	r3, [r4]
 174:Generated_Source\PSoC4/cyfitter_cfg.c **** 
 175:Generated_Source\PSoC4/cyfitter_cfg.c **** 	/* Setup and trim IMO based on desired frequency. */
 176:Generated_Source\PSoC4/cyfitter_cfg.c **** 	CySysClkWriteImoFreq(24u);
  72              		.loc 1 176 0
  73 000e 1820     		movs	r0, #24
  74 0010 FFF7FEFF 		bl	CySysClkWriteImoFreq
  75              	.LVL3:
 177:Generated_Source\PSoC4/cyfitter_cfg.c **** 
 178:Generated_Source\PSoC4/cyfitter_cfg.c **** 	/* Disable HALF_EN since it is not required at this IMO frequency. */
 179:Generated_Source\PSoC4/cyfitter_cfg.c **** 	CY_SET_REG32((void CYXDATA *)(CYREG_CLK_SELECT), (CY_GET_REG32((void *)CYREG_CLK_SELECT) & 0xFFFBF
  76              		.loc 1 179 0
  77 0014 2268     		ldr	r2, [r4]
  78 0016 184B     		ldr	r3, .L3+4
  79 0018 1340     		ands	r3, r2
  80 001a 2360     		str	r3, [r4]
 180:Generated_Source\PSoC4/cyfitter_cfg.c **** 	/* CYDEV_CLK_ILO_CONFIG Starting address: CYDEV_CLK_ILO_CONFIG */
 181:Generated_Source\PSoC4/cyfitter_cfg.c **** 	CY_SET_REG32((void *)(CYREG_CLK_ILO_CONFIG), 0x80000006u);
  81              		.loc 1 181 0
  82 001c 174A     		ldr	r2, .L3+8
  83 001e 184B     		ldr	r3, .L3+12
  84 0020 1A60     		str	r2, [r3]
 182:Generated_Source\PSoC4/cyfitter_cfg.c **** 
 183:Generated_Source\PSoC4/cyfitter_cfg.c **** 
 184:Generated_Source\PSoC4/cyfitter_cfg.c **** 	/* CYDEV_CLK_SELECT00 Starting address: CYDEV_CLK_SELECT00 */
 185:Generated_Source\PSoC4/cyfitter_cfg.c **** 	CY_SET_REG32((void *)(CYREG_CLK_SELECT02), 0x00000030u);
  85              		.loc 1 185 0
  86 0022 3022     		movs	r2, #48
  87 0024 174B     		ldr	r3, .L3+16
  88 0026 1A60     		str	r2, [r3]
 186:Generated_Source\PSoC4/cyfitter_cfg.c **** 	CY_SET_REG32((void *)(CYREG_CLK_SELECT07), 0x00000020u);
  89              		.loc 1 186 0
  90 0028 103A     		subs	r2, r2, #16
  91 002a 174B     		ldr	r3, .L3+20
  92 002c 1A60     		str	r2, [r3]
 187:Generated_Source\PSoC4/cyfitter_cfg.c **** 	CY_SET_REG32((void *)(CYREG_CLK_SELECT08), 0x00000010u);
  93              		.loc 1 187 0
  94 002e 1023     		movs	r3, #16
  95 0030 164A     		ldr	r2, .L3+24
  96 0032 1360     		str	r3, [r2]
 188:Generated_Source\PSoC4/cyfitter_cfg.c **** 	CY_SET_REG32((void *)(CYREG_CLK_SELECT09), 0x00000010u);
  97              		.loc 1 188 0
ARM GAS  C:\Users\Usuario\AppData\Local\Temp\ccr0LJi0.s 			page 6


  98 0034 164A     		ldr	r2, .L3+28
  99 0036 1360     		str	r3, [r2]
 189:Generated_Source\PSoC4/cyfitter_cfg.c **** 	CY_SET_REG32((void *)(CYREG_CLK_SELECT10), 0x00000010u);
 100              		.loc 1 189 0
 101 0038 164A     		ldr	r2, .L3+32
 102 003a 1360     		str	r3, [r2]
 190:Generated_Source\PSoC4/cyfitter_cfg.c **** 	CY_SET_REG32((void *)(CYREG_CLK_SELECT11), 0x00000010u);
 103              		.loc 1 190 0
 104 003c 164A     		ldr	r2, .L3+36
 105 003e 1360     		str	r3, [r2]
 191:Generated_Source\PSoC4/cyfitter_cfg.c **** 
 192:Generated_Source\PSoC4/cyfitter_cfg.c **** 	/* CYDEV_CLK_IMO_CONFIG Starting address: CYDEV_CLK_IMO_CONFIG */
 193:Generated_Source\PSoC4/cyfitter_cfg.c **** 	CY_SET_REG32((void *)(CYREG_CLK_IMO_CONFIG), 0x82000000u);
 106              		.loc 1 193 0
 107 0040 8222     		movs	r2, #130
 108 0042 1206     		lsls	r2, r2, #24
 109 0044 154B     		ldr	r3, .L3+40
 110 0046 1A60     		str	r2, [r3]
 194:Generated_Source\PSoC4/cyfitter_cfg.c **** 
 195:Generated_Source\PSoC4/cyfitter_cfg.c **** 	/* CYDEV_CLK_SELECT Starting address: CYDEV_CLK_SELECT */
 196:Generated_Source\PSoC4/cyfitter_cfg.c **** 	CY_SET_REG32((void *)(CYREG_CLK_SELECT), 0x00000000u);
 111              		.loc 1 196 0
 112 0048 0025     		movs	r5, #0
 113 004a 2560     		str	r5, [r4]
 197:Generated_Source\PSoC4/cyfitter_cfg.c **** 
 198:Generated_Source\PSoC4/cyfitter_cfg.c **** 	/* CYDEV_CLK_DIVIDER_A00 Starting address: CYDEV_CLK_DIVIDER_A00 */
 199:Generated_Source\PSoC4/cyfitter_cfg.c **** 	CY_SET_REG32((void *)(CYREG_CLK_DIVIDER_A00), 0x80000000u);
 114              		.loc 1 199 0
 115 004c 8022     		movs	r2, #128
 116 004e 1206     		lsls	r2, r2, #24
 117 0050 134B     		ldr	r3, .L3+44
 118 0052 1A60     		str	r2, [r3]
 200:Generated_Source\PSoC4/cyfitter_cfg.c **** 
 201:Generated_Source\PSoC4/cyfitter_cfg.c **** 	/* CYDEV_CLK_DIVIDER_B00 Starting address: CYDEV_CLK_DIVIDER_B00 */
 202:Generated_Source\PSoC4/cyfitter_cfg.c **** 	CY_SET_REG32((void *)(CYREG_CLK_DIVIDER_B00), 0x80000007u);
 119              		.loc 1 202 0
 120 0054 134A     		ldr	r2, .L3+48
 121 0056 144B     		ldr	r3, .L3+52
 122 0058 1A60     		str	r2, [r3]
 203:Generated_Source\PSoC4/cyfitter_cfg.c **** 
 204:Generated_Source\PSoC4/cyfitter_cfg.c **** 	/* CYDEV_CLK_DIVIDER_C00 Starting address: CYDEV_CLK_DIVIDER_C00 */
 205:Generated_Source\PSoC4/cyfitter_cfg.c **** 	CY_SET_REG32((void *)(CYREG_CLK_DIVIDER_C00), 0x80000010u);
 123              		.loc 1 205 0
 124 005a 144A     		ldr	r2, .L3+56
 125 005c 144B     		ldr	r3, .L3+60
 126 005e 1A60     		str	r2, [r3]
 206:Generated_Source\PSoC4/cyfitter_cfg.c **** 
 207:Generated_Source\PSoC4/cyfitter_cfg.c **** 	(void)CyIntSetVector(9u, &CySysWdtIsr);
 127              		.loc 1 207 0
 128 0060 1449     		ldr	r1, .L3+64
 129 0062 0920     		movs	r0, #9
 130 0064 FFF7FEFF 		bl	CyIntSetVector
 131              	.LVL4:
 208:Generated_Source\PSoC4/cyfitter_cfg.c **** 	CyIntEnable(9u);
 132              		.loc 1 208 0
 133 0068 0920     		movs	r0, #9
 134 006a FFF7FEFF 		bl	CyIntEnable
ARM GAS  C:\Users\Usuario\AppData\Local\Temp\ccr0LJi0.s 			page 7


 135              	.LVL5:
 209:Generated_Source\PSoC4/cyfitter_cfg.c **** 	CY_SET_REG32((void *)(CYREG_WDT_CONFIG), 0x00000000u);
 136              		.loc 1 209 0
 137 006e 124B     		ldr	r3, .L3+68
 138 0070 1D60     		str	r5, [r3]
 210:Generated_Source\PSoC4/cyfitter_cfg.c **** }
 139              		.loc 1 210 0
 140              		@ sp needed
 141 0072 70BD     		pop	{r4, r5, r6, pc}
 142              	.L4:
 143              		.align	2
 144              	.L3:
 145 0074 00010B40 		.word	1074462976
 146 0078 FFFFFBFF 		.word	-262145
 147 007c 06000080 		.word	-2147483642
 148 0080 04010B40 		.word	1074462980
 149 0084 08020240 		.word	1073873416
 150 0088 1C020240 		.word	1073873436
 151 008c 20020240 		.word	1073873440
 152 0090 24020240 		.word	1073873444
 153 0094 28020240 		.word	1073873448
 154 0098 2C020240 		.word	1073873452
 155 009c 08010B40 		.word	1074462984
 156 00a0 00000240 		.word	1073872896
 157 00a4 07000080 		.word	-2147483641
 158 00a8 40000240 		.word	1073872960
 159 00ac 10000080 		.word	-2147483632
 160 00b0 80000240 		.word	1073873024
 161 00b4 00000000 		.word	CySysWdtIsr
 162 00b8 0C020B40 		.word	1074463244
 163              		.cfi_endproc
 164              	.LFE3:
 165              		.size	ClockSetup, .-ClockSetup
 166              		.section	.text.SetAnalogRoutingPumps,"ax",%progbits
 167              		.align	2
 168              		.global	SetAnalogRoutingPumps
 169              		.code	16
 170              		.thumb_func
 171              		.type	SetAnalogRoutingPumps, %function
 172              	SetAnalogRoutingPumps:
 173              	.LFB5:
 211:Generated_Source\PSoC4/cyfitter_cfg.c **** 
 212:Generated_Source\PSoC4/cyfitter_cfg.c **** 
 213:Generated_Source\PSoC4/cyfitter_cfg.c **** /* Analog API Functions */
 214:Generated_Source\PSoC4/cyfitter_cfg.c **** 
 215:Generated_Source\PSoC4/cyfitter_cfg.c **** 
 216:Generated_Source\PSoC4/cyfitter_cfg.c **** /*******************************************************************************
 217:Generated_Source\PSoC4/cyfitter_cfg.c **** * Function Name: AnalogSetDefault
 218:Generated_Source\PSoC4/cyfitter_cfg.c **** ********************************************************************************
 219:Generated_Source\PSoC4/cyfitter_cfg.c **** *
 220:Generated_Source\PSoC4/cyfitter_cfg.c **** * Summary:
 221:Generated_Source\PSoC4/cyfitter_cfg.c **** *  Sets up the analog portions of the chip to default values based on chip
 222:Generated_Source\PSoC4/cyfitter_cfg.c **** *  configuration options from the project.
 223:Generated_Source\PSoC4/cyfitter_cfg.c **** *
 224:Generated_Source\PSoC4/cyfitter_cfg.c **** * Parameters:
 225:Generated_Source\PSoC4/cyfitter_cfg.c **** *  void
 226:Generated_Source\PSoC4/cyfitter_cfg.c **** *
ARM GAS  C:\Users\Usuario\AppData\Local\Temp\ccr0LJi0.s 			page 8


 227:Generated_Source\PSoC4/cyfitter_cfg.c **** * Return:
 228:Generated_Source\PSoC4/cyfitter_cfg.c **** *  void
 229:Generated_Source\PSoC4/cyfitter_cfg.c **** *
 230:Generated_Source\PSoC4/cyfitter_cfg.c **** *******************************************************************************/
 231:Generated_Source\PSoC4/cyfitter_cfg.c **** static void AnalogSetDefault(void);
 232:Generated_Source\PSoC4/cyfitter_cfg.c **** static void AnalogSetDefault(void)
 233:Generated_Source\PSoC4/cyfitter_cfg.c **** {
 234:Generated_Source\PSoC4/cyfitter_cfg.c **** 	/* Variable VDDA is selected; no pumps are enabled by default */
 235:Generated_Source\PSoC4/cyfitter_cfg.c **** }
 236:Generated_Source\PSoC4/cyfitter_cfg.c **** 
 237:Generated_Source\PSoC4/cyfitter_cfg.c **** 
 238:Generated_Source\PSoC4/cyfitter_cfg.c **** /*******************************************************************************
 239:Generated_Source\PSoC4/cyfitter_cfg.c **** * Function Name: SetAnalogRoutingPumps
 240:Generated_Source\PSoC4/cyfitter_cfg.c **** ********************************************************************************
 241:Generated_Source\PSoC4/cyfitter_cfg.c **** *
 242:Generated_Source\PSoC4/cyfitter_cfg.c **** * Summary:
 243:Generated_Source\PSoC4/cyfitter_cfg.c **** * Enables or disables the analog pumps feeding analog routing switches.
 244:Generated_Source\PSoC4/cyfitter_cfg.c **** * Intended to be called at startup, based on the Vdda system configuration;
 245:Generated_Source\PSoC4/cyfitter_cfg.c **** * may be called during operation when the user informs us that the Vdda voltage crossed the pump th
 246:Generated_Source\PSoC4/cyfitter_cfg.c **** *
 247:Generated_Source\PSoC4/cyfitter_cfg.c **** * Parameters:
 248:Generated_Source\PSoC4/cyfitter_cfg.c **** *  enabled - 1 to enable the pumps, 0 to disable the pumps
 249:Generated_Source\PSoC4/cyfitter_cfg.c **** *
 250:Generated_Source\PSoC4/cyfitter_cfg.c **** * Return:
 251:Generated_Source\PSoC4/cyfitter_cfg.c **** *  void
 252:Generated_Source\PSoC4/cyfitter_cfg.c **** *
 253:Generated_Source\PSoC4/cyfitter_cfg.c **** *******************************************************************************/
 254:Generated_Source\PSoC4/cyfitter_cfg.c **** void SetAnalogRoutingPumps(uint8 enabled)
 255:Generated_Source\PSoC4/cyfitter_cfg.c **** {
 174              		.loc 1 255 0
 175              		.cfi_startproc
 176              		@ args = 0, pretend = 0, frame = 0
 177              		@ frame_needed = 0, uses_anonymous_args = 0
 178              		@ link register save eliminated.
 179              	.LVL6:
 256:Generated_Source\PSoC4/cyfitter_cfg.c **** 	uint32 regValue = CY_GET_XTND_REG32((void *)(CYREG_SAR_PUMP_CTRL));
 180              		.loc 1 256 0
 181 0000 064B     		ldr	r3, .L8
 182 0002 1B68     		ldr	r3, [r3]
 183              	.LVL7:
 257:Generated_Source\PSoC4/cyfitter_cfg.c **** 	if (enabled != 0u)
 184              		.loc 1 257 0
 185 0004 0028     		cmp	r0, #0
 186 0006 03D0     		beq	.L6
 258:Generated_Source\PSoC4/cyfitter_cfg.c **** 	{
 259:Generated_Source\PSoC4/cyfitter_cfg.c **** 		regValue |= 0x80000000u;
 187              		.loc 1 259 0
 188 0008 8022     		movs	r2, #128
 189 000a 1206     		lsls	r2, r2, #24
 190 000c 1343     		orrs	r3, r2
 191              	.LVL8:
 192 000e 01E0     		b	.L7
 193              	.L6:
 260:Generated_Source\PSoC4/cyfitter_cfg.c **** 	}
 261:Generated_Source\PSoC4/cyfitter_cfg.c **** 	else
 262:Generated_Source\PSoC4/cyfitter_cfg.c **** 	{
 263:Generated_Source\PSoC4/cyfitter_cfg.c **** 		regValue &= ~0x80000000u;
ARM GAS  C:\Users\Usuario\AppData\Local\Temp\ccr0LJi0.s 			page 9


 194              		.loc 1 263 0
 195 0010 5B00     		lsls	r3, r3, #1
 196              	.LVL9:
 197 0012 5B08     		lsrs	r3, r3, #1
 198              	.LVL10:
 199              	.L7:
 264:Generated_Source\PSoC4/cyfitter_cfg.c **** 	}
 265:Generated_Source\PSoC4/cyfitter_cfg.c **** 	CY_SET_XTND_REG32((void *)(CYREG_SAR_PUMP_CTRL), regValue);
 200              		.loc 1 265 0
 201 0014 014A     		ldr	r2, .L8
 202 0016 1360     		str	r3, [r2]
 266:Generated_Source\PSoC4/cyfitter_cfg.c **** }
 203              		.loc 1 266 0
 204              		@ sp needed
 205 0018 7047     		bx	lr
 206              	.L9:
 207 001a C046     		.align	2
 208              	.L8:
 209 001c 80031A40 		.word	1075446656
 210              		.cfi_endproc
 211              	.LFE5:
 212              		.size	SetAnalogRoutingPumps, .-SetAnalogRoutingPumps
 213              		.section	.text.amux_Set,"ax",%progbits
 214              		.align	2
 215              		.global	amux_Set
 216              		.code	16
 217              		.thumb_func
 218              		.type	amux_Set, %function
 219              	amux_Set:
 220              	.LFB6:
 267:Generated_Source\PSoC4/cyfitter_cfg.c **** 
 268:Generated_Source\PSoC4/cyfitter_cfg.c **** 
 269:Generated_Source\PSoC4/cyfitter_cfg.c **** #define CY_AMUX_UNUSED CYREG_CM0_ROM_DWT
 270:Generated_Source\PSoC4/cyfitter_cfg.c **** /*******************************************************************************
 271:Generated_Source\PSoC4/cyfitter_cfg.c **** * Function Name: amux_Set
 272:Generated_Source\PSoC4/cyfitter_cfg.c **** ********************************************************************************
 273:Generated_Source\PSoC4/cyfitter_cfg.c **** * Summary:
 274:Generated_Source\PSoC4/cyfitter_cfg.c **** *  This function is used to set a particular channel as active on the AMux.
 275:Generated_Source\PSoC4/cyfitter_cfg.c **** *
 276:Generated_Source\PSoC4/cyfitter_cfg.c **** * Parameters:  
 277:Generated_Source\PSoC4/cyfitter_cfg.c **** *   channel - The mux channel input to set as active
 278:Generated_Source\PSoC4/cyfitter_cfg.c **** *
 279:Generated_Source\PSoC4/cyfitter_cfg.c **** * Return:
 280:Generated_Source\PSoC4/cyfitter_cfg.c **** *   void
 281:Generated_Source\PSoC4/cyfitter_cfg.c **** *
 282:Generated_Source\PSoC4/cyfitter_cfg.c **** *******************************************************************************/
 283:Generated_Source\PSoC4/cyfitter_cfg.c **** void amux_Set(uint8 channel)
 284:Generated_Source\PSoC4/cyfitter_cfg.c **** {
 221              		.loc 1 284 0
 222              		.cfi_startproc
 223              		@ args = 0, pretend = 0, frame = 0
 224              		@ frame_needed = 0, uses_anonymous_args = 0
 225              		@ link register save eliminated.
 226              	.LVL11:
 285:Generated_Source\PSoC4/cyfitter_cfg.c **** 	switch (channel) {
 227              		.loc 1 285 0
 228 0000 0128     		cmp	r0, #1
ARM GAS  C:\Users\Usuario\AppData\Local\Temp\ccr0LJi0.s 			page 10


 229 0002 0AD0     		beq	.L12
 230 0004 0028     		cmp	r0, #0
 231 0006 04D0     		beq	.L13
 232 0008 0228     		cmp	r0, #2
 233 000a 0AD0     		beq	.L14
 234 000c 0328     		cmp	r0, #3
 235 000e 0CD0     		beq	.L15
 236 0010 0EE0     		b	.L10
 237              	.L13:
 286:Generated_Source\PSoC4/cyfitter_cfg.c **** 		case 0u:
 287:Generated_Source\PSoC4/cyfitter_cfg.c **** 			CY_SET_REG32((void CYXDATA *)CYREG_SAR_MUX_SWITCH0, (0x01u));
 238              		.loc 1 287 0
 239 0012 0122     		movs	r2, #1
 240 0014 074B     		ldr	r3, .L16
 241 0016 1A60     		str	r2, [r3]
 288:Generated_Source\PSoC4/cyfitter_cfg.c **** 			break;
 242              		.loc 1 288 0
 243 0018 0AE0     		b	.L10
 244              	.L12:
 289:Generated_Source\PSoC4/cyfitter_cfg.c **** 		case 1u:
 290:Generated_Source\PSoC4/cyfitter_cfg.c **** 			CY_SET_REG32((void CYXDATA *)CYREG_SAR_MUX_SWITCH0, (0x02u));
 245              		.loc 1 290 0
 246 001a 0222     		movs	r2, #2
 247 001c 054B     		ldr	r3, .L16
 248 001e 1A60     		str	r2, [r3]
 291:Generated_Source\PSoC4/cyfitter_cfg.c **** 			break;
 249              		.loc 1 291 0
 250 0020 06E0     		b	.L10
 251              	.L14:
 292:Generated_Source\PSoC4/cyfitter_cfg.c **** 		case 2u:
 293:Generated_Source\PSoC4/cyfitter_cfg.c **** 			CY_SET_REG32((void CYXDATA *)CYREG_SAR_MUX_SWITCH0, (0x04u));
 252              		.loc 1 293 0
 253 0022 0422     		movs	r2, #4
 254 0024 034B     		ldr	r3, .L16
 255 0026 1A60     		str	r2, [r3]
 294:Generated_Source\PSoC4/cyfitter_cfg.c **** 			break;
 256              		.loc 1 294 0
 257 0028 02E0     		b	.L10
 258              	.L15:
 295:Generated_Source\PSoC4/cyfitter_cfg.c **** 		case 3u:
 296:Generated_Source\PSoC4/cyfitter_cfg.c **** 			CY_SET_REG32((void CYXDATA *)CYREG_SAR_MUX_SWITCH0, (0x08u));
 259              		.loc 1 296 0
 260 002a 0822     		movs	r2, #8
 261 002c 014B     		ldr	r3, .L16
 262 002e 1A60     		str	r2, [r3]
 263              	.L10:
 297:Generated_Source\PSoC4/cyfitter_cfg.c **** 			break;
 298:Generated_Source\PSoC4/cyfitter_cfg.c **** 		default:
 299:Generated_Source\PSoC4/cyfitter_cfg.c **** 			break;
 300:Generated_Source\PSoC4/cyfitter_cfg.c **** 	}
 301:Generated_Source\PSoC4/cyfitter_cfg.c **** }
 264              		.loc 1 301 0
 265              		@ sp needed
 266 0030 7047     		bx	lr
 267              	.L17:
 268 0032 C046     		.align	2
 269              	.L16:
ARM GAS  C:\Users\Usuario\AppData\Local\Temp\ccr0LJi0.s 			page 11


 270 0034 00031A40 		.word	1075446528
 271              		.cfi_endproc
 272              	.LFE6:
 273              		.size	amux_Set, .-amux_Set
 274              		.section	.text.amux_Unset,"ax",%progbits
 275              		.align	2
 276              		.global	amux_Unset
 277              		.code	16
 278              		.thumb_func
 279              		.type	amux_Unset, %function
 280              	amux_Unset:
 281              	.LFB7:
 302:Generated_Source\PSoC4/cyfitter_cfg.c **** 
 303:Generated_Source\PSoC4/cyfitter_cfg.c **** /*******************************************************************************
 304:Generated_Source\PSoC4/cyfitter_cfg.c **** * Function Name: amux_Unset
 305:Generated_Source\PSoC4/cyfitter_cfg.c **** ********************************************************************************
 306:Generated_Source\PSoC4/cyfitter_cfg.c **** * Summary:
 307:Generated_Source\PSoC4/cyfitter_cfg.c **** *  This function is used to clear a particular channel from being active on the
 308:Generated_Source\PSoC4/cyfitter_cfg.c **** *  AMux.
 309:Generated_Source\PSoC4/cyfitter_cfg.c **** *
 310:Generated_Source\PSoC4/cyfitter_cfg.c **** * Parameters:  
 311:Generated_Source\PSoC4/cyfitter_cfg.c **** *   channel - The mux channel input to mark inactive
 312:Generated_Source\PSoC4/cyfitter_cfg.c **** *
 313:Generated_Source\PSoC4/cyfitter_cfg.c **** * Return:
 314:Generated_Source\PSoC4/cyfitter_cfg.c **** *   void
 315:Generated_Source\PSoC4/cyfitter_cfg.c **** *
 316:Generated_Source\PSoC4/cyfitter_cfg.c **** *******************************************************************************/
 317:Generated_Source\PSoC4/cyfitter_cfg.c **** void amux_Unset(uint8 channel)
 318:Generated_Source\PSoC4/cyfitter_cfg.c **** {
 282              		.loc 1 318 0
 283              		.cfi_startproc
 284              		@ args = 0, pretend = 0, frame = 0
 285              		@ frame_needed = 0, uses_anonymous_args = 0
 286              		@ link register save eliminated.
 287              	.LVL12:
 319:Generated_Source\PSoC4/cyfitter_cfg.c **** 	switch (channel) {
 288              		.loc 1 319 0
 289 0000 0128     		cmp	r0, #1
 290 0002 0AD0     		beq	.L20
 291 0004 0028     		cmp	r0, #0
 292 0006 04D0     		beq	.L21
 293 0008 0228     		cmp	r0, #2
 294 000a 0AD0     		beq	.L22
 295 000c 0328     		cmp	r0, #3
 296 000e 0CD0     		beq	.L23
 297 0010 0EE0     		b	.L18
 298              	.L21:
 320:Generated_Source\PSoC4/cyfitter_cfg.c **** 		case 0u:
 321:Generated_Source\PSoC4/cyfitter_cfg.c **** 			CY_SET_REG32((void CYXDATA *)CYREG_SAR_MUX_SWITCH_CLEAR0, (0x01u));
 299              		.loc 1 321 0
 300 0012 0122     		movs	r2, #1
 301 0014 074B     		ldr	r3, .L24
 302 0016 1A60     		str	r2, [r3]
 322:Generated_Source\PSoC4/cyfitter_cfg.c **** 			break;
 303              		.loc 1 322 0
 304 0018 0AE0     		b	.L18
 305              	.L20:
ARM GAS  C:\Users\Usuario\AppData\Local\Temp\ccr0LJi0.s 			page 12


 323:Generated_Source\PSoC4/cyfitter_cfg.c **** 		case 1u:
 324:Generated_Source\PSoC4/cyfitter_cfg.c **** 			CY_SET_REG32((void CYXDATA *)CYREG_SAR_MUX_SWITCH_CLEAR0, (0x02u));
 306              		.loc 1 324 0
 307 001a 0222     		movs	r2, #2
 308 001c 054B     		ldr	r3, .L24
 309 001e 1A60     		str	r2, [r3]
 325:Generated_Source\PSoC4/cyfitter_cfg.c **** 			break;
 310              		.loc 1 325 0
 311 0020 06E0     		b	.L18
 312              	.L22:
 326:Generated_Source\PSoC4/cyfitter_cfg.c **** 		case 2u:
 327:Generated_Source\PSoC4/cyfitter_cfg.c **** 			CY_SET_REG32((void CYXDATA *)CYREG_SAR_MUX_SWITCH_CLEAR0, (0x04u));
 313              		.loc 1 327 0
 314 0022 0422     		movs	r2, #4
 315 0024 034B     		ldr	r3, .L24
 316 0026 1A60     		str	r2, [r3]
 328:Generated_Source\PSoC4/cyfitter_cfg.c **** 			break;
 317              		.loc 1 328 0
 318 0028 02E0     		b	.L18
 319              	.L23:
 329:Generated_Source\PSoC4/cyfitter_cfg.c **** 		case 3u:
 330:Generated_Source\PSoC4/cyfitter_cfg.c **** 			CY_SET_REG32((void CYXDATA *)CYREG_SAR_MUX_SWITCH_CLEAR0, (0x08u));
 320              		.loc 1 330 0
 321 002a 0822     		movs	r2, #8
 322 002c 014B     		ldr	r3, .L24
 323 002e 1A60     		str	r2, [r3]
 324              	.L18:
 331:Generated_Source\PSoC4/cyfitter_cfg.c **** 			break;
 332:Generated_Source\PSoC4/cyfitter_cfg.c **** 		default:
 333:Generated_Source\PSoC4/cyfitter_cfg.c **** 			break;
 334:Generated_Source\PSoC4/cyfitter_cfg.c **** 	}
 335:Generated_Source\PSoC4/cyfitter_cfg.c **** }
 325              		.loc 1 335 0
 326              		@ sp needed
 327 0030 7047     		bx	lr
 328              	.L25:
 329 0032 C046     		.align	2
 330              	.L24:
 331 0034 04031A40 		.word	1075446532
 332              		.cfi_endproc
 333              	.LFE7:
 334              		.size	amux_Unset, .-amux_Unset
 335              		.section	.psocinit
 336              		.align	2
 337              		.global	cyfitter_cfg
 338              		.code	16
 339              		.thumb_func
 340              		.type	cyfitter_cfg, %function
 341              	cyfitter_cfg:
 342              	.LFB8:
 336:Generated_Source\PSoC4/cyfitter_cfg.c **** 
 337:Generated_Source\PSoC4/cyfitter_cfg.c **** 
 338:Generated_Source\PSoC4/cyfitter_cfg.c **** 
 339:Generated_Source\PSoC4/cyfitter_cfg.c **** /*******************************************************************************
 340:Generated_Source\PSoC4/cyfitter_cfg.c **** * Function Name: cyfitter_cfg
 341:Generated_Source\PSoC4/cyfitter_cfg.c **** ********************************************************************************
 342:Generated_Source\PSoC4/cyfitter_cfg.c **** * Summary:
ARM GAS  C:\Users\Usuario\AppData\Local\Temp\ccr0LJi0.s 			page 13


 343:Generated_Source\PSoC4/cyfitter_cfg.c **** *  This function is called by the start-up code for the selected device. It
 344:Generated_Source\PSoC4/cyfitter_cfg.c **** *  performs all of the necessary device configuration based on the design
 345:Generated_Source\PSoC4/cyfitter_cfg.c **** *  settings.  This includes settings from the Design Wide Resources (DWR) such
 346:Generated_Source\PSoC4/cyfitter_cfg.c **** *  as Clocks and Pins as well as any component configuration that is necessary.
 347:Generated_Source\PSoC4/cyfitter_cfg.c **** *
 348:Generated_Source\PSoC4/cyfitter_cfg.c **** * Parameters:
 349:Generated_Source\PSoC4/cyfitter_cfg.c **** *   void
 350:Generated_Source\PSoC4/cyfitter_cfg.c **** *
 351:Generated_Source\PSoC4/cyfitter_cfg.c **** * Return:
 352:Generated_Source\PSoC4/cyfitter_cfg.c **** *   void
 353:Generated_Source\PSoC4/cyfitter_cfg.c **** *
 354:Generated_Source\PSoC4/cyfitter_cfg.c **** *******************************************************************************/
 355:Generated_Source\PSoC4/cyfitter_cfg.c **** CY_CFG_SECTION
 356:Generated_Source\PSoC4/cyfitter_cfg.c **** void cyfitter_cfg(void)
 357:Generated_Source\PSoC4/cyfitter_cfg.c **** {
 343              		.loc 1 357 0
 344              		.cfi_startproc
 345              		@ args = 0, pretend = 0, frame = 0
 346              		@ frame_needed = 0, uses_anonymous_args = 0
 347 00bc 10B5     		push	{r4, lr}
 348              		.cfi_def_cfa_offset 8
 349              		.cfi_offset 4, -8
 350              		.cfi_offset 14, -4
 358:Generated_Source\PSoC4/cyfitter_cfg.c **** 	/* Disable interrupts by default. Let user enable if/when they want. */
 359:Generated_Source\PSoC4/cyfitter_cfg.c **** 	CyGlobalIntDisable;
 351              		.loc 1 359 0
 352              		.syntax divided
 353              	@ 359 "Generated_Source\PSoC4\cyfitter_cfg.c" 1
 354 00be 72B6     		CPSID   i
 355              	@ 0 "" 2
 356              	.LVL13:
 357              		.thumb
 358              		.syntax unified
 359              	.LBB2:
 360:Generated_Source\PSoC4/cyfitter_cfg.c **** 
 361:Generated_Source\PSoC4/cyfitter_cfg.c **** 	{
 362:Generated_Source\PSoC4/cyfitter_cfg.c **** 
 363:Generated_Source\PSoC4/cyfitter_cfg.c **** 		CYPACKED typedef struct {
 364:Generated_Source\PSoC4/cyfitter_cfg.c **** 			void CYFAR *address;
 365:Generated_Source\PSoC4/cyfitter_cfg.c **** 			uint16 size;
 366:Generated_Source\PSoC4/cyfitter_cfg.c **** 		} CYPACKED_ATTR cfg_memset_t;
 367:Generated_Source\PSoC4/cyfitter_cfg.c **** 
 368:Generated_Source\PSoC4/cyfitter_cfg.c **** 		static const cfg_memset_t CYCODE cfg_memset_list[] = {
 369:Generated_Source\PSoC4/cyfitter_cfg.c **** 			/* address, size */
 370:Generated_Source\PSoC4/cyfitter_cfg.c **** 			{(void CYFAR *)(CYDEV_UDB_P0_U0_BASE), 1024u},
 371:Generated_Source\PSoC4/cyfitter_cfg.c **** 			{(void CYFAR *)(CYDEV_UDB_DSI0_BASE), 1024u},
 372:Generated_Source\PSoC4/cyfitter_cfg.c **** 		};
 373:Generated_Source\PSoC4/cyfitter_cfg.c **** 
 374:Generated_Source\PSoC4/cyfitter_cfg.c **** 		uint8 CYDATA i;
 375:Generated_Source\PSoC4/cyfitter_cfg.c **** 
 376:Generated_Source\PSoC4/cyfitter_cfg.c **** 		/* Zero out critical memory blocks before beginning configuration */
 377:Generated_Source\PSoC4/cyfitter_cfg.c **** 		for (i = 0u; i < (sizeof(cfg_memset_list)/sizeof(cfg_memset_list[0])); i++)
 360              		.loc 1 377 0
 361 00c0 0024     		movs	r4, #0
 362 00c2 0FE0     		b	.L27
 363              	.LVL14:
 364              	.L28:
ARM GAS  C:\Users\Usuario\AppData\Local\Temp\ccr0LJi0.s 			page 14


 365              	.LBB3:
 378:Generated_Source\PSoC4/cyfitter_cfg.c **** 		{
 379:Generated_Source\PSoC4/cyfitter_cfg.c **** 			const cfg_memset_t CYCODE * CYDATA ms = &cfg_memset_list[i];
 380:Generated_Source\PSoC4/cyfitter_cfg.c **** 			CYMEMZERO(ms->address, (size_t)(uint32)(ms->size));
 366              		.loc 1 380 0 discriminator 3
 367 00c4 2848     		ldr	r0, .L29
 368 00c6 6200     		lsls	r2, r4, #1
 369 00c8 1319     		adds	r3, r2, r4
 370 00ca 5900     		lsls	r1, r3, #1
 371 00cc 0B00     		movs	r3, r1
 372 00ce 4118     		adds	r1, r0, r1
 373 00d0 8988     		ldrh	r1, [r1, #4]
 374 00d2 1A5A     		ldrh	r2, [r3, r0]
 375 00d4 C318     		adds	r3, r0, r3
 376 00d6 5888     		ldrh	r0, [r3, #2]
 377 00d8 0004     		lsls	r0, r0, #16
 378 00da 1043     		orrs	r0, r2
 379 00dc FFF7FEFF 		bl	CYMEMZERO
 380              	.LVL15:
 381              	.LBE3:
 377:Generated_Source\PSoC4/cyfitter_cfg.c **** 		{
 382              		.loc 1 377 0 discriminator 3
 383 00e0 0134     		adds	r4, r4, #1
 384              	.LVL16:
 385 00e2 E4B2     		uxtb	r4, r4
 386              	.LVL17:
 387              	.L27:
 377:Generated_Source\PSoC4/cyfitter_cfg.c **** 		{
 388              		.loc 1 377 0 is_stmt 0 discriminator 1
 389 00e4 012C     		cmp	r4, #1
 390 00e6 EDD9     		bls	.L28
 381:Generated_Source\PSoC4/cyfitter_cfg.c **** 		}
 382:Generated_Source\PSoC4/cyfitter_cfg.c **** 
 383:Generated_Source\PSoC4/cyfitter_cfg.c **** 		/* HSIOM Starting address: CYDEV_HSIOM_BASE */
 384:Generated_Source\PSoC4/cyfitter_cfg.c **** 		CY_SET_REG32((void *)(CYREG_HSIOM_PORT_SEL1), 0x00000808u);
 391              		.loc 1 384 0 is_stmt 1
 392 00e8 204A     		ldr	r2, .L29+4
 393 00ea 214B     		ldr	r3, .L29+8
 394 00ec 1A60     		str	r2, [r3]
 385:Generated_Source\PSoC4/cyfitter_cfg.c **** 		CY_SET_REG32((void *)(CYREG_HSIOM_PORT_SEL2), 0x08080000u);
 395              		.loc 1 385 0
 396 00ee 214A     		ldr	r2, .L29+12
 397 00f0 214B     		ldr	r3, .L29+16
 398 00f2 1A60     		str	r2, [r3]
 386:Generated_Source\PSoC4/cyfitter_cfg.c **** 		CY_SET_REG32((void *)(CYREG_HSIOM_PORT_SEL3), 0x0000EE00u);
 399              		.loc 1 386 0
 400 00f4 EE22     		movs	r2, #238
 401 00f6 1202     		lsls	r2, r2, #8
 402 00f8 204B     		ldr	r3, .L29+20
 403 00fa 1A60     		str	r2, [r3]
 387:Generated_Source\PSoC4/cyfitter_cfg.c **** 		CY_SET_REG32((void *)(CYREG_HSIOM_PORT_SEL4), 0x00000099u);
 404              		.loc 1 387 0
 405 00fc 9922     		movs	r2, #153
 406 00fe 204B     		ldr	r3, .L29+24
 407 0100 1A60     		str	r2, [r3]
 388:Generated_Source\PSoC4/cyfitter_cfg.c **** 
 389:Generated_Source\PSoC4/cyfitter_cfg.c **** 		/* UDB_PA_0 Starting address: CYDEV_UDB_PA0_BASE */
ARM GAS  C:\Users\Usuario\AppData\Local\Temp\ccr0LJi0.s 			page 15


 390:Generated_Source\PSoC4/cyfitter_cfg.c **** 		CY_SET_REG32((void *)(CYDEV_UDB_PA0_BASE), 0x00990000u);
 408              		.loc 1 390 0
 409 0102 9923     		movs	r3, #153
 410 0104 1B04     		lsls	r3, r3, #16
 411 0106 1F4A     		ldr	r2, .L29+28
 412 0108 1360     		str	r3, [r2]
 391:Generated_Source\PSoC4/cyfitter_cfg.c **** 
 392:Generated_Source\PSoC4/cyfitter_cfg.c **** 		/* UDB_PA_1 Starting address: CYDEV_UDB_PA1_BASE */
 393:Generated_Source\PSoC4/cyfitter_cfg.c **** 		CY_SET_REG32((void *)(CYDEV_UDB_PA1_BASE), 0x00990000u);
 413              		.loc 1 393 0
 414 010a 1F4A     		ldr	r2, .L29+32
 415 010c 1360     		str	r3, [r2]
 394:Generated_Source\PSoC4/cyfitter_cfg.c **** 
 395:Generated_Source\PSoC4/cyfitter_cfg.c **** 		/* UDB_PA_2 Starting address: CYDEV_UDB_PA2_BASE */
 396:Generated_Source\PSoC4/cyfitter_cfg.c **** 		CY_SET_REG32((void *)(CYDEV_UDB_PA2_BASE), 0x00990000u);
 416              		.loc 1 396 0
 417 010e 1F4A     		ldr	r2, .L29+36
 418 0110 1360     		str	r3, [r2]
 397:Generated_Source\PSoC4/cyfitter_cfg.c **** 
 398:Generated_Source\PSoC4/cyfitter_cfg.c **** 		/* UDB_PA_3 Starting address: CYDEV_UDB_PA3_BASE */
 399:Generated_Source\PSoC4/cyfitter_cfg.c **** 		CY_SET_REG32((void *)(CYDEV_UDB_PA3_BASE), 0x00990000u);
 419              		.loc 1 399 0
 420 0112 1F4A     		ldr	r2, .L29+40
 421 0114 1360     		str	r3, [r2]
 400:Generated_Source\PSoC4/cyfitter_cfg.c **** 
 401:Generated_Source\PSoC4/cyfitter_cfg.c **** 		/* Enable digital routing */
 402:Generated_Source\PSoC4/cyfitter_cfg.c **** 		CY_SET_XTND_REG8((void *)CYREG_UDB_UDBIF_BANK_CTL, (uint8)(CY_GET_XTND_REG8((void *)CYREG_UDB_UDB
 422              		.loc 1 402 0
 423 0116 1F4A     		ldr	r2, .L29+44
 424 0118 1178     		ldrb	r1, [r2]
 425 011a 0623     		movs	r3, #6
 426 011c 0B43     		orrs	r3, r1
 427 011e DBB2     		uxtb	r3, r3
 428 0120 1370     		strb	r3, [r2]
 429              	.LBE2:
 403:Generated_Source\PSoC4/cyfitter_cfg.c **** 	}
 404:Generated_Source\PSoC4/cyfitter_cfg.c **** 
 405:Generated_Source\PSoC4/cyfitter_cfg.c **** 	/* Perform second pass device configuration. These items must be configured in specific order afte
 406:Generated_Source\PSoC4/cyfitter_cfg.c **** 	/* IOPINS0_0 Starting address: CYDEV_PRT0_BASE */
 407:Generated_Source\PSoC4/cyfitter_cfg.c **** 	CY_SET_REG32((void *)(CYDEV_PRT0_BASE), 0x000000FFu);
 430              		.loc 1 407 0
 431 0122 FF22     		movs	r2, #255
 432 0124 1C4B     		ldr	r3, .L29+48
 433 0126 1A60     		str	r2, [r3]
 408:Generated_Source\PSoC4/cyfitter_cfg.c **** 	CY_SET_REG32((void *)(CYREG_PRT0_PC), 0x00492492u);
 434              		.loc 1 408 0
 435 0128 1C4A     		ldr	r2, .L29+52
 436 012a 1D4B     		ldr	r3, .L29+56
 437 012c 1A60     		str	r2, [r3]
 409:Generated_Source\PSoC4/cyfitter_cfg.c **** 
 410:Generated_Source\PSoC4/cyfitter_cfg.c **** 	/* IOPINS0_1 Starting address: CYDEV_PRT1_BASE */
 411:Generated_Source\PSoC4/cyfitter_cfg.c **** 	CY_SET_REG32((void *)(CYDEV_PRT1_BASE), 0x0000003Fu);
 438              		.loc 1 411 0
 439 012e 3F22     		movs	r2, #63
 440 0130 1C4B     		ldr	r3, .L29+60
 441 0132 1A60     		str	r2, [r3]
 412:Generated_Source\PSoC4/cyfitter_cfg.c **** 	CY_SET_REG32((void *)(CYREG_PRT1_PC), 0x00D92596u);
ARM GAS  C:\Users\Usuario\AppData\Local\Temp\ccr0LJi0.s 			page 16


 442              		.loc 1 412 0
 443 0134 1C4A     		ldr	r2, .L29+64
 444 0136 1D4B     		ldr	r3, .L29+68
 445 0138 1A60     		str	r2, [r3]
 413:Generated_Source\PSoC4/cyfitter_cfg.c **** 
 414:Generated_Source\PSoC4/cyfitter_cfg.c **** 	/* IOPINS0_2 Starting address: CYDEV_PRT2_BASE */
 415:Generated_Source\PSoC4/cyfitter_cfg.c **** 	CY_SET_REG32((void *)(CYDEV_PRT2_BASE), 0x0000005Fu);
 446              		.loc 1 415 0
 447 013a 5F22     		movs	r2, #95
 448 013c 1C4B     		ldr	r3, .L29+72
 449 013e 1A60     		str	r2, [r3]
 416:Generated_Source\PSoC4/cyfitter_cfg.c **** 	CY_SET_REG32((void *)(CYREG_PRT2_PC), 0x00DB6000u);
 450              		.loc 1 416 0
 451 0140 1C4A     		ldr	r2, .L29+76
 452 0142 1D4B     		ldr	r3, .L29+80
 453 0144 1A60     		str	r2, [r3]
 417:Generated_Source\PSoC4/cyfitter_cfg.c **** 	CY_SET_REG32((void *)(CYREG_PRT2_PC2), 0x0000000Fu);
 454              		.loc 1 417 0
 455 0146 0F22     		movs	r2, #15
 456 0148 1C4B     		ldr	r3, .L29+84
 457 014a 1A60     		str	r2, [r3]
 418:Generated_Source\PSoC4/cyfitter_cfg.c **** 
 419:Generated_Source\PSoC4/cyfitter_cfg.c **** 	/* IOPINS0_3 Starting address: CYDEV_PRT3_BASE */
 420:Generated_Source\PSoC4/cyfitter_cfg.c **** 	CY_SET_REG32((void *)(CYREG_PRT3_PC), 0x00DB6DB6u);
 458              		.loc 1 420 0
 459 014c 1C4A     		ldr	r2, .L29+88
 460 014e 1D4B     		ldr	r3, .L29+92
 461 0150 1A60     		str	r2, [r3]
 421:Generated_Source\PSoC4/cyfitter_cfg.c **** 
 422:Generated_Source\PSoC4/cyfitter_cfg.c **** 	/* IOPINS0_4 Starting address: CYDEV_PRT4_BASE */
 423:Generated_Source\PSoC4/cyfitter_cfg.c **** 	CY_SET_REG32((void *)(CYDEV_PRT4_BASE), 0x00000002u);
 462              		.loc 1 423 0
 463 0152 0223     		movs	r3, #2
 464 0154 1C4A     		ldr	r2, .L29+96
 465 0156 1360     		str	r3, [r2]
 424:Generated_Source\PSoC4/cyfitter_cfg.c **** 	CY_SET_REG32((void *)(CYREG_PRT4_PC), 0x00000DB1u);
 466              		.loc 1 424 0
 467 0158 1C49     		ldr	r1, .L29+100
 468 015a 1D4A     		ldr	r2, .L29+104
 469 015c 1160     		str	r1, [r2]
 425:Generated_Source\PSoC4/cyfitter_cfg.c **** 	CY_SET_REG32((void *)(CYREG_PRT4_PC2), 0x00000002u);
 470              		.loc 1 425 0
 471 015e 1D4A     		ldr	r2, .L29+108
 472 0160 1360     		str	r3, [r2]
 426:Generated_Source\PSoC4/cyfitter_cfg.c **** 
 427:Generated_Source\PSoC4/cyfitter_cfg.c **** 
 428:Generated_Source\PSoC4/cyfitter_cfg.c **** 	/* Setup clocks based on selections from Clock DWR */
 429:Generated_Source\PSoC4/cyfitter_cfg.c **** 	ClockSetup();
 473              		.loc 1 429 0
 474 0162 FFF74DFF 		bl	ClockSetup
 475              	.LVL18:
 430:Generated_Source\PSoC4/cyfitter_cfg.c **** 
 431:Generated_Source\PSoC4/cyfitter_cfg.c **** 	/* Perform basic analog initialization to defaults */
 432:Generated_Source\PSoC4/cyfitter_cfg.c **** 	AnalogSetDefault();
 433:Generated_Source\PSoC4/cyfitter_cfg.c **** 
 434:Generated_Source\PSoC4/cyfitter_cfg.c **** }
 476              		.loc 1 434 0
ARM GAS  C:\Users\Usuario\AppData\Local\Temp\ccr0LJi0.s 			page 17


 477              		@ sp needed
 478              	.LVL19:
 479 0166 10BD     		pop	{r4, pc}
 480              	.L30:
 481              		.align	2
 482              	.L29:
 483 0168 00000000 		.word	.LANCHOR0
 484 016c 08080000 		.word	2056
 485 0170 04000140 		.word	1073807364
 486 0174 00000808 		.word	134742016
 487 0178 08000140 		.word	1073807368
 488 017c 0C000140 		.word	1073807372
 489 0180 10000140 		.word	1073807376
 490 0184 00500F40 		.word	1074745344
 491 0188 10500F40 		.word	1074745360
 492 018c 20500F40 		.word	1074745376
 493 0190 30500F40 		.word	1074745392
 494 0194 00700F40 		.word	1074753536
 495 0198 00000440 		.word	1074003968
 496 019c 92244900 		.word	4793490
 497 01a0 08000440 		.word	1074003976
 498 01a4 00010440 		.word	1074004224
 499 01a8 9625D900 		.word	14230934
 500 01ac 08010440 		.word	1074004232
 501 01b0 00020440 		.word	1074004480
 502 01b4 0060DB00 		.word	14376960
 503 01b8 08020440 		.word	1074004488
 504 01bc 18020440 		.word	1074004504
 505 01c0 B66DDB00 		.word	14380470
 506 01c4 08030440 		.word	1074004744
 507 01c8 00040440 		.word	1074004992
 508 01cc B10D0000 		.word	3505
 509 01d0 08040440 		.word	1074005000
 510 01d4 18040440 		.word	1074005016
 511              		.cfi_endproc
 512              	.LFE8:
 513              		.size	cyfitter_cfg, .-cyfitter_cfg
 514              		.section	.rodata
 515              		.align	2
 516              		.set	.LANCHOR0,. + 0
 517              		.type	cfg_memset_list.4875, %object
 518              		.size	cfg_memset_list.4875, 12
 519              	cfg_memset_list.4875:
 520 0000 00300F40 		.word	1074737152
 521 0004 0004     		.short	1024
 522 0006 00400F40 		.4byte	1074741248
 523 000a 0004     		.short	1024
 524              		.text
 525              	.Letext0:
 526              		.file 2 "c:\\program files (x86)\\cypress\\psoc creator\\4.4\\psoc creator\\import\\gnu\\arm\\5.4.
 527              		.file 3 "Generated_Source\\PSoC4\\cytypes.h"
 528              		.file 4 "Generated_Source\\PSoC4\\CyLib.h"