ARM GAS  C:\Users\Usuario\AppData\Local\Temp\ccccK4kQ.s 			page 1


   1              		.syntax unified
   2              		.cpu cortex-m0
   3              		.fpu softvfp
   4              		.eabi_attribute 20, 1
   5              		.eabi_attribute 21, 1
   6              		.eabi_attribute 23, 3
   7              		.eabi_attribute 24, 1
   8              		.eabi_attribute 25, 1
   9              		.eabi_attribute 26, 1
  10              		.eabi_attribute 30, 1
  11              		.eabi_attribute 34, 0
  12              		.eabi_attribute 18, 4
  13              		.thumb
  14              		.syntax unified
  15              		.file	"main.c"
  16              		.text
  17              	.Ltext0:
  18              		.cfi_sections	.debug_frame
  19              		.section	.text.pin_write,"ax",%progbits
  20              		.align	2
  21              		.global	pin_write
  22              		.code	16
  23              		.thumb_func
  24              		.type	pin_write, %function
  25              	pin_write:
  26              	.LFB32:
  27              		.file 1 "../../api/machine/pin.c"
   1:../../api/machine/pin.c **** // Project Name: Aixt project, https://gitlab.com/fermarsan/aixt-project.git
   2:../../api/machine/pin.c **** // File Name: sleep_us.c
   3:../../api/machine/pin.c **** // Author: Javier Leon, Camilo Lucas and Fernando Martínez Santa
   4:../../api/machine/pin.c **** // Date: 2023
   5:../../api/machine/pin.c **** // License: MIT
   6:../../api/machine/pin.c **** //
   7:../../api/machine/pin.c **** // Description: Pin management functions
   8:../../api/machine/pin.c **** //              (CY8CKIT-049-42XX)
   9:../../api/machine/pin.c **** 
  10:../../api/machine/pin.c **** #define pin_high(PIN)   pin_write(PIN, 1)
  11:../../api/machine/pin.c **** #define pin_low(PIN)    pin_write(PIN, 0)
  12:../../api/machine/pin.c **** 
  13:../../api/machine/pin.c **** void pin_write(int pin_name, int value) {  
  28              		.loc 1 13 0
  29              		.cfi_startproc
  30              		@ args = 0, pretend = 0, frame = 0
  31              		@ frame_needed = 0, uses_anonymous_args = 0
  32              	.LVL0:
  33 0000 10B5     		push	{r4, lr}
  34              		.cfi_def_cfa_offset 8
  35              		.cfi_offset 4, -8
  36              		.cfi_offset 14, -4
  14:../../api/machine/pin.c ****     switch (pin_name)
  37              		.loc 1 14 0
  38 0002 0C28     		cmp	r0, #12
  39 0004 2ED8     		bhi	.L1
  40 0006 8000     		lsls	r0, r0, #2
  41              	.LVL1:
  42 0008 174B     		ldr	r3, .L15
  43 000a 1B58     		ldr	r3, [r3, r0]
ARM GAS  C:\Users\Usuario\AppData\Local\Temp\ccccK4kQ.s 			page 2


  44 000c 9F46     		mov	pc, r3
  45              		.section	.rodata
  46              		.align	2
  47              	.L4:
  48 0000 0E000000 		.word	.L3
  49 0004 64000000 		.word	.L1
  50 0008 64000000 		.word	.L1
  51 000c 16000000 		.word	.L5
  52 0010 1E000000 		.word	.L6
  53 0014 26000000 		.word	.L7
  54 0018 2E000000 		.word	.L8
  55 001c 36000000 		.word	.L9
  56 0020 3E000000 		.word	.L10
  57 0024 46000000 		.word	.L11
  58 0028 4E000000 		.word	.L12
  59 002c 56000000 		.word	.L13
  60 0030 5E000000 		.word	.L14
  61              		.section	.text.pin_write
  62              	.L3:
  15:../../api/machine/pin.c ****     {
  16:../../api/machine/pin.c ****     case led1:
  17:../../api/machine/pin.c ****         led1_Write(value);
  63              		.loc 1 17 0
  64 000e C8B2     		uxtb	r0, r1
  65 0010 FFF7FEFF 		bl	led1_Write
  66              	.LVL2:
  18:../../api/machine/pin.c ****         break;
  67              		.loc 1 18 0
  68 0014 26E0     		b	.L1
  69              	.LVL3:
  70              	.L5:
  19:../../api/machine/pin.c ****     case do1:
  20:../../api/machine/pin.c ****         do1_Write(value);
  71              		.loc 1 20 0
  72 0016 C8B2     		uxtb	r0, r1
  73 0018 FFF7FEFF 		bl	do1_Write
  74              	.LVL4:
  21:../../api/machine/pin.c ****         break;
  75              		.loc 1 21 0
  76 001c 22E0     		b	.L1
  77              	.LVL5:
  78              	.L6:
  22:../../api/machine/pin.c ****     case do2:
  23:../../api/machine/pin.c ****         do2_Write(value);
  79              		.loc 1 23 0
  80 001e C8B2     		uxtb	r0, r1
  81 0020 FFF7FEFF 		bl	do2_Write
  82              	.LVL6:
  24:../../api/machine/pin.c ****         break;
  83              		.loc 1 24 0
  84 0024 1EE0     		b	.L1
  85              	.LVL7:
  86              	.L7:
  25:../../api/machine/pin.c ****     case do3:
  26:../../api/machine/pin.c ****         do3_Write(value);
  87              		.loc 1 26 0
  88 0026 C8B2     		uxtb	r0, r1
ARM GAS  C:\Users\Usuario\AppData\Local\Temp\ccccK4kQ.s 			page 3


  89 0028 FFF7FEFF 		bl	do3_Write
  90              	.LVL8:
  27:../../api/machine/pin.c ****         break;
  91              		.loc 1 27 0
  92 002c 1AE0     		b	.L1
  93              	.LVL9:
  94              	.L8:
  28:../../api/machine/pin.c ****     case do4:
  29:../../api/machine/pin.c ****         do4_Write(value);
  95              		.loc 1 29 0
  96 002e C8B2     		uxtb	r0, r1
  97 0030 FFF7FEFF 		bl	do4_Write
  98              	.LVL10:
  30:../../api/machine/pin.c ****         break;
  99              		.loc 1 30 0
 100 0034 16E0     		b	.L1
 101              	.LVL11:
 102              	.L9:
  31:../../api/machine/pin.c ****     case do5:
  32:../../api/machine/pin.c ****         do5_Write(value);
 103              		.loc 1 32 0
 104 0036 C8B2     		uxtb	r0, r1
 105 0038 FFF7FEFF 		bl	do5_Write
 106              	.LVL12:
  33:../../api/machine/pin.c ****         break;
 107              		.loc 1 33 0
 108 003c 12E0     		b	.L1
 109              	.LVL13:
 110              	.L10:
  34:../../api/machine/pin.c ****     case do6:
  35:../../api/machine/pin.c ****         do6_Write(value);
 111              		.loc 1 35 0
 112 003e C8B2     		uxtb	r0, r1
 113 0040 FFF7FEFF 		bl	do6_Write
 114              	.LVL14:
  36:../../api/machine/pin.c ****         break;
 115              		.loc 1 36 0
 116 0044 0EE0     		b	.L1
 117              	.LVL15:
 118              	.L11:
  37:../../api/machine/pin.c ****     case do7:
  38:../../api/machine/pin.c ****         do7_Write(value);
 119              		.loc 1 38 0
 120 0046 C8B2     		uxtb	r0, r1
 121 0048 FFF7FEFF 		bl	do7_Write
 122              	.LVL16:
  39:../../api/machine/pin.c ****         break;
 123              		.loc 1 39 0
 124 004c 0AE0     		b	.L1
 125              	.LVL17:
 126              	.L12:
  40:../../api/machine/pin.c ****     case do8:
  41:../../api/machine/pin.c ****         do8_Write(value);
 127              		.loc 1 41 0
 128 004e C8B2     		uxtb	r0, r1
 129 0050 FFF7FEFF 		bl	do8_Write
 130              	.LVL18:
ARM GAS  C:\Users\Usuario\AppData\Local\Temp\ccccK4kQ.s 			page 4


  42:../../api/machine/pin.c ****         break;
 131              		.loc 1 42 0
 132 0054 06E0     		b	.L1
 133              	.LVL19:
 134              	.L13:
  43:../../api/machine/pin.c ****     case do9:
  44:../../api/machine/pin.c ****         do9_Write(value);
 135              		.loc 1 44 0
 136 0056 C8B2     		uxtb	r0, r1
 137 0058 FFF7FEFF 		bl	do9_Write
 138              	.LVL20:
  45:../../api/machine/pin.c ****         break;
 139              		.loc 1 45 0
 140 005c 02E0     		b	.L1
 141              	.LVL21:
 142              	.L14:
  46:../../api/machine/pin.c ****     case do10:
  47:../../api/machine/pin.c ****         do10_Write(value);
 143              		.loc 1 47 0
 144 005e C8B2     		uxtb	r0, r1
 145 0060 FFF7FEFF 		bl	do10_Write
 146              	.LVL22:
 147              	.L1:
  48:../../api/machine/pin.c ****         break;
  49:../../api/machine/pin.c ****     default:
  50:../../api/machine/pin.c ****         break;
  51:../../api/machine/pin.c ****     }
  52:../../api/machine/pin.c **** }
 148              		.loc 1 52 0
 149              		@ sp needed
 150 0064 10BD     		pop	{r4, pc}
 151              	.L16:
 152 0066 C046     		.align	2
 153              	.L15:
 154 0068 00000000 		.word	.L4
 155              		.cfi_endproc
 156              	.LFE32:
 157              		.size	pin_write, .-pin_write
 158              		.section	.text.pin_read,"ax",%progbits
 159              		.align	2
 160              		.global	pin_read
 161              		.code	16
 162              		.thumb_func
 163              		.type	pin_read, %function
 164              	pin_read:
 165              	.LFB33:
  53:../../api/machine/pin.c **** 
  54:../../api/machine/pin.c **** int pin_read(int pin_name) {   
 166              		.loc 1 54 0
 167              		.cfi_startproc
 168              		@ args = 0, pretend = 0, frame = 0
 169              		@ frame_needed = 0, uses_anonymous_args = 0
 170              	.LVL23:
 171 0000 10B5     		push	{r4, lr}
 172              		.cfi_def_cfa_offset 8
 173              		.cfi_offset 4, -8
 174              		.cfi_offset 14, -4
ARM GAS  C:\Users\Usuario\AppData\Local\Temp\ccccK4kQ.s 			page 5


  55:../../api/machine/pin.c ****     switch (pin_name)
 175              		.loc 1 55 0
 176 0002 0D38     		subs	r0, r0, #13
 177              	.LVL24:
 178 0004 0B28     		cmp	r0, #11
 179 0006 27D8     		bhi	.L18
 180 0008 8000     		lsls	r0, r0, #2
 181              	.LVL25:
 182 000a 144B     		ldr	r3, .L33
 183 000c 1B58     		ldr	r3, [r3, r0]
 184 000e 9F46     		mov	pc, r3
 185              		.section	.rodata
 186              		.align	2
 187              	.L20:
 188 0034 10000000 		.word	.L19
 189 0038 16000000 		.word	.L21
 190 003c 1C000000 		.word	.L22
 191 0040 22000000 		.word	.L23
 192 0044 28000000 		.word	.L24
 193 0048 2E000000 		.word	.L25
 194 004c 34000000 		.word	.L26
 195 0050 3A000000 		.word	.L27
 196 0054 40000000 		.word	.L28
 197 0058 46000000 		.word	.L29
 198 005c 4C000000 		.word	.L30
 199 0060 52000000 		.word	.L31
 200              		.section	.text.pin_read
 201              	.L19:
  56:../../api/machine/pin.c ****     {
  57:../../api/machine/pin.c ****     case sw1:
  58:../../api/machine/pin.c ****         return sw1_Read();
 202              		.loc 1 58 0
 203 0010 FFF7FEFF 		bl	sw1_Read
 204              	.LVL26:
 205 0014 20E0     		b	.L17
 206              	.L21:
  59:../../api/machine/pin.c ****         break;
  60:../../api/machine/pin.c ****     case di0:
  61:../../api/machine/pin.c ****         return di0_Read();
 207              		.loc 1 61 0
 208 0016 FFF7FEFF 		bl	di0_Read
 209              	.LVL27:
 210 001a 1DE0     		b	.L17
 211              	.L22:
  62:../../api/machine/pin.c ****         break;
  63:../../api/machine/pin.c ****     case di1:
  64:../../api/machine/pin.c ****         return di1_Read();
 212              		.loc 1 64 0
 213 001c FFF7FEFF 		bl	di1_Read
 214              	.LVL28:
 215 0020 1AE0     		b	.L17
 216              	.L23:
  65:../../api/machine/pin.c ****         break;
  66:../../api/machine/pin.c ****     case di2:
  67:../../api/machine/pin.c ****         return di2_Read();
 217              		.loc 1 67 0
 218 0022 FFF7FEFF 		bl	di2_Read
ARM GAS  C:\Users\Usuario\AppData\Local\Temp\ccccK4kQ.s 			page 6


 219              	.LVL29:
 220 0026 17E0     		b	.L17
 221              	.L24:
  68:../../api/machine/pin.c ****         break;
  69:../../api/machine/pin.c ****     case di3:
  70:../../api/machine/pin.c ****         return di3_Read();
 222              		.loc 1 70 0
 223 0028 FFF7FEFF 		bl	di3_Read
 224              	.LVL30:
 225 002c 14E0     		b	.L17
 226              	.L25:
  71:../../api/machine/pin.c ****         break;
  72:../../api/machine/pin.c ****     case di4:
  73:../../api/machine/pin.c ****         return di4_Read();
 227              		.loc 1 73 0
 228 002e FFF7FEFF 		bl	di4_Read
 229              	.LVL31:
 230 0032 11E0     		b	.L17
 231              	.L26:
  74:../../api/machine/pin.c ****         break;
  75:../../api/machine/pin.c ****     case di5:
  76:../../api/machine/pin.c ****         return di5_Read();
 232              		.loc 1 76 0
 233 0034 FFF7FEFF 		bl	di5_Read
 234              	.LVL32:
 235 0038 0EE0     		b	.L17
 236              	.L27:
  77:../../api/machine/pin.c ****         break;
  78:../../api/machine/pin.c ****     case di6:
  79:../../api/machine/pin.c ****         return di6_Read();
 237              		.loc 1 79 0
 238 003a FFF7FEFF 		bl	di6_Read
 239              	.LVL33:
 240 003e 0BE0     		b	.L17
 241              	.L28:
  80:../../api/machine/pin.c ****         break;
  81:../../api/machine/pin.c ****     case di7:
  82:../../api/machine/pin.c ****         return di7_Read();
 242              		.loc 1 82 0
 243 0040 FFF7FEFF 		bl	di7_Read
 244              	.LVL34:
 245 0044 08E0     		b	.L17
 246              	.L29:
  83:../../api/machine/pin.c ****         break;
  84:../../api/machine/pin.c ****     case di8:
  85:../../api/machine/pin.c ****         return di8_Read();
 247              		.loc 1 85 0
 248 0046 FFF7FEFF 		bl	di8_Read
 249              	.LVL35:
 250 004a 05E0     		b	.L17
 251              	.L30:
  86:../../api/machine/pin.c ****         break;
  87:../../api/machine/pin.c ****     case di9:
  88:../../api/machine/pin.c ****         return di9_Read();
 252              		.loc 1 88 0
 253 004c FFF7FEFF 		bl	di9_Read
 254              	.LVL36:
ARM GAS  C:\Users\Usuario\AppData\Local\Temp\ccccK4kQ.s 			page 7


 255 0050 02E0     		b	.L17
 256              	.L31:
  89:../../api/machine/pin.c ****         break;
  90:../../api/machine/pin.c ****     case di10:
  91:../../api/machine/pin.c ****         return di10_Read();
 257              		.loc 1 91 0
 258 0052 FFF7FEFF 		bl	di10_Read
 259              	.LVL37:
 260 0056 FFE7     		b	.L17
 261              	.L18:
 262              	.L17:
  92:../../api/machine/pin.c ****         break;
  93:../../api/machine/pin.c ****     default:
  94:../../api/machine/pin.c ****         break;
  95:../../api/machine/pin.c ****     }
  96:../../api/machine/pin.c **** }...
 263              		.loc 1 96 0
 264              		@ sp needed
 265 0058 10BD     		pop	{r4, pc}
 266              	.L34:
 267 005a C046     		.align	2
 268              	.L33:
 269 005c 34000000 		.word	.L20
 270              		.cfi_endproc
 271              	.LFE33:
 272              		.size	pin_read, .-pin_read
 273              		.section	.text.pwm_duty,"ax",%progbits
 274              		.align	2
 275              		.global	pwm_duty
 276              		.code	16
 277              		.thumb_func
 278              		.type	pwm_duty, %function
 279              	pwm_duty:
 280              	.LFB34:
 281              		.file 2 "../../api/machine/pwm.c"
   1:../../api/machine/pwm.c **** // Project Name: Aixt project, https://gitlab.com/fermarsan/aixt-project.git
   2:../../api/machine/pwm.c **** // File Name: pwm.c
   3:../../api/machine/pwm.c **** // Author: Javier Leon, Camilo Lucas and Fernando Martínez Santa
   4:../../api/machine/pwm.c **** // Date: 2023
   5:../../api/machine/pwm.c **** // License: MIT
   6:../../api/machine/pwm.c **** //
   7:../../api/machine/pwm.c **** // Description: This is a module to emulate a PWM output in console.
   8:../../api/machine/pwm.c **** //              (CY8CKIT-049-42XX)
   9:../../api/machine/pwm.c **** 
  10:../../api/machine/pwm.c **** void pwm_duty(int pwm_id, int duty) {
 282              		.loc 2 10 0
 283              		.cfi_startproc
 284              		@ args = 0, pretend = 0, frame = 0
 285              		@ frame_needed = 0, uses_anonymous_args = 0
 286              	.LVL38:
 287 0000 10B5     		push	{r4, lr}
 288              		.cfi_def_cfa_offset 8
 289              		.cfi_offset 4, -8
 290              		.cfi_offset 14, -4
  11:../../api/machine/pwm.c ****     if (pwm_id==1){
 291              		.loc 2 11 0
 292 0002 0128     		cmp	r0, #1
ARM GAS  C:\Users\Usuario\AppData\Local\Temp\ccccK4kQ.s 			page 8


 293 0004 04D1     		bne	.L36
  12:../../api/machine/pwm.c ****         pwm0_WriteCompare(duty*655);
 294              		.loc 2 12 0
 295 0006 0D48     		ldr	r0, .L40
 296              	.LVL39:
 297 0008 4843     		muls	r0, r1
 298 000a FFF7FEFF 		bl	pwm0_WriteCompare
 299              	.LVL40:
 300 000e 13E0     		b	.L35
 301              	.LVL41:
 302              	.L36:
  13:../../api/machine/pwm.c ****     }
  14:../../api/machine/pwm.c ****     else if (pwm_id==2){
 303              		.loc 2 14 0
 304 0010 0228     		cmp	r0, #2
 305 0012 04D1     		bne	.L38
  15:../../api/machine/pwm.c ****         pwm1_WriteCompare(duty*655);
 306              		.loc 2 15 0
 307 0014 0948     		ldr	r0, .L40
 308              	.LVL42:
 309 0016 4843     		muls	r0, r1
 310 0018 FFF7FEFF 		bl	pwm1_WriteCompare
 311              	.LVL43:
 312 001c 0CE0     		b	.L35
 313              	.LVL44:
 314              	.L38:
  16:../../api/machine/pwm.c ****     }
  17:../../api/machine/pwm.c ****     else if (pwm_id==3){
 315              		.loc 2 17 0
 316 001e 0328     		cmp	r0, #3
 317 0020 04D1     		bne	.L39
  18:../../api/machine/pwm.c ****         pwm2_WriteCompare(duty*655);
 318              		.loc 2 18 0
 319 0022 0648     		ldr	r0, .L40
 320              	.LVL45:
 321 0024 4843     		muls	r0, r1
 322 0026 FFF7FEFF 		bl	pwm2_WriteCompare
 323              	.LVL46:
 324 002a 05E0     		b	.L35
 325              	.LVL47:
 326              	.L39:
  19:../../api/machine/pwm.c ****     }
  20:../../api/machine/pwm.c ****     else if (pwm_id==4){
 327              		.loc 2 20 0
 328 002c 0428     		cmp	r0, #4
 329 002e 03D1     		bne	.L35
  21:../../api/machine/pwm.c ****         pwm3_WriteCompare(duty*655);
 330              		.loc 2 21 0
 331 0030 0248     		ldr	r0, .L40
 332              	.LVL48:
 333 0032 4843     		muls	r0, r1
 334 0034 FFF7FEFF 		bl	pwm3_WriteCompare
 335              	.LVL49:
 336              	.L35:
  22:../../api/machine/pwm.c ****     }
  23:../../api/machine/pwm.c **** }...
 337              		.loc 2 23 0
ARM GAS  C:\Users\Usuario\AppData\Local\Temp\ccccK4kQ.s 			page 9


 338              		@ sp needed
 339 0038 10BD     		pop	{r4, pc}
 340              	.L41:
 341 003a C046     		.align	2
 342              	.L40:
 343 003c 8F020000 		.word	655
 344              		.cfi_endproc
 345              	.LFE34:
 346              		.size	pwm_duty, .-pwm_duty
 347              		.section	.text.adc_read,"ax",%progbits
 348              		.align	2
 349              		.global	adc_read
 350              		.code	16
 351              		.thumb_func
 352              		.type	adc_read, %function
 353              	adc_read:
 354              	.LFB35:
 355              		.file 3 "../../api/machine/adc.c"
   1:../../api/machine/adc.c **** // Project Name: Aixt project, https://gitlab.com/fermarsan/aixt-project.git
   2:../../api/machine/adc.c **** // File Name: adc.c
   3:../../api/machine/adc.c **** // Author: Javier Leon, Camilo Lucas and Fernando Martínez Santa
   4:../../api/machine/adc.c **** // Date: 2023
   5:../../api/machine/adc.c **** // License: MIT
   6:../../api/machine/adc.c **** //
   7:../../api/machine/adc.c **** // Description: This is a module to emulate ADC inputs in console.
   8:../../api/machine/adc.c **** //              (CY8CKIT-049-42XX)
   9:../../api/machine/adc.c **** 
  10:../../api/machine/adc.c **** int __value = 0;
  11:../../api/machine/adc.c **** 
  12:../../api/machine/adc.c **** void adc_read(int channel) {
 356              		.loc 3 12 0
 357              		.cfi_startproc
 358              		@ args = 0, pretend = 0, frame = 0
 359              		@ frame_needed = 0, uses_anonymous_args = 0
 360              	.LVL50:
 361 0000 10B5     		push	{r4, lr}
 362              		.cfi_def_cfa_offset 8
 363              		.cfi_offset 4, -8
 364              		.cfi_offset 14, -4
  13:../../api/machine/adc.c ****     if (channel==1){
 365              		.loc 3 13 0
 366 0002 0128     		cmp	r0, #1
 367 0004 03D1     		bne	.L43
  14:../../api/machine/adc.c ****         amux_FastSelect(0);
 368              		.loc 3 14 0
 369 0006 0020     		movs	r0, #0
 370              	.LVL51:
 371 0008 FFF7FEFF 		bl	amux_FastSelect
 372              	.LVL52:
 373 000c 10E0     		b	.L44
 374              	.LVL53:
 375              	.L43:
  15:../../api/machine/adc.c ****     }
  16:../../api/machine/adc.c ****     else if (channel==2){
 376              		.loc 3 16 0
 377 000e 0228     		cmp	r0, #2
 378 0010 03D1     		bne	.L45
ARM GAS  C:\Users\Usuario\AppData\Local\Temp\ccccK4kQ.s 			page 10


  17:../../api/machine/adc.c ****         amux_FastSelect(1);
 379              		.loc 3 17 0
 380 0012 0138     		subs	r0, r0, #1
 381              	.LVL54:
 382 0014 FFF7FEFF 		bl	amux_FastSelect
 383              	.LVL55:
 384 0018 0AE0     		b	.L44
 385              	.LVL56:
 386              	.L45:
  18:../../api/machine/adc.c ****     }
  19:../../api/machine/adc.c ****     else if (channel==3){
 387              		.loc 3 19 0
 388 001a 0328     		cmp	r0, #3
 389 001c 03D1     		bne	.L46
  20:../../api/machine/adc.c ****         amux_FastSelect(2);
 390              		.loc 3 20 0
 391 001e 0138     		subs	r0, r0, #1
 392              	.LVL57:
 393 0020 FFF7FEFF 		bl	amux_FastSelect
 394              	.LVL58:
 395 0024 04E0     		b	.L44
 396              	.LVL59:
 397              	.L46:
  21:../../api/machine/adc.c ****     }
  22:../../api/machine/adc.c ****     else if (channel==4){
 398              		.loc 3 22 0
 399 0026 0428     		cmp	r0, #4
 400 0028 02D1     		bne	.L44
  23:../../api/machine/adc.c ****         amux_FastSelect(3);
 401              		.loc 3 23 0
 402 002a 0138     		subs	r0, r0, #1
 403              	.LVL60:
 404 002c FFF7FEFF 		bl	amux_FastSelect
 405              	.LVL61:
 406              	.L44:
  24:../../api/machine/adc.c ****     }
  25:../../api/machine/adc.c ****     //uint16 conv;
  26:../../api/machine/adc.c ****     adc_StartConvert();
 407              		.loc 3 26 0
 408 0030 FFF7FEFF 		bl	adc_StartConvert
 409              	.LVL62:
  27:../../api/machine/adc.c ****     adc_IsEndConversion(adc_WAIT_FOR_RESULT);
 410              		.loc 3 27 0
 411 0034 0220     		movs	r0, #2
 412 0036 FFF7FEFF 		bl	adc_IsEndConversion
 413              	.LVL63:
  28:../../api/machine/adc.c ****     uint16 conv=adc_GetResult16(0);
 414              		.loc 3 28 0
 415 003a 0020     		movs	r0, #0
 416 003c FFF7FEFF 		bl	adc_GetResult16
 417              	.LVL64:
 418 0040 84B2     		uxth	r4, r0
 419              	.LVL65:
  29:../../api/machine/adc.c ****     adc_StopConvert();
 420              		.loc 3 29 0
 421 0042 FFF7FEFF 		bl	adc_StopConvert
 422              	.LVL66:
ARM GAS  C:\Users\Usuario\AppData\Local\Temp\ccccK4kQ.s 			page 11


  30:../../api/machine/adc.c ****     
  31:../../api/machine/adc.c ****     //Codigo de prueba
  32:../../api/machine/adc.c ****         if (conv>30000) {led1_Write(1);
 423              		.loc 3 32 0
 424 0046 054B     		ldr	r3, .L49
 425 0048 9C42     		cmp	r4, r3
 426 004a 03D9     		bls	.L47
 427              		.loc 3 32 0 is_stmt 0 discriminator 1
 428 004c 0120     		movs	r0, #1
 429 004e FFF7FEFF 		bl	led1_Write
 430              	.LVL67:
 431 0052 02E0     		b	.L42
 432              	.L47:
  33:../../api/machine/adc.c ****         }
  34:../../api/machine/adc.c ****         else
  35:../../api/machine/adc.c ****         {led1_Write(0);
 433              		.loc 3 35 0 is_stmt 1
 434 0054 0020     		movs	r0, #0
 435 0056 FFF7FEFF 		bl	led1_Write
 436              	.LVL68:
 437              	.L42:
  36:../../api/machine/adc.c ****         }
  37:../../api/machine/adc.c **** }...
 438              		.loc 3 37 0
 439              		@ sp needed
 440              	.LVL69:
 441 005a 10BD     		pop	{r4, pc}
 442              	.L50:
 443              		.align	2
 444              	.L49:
 445 005c 30750000 		.word	30000
 446              		.cfi_endproc
 447              	.LFE35:
 448              		.size	adc_read, .-adc_read
 449              		.section	.text.main,"ax",%progbits
 450              		.align	2
 451              		.global	main
 452              		.code	16
 453              		.thumb_func
 454              		.type	main, %function
 455              	main:
 456              	.LFB36:
 457              		.file 4 "main.c"
   1:main.c        **** /* ========================================
   2:main.c        ****  *
   3:main.c        ****  * Copyright YOUR COMPANY, THE YEAR
   4:main.c        ****  * All Rights Reserved
   5:main.c        ****  * UNPUBLISHED, LICENSED SOFTWARE.
   6:main.c        ****  *
   7:main.c        ****  * CONFIDENTIAL AND PROPRIETARY INFORMATION
   8:main.c        ****  * WHICH IS THE PROPERTY OF your company.
   9:main.c        ****  *
  10:main.c        ****  * ========================================
  11:main.c        **** */
  12:main.c        **** #include "project.h"
  13:main.c        **** 
  14:main.c        **** #include "../../api/builtin.c"
ARM GAS  C:\Users\Usuario\AppData\Local\Temp\ccccK4kQ.s 			page 12


  15:main.c        **** #include "../../api/machine/pin.c"
  16:main.c        **** #include "../../api/machine/pwm.c"
  17:main.c        **** #include "../../api/machine/adc.c"
  18:main.c        **** #include "../../api/time/sleep_ms.c"
  19:main.c        **** 
  20:main.c        **** 
  21:main.c        **** int main(void)
  22:main.c        **** {
 458              		.loc 4 22 0
 459              		.cfi_startproc
 460              		@ Volatile: function does not return.
 461              		@ args = 0, pretend = 0, frame = 0
 462              		@ frame_needed = 0, uses_anonymous_args = 0
 463 0000 10B5     		push	{r4, lr}
 464              		.cfi_def_cfa_offset 8
 465              		.cfi_offset 4, -8
 466              		.cfi_offset 14, -4
  23:main.c        ****     CyGlobalIntEnable; /* Enable global interrupts. */
 467              		.loc 4 23 0
 468              		.syntax divided
 469              	@ 23 "main.c" 1
 470 0002 62B6     		CPSIE   i
 471              	@ 0 "" 2
  24:main.c        ****     uart_Start();
 472              		.loc 4 24 0
 473              		.thumb
 474              		.syntax unified
 475 0004 FFF7FEFF 		bl	uart_Start
 476              	.LVL70:
  25:main.c        ****     pwm0_Start();
 477              		.loc 4 25 0
 478 0008 FFF7FEFF 		bl	pwm0_Start
 479              	.LVL71:
  26:main.c        ****     pwm1_Start();
 480              		.loc 4 26 0
 481 000c FFF7FEFF 		bl	pwm1_Start
 482              	.LVL72:
  27:main.c        ****     pwm2_Start();
 483              		.loc 4 27 0
 484 0010 FFF7FEFF 		bl	pwm2_Start
 485              	.LVL73:
  28:main.c        ****     pwm3_Start();
 486              		.loc 4 28 0
 487 0014 FFF7FEFF 		bl	pwm3_Start
 488              	.LVL74:
  29:main.c        ****     clock_Start();
 489              		.loc 4 29 0
 490 0018 FFF7FEFF 		bl	clock_Start
 491              	.LVL75:
  30:main.c        ****     adc_Start();
 492              		.loc 4 30 0
 493 001c FFF7FEFF 		bl	adc_Start
 494              	.LVL76:
  31:main.c        ****     amux_Start();
 495              		.loc 4 31 0
 496 0020 FFF7FEFF 		bl	amux_Start
 497              	.LVL77:
ARM GAS  C:\Users\Usuario\AppData\Local\Temp\ccccK4kQ.s 			page 13


 498              	.L52:
  32:main.c        ****     
  33:main.c        ****         
  34:main.c        ****     for(;;)
  35:main.c        ****     {
  36:main.c        ****         //pin_high(led1);
  37:main.c        ****         //sleep_ms(300);
  38:main.c        ****         //pin_low(led1);
  39:main.c        ****         //sleep_ms(300);
  40:main.c        ****         
  41:main.c        ****         //pwm_duty(4, 10);
  42:main.c        ****         //sleep_ms(2000);
  43:main.c        ****         //pwm_duty(4, 20);
  44:main.c        ****         //sleep_ms(2000);
  45:main.c        ****         //pwm_duty(4, 30);
  46:main.c        ****         //sleep_ms(2000);
  47:main.c        ****         //pwm_duty(4, 40);
  48:main.c        ****         //sleep_ms(2000);
  49:main.c        ****         //pwm_duty(4, 50);
  50:main.c        ****         //sleep_ms(2000);
  51:main.c        ****         //pwm_duty(4, 60);
  52:main.c        ****         //sleep_ms(2000);
  53:main.c        ****         //pwm_duty(4, 70);
  54:main.c        ****         //sleep_ms(2000);
  55:main.c        ****         //pwm_duty(4, 80);
  56:main.c        ****         //sleep_ms(2000);
  57:main.c        ****         //pwm_duty(4, 90);
  58:main.c        ****         //sleep_ms(2000);
  59:main.c        ****         //pwm_duty(4, 100);
  60:main.c        ****         //sleep_ms(2000);
  61:main.c        ****         
  62:main.c        ****         adc_read(1);  
 499              		.loc 4 62 0 discriminator 1
 500 0024 0120     		movs	r0, #1
 501 0026 FFF7FEFF 		bl	adc_read
 502              	.LVL78:
 503 002a FBE7     		b	.L52
 504              		.cfi_endproc
 505              	.LFE36:
 506              		.size	main, .-main
 507              		.global	__value
 508              		.bss
 509              		.align	2
 510              		.type	__value, %object
 511              		.size	__value, 4
 512              	__value:
 513 0000 00000000 		.space	4
 514              		.text
 515              	.Letext0:
 516              		.file 5 "Generated_Source\\PSoC4/led1.h"
 517              		.file 6 "Generated_Source\\PSoC4/do1.h"
 518              		.file 7 "Generated_Source\\PSoC4/do2.h"
 519              		.file 8 "Generated_Source\\PSoC4/do3.h"
 520              		.file 9 "Generated_Source\\PSoC4/do4.h"
 521              		.file 10 "Generated_Source\\PSoC4/do5.h"
 522              		.file 11 "Generated_Source\\PSoC4/do6.h"
 523              		.file 12 "Generated_Source\\PSoC4/do7.h"
ARM GAS  C:\Users\Usuario\AppData\Local\Temp\ccccK4kQ.s 			page 14


 524              		.file 13 "Generated_Source\\PSoC4/do8.h"
 525              		.file 14 "Generated_Source\\PSoC4/do9.h"
 526              		.file 15 "Generated_Source\\PSoC4/do10.h"
 527              		.file 16 "Generated_Source\\PSoC4/sw1.h"
 528              		.file 17 "Generated_Source\\PSoC4/di0.h"
 529              		.file 18 "Generated_Source\\PSoC4/di1.h"
 530              		.file 19 "Generated_Source\\PSoC4/di2.h"
 531              		.file 20 "Generated_Source\\PSoC4/di3.h"
 532              		.file 21 "Generated_Source\\PSoC4/di4.h"
 533              		.file 22 "Generated_Source\\PSoC4/di5.h"
 534              		.file 23 "Generated_Source\\PSoC4/di6.h"
 535              		.file 24 "Generated_Source\\PSoC4/di7.h"
 536              		.file 25 "Generated_Source\\PSoC4/di8.h"
 537              		.file 26 "Generated_Source\\PSoC4/di9.h"
 538              		.file 27 "Generated_Source\\PSoC4/di10.h"
 539              		.file 28 "Generated_Source\\PSoC4/pwm0.h"
 540              		.file 29 "Generated_Source\\PSoC4/pwm1.h"
 541              		.file 30 "Generated_Source\\PSoC4/pwm2.h"
 542              		.file 31 "Generated_Source\\PSoC4/pwm3.h"
 543              		.file 32 "Generated_Source\\PSoC4/amux.h"
 544              		.file 33 "Generated_Source\\PSoC4/adc.h"
 545              		.file 34 "Generated_Source\\PSoC4/uart.h"
 546              		.file 35 "Generated_Source\\PSoC4/clock.h"
 547              		.file 36 "Generated_Source\\PSoC4/cytypes.h"
 548              		.file 37 "../../api/builtin.c"