ARM GAS  C:\Users\Usuario\AppData\Local\Temp\ccmPkqzm.s 			page 1


   1              		.syntax unified
   2              		.cpu cortex-m0
   3              		.fpu softvfp
   4              		.eabi_attribute 20, 1
   5              		.eabi_attribute 21, 1
   6              		.eabi_attribute 23, 3
   7              		.eabi_attribute 24, 1
   8              		.eabi_attribute 25, 1
   9              		.eabi_attribute 26, 1
  10              		.eabi_attribute 30, 1
  11              		.eabi_attribute 34, 0
  12              		.eabi_attribute 18, 4
  13              		.thumb
  14              		.syntax unified
  15              		.file	"uart_SPI_UART.c"
  16              		.text
  17              	.Ltext0:
  18              		.cfi_sections	.debug_frame
  19              		.section	.text.uart_SpiUartReadRxData,"ax",%progbits
  20              		.align	2
  21              		.global	uart_SpiUartReadRxData
  22              		.code	16
  23              		.thumb_func
  24              		.type	uart_SpiUartReadRxData, %function
  25              	uart_SpiUartReadRxData:
  26              	.LFB0:
  27              		.file 1 "Generated_Source\\PSoC4\\uart_SPI_UART.c"
   1:Generated_Source\PSoC4/uart_SPI_UART.c **** /***************************************************************************//**
   2:Generated_Source\PSoC4/uart_SPI_UART.c **** * \file uart_SPI_UART.c
   3:Generated_Source\PSoC4/uart_SPI_UART.c **** * \version 4.0
   4:Generated_Source\PSoC4/uart_SPI_UART.c **** *
   5:Generated_Source\PSoC4/uart_SPI_UART.c **** * \brief
   6:Generated_Source\PSoC4/uart_SPI_UART.c **** *  This file provides the source code to the API for the SCB Component in
   7:Generated_Source\PSoC4/uart_SPI_UART.c **** *  SPI and UART modes.
   8:Generated_Source\PSoC4/uart_SPI_UART.c **** *
   9:Generated_Source\PSoC4/uart_SPI_UART.c **** * Note:
  10:Generated_Source\PSoC4/uart_SPI_UART.c **** *
  11:Generated_Source\PSoC4/uart_SPI_UART.c **** *******************************************************************************
  12:Generated_Source\PSoC4/uart_SPI_UART.c **** * \copyright
  13:Generated_Source\PSoC4/uart_SPI_UART.c **** * Copyright 2013-2017, Cypress Semiconductor Corporation.  All rights reserved.
  14:Generated_Source\PSoC4/uart_SPI_UART.c **** * You may use this file only in accordance with the license, terms, conditions,
  15:Generated_Source\PSoC4/uart_SPI_UART.c **** * disclaimers, and limitations in the end user license agreement accompanying
  16:Generated_Source\PSoC4/uart_SPI_UART.c **** * the software package with which this file was provided.
  17:Generated_Source\PSoC4/uart_SPI_UART.c **** *******************************************************************************/
  18:Generated_Source\PSoC4/uart_SPI_UART.c **** 
  19:Generated_Source\PSoC4/uart_SPI_UART.c **** #include "uart_PVT.h"
  20:Generated_Source\PSoC4/uart_SPI_UART.c **** #include "uart_SPI_UART_PVT.h"
  21:Generated_Source\PSoC4/uart_SPI_UART.c **** 
  22:Generated_Source\PSoC4/uart_SPI_UART.c **** /***************************************
  23:Generated_Source\PSoC4/uart_SPI_UART.c **** *        SPI/UART Private Vars
  24:Generated_Source\PSoC4/uart_SPI_UART.c **** ***************************************/
  25:Generated_Source\PSoC4/uart_SPI_UART.c **** 
  26:Generated_Source\PSoC4/uart_SPI_UART.c **** #if(uart_INTERNAL_RX_SW_BUFFER_CONST)
  27:Generated_Source\PSoC4/uart_SPI_UART.c ****     /* Start index to put data into the software receive buffer.*/
  28:Generated_Source\PSoC4/uart_SPI_UART.c ****     volatile uint32 uart_rxBufferHead;
  29:Generated_Source\PSoC4/uart_SPI_UART.c ****     /* Start index to get data from the software receive buffer.*/
  30:Generated_Source\PSoC4/uart_SPI_UART.c ****     volatile uint32 uart_rxBufferTail;
ARM GAS  C:\Users\Usuario\AppData\Local\Temp\ccmPkqzm.s 			page 2


  31:Generated_Source\PSoC4/uart_SPI_UART.c ****     /**
  32:Generated_Source\PSoC4/uart_SPI_UART.c ****     * \addtogroup group_globals
  33:Generated_Source\PSoC4/uart_SPI_UART.c ****     * \{
  34:Generated_Source\PSoC4/uart_SPI_UART.c ****     */
  35:Generated_Source\PSoC4/uart_SPI_UART.c ****     /** Sets when internal software receive buffer overflow
  36:Generated_Source\PSoC4/uart_SPI_UART.c ****     *  was occurred.
  37:Generated_Source\PSoC4/uart_SPI_UART.c ****     */
  38:Generated_Source\PSoC4/uart_SPI_UART.c ****     volatile uint8  uart_rxBufferOverflow;
  39:Generated_Source\PSoC4/uart_SPI_UART.c ****     /** \} globals */
  40:Generated_Source\PSoC4/uart_SPI_UART.c **** #endif /* (uart_INTERNAL_RX_SW_BUFFER_CONST) */
  41:Generated_Source\PSoC4/uart_SPI_UART.c **** 
  42:Generated_Source\PSoC4/uart_SPI_UART.c **** #if(uart_INTERNAL_TX_SW_BUFFER_CONST)
  43:Generated_Source\PSoC4/uart_SPI_UART.c ****     /* Start index to put data into the software transmit buffer.*/
  44:Generated_Source\PSoC4/uart_SPI_UART.c ****     volatile uint32 uart_txBufferHead;
  45:Generated_Source\PSoC4/uart_SPI_UART.c ****     /* Start index to get data from the software transmit buffer.*/
  46:Generated_Source\PSoC4/uart_SPI_UART.c ****     volatile uint32 uart_txBufferTail;
  47:Generated_Source\PSoC4/uart_SPI_UART.c **** #endif /* (uart_INTERNAL_TX_SW_BUFFER_CONST) */
  48:Generated_Source\PSoC4/uart_SPI_UART.c **** 
  49:Generated_Source\PSoC4/uart_SPI_UART.c **** #if(uart_INTERNAL_RX_SW_BUFFER)
  50:Generated_Source\PSoC4/uart_SPI_UART.c ****     /* Add one element to the buffer to receive full packet. One byte in receive buffer is always e
  51:Generated_Source\PSoC4/uart_SPI_UART.c ****     volatile uint8 uart_rxBufferInternal[uart_INTERNAL_RX_BUFFER_SIZE];
  52:Generated_Source\PSoC4/uart_SPI_UART.c **** #endif /* (uart_INTERNAL_RX_SW_BUFFER) */
  53:Generated_Source\PSoC4/uart_SPI_UART.c **** 
  54:Generated_Source\PSoC4/uart_SPI_UART.c **** #if(uart_INTERNAL_TX_SW_BUFFER)
  55:Generated_Source\PSoC4/uart_SPI_UART.c ****     volatile uint8 uart_txBufferInternal[uart_TX_BUFFER_SIZE];
  56:Generated_Source\PSoC4/uart_SPI_UART.c **** #endif /* (uart_INTERNAL_TX_SW_BUFFER) */
  57:Generated_Source\PSoC4/uart_SPI_UART.c **** 
  58:Generated_Source\PSoC4/uart_SPI_UART.c **** 
  59:Generated_Source\PSoC4/uart_SPI_UART.c **** #if(uart_RX_DIRECTION)
  60:Generated_Source\PSoC4/uart_SPI_UART.c ****     /*******************************************************************************
  61:Generated_Source\PSoC4/uart_SPI_UART.c ****     * Function Name: uart_SpiUartReadRxData
  62:Generated_Source\PSoC4/uart_SPI_UART.c ****     ****************************************************************************//**
  63:Generated_Source\PSoC4/uart_SPI_UART.c ****     *
  64:Generated_Source\PSoC4/uart_SPI_UART.c ****     *  Retrieves the next data element from the receive buffer.
  65:Generated_Source\PSoC4/uart_SPI_UART.c ****     *   - RX software buffer is disabled: Returns data element retrieved from
  66:Generated_Source\PSoC4/uart_SPI_UART.c ****     *     RX FIFO. Undefined data will be returned if the RX FIFO is empty.
  67:Generated_Source\PSoC4/uart_SPI_UART.c ****     *   - RX software buffer is enabled: Returns data element from the software
  68:Generated_Source\PSoC4/uart_SPI_UART.c ****     *     receive buffer. Zero value is returned if the software receive buffer
  69:Generated_Source\PSoC4/uart_SPI_UART.c ****     *     is empty.
  70:Generated_Source\PSoC4/uart_SPI_UART.c ****     *
  71:Generated_Source\PSoC4/uart_SPI_UART.c ****     * \return
  72:Generated_Source\PSoC4/uart_SPI_UART.c ****     *  Next data element from the receive buffer. 
  73:Generated_Source\PSoC4/uart_SPI_UART.c ****     *  The amount of data bits to be received depends on RX data bits selection 
  74:Generated_Source\PSoC4/uart_SPI_UART.c ****     *  (the data bit counting starts from LSB of return value).
  75:Generated_Source\PSoC4/uart_SPI_UART.c ****     *
  76:Generated_Source\PSoC4/uart_SPI_UART.c ****     * \globalvars
  77:Generated_Source\PSoC4/uart_SPI_UART.c ****     *  uart_rxBufferHead - the start index to put data into the 
  78:Generated_Source\PSoC4/uart_SPI_UART.c ****     *  software receive buffer.
  79:Generated_Source\PSoC4/uart_SPI_UART.c ****     *  uart_rxBufferTail - the start index to get data from the 
  80:Generated_Source\PSoC4/uart_SPI_UART.c ****     *  software receive buffer.
  81:Generated_Source\PSoC4/uart_SPI_UART.c ****     *
  82:Generated_Source\PSoC4/uart_SPI_UART.c ****     *******************************************************************************/
  83:Generated_Source\PSoC4/uart_SPI_UART.c ****     uint32 uart_SpiUartReadRxData(void)
  84:Generated_Source\PSoC4/uart_SPI_UART.c ****     {
  28              		.loc 1 84 0
  29              		.cfi_startproc
  30              		@ args = 0, pretend = 0, frame = 0
ARM GAS  C:\Users\Usuario\AppData\Local\Temp\ccmPkqzm.s 			page 3


  31              		@ frame_needed = 0, uses_anonymous_args = 0
  32              		@ link register save eliminated.
  33              	.LVL0:
  85:Generated_Source\PSoC4/uart_SPI_UART.c ****         uint32 rxData = 0u;
  86:Generated_Source\PSoC4/uart_SPI_UART.c **** 
  87:Generated_Source\PSoC4/uart_SPI_UART.c ****     #if (uart_INTERNAL_RX_SW_BUFFER_CONST)
  88:Generated_Source\PSoC4/uart_SPI_UART.c ****         uint32 locTail;
  89:Generated_Source\PSoC4/uart_SPI_UART.c ****     #endif /* (uart_INTERNAL_RX_SW_BUFFER_CONST) */
  90:Generated_Source\PSoC4/uart_SPI_UART.c **** 
  91:Generated_Source\PSoC4/uart_SPI_UART.c ****         #if (uart_CHECK_RX_SW_BUFFER)
  92:Generated_Source\PSoC4/uart_SPI_UART.c ****         {
  93:Generated_Source\PSoC4/uart_SPI_UART.c ****             if (uart_rxBufferHead != uart_rxBufferTail)
  94:Generated_Source\PSoC4/uart_SPI_UART.c ****             {
  95:Generated_Source\PSoC4/uart_SPI_UART.c ****                 /* There is data in RX software buffer */
  96:Generated_Source\PSoC4/uart_SPI_UART.c **** 
  97:Generated_Source\PSoC4/uart_SPI_UART.c ****                 /* Calculate index to read from */
  98:Generated_Source\PSoC4/uart_SPI_UART.c ****                 locTail = (uart_rxBufferTail + 1u);
  99:Generated_Source\PSoC4/uart_SPI_UART.c **** 
 100:Generated_Source\PSoC4/uart_SPI_UART.c ****                 if (uart_INTERNAL_RX_BUFFER_SIZE == locTail)
 101:Generated_Source\PSoC4/uart_SPI_UART.c ****                 {
 102:Generated_Source\PSoC4/uart_SPI_UART.c ****                     locTail = 0u;
 103:Generated_Source\PSoC4/uart_SPI_UART.c ****                 }
 104:Generated_Source\PSoC4/uart_SPI_UART.c **** 
 105:Generated_Source\PSoC4/uart_SPI_UART.c ****                 /* Get data from RX software buffer */
 106:Generated_Source\PSoC4/uart_SPI_UART.c ****                 rxData = uart_GetWordFromRxBuffer(locTail);
 107:Generated_Source\PSoC4/uart_SPI_UART.c **** 
 108:Generated_Source\PSoC4/uart_SPI_UART.c ****                 /* Change index in the buffer */
 109:Generated_Source\PSoC4/uart_SPI_UART.c ****                 uart_rxBufferTail = locTail;
 110:Generated_Source\PSoC4/uart_SPI_UART.c **** 
 111:Generated_Source\PSoC4/uart_SPI_UART.c ****                 #if (uart_CHECK_UART_RTS_CONTROL_FLOW)
 112:Generated_Source\PSoC4/uart_SPI_UART.c ****                 {
 113:Generated_Source\PSoC4/uart_SPI_UART.c ****                     /* Check if RX Not Empty is disabled in the interrupt */
 114:Generated_Source\PSoC4/uart_SPI_UART.c ****                     if (0u == (uart_INTR_RX_MASK_REG & uart_INTR_RX_NOT_EMPTY))
 115:Generated_Source\PSoC4/uart_SPI_UART.c ****                     {
 116:Generated_Source\PSoC4/uart_SPI_UART.c ****                         /* Enable RX Not Empty interrupt source to continue
 117:Generated_Source\PSoC4/uart_SPI_UART.c ****                         * receiving data into software buffer.
 118:Generated_Source\PSoC4/uart_SPI_UART.c ****                         */
 119:Generated_Source\PSoC4/uart_SPI_UART.c ****                         uart_INTR_RX_MASK_REG |= uart_INTR_RX_NOT_EMPTY;
 120:Generated_Source\PSoC4/uart_SPI_UART.c ****                     }
 121:Generated_Source\PSoC4/uart_SPI_UART.c ****                 }
 122:Generated_Source\PSoC4/uart_SPI_UART.c ****                 #endif
 123:Generated_Source\PSoC4/uart_SPI_UART.c **** 
 124:Generated_Source\PSoC4/uart_SPI_UART.c ****             }
 125:Generated_Source\PSoC4/uart_SPI_UART.c ****         }
 126:Generated_Source\PSoC4/uart_SPI_UART.c ****         #else
 127:Generated_Source\PSoC4/uart_SPI_UART.c ****         {
 128:Generated_Source\PSoC4/uart_SPI_UART.c ****             /* Read data from RX FIFO */
 129:Generated_Source\PSoC4/uart_SPI_UART.c ****             rxData = uart_RX_FIFO_RD_REG;
  34              		.loc 1 129 0
  35 0000 014B     		ldr	r3, .L2
  36 0002 1868     		ldr	r0, [r3]
  37              	.LVL1:
 130:Generated_Source\PSoC4/uart_SPI_UART.c ****         }
 131:Generated_Source\PSoC4/uart_SPI_UART.c ****         #endif
 132:Generated_Source\PSoC4/uart_SPI_UART.c **** 
 133:Generated_Source\PSoC4/uart_SPI_UART.c ****         return (rxData);
 134:Generated_Source\PSoC4/uart_SPI_UART.c ****     }
ARM GAS  C:\Users\Usuario\AppData\Local\Temp\ccmPkqzm.s 			page 4


  38              		.loc 1 134 0
  39              		@ sp needed
  40 0004 7047     		bx	lr
  41              	.L3:
  42 0006 C046     		.align	2
  43              	.L2:
  44 0008 40030640 		.word	1074135872
  45              		.cfi_endproc
  46              	.LFE0:
  47              		.size	uart_SpiUartReadRxData, .-uart_SpiUartReadRxData
  48              		.section	.text.uart_SpiUartGetRxBufferSize,"ax",%progbits
  49              		.align	2
  50              		.global	uart_SpiUartGetRxBufferSize
  51              		.code	16
  52              		.thumb_func
  53              		.type	uart_SpiUartGetRxBufferSize, %function
  54              	uart_SpiUartGetRxBufferSize:
  55              	.LFB1:
 135:Generated_Source\PSoC4/uart_SPI_UART.c **** 
 136:Generated_Source\PSoC4/uart_SPI_UART.c **** 
 137:Generated_Source\PSoC4/uart_SPI_UART.c ****     /*******************************************************************************
 138:Generated_Source\PSoC4/uart_SPI_UART.c ****     * Function Name: uart_SpiUartGetRxBufferSize
 139:Generated_Source\PSoC4/uart_SPI_UART.c ****     ****************************************************************************//**
 140:Generated_Source\PSoC4/uart_SPI_UART.c ****     *
 141:Generated_Source\PSoC4/uart_SPI_UART.c ****     *  Returns the number of received data elements in the receive buffer.
 142:Generated_Source\PSoC4/uart_SPI_UART.c ****     *   - RX software buffer disabled: returns the number of used entries in
 143:Generated_Source\PSoC4/uart_SPI_UART.c ****     *     RX FIFO.
 144:Generated_Source\PSoC4/uart_SPI_UART.c ****     *   - RX software buffer enabled: returns the number of elements which were
 145:Generated_Source\PSoC4/uart_SPI_UART.c ****     *     placed in the receive buffer. This does not include the hardware RX FIFO.
 146:Generated_Source\PSoC4/uart_SPI_UART.c ****     *
 147:Generated_Source\PSoC4/uart_SPI_UART.c ****     * \return
 148:Generated_Source\PSoC4/uart_SPI_UART.c ****     *  Number of received data elements.
 149:Generated_Source\PSoC4/uart_SPI_UART.c ****     *
 150:Generated_Source\PSoC4/uart_SPI_UART.c ****     * \globalvars
 151:Generated_Source\PSoC4/uart_SPI_UART.c ****     *  uart_rxBufferHead - the start index to put data into the 
 152:Generated_Source\PSoC4/uart_SPI_UART.c ****     *  software receive buffer.
 153:Generated_Source\PSoC4/uart_SPI_UART.c ****     *  uart_rxBufferTail - the start index to get data from the 
 154:Generated_Source\PSoC4/uart_SPI_UART.c ****     *  software receive buffer.
 155:Generated_Source\PSoC4/uart_SPI_UART.c ****     *
 156:Generated_Source\PSoC4/uart_SPI_UART.c ****     *******************************************************************************/
 157:Generated_Source\PSoC4/uart_SPI_UART.c ****     uint32 uart_SpiUartGetRxBufferSize(void)
 158:Generated_Source\PSoC4/uart_SPI_UART.c ****     {
  56              		.loc 1 158 0
  57              		.cfi_startproc
  58              		@ args = 0, pretend = 0, frame = 0
  59              		@ frame_needed = 0, uses_anonymous_args = 0
  60              		@ link register save eliminated.
 159:Generated_Source\PSoC4/uart_SPI_UART.c ****         uint32 size;
 160:Generated_Source\PSoC4/uart_SPI_UART.c ****     #if (uart_INTERNAL_RX_SW_BUFFER_CONST)
 161:Generated_Source\PSoC4/uart_SPI_UART.c ****         uint32 locHead;
 162:Generated_Source\PSoC4/uart_SPI_UART.c ****     #endif /* (uart_INTERNAL_RX_SW_BUFFER_CONST) */
 163:Generated_Source\PSoC4/uart_SPI_UART.c **** 
 164:Generated_Source\PSoC4/uart_SPI_UART.c ****         #if (uart_CHECK_RX_SW_BUFFER)
 165:Generated_Source\PSoC4/uart_SPI_UART.c ****         {
 166:Generated_Source\PSoC4/uart_SPI_UART.c ****             locHead = uart_rxBufferHead;
 167:Generated_Source\PSoC4/uart_SPI_UART.c **** 
 168:Generated_Source\PSoC4/uart_SPI_UART.c ****             if(locHead >= uart_rxBufferTail)
ARM GAS  C:\Users\Usuario\AppData\Local\Temp\ccmPkqzm.s 			page 5


 169:Generated_Source\PSoC4/uart_SPI_UART.c ****             {
 170:Generated_Source\PSoC4/uart_SPI_UART.c ****                 size = (locHead - uart_rxBufferTail);
 171:Generated_Source\PSoC4/uart_SPI_UART.c ****             }
 172:Generated_Source\PSoC4/uart_SPI_UART.c ****             else
 173:Generated_Source\PSoC4/uart_SPI_UART.c ****             {
 174:Generated_Source\PSoC4/uart_SPI_UART.c ****                 size = (locHead + (uart_INTERNAL_RX_BUFFER_SIZE - uart_rxBufferTail));
 175:Generated_Source\PSoC4/uart_SPI_UART.c ****             }
 176:Generated_Source\PSoC4/uart_SPI_UART.c ****         }
 177:Generated_Source\PSoC4/uart_SPI_UART.c ****         #else
 178:Generated_Source\PSoC4/uart_SPI_UART.c ****         {
 179:Generated_Source\PSoC4/uart_SPI_UART.c ****             size = uart_GET_RX_FIFO_ENTRIES;
  61              		.loc 1 179 0
  62 0000 024B     		ldr	r3, .L5
  63 0002 1B68     		ldr	r3, [r3]
  64 0004 0F20     		movs	r0, #15
  65 0006 1840     		ands	r0, r3
  66              	.LVL2:
 180:Generated_Source\PSoC4/uart_SPI_UART.c ****         }
 181:Generated_Source\PSoC4/uart_SPI_UART.c ****         #endif
 182:Generated_Source\PSoC4/uart_SPI_UART.c **** 
 183:Generated_Source\PSoC4/uart_SPI_UART.c ****         return (size);
 184:Generated_Source\PSoC4/uart_SPI_UART.c ****     }
  67              		.loc 1 184 0
  68              		@ sp needed
  69 0008 7047     		bx	lr
  70              	.L6:
  71 000a C046     		.align	2
  72              	.L5:
  73 000c 08030640 		.word	1074135816
  74              		.cfi_endproc
  75              	.LFE1:
  76              		.size	uart_SpiUartGetRxBufferSize, .-uart_SpiUartGetRxBufferSize
  77              		.section	.text.uart_SpiUartClearRxBuffer,"ax",%progbits
  78              		.align	2
  79              		.global	uart_SpiUartClearRxBuffer
  80              		.code	16
  81              		.thumb_func
  82              		.type	uart_SpiUartClearRxBuffer, %function
  83              	uart_SpiUartClearRxBuffer:
  84              	.LFB2:
 185:Generated_Source\PSoC4/uart_SPI_UART.c **** 
 186:Generated_Source\PSoC4/uart_SPI_UART.c **** 
 187:Generated_Source\PSoC4/uart_SPI_UART.c ****     /*******************************************************************************
 188:Generated_Source\PSoC4/uart_SPI_UART.c ****     * Function Name: uart_SpiUartClearRxBuffer
 189:Generated_Source\PSoC4/uart_SPI_UART.c ****     ****************************************************************************//**
 190:Generated_Source\PSoC4/uart_SPI_UART.c ****     *
 191:Generated_Source\PSoC4/uart_SPI_UART.c ****     *  Clears the receive buffer and RX FIFO.
 192:Generated_Source\PSoC4/uart_SPI_UART.c ****     *
 193:Generated_Source\PSoC4/uart_SPI_UART.c ****     * \globalvars
 194:Generated_Source\PSoC4/uart_SPI_UART.c ****     *  uart_rxBufferHead - the start index to put data into the 
 195:Generated_Source\PSoC4/uart_SPI_UART.c ****     *  software receive buffer.
 196:Generated_Source\PSoC4/uart_SPI_UART.c ****     *  uart_rxBufferTail - the start index to get data from the 
 197:Generated_Source\PSoC4/uart_SPI_UART.c ****     *  software receive buffer.
 198:Generated_Source\PSoC4/uart_SPI_UART.c ****     *
 199:Generated_Source\PSoC4/uart_SPI_UART.c ****     *******************************************************************************/
 200:Generated_Source\PSoC4/uart_SPI_UART.c ****     void uart_SpiUartClearRxBuffer(void)
 201:Generated_Source\PSoC4/uart_SPI_UART.c ****     {
ARM GAS  C:\Users\Usuario\AppData\Local\Temp\ccmPkqzm.s 			page 6


  85              		.loc 1 201 0
  86              		.cfi_startproc
  87              		@ args = 0, pretend = 0, frame = 0
  88              		@ frame_needed = 0, uses_anonymous_args = 0
  89              		@ link register save eliminated.
 202:Generated_Source\PSoC4/uart_SPI_UART.c ****         #if (uart_CHECK_RX_SW_BUFFER)
 203:Generated_Source\PSoC4/uart_SPI_UART.c ****         {
 204:Generated_Source\PSoC4/uart_SPI_UART.c ****             /* Lock from component interruption */
 205:Generated_Source\PSoC4/uart_SPI_UART.c ****             uart_DisableInt();
 206:Generated_Source\PSoC4/uart_SPI_UART.c **** 
 207:Generated_Source\PSoC4/uart_SPI_UART.c ****             /* Flush RX software buffer */
 208:Generated_Source\PSoC4/uart_SPI_UART.c ****             uart_rxBufferHead = uart_rxBufferTail;
 209:Generated_Source\PSoC4/uart_SPI_UART.c ****             uart_rxBufferOverflow = 0u;
 210:Generated_Source\PSoC4/uart_SPI_UART.c **** 
 211:Generated_Source\PSoC4/uart_SPI_UART.c ****             uart_CLEAR_RX_FIFO;
 212:Generated_Source\PSoC4/uart_SPI_UART.c ****             uart_ClearRxInterruptSource(uart_INTR_RX_ALL);
 213:Generated_Source\PSoC4/uart_SPI_UART.c **** 
 214:Generated_Source\PSoC4/uart_SPI_UART.c ****             #if (uart_CHECK_UART_RTS_CONTROL_FLOW)
 215:Generated_Source\PSoC4/uart_SPI_UART.c ****             {
 216:Generated_Source\PSoC4/uart_SPI_UART.c ****                 /* Enable RX Not Empty interrupt source to continue receiving
 217:Generated_Source\PSoC4/uart_SPI_UART.c ****                 * data into software buffer.
 218:Generated_Source\PSoC4/uart_SPI_UART.c ****                 */
 219:Generated_Source\PSoC4/uart_SPI_UART.c ****                 uart_INTR_RX_MASK_REG |= uart_INTR_RX_NOT_EMPTY;
 220:Generated_Source\PSoC4/uart_SPI_UART.c ****             }
 221:Generated_Source\PSoC4/uart_SPI_UART.c ****             #endif
 222:Generated_Source\PSoC4/uart_SPI_UART.c ****             
 223:Generated_Source\PSoC4/uart_SPI_UART.c ****             /* Release lock */
 224:Generated_Source\PSoC4/uart_SPI_UART.c ****             uart_EnableInt();
 225:Generated_Source\PSoC4/uart_SPI_UART.c ****         }
 226:Generated_Source\PSoC4/uart_SPI_UART.c ****         #else
 227:Generated_Source\PSoC4/uart_SPI_UART.c ****         {
 228:Generated_Source\PSoC4/uart_SPI_UART.c ****             uart_CLEAR_RX_FIFO;
  90              		.loc 1 228 0
  91 0000 054B     		ldr	r3, .L8
  92 0002 1A68     		ldr	r2, [r3]
  93 0004 8021     		movs	r1, #128
  94 0006 4902     		lsls	r1, r1, #9
  95 0008 0A43     		orrs	r2, r1
  96 000a 1A60     		str	r2, [r3]
  97 000c 1968     		ldr	r1, [r3]
  98 000e 034A     		ldr	r2, .L8+4
  99 0010 0A40     		ands	r2, r1
 100 0012 1A60     		str	r2, [r3]
 229:Generated_Source\PSoC4/uart_SPI_UART.c ****         }
 230:Generated_Source\PSoC4/uart_SPI_UART.c ****         #endif
 231:Generated_Source\PSoC4/uart_SPI_UART.c ****     }
 101              		.loc 1 231 0
 102              		@ sp needed
 103 0014 7047     		bx	lr
 104              	.L9:
 105 0016 C046     		.align	2
 106              	.L8:
 107 0018 04030640 		.word	1074135812
 108 001c FFFFFEFF 		.word	-65537
 109              		.cfi_endproc
 110              	.LFE2:
 111              		.size	uart_SpiUartClearRxBuffer, .-uart_SpiUartClearRxBuffer
ARM GAS  C:\Users\Usuario\AppData\Local\Temp\ccmPkqzm.s 			page 7


 112              		.section	.text.uart_SpiUartWriteTxData,"ax",%progbits
 113              		.align	2
 114              		.global	uart_SpiUartWriteTxData
 115              		.code	16
 116              		.thumb_func
 117              		.type	uart_SpiUartWriteTxData, %function
 118              	uart_SpiUartWriteTxData:
 119              	.LFB3:
 232:Generated_Source\PSoC4/uart_SPI_UART.c **** 
 233:Generated_Source\PSoC4/uart_SPI_UART.c **** #endif /* (uart_RX_DIRECTION) */
 234:Generated_Source\PSoC4/uart_SPI_UART.c **** 
 235:Generated_Source\PSoC4/uart_SPI_UART.c **** 
 236:Generated_Source\PSoC4/uart_SPI_UART.c **** #if(uart_TX_DIRECTION)
 237:Generated_Source\PSoC4/uart_SPI_UART.c ****     /*******************************************************************************
 238:Generated_Source\PSoC4/uart_SPI_UART.c ****     * Function Name: uart_SpiUartWriteTxData
 239:Generated_Source\PSoC4/uart_SPI_UART.c ****     ****************************************************************************//**
 240:Generated_Source\PSoC4/uart_SPI_UART.c ****     *
 241:Generated_Source\PSoC4/uart_SPI_UART.c ****     *  Places a data entry into the transmit buffer to be sent at the next available
 242:Generated_Source\PSoC4/uart_SPI_UART.c ****     *  bus time.
 243:Generated_Source\PSoC4/uart_SPI_UART.c ****     *  This function is blocking and waits until there is space available to put the
 244:Generated_Source\PSoC4/uart_SPI_UART.c ****     *  requested data in the transmit buffer.
 245:Generated_Source\PSoC4/uart_SPI_UART.c ****     *
 246:Generated_Source\PSoC4/uart_SPI_UART.c ****     *  \param txDataByte: the data to be transmitted.
 247:Generated_Source\PSoC4/uart_SPI_UART.c ****     *   The amount of data bits to be transmitted depends on TX data bits selection 
 248:Generated_Source\PSoC4/uart_SPI_UART.c ****     *   (the data bit counting starts from LSB of txDataByte).
 249:Generated_Source\PSoC4/uart_SPI_UART.c ****     *
 250:Generated_Source\PSoC4/uart_SPI_UART.c ****     * \globalvars
 251:Generated_Source\PSoC4/uart_SPI_UART.c ****     *  uart_txBufferHead - the start index to put data into the 
 252:Generated_Source\PSoC4/uart_SPI_UART.c ****     *  software transmit buffer.
 253:Generated_Source\PSoC4/uart_SPI_UART.c ****     *  uart_txBufferTail - start index to get data from the software
 254:Generated_Source\PSoC4/uart_SPI_UART.c ****     *  transmit buffer.
 255:Generated_Source\PSoC4/uart_SPI_UART.c ****     *
 256:Generated_Source\PSoC4/uart_SPI_UART.c ****     *******************************************************************************/
 257:Generated_Source\PSoC4/uart_SPI_UART.c ****     void uart_SpiUartWriteTxData(uint32 txData)
 258:Generated_Source\PSoC4/uart_SPI_UART.c ****     {
 120              		.loc 1 258 0
 121              		.cfi_startproc
 122              		@ args = 0, pretend = 0, frame = 0
 123              		@ frame_needed = 0, uses_anonymous_args = 0
 124              		@ link register save eliminated.
 125              	.LVL3:
 126              	.L11:
 259:Generated_Source\PSoC4/uart_SPI_UART.c ****     #if (uart_INTERNAL_TX_SW_BUFFER_CONST)
 260:Generated_Source\PSoC4/uart_SPI_UART.c ****         uint32 locHead;
 261:Generated_Source\PSoC4/uart_SPI_UART.c ****     #endif /* (uart_INTERNAL_TX_SW_BUFFER_CONST) */
 262:Generated_Source\PSoC4/uart_SPI_UART.c **** 
 263:Generated_Source\PSoC4/uart_SPI_UART.c ****         #if (uart_CHECK_TX_SW_BUFFER)
 264:Generated_Source\PSoC4/uart_SPI_UART.c ****         {
 265:Generated_Source\PSoC4/uart_SPI_UART.c ****             /* Put data directly into the TX FIFO */
 266:Generated_Source\PSoC4/uart_SPI_UART.c ****             if ((uart_txBufferHead == uart_txBufferTail) &&
 267:Generated_Source\PSoC4/uart_SPI_UART.c ****                 (uart_SPI_UART_FIFO_SIZE != uart_GET_TX_FIFO_ENTRIES))
 268:Generated_Source\PSoC4/uart_SPI_UART.c ****             {
 269:Generated_Source\PSoC4/uart_SPI_UART.c ****                 /* TX software buffer is empty: put data directly in TX FIFO */
 270:Generated_Source\PSoC4/uart_SPI_UART.c ****                 uart_TX_FIFO_WR_REG = txData;
 271:Generated_Source\PSoC4/uart_SPI_UART.c ****             }
 272:Generated_Source\PSoC4/uart_SPI_UART.c ****             /* Put data into TX software buffer */
 273:Generated_Source\PSoC4/uart_SPI_UART.c ****             else
ARM GAS  C:\Users\Usuario\AppData\Local\Temp\ccmPkqzm.s 			page 8


 274:Generated_Source\PSoC4/uart_SPI_UART.c ****             {
 275:Generated_Source\PSoC4/uart_SPI_UART.c ****                 /* Head index to put data */
 276:Generated_Source\PSoC4/uart_SPI_UART.c ****                 locHead = (uart_txBufferHead + 1u);
 277:Generated_Source\PSoC4/uart_SPI_UART.c **** 
 278:Generated_Source\PSoC4/uart_SPI_UART.c ****                 /* Adjust TX software buffer index */
 279:Generated_Source\PSoC4/uart_SPI_UART.c ****                 if (uart_TX_BUFFER_SIZE == locHead)
 280:Generated_Source\PSoC4/uart_SPI_UART.c ****                 {
 281:Generated_Source\PSoC4/uart_SPI_UART.c ****                     locHead = 0u;
 282:Generated_Source\PSoC4/uart_SPI_UART.c ****                 }
 283:Generated_Source\PSoC4/uart_SPI_UART.c **** 
 284:Generated_Source\PSoC4/uart_SPI_UART.c ****                 /* Wait for space in TX software buffer */
 285:Generated_Source\PSoC4/uart_SPI_UART.c ****                 while (locHead == uart_txBufferTail)
 286:Generated_Source\PSoC4/uart_SPI_UART.c ****                 {
 287:Generated_Source\PSoC4/uart_SPI_UART.c ****                 }
 288:Generated_Source\PSoC4/uart_SPI_UART.c **** 
 289:Generated_Source\PSoC4/uart_SPI_UART.c ****                 /* TX software buffer has at least one room */
 290:Generated_Source\PSoC4/uart_SPI_UART.c **** 
 291:Generated_Source\PSoC4/uart_SPI_UART.c ****                 /* Clear old status of INTR_TX_NOT_FULL. It sets at the end of transfer when TX FIF
 292:Generated_Source\PSoC4/uart_SPI_UART.c ****                 uart_ClearTxInterruptSource(uart_INTR_TX_NOT_FULL);
 293:Generated_Source\PSoC4/uart_SPI_UART.c **** 
 294:Generated_Source\PSoC4/uart_SPI_UART.c ****                 uart_PutWordInTxBuffer(locHead, txData);
 295:Generated_Source\PSoC4/uart_SPI_UART.c **** 
 296:Generated_Source\PSoC4/uart_SPI_UART.c ****                 uart_txBufferHead = locHead;
 297:Generated_Source\PSoC4/uart_SPI_UART.c **** 
 298:Generated_Source\PSoC4/uart_SPI_UART.c ****                 /* Check if TX Not Full is disabled in interrupt */
 299:Generated_Source\PSoC4/uart_SPI_UART.c ****                 if (0u == (uart_INTR_TX_MASK_REG & uart_INTR_TX_NOT_FULL))
 300:Generated_Source\PSoC4/uart_SPI_UART.c ****                 {
 301:Generated_Source\PSoC4/uart_SPI_UART.c ****                     /* Enable TX Not Full interrupt source to transmit from software buffer */
 302:Generated_Source\PSoC4/uart_SPI_UART.c ****                     uart_INTR_TX_MASK_REG |= (uint32) uart_INTR_TX_NOT_FULL;
 303:Generated_Source\PSoC4/uart_SPI_UART.c ****                 }
 304:Generated_Source\PSoC4/uart_SPI_UART.c ****             }
 305:Generated_Source\PSoC4/uart_SPI_UART.c ****         }
 306:Generated_Source\PSoC4/uart_SPI_UART.c ****         #else
 307:Generated_Source\PSoC4/uart_SPI_UART.c ****         {
 308:Generated_Source\PSoC4/uart_SPI_UART.c ****             /* Wait until TX FIFO has space to put data element */
 309:Generated_Source\PSoC4/uart_SPI_UART.c ****             while (uart_SPI_UART_FIFO_SIZE == uart_GET_TX_FIFO_ENTRIES)
 127              		.loc 1 309 0 discriminator 1
 128 0000 044B     		ldr	r3, .L12
 129 0002 1B68     		ldr	r3, [r3]
 130 0004 0F22     		movs	r2, #15
 131 0006 1340     		ands	r3, r2
 132 0008 082B     		cmp	r3, #8
 133 000a F9D0     		beq	.L11
 310:Generated_Source\PSoC4/uart_SPI_UART.c ****             {
 311:Generated_Source\PSoC4/uart_SPI_UART.c ****             }
 312:Generated_Source\PSoC4/uart_SPI_UART.c **** 
 313:Generated_Source\PSoC4/uart_SPI_UART.c ****             uart_TX_FIFO_WR_REG = txData;
 134              		.loc 1 313 0
 135 000c 024B     		ldr	r3, .L12+4
 136 000e 1860     		str	r0, [r3]
 314:Generated_Source\PSoC4/uart_SPI_UART.c ****         }
 315:Generated_Source\PSoC4/uart_SPI_UART.c ****         #endif
 316:Generated_Source\PSoC4/uart_SPI_UART.c ****     }
 137              		.loc 1 316 0
 138              		@ sp needed
 139 0010 7047     		bx	lr
 140              	.L13:
ARM GAS  C:\Users\Usuario\AppData\Local\Temp\ccmPkqzm.s 			page 9


 141 0012 C046     		.align	2
 142              	.L12:
 143 0014 08020640 		.word	1074135560
 144 0018 40020640 		.word	1074135616
 145              		.cfi_endproc
 146              	.LFE3:
 147              		.size	uart_SpiUartWriteTxData, .-uart_SpiUartWriteTxData
 148              		.section	.text.uart_SpiUartPutArray,"ax",%progbits
 149              		.align	2
 150              		.global	uart_SpiUartPutArray
 151              		.code	16
 152              		.thumb_func
 153              		.type	uart_SpiUartPutArray, %function
 154              	uart_SpiUartPutArray:
 155              	.LFB4:
 317:Generated_Source\PSoC4/uart_SPI_UART.c **** 
 318:Generated_Source\PSoC4/uart_SPI_UART.c **** 
 319:Generated_Source\PSoC4/uart_SPI_UART.c ****     /*******************************************************************************
 320:Generated_Source\PSoC4/uart_SPI_UART.c ****     * Function Name: uart_SpiUartPutArray
 321:Generated_Source\PSoC4/uart_SPI_UART.c ****     ****************************************************************************//**
 322:Generated_Source\PSoC4/uart_SPI_UART.c ****     *
 323:Generated_Source\PSoC4/uart_SPI_UART.c ****     *  Places an array of data into the transmit buffer to be sent.
 324:Generated_Source\PSoC4/uart_SPI_UART.c ****     *  This function is blocking and waits until there is a space available to put
 325:Generated_Source\PSoC4/uart_SPI_UART.c ****     *  all the requested data in the transmit buffer. The array size can be greater
 326:Generated_Source\PSoC4/uart_SPI_UART.c ****     *  than transmit buffer size.
 327:Generated_Source\PSoC4/uart_SPI_UART.c ****     *
 328:Generated_Source\PSoC4/uart_SPI_UART.c ****     * \param wrBuf: pointer to an array of data to be placed in transmit buffer. 
 329:Generated_Source\PSoC4/uart_SPI_UART.c ****     *  The width of the data to be transmitted depends on TX data width selection 
 330:Generated_Source\PSoC4/uart_SPI_UART.c ****     *  (the data bit counting starts from LSB for each array element).
 331:Generated_Source\PSoC4/uart_SPI_UART.c ****     * \param count: number of data elements to be placed in the transmit buffer.
 332:Generated_Source\PSoC4/uart_SPI_UART.c ****     *
 333:Generated_Source\PSoC4/uart_SPI_UART.c ****     * \globalvars
 334:Generated_Source\PSoC4/uart_SPI_UART.c ****     *  uart_txBufferHead - the start index to put data into the 
 335:Generated_Source\PSoC4/uart_SPI_UART.c ****     *  software transmit buffer.
 336:Generated_Source\PSoC4/uart_SPI_UART.c ****     *  uart_txBufferTail - start index to get data from the software
 337:Generated_Source\PSoC4/uart_SPI_UART.c ****     *  transmit buffer.
 338:Generated_Source\PSoC4/uart_SPI_UART.c ****     *
 339:Generated_Source\PSoC4/uart_SPI_UART.c ****     *******************************************************************************/
 340:Generated_Source\PSoC4/uart_SPI_UART.c ****     void uart_SpiUartPutArray(const uint8 wrBuf[], uint32 count)
 341:Generated_Source\PSoC4/uart_SPI_UART.c ****     {
 156              		.loc 1 341 0
 157              		.cfi_startproc
 158              		@ args = 0, pretend = 0, frame = 0
 159              		@ frame_needed = 0, uses_anonymous_args = 0
 160              	.LVL4:
 161 0000 70B5     		push	{r4, r5, r6, lr}
 162              		.cfi_def_cfa_offset 16
 163              		.cfi_offset 4, -16
 164              		.cfi_offset 5, -12
 165              		.cfi_offset 6, -8
 166              		.cfi_offset 14, -4
 167 0002 0600     		movs	r6, r0
 168 0004 0D00     		movs	r5, r1
 169              	.LVL5:
 342:Generated_Source\PSoC4/uart_SPI_UART.c ****         uint32 i;
 343:Generated_Source\PSoC4/uart_SPI_UART.c **** 
 344:Generated_Source\PSoC4/uart_SPI_UART.c ****         for (i=0u; i < count; i++)
ARM GAS  C:\Users\Usuario\AppData\Local\Temp\ccmPkqzm.s 			page 10


 170              		.loc 1 344 0
 171 0006 0024     		movs	r4, #0
 172 0008 03E0     		b	.L15
 173              	.LVL6:
 174              	.L16:
 345:Generated_Source\PSoC4/uart_SPI_UART.c ****         {
 346:Generated_Source\PSoC4/uart_SPI_UART.c ****             uart_SpiUartWriteTxData((uint32) wrBuf[i]);
 175              		.loc 1 346 0 discriminator 3
 176 000a 305D     		ldrb	r0, [r6, r4]
 177 000c FFF7FEFF 		bl	uart_SpiUartWriteTxData
 178              	.LVL7:
 344:Generated_Source\PSoC4/uart_SPI_UART.c ****         {
 179              		.loc 1 344 0 discriminator 3
 180 0010 0134     		adds	r4, r4, #1
 181              	.LVL8:
 182              	.L15:
 344:Generated_Source\PSoC4/uart_SPI_UART.c ****         {
 183              		.loc 1 344 0 is_stmt 0 discriminator 1
 184 0012 AC42     		cmp	r4, r5
 185 0014 F9D3     		bcc	.L16
 347:Generated_Source\PSoC4/uart_SPI_UART.c ****         }
 348:Generated_Source\PSoC4/uart_SPI_UART.c ****     }
 186              		.loc 1 348 0 is_stmt 1
 187              		@ sp needed
 188              	.LVL9:
 189              	.LVL10:
 190              	.LVL11:
 191 0016 70BD     		pop	{r4, r5, r6, pc}
 192              		.cfi_endproc
 193              	.LFE4:
 194              		.size	uart_SpiUartPutArray, .-uart_SpiUartPutArray
 195              		.section	.text.uart_SpiUartGetTxBufferSize,"ax",%progbits
 196              		.align	2
 197              		.global	uart_SpiUartGetTxBufferSize
 198              		.code	16
 199              		.thumb_func
 200              		.type	uart_SpiUartGetTxBufferSize, %function
 201              	uart_SpiUartGetTxBufferSize:
 202              	.LFB5:
 349:Generated_Source\PSoC4/uart_SPI_UART.c **** 
 350:Generated_Source\PSoC4/uart_SPI_UART.c **** 
 351:Generated_Source\PSoC4/uart_SPI_UART.c ****     /*******************************************************************************
 352:Generated_Source\PSoC4/uart_SPI_UART.c ****     * Function Name: uart_SpiUartGetTxBufferSize
 353:Generated_Source\PSoC4/uart_SPI_UART.c ****     ****************************************************************************//**
 354:Generated_Source\PSoC4/uart_SPI_UART.c ****     *
 355:Generated_Source\PSoC4/uart_SPI_UART.c ****     *  Returns the number of elements currently in the transmit buffer.
 356:Generated_Source\PSoC4/uart_SPI_UART.c ****     *   - TX software buffer is disabled: returns the number of used entries in
 357:Generated_Source\PSoC4/uart_SPI_UART.c ****     *     TX FIFO.
 358:Generated_Source\PSoC4/uart_SPI_UART.c ****     *   - TX software buffer is enabled: returns the number of elements currently
 359:Generated_Source\PSoC4/uart_SPI_UART.c ****     *     used in the transmit buffer. This number does not include used entries in
 360:Generated_Source\PSoC4/uart_SPI_UART.c ****     *     the TX FIFO. The transmit buffer size is zero until the TX FIFO is
 361:Generated_Source\PSoC4/uart_SPI_UART.c ****     *     not full.
 362:Generated_Source\PSoC4/uart_SPI_UART.c ****     *
 363:Generated_Source\PSoC4/uart_SPI_UART.c ****     * \return
 364:Generated_Source\PSoC4/uart_SPI_UART.c ****     *  Number of data elements ready to transmit.
 365:Generated_Source\PSoC4/uart_SPI_UART.c ****     *
 366:Generated_Source\PSoC4/uart_SPI_UART.c ****     * \globalvars
ARM GAS  C:\Users\Usuario\AppData\Local\Temp\ccmPkqzm.s 			page 11


 367:Generated_Source\PSoC4/uart_SPI_UART.c ****     *  uart_txBufferHead - the start index to put data into the 
 368:Generated_Source\PSoC4/uart_SPI_UART.c ****     *  software transmit buffer.
 369:Generated_Source\PSoC4/uart_SPI_UART.c ****     *  uart_txBufferTail - start index to get data from the software
 370:Generated_Source\PSoC4/uart_SPI_UART.c ****     *  transmit buffer.
 371:Generated_Source\PSoC4/uart_SPI_UART.c ****     *
 372:Generated_Source\PSoC4/uart_SPI_UART.c ****     *******************************************************************************/
 373:Generated_Source\PSoC4/uart_SPI_UART.c ****     uint32 uart_SpiUartGetTxBufferSize(void)
 374:Generated_Source\PSoC4/uart_SPI_UART.c ****     {
 203              		.loc 1 374 0
 204              		.cfi_startproc
 205              		@ args = 0, pretend = 0, frame = 0
 206              		@ frame_needed = 0, uses_anonymous_args = 0
 207              		@ link register save eliminated.
 375:Generated_Source\PSoC4/uart_SPI_UART.c ****         uint32 size;
 376:Generated_Source\PSoC4/uart_SPI_UART.c ****     #if (uart_INTERNAL_TX_SW_BUFFER_CONST)
 377:Generated_Source\PSoC4/uart_SPI_UART.c ****         uint32 locTail;
 378:Generated_Source\PSoC4/uart_SPI_UART.c ****     #endif /* (uart_INTERNAL_TX_SW_BUFFER_CONST) */
 379:Generated_Source\PSoC4/uart_SPI_UART.c **** 
 380:Generated_Source\PSoC4/uart_SPI_UART.c ****         #if (uart_CHECK_TX_SW_BUFFER)
 381:Generated_Source\PSoC4/uart_SPI_UART.c ****         {
 382:Generated_Source\PSoC4/uart_SPI_UART.c ****             /* Get current Tail index */
 383:Generated_Source\PSoC4/uart_SPI_UART.c ****             locTail = uart_txBufferTail;
 384:Generated_Source\PSoC4/uart_SPI_UART.c **** 
 385:Generated_Source\PSoC4/uart_SPI_UART.c ****             if (uart_txBufferHead >= locTail)
 386:Generated_Source\PSoC4/uart_SPI_UART.c ****             {
 387:Generated_Source\PSoC4/uart_SPI_UART.c ****                 size = (uart_txBufferHead - locTail);
 388:Generated_Source\PSoC4/uart_SPI_UART.c ****             }
 389:Generated_Source\PSoC4/uart_SPI_UART.c ****             else
 390:Generated_Source\PSoC4/uart_SPI_UART.c ****             {
 391:Generated_Source\PSoC4/uart_SPI_UART.c ****                 size = (uart_txBufferHead + (uart_TX_BUFFER_SIZE - locTail));
 392:Generated_Source\PSoC4/uart_SPI_UART.c ****             }
 393:Generated_Source\PSoC4/uart_SPI_UART.c ****         }
 394:Generated_Source\PSoC4/uart_SPI_UART.c ****         #else
 395:Generated_Source\PSoC4/uart_SPI_UART.c ****         {
 396:Generated_Source\PSoC4/uart_SPI_UART.c ****             size = uart_GET_TX_FIFO_ENTRIES;
 208              		.loc 1 396 0
 209 0000 024B     		ldr	r3, .L18
 210 0002 1B68     		ldr	r3, [r3]
 211 0004 0F20     		movs	r0, #15
 212 0006 1840     		ands	r0, r3
 213              	.LVL12:
 397:Generated_Source\PSoC4/uart_SPI_UART.c ****         }
 398:Generated_Source\PSoC4/uart_SPI_UART.c ****         #endif
 399:Generated_Source\PSoC4/uart_SPI_UART.c **** 
 400:Generated_Source\PSoC4/uart_SPI_UART.c ****         return (size);
 401:Generated_Source\PSoC4/uart_SPI_UART.c ****     }
 214              		.loc 1 401 0
 215              		@ sp needed
 216 0008 7047     		bx	lr
 217              	.L19:
 218 000a C046     		.align	2
 219              	.L18:
 220 000c 08020640 		.word	1074135560
 221              		.cfi_endproc
 222              	.LFE5:
 223              		.size	uart_SpiUartGetTxBufferSize, .-uart_SpiUartGetTxBufferSize
 224              		.section	.text.uart_SpiUartClearTxBuffer,"ax",%progbits
ARM GAS  C:\Users\Usuario\AppData\Local\Temp\ccmPkqzm.s 			page 12


 225              		.align	2
 226              		.global	uart_SpiUartClearTxBuffer
 227              		.code	16
 228              		.thumb_func
 229              		.type	uart_SpiUartClearTxBuffer, %function
 230              	uart_SpiUartClearTxBuffer:
 231              	.LFB6:
 402:Generated_Source\PSoC4/uart_SPI_UART.c **** 
 403:Generated_Source\PSoC4/uart_SPI_UART.c **** 
 404:Generated_Source\PSoC4/uart_SPI_UART.c ****     /*******************************************************************************
 405:Generated_Source\PSoC4/uart_SPI_UART.c ****     * Function Name: uart_SpiUartClearTxBuffer
 406:Generated_Source\PSoC4/uart_SPI_UART.c ****     ****************************************************************************//**
 407:Generated_Source\PSoC4/uart_SPI_UART.c ****     *
 408:Generated_Source\PSoC4/uart_SPI_UART.c ****     *  Clears the transmit buffer and TX FIFO.
 409:Generated_Source\PSoC4/uart_SPI_UART.c ****     *
 410:Generated_Source\PSoC4/uart_SPI_UART.c ****     * \globalvars
 411:Generated_Source\PSoC4/uart_SPI_UART.c ****     *  uart_txBufferHead - the start index to put data into the 
 412:Generated_Source\PSoC4/uart_SPI_UART.c ****     *  software transmit buffer.
 413:Generated_Source\PSoC4/uart_SPI_UART.c ****     *  uart_txBufferTail - start index to get data from the software
 414:Generated_Source\PSoC4/uart_SPI_UART.c ****     *  transmit buffer.
 415:Generated_Source\PSoC4/uart_SPI_UART.c ****     *
 416:Generated_Source\PSoC4/uart_SPI_UART.c ****     *******************************************************************************/
 417:Generated_Source\PSoC4/uart_SPI_UART.c ****     void uart_SpiUartClearTxBuffer(void)
 418:Generated_Source\PSoC4/uart_SPI_UART.c ****     {
 232              		.loc 1 418 0
 233              		.cfi_startproc
 234              		@ args = 0, pretend = 0, frame = 0
 235              		@ frame_needed = 0, uses_anonymous_args = 0
 236              		@ link register save eliminated.
 419:Generated_Source\PSoC4/uart_SPI_UART.c ****         #if (uart_CHECK_TX_SW_BUFFER)
 420:Generated_Source\PSoC4/uart_SPI_UART.c ****         {
 421:Generated_Source\PSoC4/uart_SPI_UART.c ****             /* Lock from component interruption */
 422:Generated_Source\PSoC4/uart_SPI_UART.c ****             uart_DisableInt();
 423:Generated_Source\PSoC4/uart_SPI_UART.c **** 
 424:Generated_Source\PSoC4/uart_SPI_UART.c ****             /* Flush TX software buffer */
 425:Generated_Source\PSoC4/uart_SPI_UART.c ****             uart_txBufferHead = uart_txBufferTail;
 426:Generated_Source\PSoC4/uart_SPI_UART.c **** 
 427:Generated_Source\PSoC4/uart_SPI_UART.c ****             uart_INTR_TX_MASK_REG &= (uint32) ~uart_INTR_TX_NOT_FULL;
 428:Generated_Source\PSoC4/uart_SPI_UART.c ****             uart_CLEAR_TX_FIFO;
 429:Generated_Source\PSoC4/uart_SPI_UART.c ****             uart_ClearTxInterruptSource(uart_INTR_TX_ALL);
 430:Generated_Source\PSoC4/uart_SPI_UART.c **** 
 431:Generated_Source\PSoC4/uart_SPI_UART.c ****             /* Release lock */
 432:Generated_Source\PSoC4/uart_SPI_UART.c ****             uart_EnableInt();
 433:Generated_Source\PSoC4/uart_SPI_UART.c ****         }
 434:Generated_Source\PSoC4/uart_SPI_UART.c ****         #else
 435:Generated_Source\PSoC4/uart_SPI_UART.c ****         {
 436:Generated_Source\PSoC4/uart_SPI_UART.c ****             uart_CLEAR_TX_FIFO;
 237              		.loc 1 436 0
 238 0000 054B     		ldr	r3, .L21
 239 0002 1A68     		ldr	r2, [r3]
 240 0004 8021     		movs	r1, #128
 241 0006 4902     		lsls	r1, r1, #9
 242 0008 0A43     		orrs	r2, r1
 243 000a 1A60     		str	r2, [r3]
 244 000c 1968     		ldr	r1, [r3]
 245 000e 034A     		ldr	r2, .L21+4
 246 0010 0A40     		ands	r2, r1
ARM GAS  C:\Users\Usuario\AppData\Local\Temp\ccmPkqzm.s 			page 13


 247 0012 1A60     		str	r2, [r3]
 437:Generated_Source\PSoC4/uart_SPI_UART.c ****         }
 438:Generated_Source\PSoC4/uart_SPI_UART.c ****         #endif
 439:Generated_Source\PSoC4/uart_SPI_UART.c ****     }
 248              		.loc 1 439 0
 249              		@ sp needed
 250 0014 7047     		bx	lr
 251              	.L22:
 252 0016 C046     		.align	2
 253              	.L21:
 254 0018 04020640 		.word	1074135556
 255 001c FFFFFEFF 		.word	-65537
 256              		.cfi_endproc
 257              	.LFE6:
 258              		.size	uart_SpiUartClearTxBuffer, .-uart_SpiUartClearTxBuffer
 259              		.section	.text.uart_SpiUartDisableIntRx,"ax",%progbits
 260              		.align	2
 261              		.global	uart_SpiUartDisableIntRx
 262              		.code	16
 263              		.thumb_func
 264              		.type	uart_SpiUartDisableIntRx, %function
 265              	uart_SpiUartDisableIntRx:
 266              	.LFB7:
 440:Generated_Source\PSoC4/uart_SPI_UART.c **** 
 441:Generated_Source\PSoC4/uart_SPI_UART.c **** #endif /* (uart_TX_DIRECTION) */
 442:Generated_Source\PSoC4/uart_SPI_UART.c **** 
 443:Generated_Source\PSoC4/uart_SPI_UART.c **** 
 444:Generated_Source\PSoC4/uart_SPI_UART.c **** /*******************************************************************************
 445:Generated_Source\PSoC4/uart_SPI_UART.c **** * Function Name: uart_SpiUartDisableIntRx
 446:Generated_Source\PSoC4/uart_SPI_UART.c **** ****************************************************************************//**
 447:Generated_Source\PSoC4/uart_SPI_UART.c **** *
 448:Generated_Source\PSoC4/uart_SPI_UART.c **** *  Disables the RX interrupt sources.
 449:Generated_Source\PSoC4/uart_SPI_UART.c **** *
 450:Generated_Source\PSoC4/uart_SPI_UART.c **** *  \return
 451:Generated_Source\PSoC4/uart_SPI_UART.c **** *   Returns the RX interrupt sources enabled before the function call.
 452:Generated_Source\PSoC4/uart_SPI_UART.c **** *
 453:Generated_Source\PSoC4/uart_SPI_UART.c **** *******************************************************************************/
 454:Generated_Source\PSoC4/uart_SPI_UART.c **** uint32 uart_SpiUartDisableIntRx(void)
 455:Generated_Source\PSoC4/uart_SPI_UART.c **** {
 267              		.loc 1 455 0
 268              		.cfi_startproc
 269              		@ args = 0, pretend = 0, frame = 0
 270              		@ frame_needed = 0, uses_anonymous_args = 0
 271              		@ link register save eliminated.
 456:Generated_Source\PSoC4/uart_SPI_UART.c ****     uint32 intSource;
 457:Generated_Source\PSoC4/uart_SPI_UART.c **** 
 458:Generated_Source\PSoC4/uart_SPI_UART.c ****     intSource = uart_GetRxInterruptMode();
 272              		.loc 1 458 0
 273 0000 024B     		ldr	r3, .L24
 274 0002 1868     		ldr	r0, [r3]
 275              	.LVL13:
 459:Generated_Source\PSoC4/uart_SPI_UART.c **** 
 460:Generated_Source\PSoC4/uart_SPI_UART.c ****     uart_SetRxInterruptMode(uart_NO_INTR_SOURCES);
 276              		.loc 1 460 0
 277 0004 0022     		movs	r2, #0
 278 0006 1A60     		str	r2, [r3]
 461:Generated_Source\PSoC4/uart_SPI_UART.c **** 
ARM GAS  C:\Users\Usuario\AppData\Local\Temp\ccmPkqzm.s 			page 14


 462:Generated_Source\PSoC4/uart_SPI_UART.c ****     return (intSource);
 463:Generated_Source\PSoC4/uart_SPI_UART.c **** }
 279              		.loc 1 463 0
 280              		@ sp needed
 281 0008 7047     		bx	lr
 282              	.L25:
 283 000a C046     		.align	2
 284              	.L24:
 285 000c C80F0640 		.word	1074139080
 286              		.cfi_endproc
 287              	.LFE7:
 288              		.size	uart_SpiUartDisableIntRx, .-uart_SpiUartDisableIntRx
 289              		.section	.text.uart_SpiUartDisableIntTx,"ax",%progbits
 290              		.align	2
 291              		.global	uart_SpiUartDisableIntTx
 292              		.code	16
 293              		.thumb_func
 294              		.type	uart_SpiUartDisableIntTx, %function
 295              	uart_SpiUartDisableIntTx:
 296              	.LFB8:
 464:Generated_Source\PSoC4/uart_SPI_UART.c **** 
 465:Generated_Source\PSoC4/uart_SPI_UART.c **** 
 466:Generated_Source\PSoC4/uart_SPI_UART.c **** /*******************************************************************************
 467:Generated_Source\PSoC4/uart_SPI_UART.c **** * Function Name: uart_SpiUartDisableIntTx
 468:Generated_Source\PSoC4/uart_SPI_UART.c **** ****************************************************************************//**
 469:Generated_Source\PSoC4/uart_SPI_UART.c **** *
 470:Generated_Source\PSoC4/uart_SPI_UART.c **** *  Disables TX interrupt sources.
 471:Generated_Source\PSoC4/uart_SPI_UART.c **** *
 472:Generated_Source\PSoC4/uart_SPI_UART.c **** *  \return
 473:Generated_Source\PSoC4/uart_SPI_UART.c **** *   Returns TX interrupt sources enabled before function call.
 474:Generated_Source\PSoC4/uart_SPI_UART.c **** *
 475:Generated_Source\PSoC4/uart_SPI_UART.c **** *******************************************************************************/
 476:Generated_Source\PSoC4/uart_SPI_UART.c **** uint32 uart_SpiUartDisableIntTx(void)
 477:Generated_Source\PSoC4/uart_SPI_UART.c **** {
 297              		.loc 1 477 0
 298              		.cfi_startproc
 299              		@ args = 0, pretend = 0, frame = 0
 300              		@ frame_needed = 0, uses_anonymous_args = 0
 301              		@ link register save eliminated.
 478:Generated_Source\PSoC4/uart_SPI_UART.c ****     uint32 intSourceMask;
 479:Generated_Source\PSoC4/uart_SPI_UART.c **** 
 480:Generated_Source\PSoC4/uart_SPI_UART.c ****     intSourceMask = uart_GetTxInterruptMode();
 302              		.loc 1 480 0
 303 0000 024B     		ldr	r3, .L27
 304 0002 1868     		ldr	r0, [r3]
 305              	.LVL14:
 481:Generated_Source\PSoC4/uart_SPI_UART.c **** 
 482:Generated_Source\PSoC4/uart_SPI_UART.c ****     uart_SetTxInterruptMode(uart_NO_INTR_SOURCES);
 306              		.loc 1 482 0
 307 0004 0022     		movs	r2, #0
 308 0006 1A60     		str	r2, [r3]
 483:Generated_Source\PSoC4/uart_SPI_UART.c **** 
 484:Generated_Source\PSoC4/uart_SPI_UART.c ****     return (intSourceMask);
 485:Generated_Source\PSoC4/uart_SPI_UART.c **** }
 309              		.loc 1 485 0
 310              		@ sp needed
 311 0008 7047     		bx	lr
ARM GAS  C:\Users\Usuario\AppData\Local\Temp\ccmPkqzm.s 			page 15


 312              	.L28:
 313 000a C046     		.align	2
 314              	.L27:
 315 000c 880F0640 		.word	1074139016
 316              		.cfi_endproc
 317              	.LFE8:
 318              		.size	uart_SpiUartDisableIntTx, .-uart_SpiUartDisableIntTx
 319              		.text
 320              	.Letext0:
 321              		.file 2 "Generated_Source\\PSoC4/cytypes.h"