ARM GAS  C:\Users\Usuario\AppData\Local\Temp\ccBtn9hh.s 			page 1


   1              		.syntax unified
   2              		.cpu cortex-m0
   3              		.fpu softvfp
   4              		.eabi_attribute 20, 1
   5              		.eabi_attribute 21, 1
   6              		.eabi_attribute 23, 3
   7              		.eabi_attribute 24, 1
   8              		.eabi_attribute 25, 1
   9              		.eabi_attribute 26, 1
  10              		.eabi_attribute 30, 1
  11              		.eabi_attribute 34, 0
  12              		.eabi_attribute 18, 4
  13              		.thumb
  14              		.syntax unified
  15              		.file	"uart.c"
  16              		.text
  17              	.Ltext0:
  18              		.cfi_sections	.debug_frame
  19              		.section	.text.uart_ScbModePostEnable,"ax",%progbits
  20              		.align	2
  21              		.code	16
  22              		.thumb_func
  23              		.type	uart_ScbModePostEnable, %function
  24              	uart_ScbModePostEnable:
  25              	.LFB7:
  26              		.file 1 "Generated_Source\\PSoC4\\uart.c"
   1:Generated_Source\PSoC4/uart.c **** /***************************************************************************//**
   2:Generated_Source\PSoC4/uart.c **** * \file uart.c
   3:Generated_Source\PSoC4/uart.c **** * \version 4.0
   4:Generated_Source\PSoC4/uart.c **** *
   5:Generated_Source\PSoC4/uart.c **** * \brief
   6:Generated_Source\PSoC4/uart.c **** *  This file provides the source code to the API for the SCB Component.
   7:Generated_Source\PSoC4/uart.c **** *
   8:Generated_Source\PSoC4/uart.c **** * Note:
   9:Generated_Source\PSoC4/uart.c **** *
  10:Generated_Source\PSoC4/uart.c **** *******************************************************************************
  11:Generated_Source\PSoC4/uart.c **** * \copyright
  12:Generated_Source\PSoC4/uart.c **** * Copyright 2013-2017, Cypress Semiconductor Corporation.  All rights reserved.
  13:Generated_Source\PSoC4/uart.c **** * You may use this file only in accordance with the license, terms, conditions,
  14:Generated_Source\PSoC4/uart.c **** * disclaimers, and limitations in the end user license agreement accompanying
  15:Generated_Source\PSoC4/uart.c **** * the software package with which this file was provided.
  16:Generated_Source\PSoC4/uart.c **** *******************************************************************************/
  17:Generated_Source\PSoC4/uart.c **** 
  18:Generated_Source\PSoC4/uart.c **** #include "uart_PVT.h"
  19:Generated_Source\PSoC4/uart.c **** 
  20:Generated_Source\PSoC4/uart.c **** #if (uart_SCB_MODE_I2C_INC)
  21:Generated_Source\PSoC4/uart.c ****     #include "uart_I2C_PVT.h"
  22:Generated_Source\PSoC4/uart.c **** #endif /* (uart_SCB_MODE_I2C_INC) */
  23:Generated_Source\PSoC4/uart.c **** 
  24:Generated_Source\PSoC4/uart.c **** #if (uart_SCB_MODE_EZI2C_INC)
  25:Generated_Source\PSoC4/uart.c ****     #include "uart_EZI2C_PVT.h"
  26:Generated_Source\PSoC4/uart.c **** #endif /* (uart_SCB_MODE_EZI2C_INC) */
  27:Generated_Source\PSoC4/uart.c **** 
  28:Generated_Source\PSoC4/uart.c **** #if (uart_SCB_MODE_SPI_INC || uart_SCB_MODE_UART_INC)
  29:Generated_Source\PSoC4/uart.c ****     #include "uart_SPI_UART_PVT.h"
  30:Generated_Source\PSoC4/uart.c **** #endif /* (uart_SCB_MODE_SPI_INC || uart_SCB_MODE_UART_INC) */
  31:Generated_Source\PSoC4/uart.c **** 
ARM GAS  C:\Users\Usuario\AppData\Local\Temp\ccBtn9hh.s 			page 2


  32:Generated_Source\PSoC4/uart.c **** 
  33:Generated_Source\PSoC4/uart.c **** /***************************************
  34:Generated_Source\PSoC4/uart.c **** *    Run Time Configuration Vars
  35:Generated_Source\PSoC4/uart.c **** ***************************************/
  36:Generated_Source\PSoC4/uart.c **** 
  37:Generated_Source\PSoC4/uart.c **** /* Stores internal component configuration for Unconfigured mode */
  38:Generated_Source\PSoC4/uart.c **** #if (uart_SCB_MODE_UNCONFIG_CONST_CFG)
  39:Generated_Source\PSoC4/uart.c ****     /* Common configuration variables */
  40:Generated_Source\PSoC4/uart.c ****     uint8 uart_scbMode = uart_SCB_MODE_UNCONFIG;
  41:Generated_Source\PSoC4/uart.c ****     uint8 uart_scbEnableWake;
  42:Generated_Source\PSoC4/uart.c ****     uint8 uart_scbEnableIntr;
  43:Generated_Source\PSoC4/uart.c **** 
  44:Generated_Source\PSoC4/uart.c ****     /* I2C configuration variables */
  45:Generated_Source\PSoC4/uart.c ****     uint8 uart_mode;
  46:Generated_Source\PSoC4/uart.c ****     uint8 uart_acceptAddr;
  47:Generated_Source\PSoC4/uart.c **** 
  48:Generated_Source\PSoC4/uart.c ****     /* SPI/UART configuration variables */
  49:Generated_Source\PSoC4/uart.c ****     volatile uint8 * uart_rxBuffer;
  50:Generated_Source\PSoC4/uart.c ****     uint8  uart_rxDataBits;
  51:Generated_Source\PSoC4/uart.c ****     uint32 uart_rxBufferSize;
  52:Generated_Source\PSoC4/uart.c **** 
  53:Generated_Source\PSoC4/uart.c ****     volatile uint8 * uart_txBuffer;
  54:Generated_Source\PSoC4/uart.c ****     uint8  uart_txDataBits;
  55:Generated_Source\PSoC4/uart.c ****     uint32 uart_txBufferSize;
  56:Generated_Source\PSoC4/uart.c **** 
  57:Generated_Source\PSoC4/uart.c ****     /* EZI2C configuration variables */
  58:Generated_Source\PSoC4/uart.c ****     uint8 uart_numberOfAddr;
  59:Generated_Source\PSoC4/uart.c ****     uint8 uart_subAddrSize;
  60:Generated_Source\PSoC4/uart.c **** #endif /* (uart_SCB_MODE_UNCONFIG_CONST_CFG) */
  61:Generated_Source\PSoC4/uart.c **** 
  62:Generated_Source\PSoC4/uart.c **** 
  63:Generated_Source\PSoC4/uart.c **** /***************************************
  64:Generated_Source\PSoC4/uart.c **** *     Common SCB Vars
  65:Generated_Source\PSoC4/uart.c **** ***************************************/
  66:Generated_Source\PSoC4/uart.c **** /**
  67:Generated_Source\PSoC4/uart.c **** * \addtogroup group_general
  68:Generated_Source\PSoC4/uart.c **** * \{
  69:Generated_Source\PSoC4/uart.c **** */
  70:Generated_Source\PSoC4/uart.c **** 
  71:Generated_Source\PSoC4/uart.c **** /** uart_initVar indicates whether the uart 
  72:Generated_Source\PSoC4/uart.c **** *  component has been initialized. The variable is initialized to 0 
  73:Generated_Source\PSoC4/uart.c **** *  and set to 1 the first time SCB_Start() is called. This allows 
  74:Generated_Source\PSoC4/uart.c **** *  the component to restart without reinitialization after the first 
  75:Generated_Source\PSoC4/uart.c **** *  call to the uart_Start() routine.
  76:Generated_Source\PSoC4/uart.c **** *
  77:Generated_Source\PSoC4/uart.c **** *  If re-initialization of the component is required, then the 
  78:Generated_Source\PSoC4/uart.c **** *  uart_Init() function can be called before the 
  79:Generated_Source\PSoC4/uart.c **** *  uart_Start() or uart_Enable() function.
  80:Generated_Source\PSoC4/uart.c **** */
  81:Generated_Source\PSoC4/uart.c **** uint8 uart_initVar = 0u;
  82:Generated_Source\PSoC4/uart.c **** 
  83:Generated_Source\PSoC4/uart.c **** 
  84:Generated_Source\PSoC4/uart.c **** #if (! (uart_SCB_MODE_I2C_CONST_CFG || \
  85:Generated_Source\PSoC4/uart.c ****         uart_SCB_MODE_EZI2C_CONST_CFG))
  86:Generated_Source\PSoC4/uart.c ****     /** This global variable stores TX interrupt sources after 
  87:Generated_Source\PSoC4/uart.c ****     * uart_Stop() is called. Only these TX interrupt sources 
  88:Generated_Source\PSoC4/uart.c ****     * will be restored on a subsequent uart_Enable() call.
ARM GAS  C:\Users\Usuario\AppData\Local\Temp\ccBtn9hh.s 			page 3


  89:Generated_Source\PSoC4/uart.c ****     */
  90:Generated_Source\PSoC4/uart.c ****     uint16 uart_IntrTxMask = 0u;
  91:Generated_Source\PSoC4/uart.c **** #endif /* (! (uart_SCB_MODE_I2C_CONST_CFG || \
  92:Generated_Source\PSoC4/uart.c ****               uart_SCB_MODE_EZI2C_CONST_CFG)) */
  93:Generated_Source\PSoC4/uart.c **** /** \} globals */
  94:Generated_Source\PSoC4/uart.c **** 
  95:Generated_Source\PSoC4/uart.c **** #if (uart_SCB_IRQ_INTERNAL)
  96:Generated_Source\PSoC4/uart.c **** #if !defined (CY_REMOVE_uart_CUSTOM_INTR_HANDLER)
  97:Generated_Source\PSoC4/uart.c ****     void (*uart_customIntrHandler)(void) = NULL;
  98:Generated_Source\PSoC4/uart.c **** #endif /* !defined (CY_REMOVE_uart_CUSTOM_INTR_HANDLER) */
  99:Generated_Source\PSoC4/uart.c **** #endif /* (uart_SCB_IRQ_INTERNAL) */
 100:Generated_Source\PSoC4/uart.c **** 
 101:Generated_Source\PSoC4/uart.c **** 
 102:Generated_Source\PSoC4/uart.c **** /***************************************
 103:Generated_Source\PSoC4/uart.c **** *    Private Function Prototypes
 104:Generated_Source\PSoC4/uart.c **** ***************************************/
 105:Generated_Source\PSoC4/uart.c **** 
 106:Generated_Source\PSoC4/uart.c **** static void uart_ScbEnableIntr(void);
 107:Generated_Source\PSoC4/uart.c **** static void uart_ScbModeStop(void);
 108:Generated_Source\PSoC4/uart.c **** static void uart_ScbModePostEnable(void);
 109:Generated_Source\PSoC4/uart.c **** 
 110:Generated_Source\PSoC4/uart.c **** 
 111:Generated_Source\PSoC4/uart.c **** /*******************************************************************************
 112:Generated_Source\PSoC4/uart.c **** * Function Name: uart_Init
 113:Generated_Source\PSoC4/uart.c **** ****************************************************************************//**
 114:Generated_Source\PSoC4/uart.c **** *
 115:Generated_Source\PSoC4/uart.c **** *  Initializes the uart component to operate in one of the selected
 116:Generated_Source\PSoC4/uart.c **** *  configurations: I2C, SPI, UART or EZI2C.
 117:Generated_Source\PSoC4/uart.c **** *  When the configuration is set to "Unconfigured SCB", this function does
 118:Generated_Source\PSoC4/uart.c **** *  not do any initialization. Use mode-specific initialization APIs instead:
 119:Generated_Source\PSoC4/uart.c **** *  uart_I2CInit, uart_SpiInit, 
 120:Generated_Source\PSoC4/uart.c **** *  uart_UartInit or uart_EzI2CInit.
 121:Generated_Source\PSoC4/uart.c **** *
 122:Generated_Source\PSoC4/uart.c **** *******************************************************************************/
 123:Generated_Source\PSoC4/uart.c **** void uart_Init(void)
 124:Generated_Source\PSoC4/uart.c **** {
 125:Generated_Source\PSoC4/uart.c **** #if (uart_SCB_MODE_UNCONFIG_CONST_CFG)
 126:Generated_Source\PSoC4/uart.c ****     if (uart_SCB_MODE_UNCONFIG_RUNTM_CFG)
 127:Generated_Source\PSoC4/uart.c ****     {
 128:Generated_Source\PSoC4/uart.c ****         uart_initVar = 0u;
 129:Generated_Source\PSoC4/uart.c ****     }
 130:Generated_Source\PSoC4/uart.c ****     else
 131:Generated_Source\PSoC4/uart.c ****     {
 132:Generated_Source\PSoC4/uart.c ****         /* Initialization was done before this function call */
 133:Generated_Source\PSoC4/uart.c ****     }
 134:Generated_Source\PSoC4/uart.c **** 
 135:Generated_Source\PSoC4/uart.c **** #elif (uart_SCB_MODE_I2C_CONST_CFG)
 136:Generated_Source\PSoC4/uart.c ****     uart_I2CInit();
 137:Generated_Source\PSoC4/uart.c **** 
 138:Generated_Source\PSoC4/uart.c **** #elif (uart_SCB_MODE_SPI_CONST_CFG)
 139:Generated_Source\PSoC4/uart.c ****     uart_SpiInit();
 140:Generated_Source\PSoC4/uart.c **** 
 141:Generated_Source\PSoC4/uart.c **** #elif (uart_SCB_MODE_UART_CONST_CFG)
 142:Generated_Source\PSoC4/uart.c ****     uart_UartInit();
 143:Generated_Source\PSoC4/uart.c **** 
 144:Generated_Source\PSoC4/uart.c **** #elif (uart_SCB_MODE_EZI2C_CONST_CFG)
 145:Generated_Source\PSoC4/uart.c ****     uart_EzI2CInit();
ARM GAS  C:\Users\Usuario\AppData\Local\Temp\ccBtn9hh.s 			page 4


 146:Generated_Source\PSoC4/uart.c **** 
 147:Generated_Source\PSoC4/uart.c **** #endif /* (uart_SCB_MODE_UNCONFIG_CONST_CFG) */
 148:Generated_Source\PSoC4/uart.c **** }
 149:Generated_Source\PSoC4/uart.c **** 
 150:Generated_Source\PSoC4/uart.c **** 
 151:Generated_Source\PSoC4/uart.c **** /*******************************************************************************
 152:Generated_Source\PSoC4/uart.c **** * Function Name: uart_Enable
 153:Generated_Source\PSoC4/uart.c **** ****************************************************************************//**
 154:Generated_Source\PSoC4/uart.c **** *
 155:Generated_Source\PSoC4/uart.c **** *  Enables uart component operation: activates the hardware and 
 156:Generated_Source\PSoC4/uart.c **** *  internal interrupt. It also restores TX interrupt sources disabled after the 
 157:Generated_Source\PSoC4/uart.c **** *  uart_Stop() function was called (note that level-triggered TX 
 158:Generated_Source\PSoC4/uart.c **** *  interrupt sources remain disabled to not cause code lock-up).
 159:Generated_Source\PSoC4/uart.c **** *  For I2C and EZI2C modes the interrupt is internal and mandatory for 
 160:Generated_Source\PSoC4/uart.c **** *  operation. For SPI and UART modes the interrupt can be configured as none, 
 161:Generated_Source\PSoC4/uart.c **** *  internal or external.
 162:Generated_Source\PSoC4/uart.c **** *  The uart configuration should be not changed when the component
 163:Generated_Source\PSoC4/uart.c **** *  is enabled. Any configuration changes should be made after disabling the 
 164:Generated_Source\PSoC4/uart.c **** *  component.
 165:Generated_Source\PSoC4/uart.c **** *  When configuration is set to “Unconfigured uart”, the component 
 166:Generated_Source\PSoC4/uart.c **** *  must first be initialized to operate in one of the following configurations: 
 167:Generated_Source\PSoC4/uart.c **** *  I2C, SPI, UART or EZ I2C, using the mode-specific initialization API. 
 168:Generated_Source\PSoC4/uart.c **** *  Otherwise this function does not enable the component.
 169:Generated_Source\PSoC4/uart.c **** *
 170:Generated_Source\PSoC4/uart.c **** *******************************************************************************/
 171:Generated_Source\PSoC4/uart.c **** void uart_Enable(void)
 172:Generated_Source\PSoC4/uart.c **** {
 173:Generated_Source\PSoC4/uart.c **** #if (uart_SCB_MODE_UNCONFIG_CONST_CFG)
 174:Generated_Source\PSoC4/uart.c ****     /* Enable SCB block, only if it is already configured */
 175:Generated_Source\PSoC4/uart.c ****     if (!uart_SCB_MODE_UNCONFIG_RUNTM_CFG)
 176:Generated_Source\PSoC4/uart.c ****     {
 177:Generated_Source\PSoC4/uart.c ****         uart_CTRL_REG |= uart_CTRL_ENABLED;
 178:Generated_Source\PSoC4/uart.c **** 
 179:Generated_Source\PSoC4/uart.c ****         uart_ScbEnableIntr();
 180:Generated_Source\PSoC4/uart.c **** 
 181:Generated_Source\PSoC4/uart.c ****         /* Call PostEnable function specific to current operation mode */
 182:Generated_Source\PSoC4/uart.c ****         uart_ScbModePostEnable();
 183:Generated_Source\PSoC4/uart.c ****     }
 184:Generated_Source\PSoC4/uart.c **** #else
 185:Generated_Source\PSoC4/uart.c ****     uart_CTRL_REG |= uart_CTRL_ENABLED;
 186:Generated_Source\PSoC4/uart.c **** 
 187:Generated_Source\PSoC4/uart.c ****     uart_ScbEnableIntr();
 188:Generated_Source\PSoC4/uart.c **** 
 189:Generated_Source\PSoC4/uart.c ****     /* Call PostEnable function specific to current operation mode */
 190:Generated_Source\PSoC4/uart.c ****     uart_ScbModePostEnable();
 191:Generated_Source\PSoC4/uart.c **** #endif /* (uart_SCB_MODE_UNCONFIG_CONST_CFG) */
 192:Generated_Source\PSoC4/uart.c **** }
 193:Generated_Source\PSoC4/uart.c **** 
 194:Generated_Source\PSoC4/uart.c **** 
 195:Generated_Source\PSoC4/uart.c **** /*******************************************************************************
 196:Generated_Source\PSoC4/uart.c **** * Function Name: uart_Start
 197:Generated_Source\PSoC4/uart.c **** ****************************************************************************//**
 198:Generated_Source\PSoC4/uart.c **** *
 199:Generated_Source\PSoC4/uart.c **** *  Invokes uart_Init() and uart_Enable().
 200:Generated_Source\PSoC4/uart.c **** *  After this function call, the component is enabled and ready for operation.
 201:Generated_Source\PSoC4/uart.c **** *  When configuration is set to "Unconfigured SCB", the component must first be
 202:Generated_Source\PSoC4/uart.c **** *  initialized to operate in one of the following configurations: I2C, SPI, UART
ARM GAS  C:\Users\Usuario\AppData\Local\Temp\ccBtn9hh.s 			page 5


 203:Generated_Source\PSoC4/uart.c **** *  or EZI2C. Otherwise this function does not enable the component.
 204:Generated_Source\PSoC4/uart.c **** *
 205:Generated_Source\PSoC4/uart.c **** * \globalvars
 206:Generated_Source\PSoC4/uart.c **** *  uart_initVar - used to check initial configuration, modified
 207:Generated_Source\PSoC4/uart.c **** *  on first function call.
 208:Generated_Source\PSoC4/uart.c **** *
 209:Generated_Source\PSoC4/uart.c **** *******************************************************************************/
 210:Generated_Source\PSoC4/uart.c **** void uart_Start(void)
 211:Generated_Source\PSoC4/uart.c **** {
 212:Generated_Source\PSoC4/uart.c ****     if (0u == uart_initVar)
 213:Generated_Source\PSoC4/uart.c ****     {
 214:Generated_Source\PSoC4/uart.c ****         uart_Init();
 215:Generated_Source\PSoC4/uart.c ****         uart_initVar = 1u; /* Component was initialized */
 216:Generated_Source\PSoC4/uart.c ****     }
 217:Generated_Source\PSoC4/uart.c **** 
 218:Generated_Source\PSoC4/uart.c ****     uart_Enable();
 219:Generated_Source\PSoC4/uart.c **** }
 220:Generated_Source\PSoC4/uart.c **** 
 221:Generated_Source\PSoC4/uart.c **** 
 222:Generated_Source\PSoC4/uart.c **** /*******************************************************************************
 223:Generated_Source\PSoC4/uart.c **** * Function Name: uart_Stop
 224:Generated_Source\PSoC4/uart.c **** ****************************************************************************//**
 225:Generated_Source\PSoC4/uart.c **** *
 226:Generated_Source\PSoC4/uart.c **** *  Disables the uart component: disable the hardware and internal 
 227:Generated_Source\PSoC4/uart.c **** *  interrupt. It also disables all TX interrupt sources so as not to cause an 
 228:Generated_Source\PSoC4/uart.c **** *  unexpected interrupt trigger because after the component is enabled, the 
 229:Generated_Source\PSoC4/uart.c **** *  TX FIFO is empty.
 230:Generated_Source\PSoC4/uart.c **** *  Refer to the function uart_Enable() for the interrupt 
 231:Generated_Source\PSoC4/uart.c **** *  configuration details.
 232:Generated_Source\PSoC4/uart.c **** *  This function disables the SCB component without checking to see if 
 233:Generated_Source\PSoC4/uart.c **** *  communication is in progress. Before calling this function it may be 
 234:Generated_Source\PSoC4/uart.c **** *  necessary to check the status of communication to make sure communication 
 235:Generated_Source\PSoC4/uart.c **** *  is complete. If this is not done then communication could be stopped mid 
 236:Generated_Source\PSoC4/uart.c **** *  byte and corrupted data could result.
 237:Generated_Source\PSoC4/uart.c **** *
 238:Generated_Source\PSoC4/uart.c **** *******************************************************************************/
 239:Generated_Source\PSoC4/uart.c **** void uart_Stop(void)
 240:Generated_Source\PSoC4/uart.c **** {
 241:Generated_Source\PSoC4/uart.c **** #if (uart_SCB_IRQ_INTERNAL)
 242:Generated_Source\PSoC4/uart.c ****     uart_DisableInt();
 243:Generated_Source\PSoC4/uart.c **** #endif /* (uart_SCB_IRQ_INTERNAL) */
 244:Generated_Source\PSoC4/uart.c **** 
 245:Generated_Source\PSoC4/uart.c ****     /* Call Stop function specific to current operation mode */
 246:Generated_Source\PSoC4/uart.c ****     uart_ScbModeStop();
 247:Generated_Source\PSoC4/uart.c **** 
 248:Generated_Source\PSoC4/uart.c ****     /* Disable SCB IP */
 249:Generated_Source\PSoC4/uart.c ****     uart_CTRL_REG &= (uint32) ~uart_CTRL_ENABLED;
 250:Generated_Source\PSoC4/uart.c **** 
 251:Generated_Source\PSoC4/uart.c ****     /* Disable all TX interrupt sources so as not to cause an unexpected
 252:Generated_Source\PSoC4/uart.c ****     * interrupt trigger after the component will be enabled because the 
 253:Generated_Source\PSoC4/uart.c ****     * TX FIFO is empty.
 254:Generated_Source\PSoC4/uart.c ****     * For SCB IP v0, it is critical as it does not mask-out interrupt
 255:Generated_Source\PSoC4/uart.c ****     * sources when it is disabled. This can cause a code lock-up in the
 256:Generated_Source\PSoC4/uart.c ****     * interrupt handler because TX FIFO cannot be loaded after the block
 257:Generated_Source\PSoC4/uart.c ****     * is disabled.
 258:Generated_Source\PSoC4/uart.c ****     */
 259:Generated_Source\PSoC4/uart.c ****     uart_SetTxInterruptMode(uart_NO_INTR_SOURCES);
ARM GAS  C:\Users\Usuario\AppData\Local\Temp\ccBtn9hh.s 			page 6


 260:Generated_Source\PSoC4/uart.c **** 
 261:Generated_Source\PSoC4/uart.c **** #if (uart_SCB_IRQ_INTERNAL)
 262:Generated_Source\PSoC4/uart.c ****     uart_ClearPendingInt();
 263:Generated_Source\PSoC4/uart.c **** #endif /* (uart_SCB_IRQ_INTERNAL) */
 264:Generated_Source\PSoC4/uart.c **** }
 265:Generated_Source\PSoC4/uart.c **** 
 266:Generated_Source\PSoC4/uart.c **** 
 267:Generated_Source\PSoC4/uart.c **** /*******************************************************************************
 268:Generated_Source\PSoC4/uart.c **** * Function Name: uart_SetRxFifoLevel
 269:Generated_Source\PSoC4/uart.c **** ****************************************************************************//**
 270:Generated_Source\PSoC4/uart.c **** *
 271:Generated_Source\PSoC4/uart.c **** *  Sets level in the RX FIFO to generate a RX level interrupt.
 272:Generated_Source\PSoC4/uart.c **** *  When the RX FIFO has more entries than the RX FIFO level an RX level
 273:Generated_Source\PSoC4/uart.c **** *  interrupt request is generated.
 274:Generated_Source\PSoC4/uart.c **** *
 275:Generated_Source\PSoC4/uart.c **** *  \param level: Level in the RX FIFO to generate RX level interrupt.
 276:Generated_Source\PSoC4/uart.c **** *   The range of valid level values is between 0 and RX FIFO depth - 1.
 277:Generated_Source\PSoC4/uart.c **** *
 278:Generated_Source\PSoC4/uart.c **** *******************************************************************************/
 279:Generated_Source\PSoC4/uart.c **** void uart_SetRxFifoLevel(uint32 level)
 280:Generated_Source\PSoC4/uart.c **** {
 281:Generated_Source\PSoC4/uart.c ****     uint32 rxFifoCtrl;
 282:Generated_Source\PSoC4/uart.c **** 
 283:Generated_Source\PSoC4/uart.c ****     rxFifoCtrl = uart_RX_FIFO_CTRL_REG;
 284:Generated_Source\PSoC4/uart.c **** 
 285:Generated_Source\PSoC4/uart.c ****     rxFifoCtrl &= ((uint32) ~uart_RX_FIFO_CTRL_TRIGGER_LEVEL_MASK); /* Clear level mask bits */
 286:Generated_Source\PSoC4/uart.c ****     rxFifoCtrl |= ((uint32) (uart_RX_FIFO_CTRL_TRIGGER_LEVEL_MASK & level));
 287:Generated_Source\PSoC4/uart.c **** 
 288:Generated_Source\PSoC4/uart.c ****     uart_RX_FIFO_CTRL_REG = rxFifoCtrl;
 289:Generated_Source\PSoC4/uart.c **** }
 290:Generated_Source\PSoC4/uart.c **** 
 291:Generated_Source\PSoC4/uart.c **** 
 292:Generated_Source\PSoC4/uart.c **** /*******************************************************************************
 293:Generated_Source\PSoC4/uart.c **** * Function Name: uart_SetTxFifoLevel
 294:Generated_Source\PSoC4/uart.c **** ****************************************************************************//**
 295:Generated_Source\PSoC4/uart.c **** *
 296:Generated_Source\PSoC4/uart.c **** *  Sets level in the TX FIFO to generate a TX level interrupt.
 297:Generated_Source\PSoC4/uart.c **** *  When the TX FIFO has less entries than the TX FIFO level an TX level
 298:Generated_Source\PSoC4/uart.c **** *  interrupt request is generated.
 299:Generated_Source\PSoC4/uart.c **** *
 300:Generated_Source\PSoC4/uart.c **** *  \param level: Level in the TX FIFO to generate TX level interrupt.
 301:Generated_Source\PSoC4/uart.c **** *   The range of valid level values is between 0 and TX FIFO depth - 1.
 302:Generated_Source\PSoC4/uart.c **** *
 303:Generated_Source\PSoC4/uart.c **** *******************************************************************************/
 304:Generated_Source\PSoC4/uart.c **** void uart_SetTxFifoLevel(uint32 level)
 305:Generated_Source\PSoC4/uart.c **** {
 306:Generated_Source\PSoC4/uart.c ****     uint32 txFifoCtrl;
 307:Generated_Source\PSoC4/uart.c **** 
 308:Generated_Source\PSoC4/uart.c ****     txFifoCtrl = uart_TX_FIFO_CTRL_REG;
 309:Generated_Source\PSoC4/uart.c **** 
 310:Generated_Source\PSoC4/uart.c ****     txFifoCtrl &= ((uint32) ~uart_TX_FIFO_CTRL_TRIGGER_LEVEL_MASK); /* Clear level mask bits */
 311:Generated_Source\PSoC4/uart.c ****     txFifoCtrl |= ((uint32) (uart_TX_FIFO_CTRL_TRIGGER_LEVEL_MASK & level));
 312:Generated_Source\PSoC4/uart.c **** 
 313:Generated_Source\PSoC4/uart.c ****     uart_TX_FIFO_CTRL_REG = txFifoCtrl;
 314:Generated_Source\PSoC4/uart.c **** }
 315:Generated_Source\PSoC4/uart.c **** 
 316:Generated_Source\PSoC4/uart.c **** 
ARM GAS  C:\Users\Usuario\AppData\Local\Temp\ccBtn9hh.s 			page 7


 317:Generated_Source\PSoC4/uart.c **** #if (uart_SCB_IRQ_INTERNAL)
 318:Generated_Source\PSoC4/uart.c ****     /*******************************************************************************
 319:Generated_Source\PSoC4/uart.c ****     * Function Name: uart_SetCustomInterruptHandler
 320:Generated_Source\PSoC4/uart.c ****     ****************************************************************************//**
 321:Generated_Source\PSoC4/uart.c ****     *
 322:Generated_Source\PSoC4/uart.c ****     *  Registers a function to be called by the internal interrupt handler.
 323:Generated_Source\PSoC4/uart.c ****     *  First the function that is registered is called, then the internal interrupt
 324:Generated_Source\PSoC4/uart.c ****     *  handler performs any operation such as software buffer management functions
 325:Generated_Source\PSoC4/uart.c ****     *  before the interrupt returns.  It is the user's responsibility not to break
 326:Generated_Source\PSoC4/uart.c ****     *  the software buffer operations. Only one custom handler is supported, which
 327:Generated_Source\PSoC4/uart.c ****     *  is the function provided by the most recent call.
 328:Generated_Source\PSoC4/uart.c ****     *  At the initialization time no custom handler is registered.
 329:Generated_Source\PSoC4/uart.c ****     *
 330:Generated_Source\PSoC4/uart.c ****     *  \param func: Pointer to the function to register.
 331:Generated_Source\PSoC4/uart.c ****     *        The value NULL indicates to remove the current custom interrupt
 332:Generated_Source\PSoC4/uart.c ****     *        handler.
 333:Generated_Source\PSoC4/uart.c ****     *
 334:Generated_Source\PSoC4/uart.c ****     *******************************************************************************/
 335:Generated_Source\PSoC4/uart.c ****     void uart_SetCustomInterruptHandler(void (*func)(void))
 336:Generated_Source\PSoC4/uart.c ****     {
 337:Generated_Source\PSoC4/uart.c ****     #if !defined (CY_REMOVE_uart_CUSTOM_INTR_HANDLER)
 338:Generated_Source\PSoC4/uart.c ****         uart_customIntrHandler = func; /* Register interrupt handler */
 339:Generated_Source\PSoC4/uart.c ****     #else
 340:Generated_Source\PSoC4/uart.c ****         if (NULL != func)
 341:Generated_Source\PSoC4/uart.c ****         {
 342:Generated_Source\PSoC4/uart.c ****             /* Suppress compiler warning */
 343:Generated_Source\PSoC4/uart.c ****         }
 344:Generated_Source\PSoC4/uart.c ****     #endif /* !defined (CY_REMOVE_uart_CUSTOM_INTR_HANDLER) */
 345:Generated_Source\PSoC4/uart.c ****     }
 346:Generated_Source\PSoC4/uart.c **** #endif /* (uart_SCB_IRQ_INTERNAL) */
 347:Generated_Source\PSoC4/uart.c **** 
 348:Generated_Source\PSoC4/uart.c **** 
 349:Generated_Source\PSoC4/uart.c **** /*******************************************************************************
 350:Generated_Source\PSoC4/uart.c **** * Function Name: uart_ScbModeEnableIntr
 351:Generated_Source\PSoC4/uart.c **** ****************************************************************************//**
 352:Generated_Source\PSoC4/uart.c **** *
 353:Generated_Source\PSoC4/uart.c **** *  Enables an interrupt for a specific mode.
 354:Generated_Source\PSoC4/uart.c **** *
 355:Generated_Source\PSoC4/uart.c **** *******************************************************************************/
 356:Generated_Source\PSoC4/uart.c **** static void uart_ScbEnableIntr(void)
 357:Generated_Source\PSoC4/uart.c **** {
 358:Generated_Source\PSoC4/uart.c **** #if (uart_SCB_IRQ_INTERNAL)
 359:Generated_Source\PSoC4/uart.c ****     /* Enable interrupt in NVIC */
 360:Generated_Source\PSoC4/uart.c ****     #if (uart_SCB_MODE_UNCONFIG_CONST_CFG)
 361:Generated_Source\PSoC4/uart.c ****         if (0u != uart_scbEnableIntr)
 362:Generated_Source\PSoC4/uart.c ****         {
 363:Generated_Source\PSoC4/uart.c ****             uart_EnableInt();
 364:Generated_Source\PSoC4/uart.c ****         }
 365:Generated_Source\PSoC4/uart.c **** 
 366:Generated_Source\PSoC4/uart.c ****     #else
 367:Generated_Source\PSoC4/uart.c ****         uart_EnableInt();
 368:Generated_Source\PSoC4/uart.c **** 
 369:Generated_Source\PSoC4/uart.c ****     #endif /* (uart_SCB_MODE_UNCONFIG_CONST_CFG) */
 370:Generated_Source\PSoC4/uart.c **** #endif /* (uart_SCB_IRQ_INTERNAL) */
 371:Generated_Source\PSoC4/uart.c **** }
 372:Generated_Source\PSoC4/uart.c **** 
 373:Generated_Source\PSoC4/uart.c **** 
ARM GAS  C:\Users\Usuario\AppData\Local\Temp\ccBtn9hh.s 			page 8


 374:Generated_Source\PSoC4/uart.c **** /*******************************************************************************
 375:Generated_Source\PSoC4/uart.c **** * Function Name: uart_ScbModePostEnable
 376:Generated_Source\PSoC4/uart.c **** ****************************************************************************//**
 377:Generated_Source\PSoC4/uart.c **** *
 378:Generated_Source\PSoC4/uart.c **** *  Calls the PostEnable function for a specific operation mode.
 379:Generated_Source\PSoC4/uart.c **** *
 380:Generated_Source\PSoC4/uart.c **** *******************************************************************************/
 381:Generated_Source\PSoC4/uart.c **** static void uart_ScbModePostEnable(void)
 382:Generated_Source\PSoC4/uart.c **** {
  27              		.loc 1 382 0
  28              		.cfi_startproc
  29              		@ args = 0, pretend = 0, frame = 0
  30              		@ frame_needed = 0, uses_anonymous_args = 0
  31 0000 10B5     		push	{r4, lr}
  32              		.cfi_def_cfa_offset 8
  33              		.cfi_offset 4, -8
  34              		.cfi_offset 14, -4
 383:Generated_Source\PSoC4/uart.c **** #if (uart_SCB_MODE_UNCONFIG_CONST_CFG)
 384:Generated_Source\PSoC4/uart.c **** #if (!uart_CY_SCBIP_V1)
 385:Generated_Source\PSoC4/uart.c ****     if (uart_SCB_MODE_SPI_RUNTM_CFG)
 386:Generated_Source\PSoC4/uart.c ****     {
 387:Generated_Source\PSoC4/uart.c ****         uart_SpiPostEnable();
 388:Generated_Source\PSoC4/uart.c ****     }
 389:Generated_Source\PSoC4/uart.c ****     else if (uart_SCB_MODE_UART_RUNTM_CFG)
 390:Generated_Source\PSoC4/uart.c ****     {
 391:Generated_Source\PSoC4/uart.c ****         uart_UartPostEnable();
 392:Generated_Source\PSoC4/uart.c ****     }
 393:Generated_Source\PSoC4/uart.c ****     else
 394:Generated_Source\PSoC4/uart.c ****     {
 395:Generated_Source\PSoC4/uart.c ****         /* Unknown mode: do nothing */
 396:Generated_Source\PSoC4/uart.c ****     }
 397:Generated_Source\PSoC4/uart.c **** #endif /* (!uart_CY_SCBIP_V1) */
 398:Generated_Source\PSoC4/uart.c **** 
 399:Generated_Source\PSoC4/uart.c **** #elif (uart_SCB_MODE_SPI_CONST_CFG)
 400:Generated_Source\PSoC4/uart.c ****     uart_SpiPostEnable();
 401:Generated_Source\PSoC4/uart.c **** 
 402:Generated_Source\PSoC4/uart.c **** #elif (uart_SCB_MODE_UART_CONST_CFG)
 403:Generated_Source\PSoC4/uart.c ****     uart_UartPostEnable();
  35              		.loc 1 403 0
  36 0002 FFF7FEFF 		bl	uart_UartPostEnable
  37              	.LVL0:
 404:Generated_Source\PSoC4/uart.c **** 
 405:Generated_Source\PSoC4/uart.c **** #else
 406:Generated_Source\PSoC4/uart.c ****     /* Unknown mode: do nothing */
 407:Generated_Source\PSoC4/uart.c **** #endif /* (uart_SCB_MODE_UNCONFIG_CONST_CFG) */
 408:Generated_Source\PSoC4/uart.c **** }
  38              		.loc 1 408 0
  39              		@ sp needed
  40 0006 10BD     		pop	{r4, pc}
  41              		.cfi_endproc
  42              	.LFE7:
  43              		.size	uart_ScbModePostEnable, .-uart_ScbModePostEnable
  44              		.section	.text.uart_ScbModeStop,"ax",%progbits
  45              		.align	2
  46              		.code	16
  47              		.thumb_func
  48              		.type	uart_ScbModeStop, %function
ARM GAS  C:\Users\Usuario\AppData\Local\Temp\ccBtn9hh.s 			page 9


  49              	uart_ScbModeStop:
  50              	.LFB8:
 409:Generated_Source\PSoC4/uart.c **** 
 410:Generated_Source\PSoC4/uart.c **** 
 411:Generated_Source\PSoC4/uart.c **** /*******************************************************************************
 412:Generated_Source\PSoC4/uart.c **** * Function Name: uart_ScbModeStop
 413:Generated_Source\PSoC4/uart.c **** ****************************************************************************//**
 414:Generated_Source\PSoC4/uart.c **** *
 415:Generated_Source\PSoC4/uart.c **** *  Calls the Stop function for a specific operation mode.
 416:Generated_Source\PSoC4/uart.c **** *
 417:Generated_Source\PSoC4/uart.c **** *******************************************************************************/
 418:Generated_Source\PSoC4/uart.c **** static void uart_ScbModeStop(void)
 419:Generated_Source\PSoC4/uart.c **** {
  51              		.loc 1 419 0
  52              		.cfi_startproc
  53              		@ args = 0, pretend = 0, frame = 0
  54              		@ frame_needed = 0, uses_anonymous_args = 0
  55 0000 10B5     		push	{r4, lr}
  56              		.cfi_def_cfa_offset 8
  57              		.cfi_offset 4, -8
  58              		.cfi_offset 14, -4
 420:Generated_Source\PSoC4/uart.c **** #if (uart_SCB_MODE_UNCONFIG_CONST_CFG)
 421:Generated_Source\PSoC4/uart.c ****     if (uart_SCB_MODE_I2C_RUNTM_CFG)
 422:Generated_Source\PSoC4/uart.c ****     {
 423:Generated_Source\PSoC4/uart.c ****         uart_I2CStop();
 424:Generated_Source\PSoC4/uart.c ****     }
 425:Generated_Source\PSoC4/uart.c ****     else if (uart_SCB_MODE_EZI2C_RUNTM_CFG)
 426:Generated_Source\PSoC4/uart.c ****     {
 427:Generated_Source\PSoC4/uart.c ****         uart_EzI2CStop();
 428:Generated_Source\PSoC4/uart.c ****     }
 429:Generated_Source\PSoC4/uart.c **** #if (!uart_CY_SCBIP_V1)
 430:Generated_Source\PSoC4/uart.c ****     else if (uart_SCB_MODE_SPI_RUNTM_CFG)
 431:Generated_Source\PSoC4/uart.c ****     {
 432:Generated_Source\PSoC4/uart.c ****         uart_SpiStop();
 433:Generated_Source\PSoC4/uart.c ****     }
 434:Generated_Source\PSoC4/uart.c ****     else if (uart_SCB_MODE_UART_RUNTM_CFG)
 435:Generated_Source\PSoC4/uart.c ****     {
 436:Generated_Source\PSoC4/uart.c ****         uart_UartStop();
 437:Generated_Source\PSoC4/uart.c ****     }
 438:Generated_Source\PSoC4/uart.c **** #endif /* (!uart_CY_SCBIP_V1) */
 439:Generated_Source\PSoC4/uart.c ****     else
 440:Generated_Source\PSoC4/uart.c ****     {
 441:Generated_Source\PSoC4/uart.c ****         /* Unknown mode: do nothing */
 442:Generated_Source\PSoC4/uart.c ****     }
 443:Generated_Source\PSoC4/uart.c **** #elif (uart_SCB_MODE_I2C_CONST_CFG)
 444:Generated_Source\PSoC4/uart.c ****     uart_I2CStop();
 445:Generated_Source\PSoC4/uart.c **** 
 446:Generated_Source\PSoC4/uart.c **** #elif (uart_SCB_MODE_EZI2C_CONST_CFG)
 447:Generated_Source\PSoC4/uart.c ****     uart_EzI2CStop();
 448:Generated_Source\PSoC4/uart.c **** 
 449:Generated_Source\PSoC4/uart.c **** #elif (uart_SCB_MODE_SPI_CONST_CFG)
 450:Generated_Source\PSoC4/uart.c ****     uart_SpiStop();
 451:Generated_Source\PSoC4/uart.c **** 
 452:Generated_Source\PSoC4/uart.c **** #elif (uart_SCB_MODE_UART_CONST_CFG)
 453:Generated_Source\PSoC4/uart.c ****     uart_UartStop();
  59              		.loc 1 453 0
  60 0002 FFF7FEFF 		bl	uart_UartStop
ARM GAS  C:\Users\Usuario\AppData\Local\Temp\ccBtn9hh.s 			page 10


  61              	.LVL1:
 454:Generated_Source\PSoC4/uart.c **** 
 455:Generated_Source\PSoC4/uart.c **** #else
 456:Generated_Source\PSoC4/uart.c ****     /* Unknown mode: do nothing */
 457:Generated_Source\PSoC4/uart.c **** #endif /* (uart_SCB_MODE_UNCONFIG_CONST_CFG) */
 458:Generated_Source\PSoC4/uart.c **** }
  62              		.loc 1 458 0
  63              		@ sp needed
  64 0006 10BD     		pop	{r4, pc}
  65              		.cfi_endproc
  66              	.LFE8:
  67              		.size	uart_ScbModeStop, .-uart_ScbModeStop
  68              		.section	.text.uart_Init,"ax",%progbits
  69              		.align	2
  70              		.global	uart_Init
  71              		.code	16
  72              		.thumb_func
  73              		.type	uart_Init, %function
  74              	uart_Init:
  75              	.LFB0:
 124:Generated_Source\PSoC4/uart.c **** #if (uart_SCB_MODE_UNCONFIG_CONST_CFG)
  76              		.loc 1 124 0
  77              		.cfi_startproc
  78              		@ args = 0, pretend = 0, frame = 0
  79              		@ frame_needed = 0, uses_anonymous_args = 0
  80 0000 10B5     		push	{r4, lr}
  81              		.cfi_def_cfa_offset 8
  82              		.cfi_offset 4, -8
  83              		.cfi_offset 14, -4
 142:Generated_Source\PSoC4/uart.c **** 
  84              		.loc 1 142 0
  85 0002 FFF7FEFF 		bl	uart_UartInit
  86              	.LVL2:
 148:Generated_Source\PSoC4/uart.c **** 
  87              		.loc 1 148 0
  88              		@ sp needed
  89 0006 10BD     		pop	{r4, pc}
  90              		.cfi_endproc
  91              	.LFE0:
  92              		.size	uart_Init, .-uart_Init
  93              		.section	.text.uart_Enable,"ax",%progbits
  94              		.align	2
  95              		.global	uart_Enable
  96              		.code	16
  97              		.thumb_func
  98              		.type	uart_Enable, %function
  99              	uart_Enable:
 100              	.LFB1:
 172:Generated_Source\PSoC4/uart.c **** #if (uart_SCB_MODE_UNCONFIG_CONST_CFG)
 101              		.loc 1 172 0
 102              		.cfi_startproc
 103              		@ args = 0, pretend = 0, frame = 0
 104              		@ frame_needed = 0, uses_anonymous_args = 0
 105 0000 10B5     		push	{r4, lr}
 106              		.cfi_def_cfa_offset 8
 107              		.cfi_offset 4, -8
 108              		.cfi_offset 14, -4
ARM GAS  C:\Users\Usuario\AppData\Local\Temp\ccBtn9hh.s 			page 11


 185:Generated_Source\PSoC4/uart.c **** 
 109              		.loc 1 185 0
 110 0002 044A     		ldr	r2, .L5
 111 0004 1368     		ldr	r3, [r2]
 112 0006 8021     		movs	r1, #128
 113 0008 0906     		lsls	r1, r1, #24
 114 000a 0B43     		orrs	r3, r1
 115 000c 1360     		str	r3, [r2]
 190:Generated_Source\PSoC4/uart.c **** #endif /* (uart_SCB_MODE_UNCONFIG_CONST_CFG) */
 116              		.loc 1 190 0
 117 000e FFF7FEFF 		bl	uart_ScbModePostEnable
 118              	.LVL3:
 192:Generated_Source\PSoC4/uart.c **** 
 119              		.loc 1 192 0
 120              		@ sp needed
 121 0012 10BD     		pop	{r4, pc}
 122              	.L6:
 123              		.align	2
 124              	.L5:
 125 0014 00000640 		.word	1074135040
 126              		.cfi_endproc
 127              	.LFE1:
 128              		.size	uart_Enable, .-uart_Enable
 129              		.section	.text.uart_Start,"ax",%progbits
 130              		.align	2
 131              		.global	uart_Start
 132              		.code	16
 133              		.thumb_func
 134              		.type	uart_Start, %function
 135              	uart_Start:
 136              	.LFB2:
 211:Generated_Source\PSoC4/uart.c ****     if (0u == uart_initVar)
 137              		.loc 1 211 0
 138              		.cfi_startproc
 139              		@ args = 0, pretend = 0, frame = 0
 140              		@ frame_needed = 0, uses_anonymous_args = 0
 141 0000 10B5     		push	{r4, lr}
 142              		.cfi_def_cfa_offset 8
 143              		.cfi_offset 4, -8
 144              		.cfi_offset 14, -4
 212:Generated_Source\PSoC4/uart.c ****     {
 145              		.loc 1 212 0
 146 0002 064B     		ldr	r3, .L9
 147 0004 1B78     		ldrb	r3, [r3]
 148 0006 002B     		cmp	r3, #0
 149 0008 04D1     		bne	.L8
 214:Generated_Source\PSoC4/uart.c ****         uart_initVar = 1u; /* Component was initialized */
 150              		.loc 1 214 0
 151 000a FFF7FEFF 		bl	uart_Init
 152              	.LVL4:
 215:Generated_Source\PSoC4/uart.c ****     }
 153              		.loc 1 215 0
 154 000e 0122     		movs	r2, #1
 155 0010 024B     		ldr	r3, .L9
 156 0012 1A70     		strb	r2, [r3]
 157              	.L8:
 218:Generated_Source\PSoC4/uart.c **** }
ARM GAS  C:\Users\Usuario\AppData\Local\Temp\ccBtn9hh.s 			page 12


 158              		.loc 1 218 0
 159 0014 FFF7FEFF 		bl	uart_Enable
 160              	.LVL5:
 219:Generated_Source\PSoC4/uart.c **** 
 161              		.loc 1 219 0
 162              		@ sp needed
 163 0018 10BD     		pop	{r4, pc}
 164              	.L10:
 165 001a C046     		.align	2
 166              	.L9:
 167 001c 00000000 		.word	.LANCHOR0
 168              		.cfi_endproc
 169              	.LFE2:
 170              		.size	uart_Start, .-uart_Start
 171              		.section	.text.uart_Stop,"ax",%progbits
 172              		.align	2
 173              		.global	uart_Stop
 174              		.code	16
 175              		.thumb_func
 176              		.type	uart_Stop, %function
 177              	uart_Stop:
 178              	.LFB3:
 240:Generated_Source\PSoC4/uart.c **** #if (uart_SCB_IRQ_INTERNAL)
 179              		.loc 1 240 0
 180              		.cfi_startproc
 181              		@ args = 0, pretend = 0, frame = 0
 182              		@ frame_needed = 0, uses_anonymous_args = 0
 183 0000 10B5     		push	{r4, lr}
 184              		.cfi_def_cfa_offset 8
 185              		.cfi_offset 4, -8
 186              		.cfi_offset 14, -4
 246:Generated_Source\PSoC4/uart.c **** 
 187              		.loc 1 246 0
 188 0002 FFF7FEFF 		bl	uart_ScbModeStop
 189              	.LVL6:
 249:Generated_Source\PSoC4/uart.c **** 
 190              		.loc 1 249 0
 191 0006 044A     		ldr	r2, .L12
 192 0008 1368     		ldr	r3, [r2]
 193 000a 5B00     		lsls	r3, r3, #1
 194 000c 5B08     		lsrs	r3, r3, #1
 195 000e 1360     		str	r3, [r2]
 259:Generated_Source\PSoC4/uart.c **** 
 196              		.loc 1 259 0
 197 0010 0022     		movs	r2, #0
 198 0012 024B     		ldr	r3, .L12+4
 199 0014 1A60     		str	r2, [r3]
 264:Generated_Source\PSoC4/uart.c **** 
 200              		.loc 1 264 0
 201              		@ sp needed
 202 0016 10BD     		pop	{r4, pc}
 203              	.L13:
 204              		.align	2
 205              	.L12:
 206 0018 00000640 		.word	1074135040
 207 001c 880F0640 		.word	1074139016
 208              		.cfi_endproc
ARM GAS  C:\Users\Usuario\AppData\Local\Temp\ccBtn9hh.s 			page 13


 209              	.LFE3:
 210              		.size	uart_Stop, .-uart_Stop
 211              		.section	.text.uart_SetRxFifoLevel,"ax",%progbits
 212              		.align	2
 213              		.global	uart_SetRxFifoLevel
 214              		.code	16
 215              		.thumb_func
 216              		.type	uart_SetRxFifoLevel, %function
 217              	uart_SetRxFifoLevel:
 218              	.LFB4:
 280:Generated_Source\PSoC4/uart.c ****     uint32 rxFifoCtrl;
 219              		.loc 1 280 0
 220              		.cfi_startproc
 221              		@ args = 0, pretend = 0, frame = 0
 222              		@ frame_needed = 0, uses_anonymous_args = 0
 223              		@ link register save eliminated.
 224              	.LVL7:
 283:Generated_Source\PSoC4/uart.c **** 
 225              		.loc 1 283 0
 226 0000 034A     		ldr	r2, .L15
 227 0002 1368     		ldr	r3, [r2]
 228              	.LVL8:
 285:Generated_Source\PSoC4/uart.c ****     rxFifoCtrl |= ((uint32) (uart_RX_FIFO_CTRL_TRIGGER_LEVEL_MASK & level));
 229              		.loc 1 285 0
 230 0004 0721     		movs	r1, #7
 231 0006 8B43     		bics	r3, r1
 232              	.LVL9:
 286:Generated_Source\PSoC4/uart.c **** 
 233              		.loc 1 286 0
 234 0008 0840     		ands	r0, r1
 235              	.LVL10:
 236 000a 1843     		orrs	r0, r3
 237              	.LVL11:
 288:Generated_Source\PSoC4/uart.c **** }
 238              		.loc 1 288 0
 239 000c 1060     		str	r0, [r2]
 289:Generated_Source\PSoC4/uart.c **** 
 240              		.loc 1 289 0
 241              		@ sp needed
 242 000e 7047     		bx	lr
 243              	.L16:
 244              		.align	2
 245              	.L15:
 246 0010 04030640 		.word	1074135812
 247              		.cfi_endproc
 248              	.LFE4:
 249              		.size	uart_SetRxFifoLevel, .-uart_SetRxFifoLevel
 250              		.section	.text.uart_SetTxFifoLevel,"ax",%progbits
 251              		.align	2
 252              		.global	uart_SetTxFifoLevel
 253              		.code	16
 254              		.thumb_func
 255              		.type	uart_SetTxFifoLevel, %function
 256              	uart_SetTxFifoLevel:
 257              	.LFB5:
 305:Generated_Source\PSoC4/uart.c ****     uint32 txFifoCtrl;
 258              		.loc 1 305 0
ARM GAS  C:\Users\Usuario\AppData\Local\Temp\ccBtn9hh.s 			page 14


 259              		.cfi_startproc
 260              		@ args = 0, pretend = 0, frame = 0
 261              		@ frame_needed = 0, uses_anonymous_args = 0
 262              		@ link register save eliminated.
 263              	.LVL12:
 308:Generated_Source\PSoC4/uart.c **** 
 264              		.loc 1 308 0
 265 0000 034A     		ldr	r2, .L18
 266 0002 1368     		ldr	r3, [r2]
 267              	.LVL13:
 310:Generated_Source\PSoC4/uart.c ****     txFifoCtrl |= ((uint32) (uart_TX_FIFO_CTRL_TRIGGER_LEVEL_MASK & level));
 268              		.loc 1 310 0
 269 0004 0721     		movs	r1, #7
 270 0006 8B43     		bics	r3, r1
 271              	.LVL14:
 311:Generated_Source\PSoC4/uart.c **** 
 272              		.loc 1 311 0
 273 0008 0840     		ands	r0, r1
 274              	.LVL15:
 275 000a 1843     		orrs	r0, r3
 276              	.LVL16:
 313:Generated_Source\PSoC4/uart.c **** }
 277              		.loc 1 313 0
 278 000c 1060     		str	r0, [r2]
 314:Generated_Source\PSoC4/uart.c **** 
 279              		.loc 1 314 0
 280              		@ sp needed
 281 000e 7047     		bx	lr
 282              	.L19:
 283              		.align	2
 284              	.L18:
 285 0010 04020640 		.word	1074135556
 286              		.cfi_endproc
 287              	.LFE5:
 288              		.size	uart_SetTxFifoLevel, .-uart_SetTxFifoLevel
 289              		.section	.text.uart_I2CSlaveNackGeneration,"ax",%progbits
 290              		.align	2
 291              		.global	uart_I2CSlaveNackGeneration
 292              		.code	16
 293              		.thumb_func
 294              		.type	uart_I2CSlaveNackGeneration, %function
 295              	uart_I2CSlaveNackGeneration:
 296              	.LFB9:
 459:Generated_Source\PSoC4/uart.c **** 
 460:Generated_Source\PSoC4/uart.c **** 
 461:Generated_Source\PSoC4/uart.c **** #if (uart_SCB_MODE_UNCONFIG_CONST_CFG)
 462:Generated_Source\PSoC4/uart.c ****     /*******************************************************************************
 463:Generated_Source\PSoC4/uart.c ****     * Function Name: uart_SetPins
 464:Generated_Source\PSoC4/uart.c ****     ****************************************************************************//**
 465:Generated_Source\PSoC4/uart.c ****     *
 466:Generated_Source\PSoC4/uart.c ****     *  Sets the pins settings accordingly to the selected operation mode.
 467:Generated_Source\PSoC4/uart.c ****     *  Only available in the Unconfigured operation mode. The mode specific
 468:Generated_Source\PSoC4/uart.c ****     *  initialization function calls it.
 469:Generated_Source\PSoC4/uart.c ****     *  Pins configuration is set by PSoC Creator when a specific mode of operation
 470:Generated_Source\PSoC4/uart.c ****     *  is selected in design time.
 471:Generated_Source\PSoC4/uart.c ****     *
 472:Generated_Source\PSoC4/uart.c ****     *  \param mode:      Mode of SCB operation.
ARM GAS  C:\Users\Usuario\AppData\Local\Temp\ccBtn9hh.s 			page 15


 473:Generated_Source\PSoC4/uart.c ****     *  \param subMode:   Sub-mode of SCB operation. It is only required for SPI and UART
 474:Generated_Source\PSoC4/uart.c ****     *             modes.
 475:Generated_Source\PSoC4/uart.c ****     *  \param uartEnableMask: enables TX or RX direction and RTS and CTS signals.
 476:Generated_Source\PSoC4/uart.c ****     *
 477:Generated_Source\PSoC4/uart.c ****     *******************************************************************************/
 478:Generated_Source\PSoC4/uart.c ****     void uart_SetPins(uint32 mode, uint32 subMode, uint32 uartEnableMask)
 479:Generated_Source\PSoC4/uart.c ****     {
 480:Generated_Source\PSoC4/uart.c ****         uint32 pinsDm[uart_SCB_PINS_NUMBER];
 481:Generated_Source\PSoC4/uart.c ****         uint32 i;
 482:Generated_Source\PSoC4/uart.c ****         
 483:Generated_Source\PSoC4/uart.c ****     #if (!uart_CY_SCBIP_V1)
 484:Generated_Source\PSoC4/uart.c ****         uint32 pinsInBuf = 0u;
 485:Generated_Source\PSoC4/uart.c ****     #endif /* (!uart_CY_SCBIP_V1) */
 486:Generated_Source\PSoC4/uart.c ****         
 487:Generated_Source\PSoC4/uart.c ****         uint32 hsiomSel[uart_SCB_PINS_NUMBER] = 
 488:Generated_Source\PSoC4/uart.c ****         {
 489:Generated_Source\PSoC4/uart.c ****             uart_RX_SCL_MOSI_HSIOM_SEL_GPIO,
 490:Generated_Source\PSoC4/uart.c ****             uart_TX_SDA_MISO_HSIOM_SEL_GPIO,
 491:Generated_Source\PSoC4/uart.c ****             0u,
 492:Generated_Source\PSoC4/uart.c ****             0u,
 493:Generated_Source\PSoC4/uart.c ****             0u,
 494:Generated_Source\PSoC4/uart.c ****             0u,
 495:Generated_Source\PSoC4/uart.c ****             0u,
 496:Generated_Source\PSoC4/uart.c ****         };
 497:Generated_Source\PSoC4/uart.c **** 
 498:Generated_Source\PSoC4/uart.c ****     #if (uart_CY_SCBIP_V1)
 499:Generated_Source\PSoC4/uart.c ****         /* Supress compiler warning. */
 500:Generated_Source\PSoC4/uart.c ****         if ((0u == subMode) || (0u == uartEnableMask))
 501:Generated_Source\PSoC4/uart.c ****         {
 502:Generated_Source\PSoC4/uart.c ****         }
 503:Generated_Source\PSoC4/uart.c ****     #endif /* (uart_CY_SCBIP_V1) */
 504:Generated_Source\PSoC4/uart.c **** 
 505:Generated_Source\PSoC4/uart.c ****         /* Set default HSIOM to GPIO and Drive Mode to Analog Hi-Z */
 506:Generated_Source\PSoC4/uart.c ****         for (i = 0u; i < uart_SCB_PINS_NUMBER; i++)
 507:Generated_Source\PSoC4/uart.c ****         {
 508:Generated_Source\PSoC4/uart.c ****             pinsDm[i] = uart_PIN_DM_ALG_HIZ;
 509:Generated_Source\PSoC4/uart.c ****         }
 510:Generated_Source\PSoC4/uart.c **** 
 511:Generated_Source\PSoC4/uart.c ****         if ((uart_SCB_MODE_I2C   == mode) ||
 512:Generated_Source\PSoC4/uart.c ****             (uart_SCB_MODE_EZI2C == mode))
 513:Generated_Source\PSoC4/uart.c ****         {
 514:Generated_Source\PSoC4/uart.c ****         #if (uart_RX_SCL_MOSI_PIN)
 515:Generated_Source\PSoC4/uart.c ****             hsiomSel[uart_RX_SCL_MOSI_PIN_INDEX] = uart_RX_SCL_MOSI_HSIOM_SEL_I2C;
 516:Generated_Source\PSoC4/uart.c ****             pinsDm  [uart_RX_SCL_MOSI_PIN_INDEX] = uart_PIN_DM_OD_LO;
 517:Generated_Source\PSoC4/uart.c ****         #elif (uart_RX_WAKE_SCL_MOSI_PIN)
 518:Generated_Source\PSoC4/uart.c ****             hsiomSel[uart_RX_WAKE_SCL_MOSI_PIN_INDEX] = uart_RX_WAKE_SCL_MOSI_HSIOM_SEL_I2C;
 519:Generated_Source\PSoC4/uart.c ****             pinsDm  [uart_RX_WAKE_SCL_MOSI_PIN_INDEX] = uart_PIN_DM_OD_LO;
 520:Generated_Source\PSoC4/uart.c ****         #else
 521:Generated_Source\PSoC4/uart.c ****         #endif /* (uart_RX_SCL_MOSI_PIN) */
 522:Generated_Source\PSoC4/uart.c ****         
 523:Generated_Source\PSoC4/uart.c ****         #if (uart_TX_SDA_MISO_PIN)
 524:Generated_Source\PSoC4/uart.c ****             hsiomSel[uart_TX_SDA_MISO_PIN_INDEX] = uart_TX_SDA_MISO_HSIOM_SEL_I2C;
 525:Generated_Source\PSoC4/uart.c ****             pinsDm  [uart_TX_SDA_MISO_PIN_INDEX] = uart_PIN_DM_OD_LO;
 526:Generated_Source\PSoC4/uart.c ****         #endif /* (uart_TX_SDA_MISO_PIN) */
 527:Generated_Source\PSoC4/uart.c ****         }
 528:Generated_Source\PSoC4/uart.c ****     #if (!uart_CY_SCBIP_V1)
 529:Generated_Source\PSoC4/uart.c ****         else if (uart_SCB_MODE_SPI == mode)
ARM GAS  C:\Users\Usuario\AppData\Local\Temp\ccBtn9hh.s 			page 16


 530:Generated_Source\PSoC4/uart.c ****         {
 531:Generated_Source\PSoC4/uart.c ****         #if (uart_RX_SCL_MOSI_PIN)
 532:Generated_Source\PSoC4/uart.c ****             hsiomSel[uart_RX_SCL_MOSI_PIN_INDEX] = uart_RX_SCL_MOSI_HSIOM_SEL_SPI;
 533:Generated_Source\PSoC4/uart.c ****         #elif (uart_RX_WAKE_SCL_MOSI_PIN)
 534:Generated_Source\PSoC4/uart.c ****             hsiomSel[uart_RX_WAKE_SCL_MOSI_PIN_INDEX] = uart_RX_WAKE_SCL_MOSI_HSIOM_SEL_SPI;
 535:Generated_Source\PSoC4/uart.c ****         #else
 536:Generated_Source\PSoC4/uart.c ****         #endif /* (uart_RX_SCL_MOSI_PIN) */
 537:Generated_Source\PSoC4/uart.c ****         
 538:Generated_Source\PSoC4/uart.c ****         #if (uart_TX_SDA_MISO_PIN)
 539:Generated_Source\PSoC4/uart.c ****             hsiomSel[uart_TX_SDA_MISO_PIN_INDEX] = uart_TX_SDA_MISO_HSIOM_SEL_SPI;
 540:Generated_Source\PSoC4/uart.c ****         #endif /* (uart_TX_SDA_MISO_PIN) */
 541:Generated_Source\PSoC4/uart.c ****         
 542:Generated_Source\PSoC4/uart.c ****         #if (uart_SCLK_PIN)
 543:Generated_Source\PSoC4/uart.c ****             hsiomSel[uart_SCLK_PIN_INDEX] = uart_SCLK_HSIOM_SEL_SPI;
 544:Generated_Source\PSoC4/uart.c ****         #endif /* (uart_SCLK_PIN) */
 545:Generated_Source\PSoC4/uart.c **** 
 546:Generated_Source\PSoC4/uart.c ****             if (uart_SPI_SLAVE == subMode)
 547:Generated_Source\PSoC4/uart.c ****             {
 548:Generated_Source\PSoC4/uart.c ****                 /* Slave */
 549:Generated_Source\PSoC4/uart.c ****                 pinsDm[uart_RX_SCL_MOSI_PIN_INDEX] = uart_PIN_DM_DIG_HIZ;
 550:Generated_Source\PSoC4/uart.c ****                 pinsDm[uart_TX_SDA_MISO_PIN_INDEX] = uart_PIN_DM_STRONG;
 551:Generated_Source\PSoC4/uart.c ****                 pinsDm[uart_SCLK_PIN_INDEX] = uart_PIN_DM_DIG_HIZ;
 552:Generated_Source\PSoC4/uart.c **** 
 553:Generated_Source\PSoC4/uart.c ****             #if (uart_SS0_PIN)
 554:Generated_Source\PSoC4/uart.c ****                 /* Only SS0 is valid choice for Slave */
 555:Generated_Source\PSoC4/uart.c ****                 hsiomSel[uart_SS0_PIN_INDEX] = uart_SS0_HSIOM_SEL_SPI;
 556:Generated_Source\PSoC4/uart.c ****                 pinsDm  [uart_SS0_PIN_INDEX] = uart_PIN_DM_DIG_HIZ;
 557:Generated_Source\PSoC4/uart.c ****             #endif /* (uart_SS0_PIN) */
 558:Generated_Source\PSoC4/uart.c **** 
 559:Generated_Source\PSoC4/uart.c ****             #if (uart_TX_SDA_MISO_PIN)
 560:Generated_Source\PSoC4/uart.c ****                 /* Disable input buffer */
 561:Generated_Source\PSoC4/uart.c ****                  pinsInBuf |= uart_TX_SDA_MISO_PIN_MASK;
 562:Generated_Source\PSoC4/uart.c ****             #endif /* (uart_TX_SDA_MISO_PIN) */
 563:Generated_Source\PSoC4/uart.c ****             }
 564:Generated_Source\PSoC4/uart.c ****             else 
 565:Generated_Source\PSoC4/uart.c ****             {
 566:Generated_Source\PSoC4/uart.c ****                 /* (Master) */
 567:Generated_Source\PSoC4/uart.c ****                 pinsDm[uart_RX_SCL_MOSI_PIN_INDEX] = uart_PIN_DM_STRONG;
 568:Generated_Source\PSoC4/uart.c ****                 pinsDm[uart_TX_SDA_MISO_PIN_INDEX] = uart_PIN_DM_DIG_HIZ;
 569:Generated_Source\PSoC4/uart.c ****                 pinsDm[uart_SCLK_PIN_INDEX] = uart_PIN_DM_STRONG;
 570:Generated_Source\PSoC4/uart.c **** 
 571:Generated_Source\PSoC4/uart.c ****             #if (uart_SS0_PIN)
 572:Generated_Source\PSoC4/uart.c ****                 hsiomSel [uart_SS0_PIN_INDEX] = uart_SS0_HSIOM_SEL_SPI;
 573:Generated_Source\PSoC4/uart.c ****                 pinsDm   [uart_SS0_PIN_INDEX] = uart_PIN_DM_STRONG;
 574:Generated_Source\PSoC4/uart.c ****                 pinsInBuf |= uart_SS0_PIN_MASK;
 575:Generated_Source\PSoC4/uart.c ****             #endif /* (uart_SS0_PIN) */
 576:Generated_Source\PSoC4/uart.c **** 
 577:Generated_Source\PSoC4/uart.c ****             #if (uart_SS1_PIN)
 578:Generated_Source\PSoC4/uart.c ****                 hsiomSel [uart_SS1_PIN_INDEX] = uart_SS1_HSIOM_SEL_SPI;
 579:Generated_Source\PSoC4/uart.c ****                 pinsDm   [uart_SS1_PIN_INDEX] = uart_PIN_DM_STRONG;
 580:Generated_Source\PSoC4/uart.c ****                 pinsInBuf |= uart_SS1_PIN_MASK;
 581:Generated_Source\PSoC4/uart.c ****             #endif /* (uart_SS1_PIN) */
 582:Generated_Source\PSoC4/uart.c **** 
 583:Generated_Source\PSoC4/uart.c ****             #if (uart_SS2_PIN)
 584:Generated_Source\PSoC4/uart.c ****                 hsiomSel [uart_SS2_PIN_INDEX] = uart_SS2_HSIOM_SEL_SPI;
 585:Generated_Source\PSoC4/uart.c ****                 pinsDm   [uart_SS2_PIN_INDEX] = uart_PIN_DM_STRONG;
 586:Generated_Source\PSoC4/uart.c ****                 pinsInBuf |= uart_SS2_PIN_MASK;
ARM GAS  C:\Users\Usuario\AppData\Local\Temp\ccBtn9hh.s 			page 17


 587:Generated_Source\PSoC4/uart.c ****             #endif /* (uart_SS2_PIN) */
 588:Generated_Source\PSoC4/uart.c **** 
 589:Generated_Source\PSoC4/uart.c ****             #if (uart_SS3_PIN)
 590:Generated_Source\PSoC4/uart.c ****                 hsiomSel [uart_SS3_PIN_INDEX] = uart_SS3_HSIOM_SEL_SPI;
 591:Generated_Source\PSoC4/uart.c ****                 pinsDm   [uart_SS3_PIN_INDEX] = uart_PIN_DM_STRONG;
 592:Generated_Source\PSoC4/uart.c ****                 pinsInBuf |= uart_SS3_PIN_MASK;
 593:Generated_Source\PSoC4/uart.c ****             #endif /* (uart_SS3_PIN) */
 594:Generated_Source\PSoC4/uart.c **** 
 595:Generated_Source\PSoC4/uart.c ****                 /* Disable input buffers */
 596:Generated_Source\PSoC4/uart.c ****             #if (uart_RX_SCL_MOSI_PIN)
 597:Generated_Source\PSoC4/uart.c ****                 pinsInBuf |= uart_RX_SCL_MOSI_PIN_MASK;
 598:Generated_Source\PSoC4/uart.c ****             #elif (uart_RX_WAKE_SCL_MOSI_PIN)
 599:Generated_Source\PSoC4/uart.c ****                 pinsInBuf |= uart_RX_WAKE_SCL_MOSI_PIN_MASK;
 600:Generated_Source\PSoC4/uart.c ****             #else
 601:Generated_Source\PSoC4/uart.c ****             #endif /* (uart_RX_SCL_MOSI_PIN) */
 602:Generated_Source\PSoC4/uart.c **** 
 603:Generated_Source\PSoC4/uart.c ****             #if (uart_SCLK_PIN)
 604:Generated_Source\PSoC4/uart.c ****                 pinsInBuf |= uart_SCLK_PIN_MASK;
 605:Generated_Source\PSoC4/uart.c ****             #endif /* (uart_SCLK_PIN) */
 606:Generated_Source\PSoC4/uart.c ****             }
 607:Generated_Source\PSoC4/uart.c ****         }
 608:Generated_Source\PSoC4/uart.c ****         else /* UART */
 609:Generated_Source\PSoC4/uart.c ****         {
 610:Generated_Source\PSoC4/uart.c ****             if (uart_UART_MODE_SMARTCARD == subMode)
 611:Generated_Source\PSoC4/uart.c ****             {
 612:Generated_Source\PSoC4/uart.c ****                 /* SmartCard */
 613:Generated_Source\PSoC4/uart.c ****             #if (uart_TX_SDA_MISO_PIN)
 614:Generated_Source\PSoC4/uart.c ****                 hsiomSel[uart_TX_SDA_MISO_PIN_INDEX] = uart_TX_SDA_MISO_HSIOM_SEL_UART;
 615:Generated_Source\PSoC4/uart.c ****                 pinsDm  [uart_TX_SDA_MISO_PIN_INDEX] = uart_PIN_DM_OD_LO;
 616:Generated_Source\PSoC4/uart.c ****             #endif /* (uart_TX_SDA_MISO_PIN) */
 617:Generated_Source\PSoC4/uart.c ****             }
 618:Generated_Source\PSoC4/uart.c ****             else /* Standard or IrDA */
 619:Generated_Source\PSoC4/uart.c ****             {
 620:Generated_Source\PSoC4/uart.c ****                 if (0u != (uart_UART_RX_PIN_ENABLE & uartEnableMask))
 621:Generated_Source\PSoC4/uart.c ****                 {
 622:Generated_Source\PSoC4/uart.c ****                 #if (uart_RX_SCL_MOSI_PIN)
 623:Generated_Source\PSoC4/uart.c ****                     hsiomSel[uart_RX_SCL_MOSI_PIN_INDEX] = uart_RX_SCL_MOSI_HSIOM_SEL_UART;
 624:Generated_Source\PSoC4/uart.c ****                     pinsDm  [uart_RX_SCL_MOSI_PIN_INDEX] = uart_PIN_DM_DIG_HIZ;
 625:Generated_Source\PSoC4/uart.c ****                 #elif (uart_RX_WAKE_SCL_MOSI_PIN)
 626:Generated_Source\PSoC4/uart.c ****                     hsiomSel[uart_RX_WAKE_SCL_MOSI_PIN_INDEX] = uart_RX_WAKE_SCL_MOSI_HSIOM_SEL_UAR
 627:Generated_Source\PSoC4/uart.c ****                     pinsDm  [uart_RX_WAKE_SCL_MOSI_PIN_INDEX] = uart_PIN_DM_DIG_HIZ;
 628:Generated_Source\PSoC4/uart.c ****                 #else
 629:Generated_Source\PSoC4/uart.c ****                 #endif /* (uart_RX_SCL_MOSI_PIN) */
 630:Generated_Source\PSoC4/uart.c ****                 }
 631:Generated_Source\PSoC4/uart.c **** 
 632:Generated_Source\PSoC4/uart.c ****                 if (0u != (uart_UART_TX_PIN_ENABLE & uartEnableMask))
 633:Generated_Source\PSoC4/uart.c ****                 {
 634:Generated_Source\PSoC4/uart.c ****                 #if (uart_TX_SDA_MISO_PIN)
 635:Generated_Source\PSoC4/uart.c ****                     hsiomSel[uart_TX_SDA_MISO_PIN_INDEX] = uart_TX_SDA_MISO_HSIOM_SEL_UART;
 636:Generated_Source\PSoC4/uart.c ****                     pinsDm  [uart_TX_SDA_MISO_PIN_INDEX] = uart_PIN_DM_STRONG;
 637:Generated_Source\PSoC4/uart.c ****                     
 638:Generated_Source\PSoC4/uart.c ****                     /* Disable input buffer */
 639:Generated_Source\PSoC4/uart.c ****                     pinsInBuf |= uart_TX_SDA_MISO_PIN_MASK;
 640:Generated_Source\PSoC4/uart.c ****                 #endif /* (uart_TX_SDA_MISO_PIN) */
 641:Generated_Source\PSoC4/uart.c ****                 }
 642:Generated_Source\PSoC4/uart.c **** 
 643:Generated_Source\PSoC4/uart.c ****             #if !(uart_CY_SCBIP_V0 || uart_CY_SCBIP_V1)
ARM GAS  C:\Users\Usuario\AppData\Local\Temp\ccBtn9hh.s 			page 18


 644:Generated_Source\PSoC4/uart.c ****                 if (uart_UART_MODE_STD == subMode)
 645:Generated_Source\PSoC4/uart.c ****                 {
 646:Generated_Source\PSoC4/uart.c ****                     if (0u != (uart_UART_CTS_PIN_ENABLE & uartEnableMask))
 647:Generated_Source\PSoC4/uart.c ****                     {
 648:Generated_Source\PSoC4/uart.c ****                         /* CTS input is multiplexed with SCLK */
 649:Generated_Source\PSoC4/uart.c ****                     #if (uart_SCLK_PIN)
 650:Generated_Source\PSoC4/uart.c ****                         hsiomSel[uart_SCLK_PIN_INDEX] = uart_SCLK_HSIOM_SEL_UART;
 651:Generated_Source\PSoC4/uart.c ****                         pinsDm  [uart_SCLK_PIN_INDEX] = uart_PIN_DM_DIG_HIZ;
 652:Generated_Source\PSoC4/uart.c ****                     #endif /* (uart_SCLK_PIN) */
 653:Generated_Source\PSoC4/uart.c ****                     }
 654:Generated_Source\PSoC4/uart.c **** 
 655:Generated_Source\PSoC4/uart.c ****                     if (0u != (uart_UART_RTS_PIN_ENABLE & uartEnableMask))
 656:Generated_Source\PSoC4/uart.c ****                     {
 657:Generated_Source\PSoC4/uart.c ****                         /* RTS output is multiplexed with SS0 */
 658:Generated_Source\PSoC4/uart.c ****                     #if (uart_SS0_PIN)
 659:Generated_Source\PSoC4/uart.c ****                         hsiomSel[uart_SS0_PIN_INDEX] = uart_SS0_HSIOM_SEL_UART;
 660:Generated_Source\PSoC4/uart.c ****                         pinsDm  [uart_SS0_PIN_INDEX] = uart_PIN_DM_STRONG;
 661:Generated_Source\PSoC4/uart.c ****                         
 662:Generated_Source\PSoC4/uart.c ****                         /* Disable input buffer */
 663:Generated_Source\PSoC4/uart.c ****                         pinsInBuf |= uart_SS0_PIN_MASK;
 664:Generated_Source\PSoC4/uart.c ****                     #endif /* (uart_SS0_PIN) */
 665:Generated_Source\PSoC4/uart.c ****                     }
 666:Generated_Source\PSoC4/uart.c ****                 }
 667:Generated_Source\PSoC4/uart.c ****             #endif /* !(uart_CY_SCBIP_V0 || uart_CY_SCBIP_V1) */
 668:Generated_Source\PSoC4/uart.c ****             }
 669:Generated_Source\PSoC4/uart.c ****         }
 670:Generated_Source\PSoC4/uart.c ****     #endif /* (!uart_CY_SCBIP_V1) */
 671:Generated_Source\PSoC4/uart.c **** 
 672:Generated_Source\PSoC4/uart.c ****     /* Configure pins: set HSIOM, DM and InputBufEnable */
 673:Generated_Source\PSoC4/uart.c ****     /* Note: the DR register settings do not effect the pin output if HSIOM is other than GPIO */
 674:Generated_Source\PSoC4/uart.c **** 
 675:Generated_Source\PSoC4/uart.c ****     #if (uart_RX_SCL_MOSI_PIN)
 676:Generated_Source\PSoC4/uart.c ****         uart_SET_HSIOM_SEL(uart_RX_SCL_MOSI_HSIOM_REG,
 677:Generated_Source\PSoC4/uart.c ****                                        uart_RX_SCL_MOSI_HSIOM_MASK,
 678:Generated_Source\PSoC4/uart.c ****                                        uart_RX_SCL_MOSI_HSIOM_POS,
 679:Generated_Source\PSoC4/uart.c ****                                         hsiomSel[uart_RX_SCL_MOSI_PIN_INDEX]);
 680:Generated_Source\PSoC4/uart.c **** 
 681:Generated_Source\PSoC4/uart.c ****         uart_uart_rx_i2c_scl_spi_mosi_SetDriveMode((uint8) pinsDm[uart_RX_SCL_MOSI_PIN_INDEX]);
 682:Generated_Source\PSoC4/uart.c **** 
 683:Generated_Source\PSoC4/uart.c ****         #if (!uart_CY_SCBIP_V1)
 684:Generated_Source\PSoC4/uart.c ****             uart_SET_INP_DIS(uart_uart_rx_i2c_scl_spi_mosi_INP_DIS,
 685:Generated_Source\PSoC4/uart.c ****                                          uart_uart_rx_i2c_scl_spi_mosi_MASK,
 686:Generated_Source\PSoC4/uart.c ****                                          (0u != (pinsInBuf & uart_RX_SCL_MOSI_PIN_MASK)));
 687:Generated_Source\PSoC4/uart.c ****         #endif /* (!uart_CY_SCBIP_V1) */
 688:Generated_Source\PSoC4/uart.c ****     
 689:Generated_Source\PSoC4/uart.c ****     #elif (uart_RX_WAKE_SCL_MOSI_PIN)
 690:Generated_Source\PSoC4/uart.c ****         uart_SET_HSIOM_SEL(uart_RX_WAKE_SCL_MOSI_HSIOM_REG,
 691:Generated_Source\PSoC4/uart.c ****                                        uart_RX_WAKE_SCL_MOSI_HSIOM_MASK,
 692:Generated_Source\PSoC4/uart.c ****                                        uart_RX_WAKE_SCL_MOSI_HSIOM_POS,
 693:Generated_Source\PSoC4/uart.c ****                                        hsiomSel[uart_RX_WAKE_SCL_MOSI_PIN_INDEX]);
 694:Generated_Source\PSoC4/uart.c **** 
 695:Generated_Source\PSoC4/uart.c ****         uart_uart_rx_wake_i2c_scl_spi_mosi_SetDriveMode((uint8)
 696:Generated_Source\PSoC4/uart.c ****                                                                pinsDm[uart_RX_WAKE_SCL_MOSI_PIN_IND
 697:Generated_Source\PSoC4/uart.c **** 
 698:Generated_Source\PSoC4/uart.c ****         uart_SET_INP_DIS(uart_uart_rx_wake_i2c_scl_spi_mosi_INP_DIS,
 699:Generated_Source\PSoC4/uart.c ****                                      uart_uart_rx_wake_i2c_scl_spi_mosi_MASK,
 700:Generated_Source\PSoC4/uart.c ****                                      (0u != (pinsInBuf & uart_RX_WAKE_SCL_MOSI_PIN_MASK)));
ARM GAS  C:\Users\Usuario\AppData\Local\Temp\ccBtn9hh.s 			page 19


 701:Generated_Source\PSoC4/uart.c **** 
 702:Generated_Source\PSoC4/uart.c ****          /* Set interrupt on falling edge */
 703:Generated_Source\PSoC4/uart.c ****         uart_SET_INCFG_TYPE(uart_RX_WAKE_SCL_MOSI_INTCFG_REG,
 704:Generated_Source\PSoC4/uart.c ****                                         uart_RX_WAKE_SCL_MOSI_INTCFG_TYPE_MASK,
 705:Generated_Source\PSoC4/uart.c ****                                         uart_RX_WAKE_SCL_MOSI_INTCFG_TYPE_POS,
 706:Generated_Source\PSoC4/uart.c ****                                         uart_INTCFG_TYPE_FALLING_EDGE);
 707:Generated_Source\PSoC4/uart.c ****     #else
 708:Generated_Source\PSoC4/uart.c ****     #endif /* (uart_RX_WAKE_SCL_MOSI_PIN) */
 709:Generated_Source\PSoC4/uart.c **** 
 710:Generated_Source\PSoC4/uart.c ****     #if (uart_TX_SDA_MISO_PIN)
 711:Generated_Source\PSoC4/uart.c ****         uart_SET_HSIOM_SEL(uart_TX_SDA_MISO_HSIOM_REG,
 712:Generated_Source\PSoC4/uart.c ****                                        uart_TX_SDA_MISO_HSIOM_MASK,
 713:Generated_Source\PSoC4/uart.c ****                                        uart_TX_SDA_MISO_HSIOM_POS,
 714:Generated_Source\PSoC4/uart.c ****                                         hsiomSel[uart_TX_SDA_MISO_PIN_INDEX]);
 715:Generated_Source\PSoC4/uart.c **** 
 716:Generated_Source\PSoC4/uart.c ****         uart_uart_tx_i2c_sda_spi_miso_SetDriveMode((uint8) pinsDm[uart_TX_SDA_MISO_PIN_INDEX]);
 717:Generated_Source\PSoC4/uart.c **** 
 718:Generated_Source\PSoC4/uart.c ****     #if (!uart_CY_SCBIP_V1)
 719:Generated_Source\PSoC4/uart.c ****         uart_SET_INP_DIS(uart_uart_tx_i2c_sda_spi_miso_INP_DIS,
 720:Generated_Source\PSoC4/uart.c ****                                      uart_uart_tx_i2c_sda_spi_miso_MASK,
 721:Generated_Source\PSoC4/uart.c ****                                     (0u != (pinsInBuf & uart_TX_SDA_MISO_PIN_MASK)));
 722:Generated_Source\PSoC4/uart.c ****     #endif /* (!uart_CY_SCBIP_V1) */
 723:Generated_Source\PSoC4/uart.c ****     #endif /* (uart_RX_SCL_MOSI_PIN) */
 724:Generated_Source\PSoC4/uart.c **** 
 725:Generated_Source\PSoC4/uart.c ****     #if (uart_SCLK_PIN)
 726:Generated_Source\PSoC4/uart.c ****         uart_SET_HSIOM_SEL(uart_SCLK_HSIOM_REG,
 727:Generated_Source\PSoC4/uart.c ****                                        uart_SCLK_HSIOM_MASK,
 728:Generated_Source\PSoC4/uart.c ****                                        uart_SCLK_HSIOM_POS,
 729:Generated_Source\PSoC4/uart.c ****                                        hsiomSel[uart_SCLK_PIN_INDEX]);
 730:Generated_Source\PSoC4/uart.c **** 
 731:Generated_Source\PSoC4/uart.c ****         uart_spi_sclk_SetDriveMode((uint8) pinsDm[uart_SCLK_PIN_INDEX]);
 732:Generated_Source\PSoC4/uart.c **** 
 733:Generated_Source\PSoC4/uart.c ****         uart_SET_INP_DIS(uart_spi_sclk_INP_DIS,
 734:Generated_Source\PSoC4/uart.c ****                                      uart_spi_sclk_MASK,
 735:Generated_Source\PSoC4/uart.c ****                                      (0u != (pinsInBuf & uart_SCLK_PIN_MASK)));
 736:Generated_Source\PSoC4/uart.c ****     #endif /* (uart_SCLK_PIN) */
 737:Generated_Source\PSoC4/uart.c **** 
 738:Generated_Source\PSoC4/uart.c ****     #if (uart_SS0_PIN)
 739:Generated_Source\PSoC4/uart.c ****         uart_SET_HSIOM_SEL(uart_SS0_HSIOM_REG,
 740:Generated_Source\PSoC4/uart.c ****                                        uart_SS0_HSIOM_MASK,
 741:Generated_Source\PSoC4/uart.c ****                                        uart_SS0_HSIOM_POS,
 742:Generated_Source\PSoC4/uart.c ****                                        hsiomSel[uart_SS0_PIN_INDEX]);
 743:Generated_Source\PSoC4/uart.c **** 
 744:Generated_Source\PSoC4/uart.c ****         uart_spi_ss0_SetDriveMode((uint8) pinsDm[uart_SS0_PIN_INDEX]);
 745:Generated_Source\PSoC4/uart.c **** 
 746:Generated_Source\PSoC4/uart.c ****         uart_SET_INP_DIS(uart_spi_ss0_INP_DIS,
 747:Generated_Source\PSoC4/uart.c ****                                      uart_spi_ss0_MASK,
 748:Generated_Source\PSoC4/uart.c ****                                      (0u != (pinsInBuf & uart_SS0_PIN_MASK)));
 749:Generated_Source\PSoC4/uart.c ****     #endif /* (uart_SS0_PIN) */
 750:Generated_Source\PSoC4/uart.c **** 
 751:Generated_Source\PSoC4/uart.c ****     #if (uart_SS1_PIN)
 752:Generated_Source\PSoC4/uart.c ****         uart_SET_HSIOM_SEL(uart_SS1_HSIOM_REG,
 753:Generated_Source\PSoC4/uart.c ****                                        uart_SS1_HSIOM_MASK,
 754:Generated_Source\PSoC4/uart.c ****                                        uart_SS1_HSIOM_POS,
 755:Generated_Source\PSoC4/uart.c ****                                        hsiomSel[uart_SS1_PIN_INDEX]);
 756:Generated_Source\PSoC4/uart.c **** 
 757:Generated_Source\PSoC4/uart.c ****         uart_spi_ss1_SetDriveMode((uint8) pinsDm[uart_SS1_PIN_INDEX]);
ARM GAS  C:\Users\Usuario\AppData\Local\Temp\ccBtn9hh.s 			page 20


 758:Generated_Source\PSoC4/uart.c **** 
 759:Generated_Source\PSoC4/uart.c ****         uart_SET_INP_DIS(uart_spi_ss1_INP_DIS,
 760:Generated_Source\PSoC4/uart.c ****                                      uart_spi_ss1_MASK,
 761:Generated_Source\PSoC4/uart.c ****                                      (0u != (pinsInBuf & uart_SS1_PIN_MASK)));
 762:Generated_Source\PSoC4/uart.c ****     #endif /* (uart_SS1_PIN) */
 763:Generated_Source\PSoC4/uart.c **** 
 764:Generated_Source\PSoC4/uart.c ****     #if (uart_SS2_PIN)
 765:Generated_Source\PSoC4/uart.c ****         uart_SET_HSIOM_SEL(uart_SS2_HSIOM_REG,
 766:Generated_Source\PSoC4/uart.c ****                                        uart_SS2_HSIOM_MASK,
 767:Generated_Source\PSoC4/uart.c ****                                        uart_SS2_HSIOM_POS,
 768:Generated_Source\PSoC4/uart.c ****                                        hsiomSel[uart_SS2_PIN_INDEX]);
 769:Generated_Source\PSoC4/uart.c **** 
 770:Generated_Source\PSoC4/uart.c ****         uart_spi_ss2_SetDriveMode((uint8) pinsDm[uart_SS2_PIN_INDEX]);
 771:Generated_Source\PSoC4/uart.c **** 
 772:Generated_Source\PSoC4/uart.c ****         uart_SET_INP_DIS(uart_spi_ss2_INP_DIS,
 773:Generated_Source\PSoC4/uart.c ****                                      uart_spi_ss2_MASK,
 774:Generated_Source\PSoC4/uart.c ****                                      (0u != (pinsInBuf & uart_SS2_PIN_MASK)));
 775:Generated_Source\PSoC4/uart.c ****     #endif /* (uart_SS2_PIN) */
 776:Generated_Source\PSoC4/uart.c **** 
 777:Generated_Source\PSoC4/uart.c ****     #if (uart_SS3_PIN)
 778:Generated_Source\PSoC4/uart.c ****         uart_SET_HSIOM_SEL(uart_SS3_HSIOM_REG,
 779:Generated_Source\PSoC4/uart.c ****                                        uart_SS3_HSIOM_MASK,
 780:Generated_Source\PSoC4/uart.c ****                                        uart_SS3_HSIOM_POS,
 781:Generated_Source\PSoC4/uart.c ****                                        hsiomSel[uart_SS3_PIN_INDEX]);
 782:Generated_Source\PSoC4/uart.c **** 
 783:Generated_Source\PSoC4/uart.c ****         uart_spi_ss3_SetDriveMode((uint8) pinsDm[uart_SS3_PIN_INDEX]);
 784:Generated_Source\PSoC4/uart.c **** 
 785:Generated_Source\PSoC4/uart.c ****         uart_SET_INP_DIS(uart_spi_ss3_INP_DIS,
 786:Generated_Source\PSoC4/uart.c ****                                      uart_spi_ss3_MASK,
 787:Generated_Source\PSoC4/uart.c ****                                      (0u != (pinsInBuf & uart_SS3_PIN_MASK)));
 788:Generated_Source\PSoC4/uart.c ****     #endif /* (uart_SS3_PIN) */
 789:Generated_Source\PSoC4/uart.c ****     }
 790:Generated_Source\PSoC4/uart.c **** 
 791:Generated_Source\PSoC4/uart.c **** #endif /* (uart_SCB_MODE_UNCONFIG_CONST_CFG) */
 792:Generated_Source\PSoC4/uart.c **** 
 793:Generated_Source\PSoC4/uart.c **** 
 794:Generated_Source\PSoC4/uart.c **** #if (uart_CY_SCBIP_V0 || uart_CY_SCBIP_V1)
 795:Generated_Source\PSoC4/uart.c ****     /*******************************************************************************
 796:Generated_Source\PSoC4/uart.c ****     * Function Name: uart_I2CSlaveNackGeneration
 797:Generated_Source\PSoC4/uart.c ****     ****************************************************************************//**
 798:Generated_Source\PSoC4/uart.c ****     *
 799:Generated_Source\PSoC4/uart.c ****     *  Sets command to generate NACK to the address or data.
 800:Generated_Source\PSoC4/uart.c ****     *
 801:Generated_Source\PSoC4/uart.c ****     *******************************************************************************/
 802:Generated_Source\PSoC4/uart.c ****     void uart_I2CSlaveNackGeneration(void)
 803:Generated_Source\PSoC4/uart.c ****     {
 297              		.loc 1 803 0
 298              		.cfi_startproc
 299              		@ args = 0, pretend = 0, frame = 0
 300              		@ frame_needed = 0, uses_anonymous_args = 0
 301              		@ link register save eliminated.
 804:Generated_Source\PSoC4/uart.c ****         /* Check for EC_AM toggle condition: EC_AM and clock stretching for address are enabled */
 805:Generated_Source\PSoC4/uart.c ****         if ((0u != (uart_CTRL_REG & uart_CTRL_EC_AM_MODE)) &&
 302              		.loc 1 805 0
 303 0000 0A4B     		ldr	r3, .L22
 304 0002 1B68     		ldr	r3, [r3]
 305 0004 DB05     		lsls	r3, r3, #23
ARM GAS  C:\Users\Usuario\AppData\Local\Temp\ccBtn9hh.s 			page 21


 306 0006 0DD5     		bpl	.L21
 806:Generated_Source\PSoC4/uart.c ****             (0u == (uart_I2C_CTRL_REG & uart_I2C_CTRL_S_NOT_READY_ADDR_NACK)))
 307              		.loc 1 806 0 discriminator 1
 308 0008 094B     		ldr	r3, .L22+4
 309 000a 1B68     		ldr	r3, [r3]
 805:Generated_Source\PSoC4/uart.c ****             (0u == (uart_I2C_CTRL_REG & uart_I2C_CTRL_S_NOT_READY_ADDR_NACK)))
 310              		.loc 1 805 0 discriminator 1
 311 000c 5B04     		lsls	r3, r3, #17
 312 000e 09D4     		bmi	.L21
 807:Generated_Source\PSoC4/uart.c ****         {
 808:Generated_Source\PSoC4/uart.c ****             /* Toggle EC_AM before NACK generation */
 809:Generated_Source\PSoC4/uart.c ****             uart_CTRL_REG &= ~uart_CTRL_EC_AM_MODE;
 313              		.loc 1 809 0
 314 0010 064B     		ldr	r3, .L22
 315 0012 1968     		ldr	r1, [r3]
 316 0014 074A     		ldr	r2, .L22+8
 317 0016 0A40     		ands	r2, r1
 318 0018 1A60     		str	r2, [r3]
 810:Generated_Source\PSoC4/uart.c ****             uart_CTRL_REG |=  uart_CTRL_EC_AM_MODE;
 319              		.loc 1 810 0
 320 001a 1A68     		ldr	r2, [r3]
 321 001c 8021     		movs	r1, #128
 322 001e 4900     		lsls	r1, r1, #1
 323 0020 0A43     		orrs	r2, r1
 324 0022 1A60     		str	r2, [r3]
 325              	.L21:
 811:Generated_Source\PSoC4/uart.c ****         }
 812:Generated_Source\PSoC4/uart.c **** 
 813:Generated_Source\PSoC4/uart.c ****         uart_I2C_SLAVE_CMD_REG = uart_I2C_SLAVE_CMD_S_NACK;
 326              		.loc 1 813 0
 327 0024 0222     		movs	r2, #2
 328 0026 044B     		ldr	r3, .L22+12
 329 0028 1A60     		str	r2, [r3]
 814:Generated_Source\PSoC4/uart.c ****     }
 330              		.loc 1 814 0
 331              		@ sp needed
 332 002a 7047     		bx	lr
 333              	.L23:
 334              		.align	2
 335              	.L22:
 336 002c 00000640 		.word	1074135040
 337 0030 60000640 		.word	1074135136
 338 0034 FFFEFFFF 		.word	-257
 339 0038 6C000640 		.word	1074135148
 340              		.cfi_endproc
 341              	.LFE9:
 342              		.size	uart_I2CSlaveNackGeneration, .-uart_I2CSlaveNackGeneration
 343              		.global	uart_IntrTxMask
 344              		.global	uart_initVar
 345              		.bss
 346              		.align	1
 347              		.set	.LANCHOR0,. + 0
 348              		.type	uart_initVar, %object
 349              		.size	uart_initVar, 1
 350              	uart_initVar:
 351 0000 00       		.space	1
 352 0001 00       		.space	1
ARM GAS  C:\Users\Usuario\AppData\Local\Temp\ccBtn9hh.s 			page 22


 353              		.type	uart_IntrTxMask, %object
 354              		.size	uart_IntrTxMask, 2
 355              	uart_IntrTxMask:
 356 0002 0000     		.space	2
 357              		.text
 358              	.Letext0:
 359              		.file 2 "Generated_Source\\PSoC4/cytypes.h"
 360              		.file 3 "Generated_Source\\PSoC4\\uart_SPI_UART_PVT.h"